(dp1
S'descripcion'
p2
(dp3
S'length'
p4
I100
sS'unique'
p5
I00
sS'sortable'
p6
I2
sS'sql'
p7
S'CHAR(100)'
p8
sS'notnull'
p9
I00
sS'type'
p10
S'string'
p11
ssS'activo'
p12
(dp13
g4
I512
sg5
I00
sg6
I4
sg7
S'CHAR(1) NOT NULL'
p14
sg9
I01
sg10
S'boolean'
p15
ssS'id'
p16
(dp17
g4
I512
sg5
I00
sg6
I1
sg7
S'INTEGER PRIMARY KEY AUTOINCREMENT'
p18
sg9
I00
sg10
g16
ssS'valor'
p19
(dp20
g4
I512
sg5
I00
sg6
I3
sg7
S'DOUBLE NOT NULL'
p21
sg9
I01
sg10
S'double'
p22
ss.