(dp1
S'output'
p2
S"<type 'exceptions.IndentationError'> unexpected indent (facturas.py, line 75)"
p3
sS'layer'
p4
S'/Users/Truki/Desarrollo/web2py/applications/rosan/controllers/facturas.py'
p5
sS'code'
p6
S'# coding: utf8\n# intente algo como\ndef index(): \n\tfacturas = dbRosan().select(dbRosan.factura.ALL, orderby=dbRosan.factura.fecha)\n\treturn dict(facturas=facturas)\n\n\n# Funcion nuevaFactura: INicio del creaci\xc3\xb3n de nueva factura.\ndef nuevaFactura():\n\t#buscamos el ultimo id de fcatura_temp\n\n\t#creamos la variable sesi\xc3\xb3n\n\tsession.facturaId = 1\n\treturn dict()\n\n# Funcion detalleFactura: donde se insertan las lineas de cada factura\ndef detalleFactura():\n\tinfo=""\n\t\n\t#recuperamos los datos de la factura temporal a partir de la variable de sesion que hemos pasado\n\tdatosFacturaTemp = dbRosan.factura_temp(session.facturaId)\n\tneto = datosFacturaTemp.neto \t\t\t\t\t\t\t\t\t#neto de la factura (sin IVA)\n\tdescuento = datosFacturaTemp.descuento\t\t\t\t\t\t\t#descuento de la factura (cantidad descontada)\n\tretencion = datosFacturaTemp.retencion \t\t\t\t\t\t\t#cantidad retenida deppendiendo del tipo_retencion\n\ttotalIVA = datosFacturaTemp.total_iva        \t\t\t\t\t#suma del IVA dependiendo del tipo_iva\n\ttotalBruto = datosFacturaTemp.total_bruto\t\t\t\t\t\t#suma de todo\n\n\tformConcepto = FORM((FIELDSET(DIV(LABEL("Descripci\xc3\xb3n", _class="control-label"), \n\t\t\t\t\t\t\t\t\t  DIV(TEXTAREA(_class="span7", _rows="5", _placeholder="Introduce la descripci\xc3\xb3n", _name="descripcion", requires=IS_NOT_EMPTY(error_message="Introduce una descripci\xc3\xb3n en el concepto")), _class="controls"), \n\t\t\t\t\t\t\t\t   _class="control-group")),\n\t\t\t\t\t\t\t\t  DIV(LABEL("Cantidad", _class="control-label"), \n\t\t\t\t\t\t\t\t\t  DIV(INPUT(_name="cantidad", _type="text", _class="input-large", _id="cantidad", _value="1", requires=IS_INT_IN_RANGE(1,999999, error_message="Introduce un valor entre 1 y 999999")), _class="controls"), \n\t\t\t\t\t\t\t\t   _class="control-group"),\n\t\t\t\t\t\t\t\t  DIV(LABEL("Precio", _class="control-label"),\n\t\t\t\t\t\t\t\t  \t  DIV(INPUT(_name="precio", _type="text", _class="input-large", _id="precio", requires=IS_FLOAT_IN_RANGE(0,9999999, dot=".", error_message="Introduce un valor entre 0 y 9999999, el signo de los decimales es el .")), _class="controls"),\n\t\t\t\t\t\t\t\t   _class="control-group"),\n\t\t\t\t\t\t\t\t  DIV(DIV(INPUT(_name="insertarConcepto", _type="submit", _class="btn btn-primary", _id="insertarConcepto", _value="Insertar"), _class="controls"), \n\t\t\t\t\t\t\t\t   _class="control-group")), \n\t\t\t\t\t\t_class="form-horizontal", _name="nuevoConcepto", _action=URL(\'/detalleFactura\'))\n\tif formConcepto.accepts(request, session):\n\t\tinfo="Concepto insertado"\n\t\t#Se inserta la lineaa en factura_detalle_temp\n\t\tdbRosan.factura_detalle_temp.insert(id_factura=1, id_articulo=0, \n\t\t\t\t\t\t\t\t\t\t\tarticulo=formConcepto.vars.descripcion, precio=formConcepto.vars.precio, cantidad=formConcepto.vars.cantidad, \n\t\t\t\t\t\t\t\t\t\t\ttotal_articulo=formConcepto.vars.precio * formConcepto.vars.cantidad)\n\t\t#se actualizan los totales en factura_temp\n\t\ttotalArticulo = formConcepto.vars.precio * formConcepto.vars.cantidad\n\t\tneto = (dbRosan.factura_temp.neto + totalArticulo)\n\t\tretencion = (dbRosan.factura_temp.tipo_retencion/100) * neto\n\t\ttotalIVA = ((dbRosan.factura_temp.tipo_iva/100) * neto)\n\t\ttotalBruto = ((neto - retencion) + totalIVA)\n\n\t\tdbRosan(dbRosan.factura_temp.id == session.facturaId).update(neto = neto, descuento=0, retencion = retencion, total_iva = totalIVA, total_bruto = totalBruto)\n\n\telif formConcepto.errors:\n\t\tinfo="Concepto err\xc3\xb3neo"\n\telse:\n\t\tinfo="Rellena el formulario"\n\n\tformArticulo = FORM()\n\n\tlineas = dbRosan().select(dbRosan.factura_detalle_temp.ALL)\t\n\treturn dict(info=info, formConcepto=formConcepto, lineas=lineas, formArticulo=formArticulo, neto=dbRosan.factura_temp(session.facturaId).neto, descuento=dbRosan.factura_temp(session.facturaId).descuento, retencion=dbRosan.factura_temp(session.facturaId).retencion, totalIVA = dbRosan.factura_temp(session.facturaId).total_iva, totalBruto = dbRosan.factura_temp(session.facturaId).total_bruto)\n\n#eliminaci\xc3\xb3n de la linea del detalle de la factura desde bot\xc3\xb3n elimanar de la tabla con el detalle temporal.\ndef eliminarLineaTemp():\n    #query para encontrar la linea se pasa como argumento el idLinea\n    lineaEliminada = dbRosan.factura_detalle_temp(request.args[0]) or redirect(URL(\'error\'))\n    \n    #borramos la linea\n    dbRosan(dbRosan.factura_detalle_temp.id==lineaEliminada.id).delete()\n    \n    #Actualizamos los valores Neto, Retenci\xc3\xb3n,...\n    datosFacturaTemp = dbRosan.factura_temp(session.facturaId)\n\tneto = datosFacturaTemp.neto - lineaEliminada.total_articulo\t\t\t\t\t\t\t\t\t\t\t\t\t\t\t\t\t\t\t\n\tdescuento = datosFacturaTemp.descuento\t\t\t\t\t\t\t\t\t\t\t\t\t\t\t\t\t\t\t\t\t\t\t\t\t\t\n\tretencion = datosFacturaTemp.retencion - (lineaEliminada.total_articulo*(datosFacturaTemp.tipo_retencion/100))\t\t\t\t\t\t\t\n\ttotalIVA = datosFacturaTemp.total_iva  - (lineaEliminada.total_articulo*(datosFacturaTemp.tipo_iva/100))      \t\t\t\t\t\n\ttotalBruto = datosFacturaTemp.total_bruto - (lineaEliminada.total_articulo*(datosFacturaTemp.tipo_iva/100)) - lineaEliminada.total_articulo\n\tdbRosan(dbRosan.factura_temp.id == session.facturaId).update(neto = neto, descuento=0, retencion = retencion, total_iva = totalIVA, total_bruto = totalBruto)\n\n\n\nresponse._vars=response._caller(detalleFactura)\n'
p7
sS'snapshot'
p8
(dp9
S'exception'
p10
(dp11
S'__getslice__'
p12
S"<method-wrapper '__getslice__' of exceptions.IndentationError object>"
p13
sS'text'
p14
S"'\\tneto = datosFacturaTemp.neto - lineaEliminada.total_articulo\\t\\t\\t\\t\\t\\t\\t\\t\\t\\t\\t\\t\\t\\t\\t\\t\\t\\t\\t\\n'"
p15
sS'__str__'
p16
S"<method-wrapper '__str__' of exceptions.IndentationError object>"
p17
sS'__reduce__'
p18
S'<built-in method __reduce__ of exceptions.IndentationError object>'
p19
sS'__dict__'
p20
S'{}'
p21
sS'__sizeof__'
p22
S'<built-in method __sizeof__ of exceptions.IndentationError object>'
p23
sS'__init__'
p24
S"<method-wrapper '__init__' of exceptions.IndentationError object>"
p25
sS'__setattr__'
p26
S"<method-wrapper '__setattr__' of exceptions.IndentationError object>"
p27
sS'__reduce_ex__'
p28
S'<built-in method __reduce_ex__ of exceptions.IndentationError object>'
p29
sS'__new__'
p30
S'<built-in method __new__ of type object>'
p31
sS'__format__'
p32
S'<built-in method __format__ of exceptions.IndentationError object>'
p33
sS'__class__'
p34
S"<type 'exceptions.IndentationError'>"
p35
sS'filename'
p36
S"'/Users/Truki/Desarrollo/web2py/applications/rosan/controllers/facturas.py'"
p37
sS'lineno'
p38
S'75'
p39
sS'msg'
p40
S"'unexpected indent'"
p41
sS'__doc__'
p42
S"'Improper indentation.'"
p43
sS'__getitem__'
p44
S"<method-wrapper '__getitem__' of exceptions.IndentationError object>"
p45
sS'__setstate__'
p46
S'<built-in method __setstate__ of exceptions.IndentationError object>'
p47
sS'__getattribute__'
p48
S"<method-wrapper '__getattribute__' of exceptions.IndentationError object>"
p49
sS'print_file_and_line'
p50
S'None'
p51
sS'args'
p52
S"('unexpected indent', ('/Users/Truki/Desarrollo/web2py/applications/rosan/controllers/facturas.py', 75, 1, '\\tneto = datosFacturaTemp.neto - lineaEliminada.total_articulo\\t\\t\\t\\t\\t\\t\\t\\t\\t\\t\\t\\t\\t\\t\\t\\t\\t\\t\\t\\n'))"
p53
sS'__subclasshook__'
p54
S'<built-in method __subclasshook__ of type object>'
p55
sS'offset'
p56
S'1'
sS'__unicode__'
p57
S'<built-in method __unicode__ of exceptions.IndentationError object>'
p58
sS'__delattr__'
p59
S"<method-wrapper '__delattr__' of exceptions.IndentationError object>"
p60
sS'__repr__'
p61
S"<method-wrapper '__repr__' of exceptions.IndentationError object>"
p62
sS'__hash__'
p63
S"<method-wrapper '__hash__' of exceptions.IndentationError object>"
p64
ssS'evalue'
p65
S'unexpected indent (facturas.py, line 75)'
p66
sS'request'
p67
ccopy_reg
_reconstructor
p68
(cgluon.html
BEAUTIFY
p69
c__builtin__
object
p70
NtRp71
(dp72
S'attributes'
p73
(dp74
sS'components'
p75
(lp76
g68
(cgluon.html
TABLE
p77
g70
NtRp78
(dp79
g73
(dp80
S'level'
p81
I5
ssS'parent'
p82
Nsg75
(lp83
g68
(cgluon.html
TR
p84
g70
NtRp85
(dp86
g73
(dp87
sg82
g78
sg75
(lp88
g68
(cgluon.html
TD
p89
g70
NtRp90
(dp91
g73
(dp92
S'_style'
p93
S'font-weight:bold;vertical-align:top'
p94
ssg82
g85
sg75
(lp95
S'ajax'
p96
asbag68
(g89
g70
NtRp97
(dp98
g73
(dp99
S'_valign'
p100
S'top'
p101
ssg82
g85
sg75
(lp102
S':'
asbag68
(g89
g70
NtRp103
(dp104
g73
(dp105
sg82
g85
sg75
(lp106
g68
(g69
g70
NtRp107
(dp108
g73
(dp109
g81
I5
ssg82
g103
sg75
(lp110
S'False'
p111
asbasbasbag68
(g84
g70
NtRp112
(dp113
g73
(dp114
sg82
g78
sg75
(lp115
g68
(g89
g70
NtRp116
(dp117
g73
(dp118
g93
g94
ssg82
g112
sg75
(lp119
S'application'
p120
asbag68
(g89
g70
NtRp121
(dp122
g73
(dp123
g100
g101
ssg82
g112
sg75
(lp124
S':'
asbag68
(g89
g70
NtRp125
(dp126
g73
(dp127
sg82
g112
sg75
(lp128
g68
(g69
g70
NtRp129
(dp130
g73
(dp131
g81
I5
ssg82
g125
sg75
(lp132
S'rosan'
p133
asbasbasbag68
(g84
g70
NtRp134
(dp135
g73
(dp136
sg82
g78
sg75
(lp137
g68
(g89
g70
NtRp138
(dp139
g73
(dp140
g93
g94
ssg82
g134
sg75
(lp141
g52
asbag68
(g89
g70
NtRp142
(dp143
g73
(dp144
g100
g101
ssg82
g134
sg75
(lp145
S':'
asbag68
(g89
g70
NtRp146
(dp147
g73
(dp148
sg82
g134
sg75
(lp149
g68
(g69
g70
NtRp150
(dp151
g73
(dp152
g81
I5
ssg82
g146
sg75
(lp153
g68
(g77
g70
NtRp154
(dp155
g73
(dp156
g81
I4
ssg82
Nsg75
(lp157
sbasbasbasbag68
(g84
g70
NtRp158
(dp159
g73
(dp160
sg82
g78
sg75
(lp161
g68
(g89
g70
NtRp162
(dp163
g73
(dp164
g93
g94
ssg82
g158
sg75
(lp165
S'body'
p166
asbag68
(g89
g70
NtRp167
(dp168
g73
(dp169
g100
g101
ssg82
g158
sg75
(lp170
S':'
asbag68
(g89
g70
NtRp171
(dp172
g73
(dp173
sg82
g158
sg75
(lp174
g68
(g69
g70
NtRp175
(dp176
g73
(dp177
g81
I5
ssg82
g171
sg75
(lp178
S"<open file '<fdopen>', mode 'w+b' at 0x10a6eb660>"
p179
asbasbasbag68
(g84
g70
NtRp180
(dp181
g73
(dp182
sg82
g78
sg75
(lp183
g68
(g89
g70
NtRp184
(dp185
g73
(dp186
g93
g94
ssg82
g180
sg75
(lp187
S'cid'
p188
asbag68
(g89
g70
NtRp189
(dp190
g73
(dp191
g100
g101
ssg82
g180
sg75
(lp192
S':'
asbag68
(g89
g70
NtRp193
(dp194
g73
(dp195
sg82
g180
sg75
(lp196
g68
(g69
g70
NtRp197
(dp198
g73
(dp199
g81
I5
ssg82
g193
sg75
(lp200
S'None'
p201
asbasbasbag68
(g84
g70
NtRp202
(dp203
g73
(dp204
sg82
g78
sg75
(lp205
g68
(g89
g70
NtRp206
(dp207
g73
(dp208
g93
g94
ssg82
g202
sg75
(lp209
S'client'
p210
asbag68
(g89
g70
NtRp211
(dp212
g73
(dp213
g100
g101
ssg82
g202
sg75
(lp214
S':'
asbag68
(g89
g70
NtRp215
(dp216
g73
(dp217
sg82
g202
sg75
(lp218
g68
(g69
g70
NtRp219
(dp220
g73
(dp221
g81
I5
ssg82
g215
sg75
(lp222
S'127.0.0.1'
p223
asbasbasbag68
(g84
g70
NtRp224
(dp225
g73
(dp226
sg82
g78
sg75
(lp227
g68
(g89
g70
NtRp228
(dp229
g73
(dp230
g93
g94
ssg82
g224
sg75
(lp231
S'controller'
p232
asbag68
(g89
g70
NtRp233
(dp234
g73
(dp235
g100
g101
ssg82
g224
sg75
(lp236
S':'
asbag68
(g89
g70
NtRp237
(dp238
g73
(dp239
sg82
g224
sg75
(lp240
g68
(g69
g70
NtRp241
(dp242
g73
(dp243
g81
I5
ssg82
g237
sg75
(lp244
S'facturas'
p245
asbasbasbag68
(g84
g70
NtRp246
(dp247
g73
(dp248
sg82
g78
sg75
(lp249
g68
(g89
g70
NtRp250
(dp251
g73
(dp252
g93
g94
ssg82
g246
sg75
(lp253
S'cookies'
p254
asbag68
(g89
g70
NtRp255
(dp256
g73
(dp257
g100
g101
ssg82
g246
sg75
(lp258
S':'
asbag68
(g89
g70
NtRp259
(dp260
g73
(dp261
sg82
g246
sg75
(lp262
g68
(g69
g70
NtRp263
(dp264
g73
(dp265
g81
I5
ssg82
g259
sg75
(lp266
g68
(g77
g70
NtRp267
(dp268
g73
(dp269
g81
I4
ssg82
Nsg75
(lp270
g68
(g84
g70
NtRp271
(dp272
g73
(dp273
sg82
g267
sg75
(lp274
g68
(g89
g70
NtRp275
(dp276
g73
(dp277
g93
g94
ssg82
g271
sg75
(lp278
S'session_id_admin'
p279
asbag68
(g89
g70
NtRp280
(dp281
g73
(dp282
g100
g101
ssg82
g271
sg75
(lp283
S':'
asbag68
(g89
g70
NtRp284
(dp285
g73
(dp286
sg82
g271
sg75
(lp287
g68
(g69
g70
NtRp288
(dp289
g73
(dp290
g81
I4
ssg82
g284
sg75
(lp291
S'127.0.0.1-f0bf2f80-d47a-4c63-a82e-44a845bfe7e3'
p292
ag68
(g77
g70
NtRp293
(dp294
g73
(dp295
g81
I3
ssg82
Nsg75
(lp296
g68
(g84
g70
NtRp297
(dp298
g73
(dp299
sg82
g293
sg75
(lp300
g68
(g89
g70
NtRp301
(dp302
g73
(dp303
g93
g94
ssg82
g297
sg75
(lp304
S'comment'
p305
asbag68
(g89
g70
NtRp306
(dp307
g73
(dp308
g100
g101
ssg82
g297
sg75
(lp309
S':'
asbag68
(g89
g70
NtRp310
(dp311
g73
(dp312
sg82
g297
sg75
(lp313
g68
(g69
g70
NtRp314
(dp315
g73
(dp316
g81
I3
ssg82
g310
sg75
(lp317
S''
asbasbasbag68
(g84
g70
NtRp318
(dp319
g73
(dp320
sg82
g293
sg75
(lp321
g68
(g89
g70
NtRp322
(dp323
g73
(dp324
g93
g94
ssg82
g318
sg75
(lp325
S'domain'
p326
asbag68
(g89
g70
NtRp327
(dp328
g73
(dp329
g100
g101
ssg82
g318
sg75
(lp330
S':'
asbag68
(g89
g70
NtRp331
(dp332
g73
(dp333
sg82
g318
sg75
(lp334
g68
(g69
g70
NtRp335
(dp336
g73
(dp337
g81
I3
ssg82
g331
sg75
(lp338
S''
asbasbasbag68
(g84
g70
NtRp339
(dp340
g73
(dp341
sg82
g293
sg75
(lp342
g68
(g89
g70
NtRp343
(dp344
g73
(dp345
g93
g94
ssg82
g339
sg75
(lp346
S'expires'
p347
asbag68
(g89
g70
NtRp348
(dp349
g73
(dp350
g100
g101
ssg82
g339
sg75
(lp351
S':'
asbag68
(g89
g70
NtRp352
(dp353
g73
(dp354
sg82
g339
sg75
(lp355
g68
(g69
g70
NtRp356
(dp357
g73
(dp358
g81
I3
ssg82
g352
sg75
(lp359
S''
asbasbasbag68
(g84
g70
NtRp360
(dp361
g73
(dp362
sg82
g293
sg75
(lp363
g68
(g89
g70
NtRp364
(dp365
g73
(dp366
g93
g94
ssg82
g360
sg75
(lp367
S'httponly'
p368
asbag68
(g89
g70
NtRp369
(dp370
g73
(dp371
g100
g101
ssg82
g360
sg75
(lp372
S':'
asbag68
(g89
g70
NtRp373
(dp374
g73
(dp375
sg82
g360
sg75
(lp376
g68
(g69
g70
NtRp377
(dp378
g73
(dp379
g81
I3
ssg82
g373
sg75
(lp380
S''
asbasbasbag68
(g84
g70
NtRp381
(dp382
g73
(dp383
sg82
g293
sg75
(lp384
g68
(g89
g70
NtRp385
(dp386
g73
(dp387
g93
g94
ssg82
g381
sg75
(lp388
S'max-age'
p389
asbag68
(g89
g70
NtRp390
(dp391
g73
(dp392
g100
g101
ssg82
g381
sg75
(lp393
S':'
asbag68
(g89
g70
NtRp394
(dp395
g73
(dp396
sg82
g381
sg75
(lp397
g68
(g69
g70
NtRp398
(dp399
g73
(dp400
g81
I3
ssg82
g394
sg75
(lp401
S''
asbasbasbag68
(g84
g70
NtRp402
(dp403
g73
(dp404
sg82
g293
sg75
(lp405
g68
(g89
g70
NtRp406
(dp407
g73
(dp408
g93
g94
ssg82
g402
sg75
(lp409
S'path'
p410
asbag68
(g89
g70
NtRp411
(dp412
g73
(dp413
g100
g101
ssg82
g402
sg75
(lp414
S':'
asbag68
(g89
g70
NtRp415
(dp416
g73
(dp417
sg82
g402
sg75
(lp418
g68
(g69
g70
NtRp419
(dp420
g73
(dp421
g81
I3
ssg82
g415
sg75
(lp422
S''
asbasbasbag68
(g84
g70
NtRp423
(dp424
g73
(dp425
sg82
g293
sg75
(lp426
g68
(g89
g70
NtRp427
(dp428
g73
(dp429
g93
g94
ssg82
g423
sg75
(lp430
S'secure'
p431
asbag68
(g89
g70
NtRp432
(dp433
g73
(dp434
g100
g101
ssg82
g423
sg75
(lp435
S':'
asbag68
(g89
g70
NtRp436
(dp437
g73
(dp438
sg82
g423
sg75
(lp439
g68
(g69
g70
NtRp440
(dp441
g73
(dp442
g81
I3
ssg82
g436
sg75
(lp443
S''
asbasbasbag68
(g84
g70
NtRp444
(dp445
g73
(dp446
sg82
g293
sg75
(lp447
g68
(g89
g70
NtRp448
(dp449
g73
(dp450
g93
g94
ssg82
g444
sg75
(lp451
S'version'
p452
asbag68
(g89
g70
NtRp453
(dp454
g73
(dp455
g100
g101
ssg82
g444
sg75
(lp456
S':'
asbag68
(g89
g70
NtRp457
(dp458
g73
(dp459
sg82
g444
sg75
(lp460
g68
(g69
g70
NtRp461
(dp462
g73
(dp463
g81
I3
ssg82
g457
sg75
(lp464
S''
asbasbasbasbasbasbasbag68
(g84
g70
NtRp465
(dp466
g73
(dp467
sg82
g267
sg75
(lp468
g68
(g89
g70
NtRp469
(dp470
g73
(dp471
g93
g94
ssg82
g465
sg75
(lp472
S'session_id_rosan'
p473
asbag68
(g89
g70
NtRp474
(dp475
g73
(dp476
g100
g101
ssg82
g465
sg75
(lp477
S':'
asbag68
(g89
g70
NtRp478
(dp479
g73
(dp480
sg82
g465
sg75
(lp481
g68
(g69
g70
NtRp482
(dp483
g73
(dp484
g81
I4
ssg82
g478
sg75
(lp485
S'127.0.0.1-e44cb93f-049c-40c0-ade5-b5e99985895d'
p486
ag68
(g77
g70
NtRp487
(dp488
g73
(dp489
g81
I3
ssg82
Nsg75
(lp490
g68
(g84
g70
NtRp491
(dp492
g73
(dp493
sg82
g487
sg75
(lp494
g68
(g89
g70
NtRp495
(dp496
g73
(dp497
g93
g94
ssg82
g491
sg75
(lp498
g305
asbag68
(g89
g70
NtRp499
(dp500
g73
(dp501
g100
g101
ssg82
g491
sg75
(lp502
S':'
asbag68
(g89
g70
NtRp503
(dp504
g73
(dp505
sg82
g491
sg75
(lp506
g68
(g69
g70
NtRp507
(dp508
g73
(dp509
g81
I3
ssg82
g503
sg75
(lp510
S''
asbasbasbag68
(g84
g70
NtRp511
(dp512
g73
(dp513
sg82
g487
sg75
(lp514
g68
(g89
g70
NtRp515
(dp516
g73
(dp517
g93
g94
ssg82
g511
sg75
(lp518
g326
asbag68
(g89
g70
NtRp519
(dp520
g73
(dp521
g100
g101
ssg82
g511
sg75
(lp522
S':'
asbag68
(g89
g70
NtRp523
(dp524
g73
(dp525
sg82
g511
sg75
(lp526
g68
(g69
g70
NtRp527
(dp528
g73
(dp529
g81
I3
ssg82
g523
sg75
(lp530
S''
asbasbasbag68
(g84
g70
NtRp531
(dp532
g73
(dp533
sg82
g487
sg75
(lp534
g68
(g89
g70
NtRp535
(dp536
g73
(dp537
g93
g94
ssg82
g531
sg75
(lp538
g347
asbag68
(g89
g70
NtRp539
(dp540
g73
(dp541
g100
g101
ssg82
g531
sg75
(lp542
S':'
asbag68
(g89
g70
NtRp543
(dp544
g73
(dp545
sg82
g531
sg75
(lp546
g68
(g69
g70
NtRp547
(dp548
g73
(dp549
g81
I3
ssg82
g543
sg75
(lp550
S''
asbasbasbag68
(g84
g70
NtRp551
(dp552
g73
(dp553
sg82
g487
sg75
(lp554
g68
(g89
g70
NtRp555
(dp556
g73
(dp557
g93
g94
ssg82
g551
sg75
(lp558
g368
asbag68
(g89
g70
NtRp559
(dp560
g73
(dp561
g100
g101
ssg82
g551
sg75
(lp562
S':'
asbag68
(g89
g70
NtRp563
(dp564
g73
(dp565
sg82
g551
sg75
(lp566
g68
(g69
g70
NtRp567
(dp568
g73
(dp569
g81
I3
ssg82
g563
sg75
(lp570
S''
asbasbasbag68
(g84
g70
NtRp571
(dp572
g73
(dp573
sg82
g487
sg75
(lp574
g68
(g89
g70
NtRp575
(dp576
g73
(dp577
g93
g94
ssg82
g571
sg75
(lp578
g389
asbag68
(g89
g70
NtRp579
(dp580
g73
(dp581
g100
g101
ssg82
g571
sg75
(lp582
S':'
asbag68
(g89
g70
NtRp583
(dp584
g73
(dp585
sg82
g571
sg75
(lp586
g68
(g69
g70
NtRp587
(dp588
g73
(dp589
g81
I3
ssg82
g583
sg75
(lp590
S''
asbasbasbag68
(g84
g70
NtRp591
(dp592
g73
(dp593
sg82
g487
sg75
(lp594
g68
(g89
g70
NtRp595
(dp596
g73
(dp597
g93
g94
ssg82
g591
sg75
(lp598
g410
asbag68
(g89
g70
NtRp599
(dp600
g73
(dp601
g100
g101
ssg82
g591
sg75
(lp602
S':'
asbag68
(g89
g70
NtRp603
(dp604
g73
(dp605
sg82
g591
sg75
(lp606
g68
(g69
g70
NtRp607
(dp608
g73
(dp609
g81
I3
ssg82
g603
sg75
(lp610
S''
asbasbasbag68
(g84
g70
NtRp611
(dp612
g73
(dp613
sg82
g487
sg75
(lp614
g68
(g89
g70
NtRp615
(dp616
g73
(dp617
g93
g94
ssg82
g611
sg75
(lp618
g431
asbag68
(g89
g70
NtRp619
(dp620
g73
(dp621
g100
g101
ssg82
g611
sg75
(lp622
S':'
asbag68
(g89
g70
NtRp623
(dp624
g73
(dp625
sg82
g611
sg75
(lp626
g68
(g69
g70
NtRp627
(dp628
g73
(dp629
g81
I3
ssg82
g623
sg75
(lp630
S''
asbasbasbag68
(g84
g70
NtRp631
(dp632
g73
(dp633
sg82
g487
sg75
(lp634
g68
(g89
g70
NtRp635
(dp636
g73
(dp637
g93
g94
ssg82
g631
sg75
(lp638
g452
asbag68
(g89
g70
NtRp639
(dp640
g73
(dp641
g100
g101
ssg82
g631
sg75
(lp642
S':'
asbag68
(g89
g70
NtRp643
(dp644
g73
(dp645
sg82
g631
sg75
(lp646
g68
(g69
g70
NtRp647
(dp648
g73
(dp649
g81
I3
ssg82
g643
sg75
(lp650
S''
asbasbasbasbasbasbasbag68
(g84
g70
NtRp651
(dp652
g73
(dp653
sg82
g267
sg75
(lp654
g68
(g89
g70
NtRp655
(dp656
g73
(dp657
g93
g94
ssg82
g651
sg75
(lp658
S'session_id_welcome'
p659
asbag68
(g89
g70
NtRp660
(dp661
g73
(dp662
g100
g101
ssg82
g651
sg75
(lp663
S':'
asbag68
(g89
g70
NtRp664
(dp665
g73
(dp666
sg82
g651
sg75
(lp667
g68
(g69
g70
NtRp668
(dp669
g73
(dp670
g81
I4
ssg82
g664
sg75
(lp671
S'127.0.0.1-70fac521-7f5c-422f-a856-bf00b2216810'
p672
ag68
(g77
g70
NtRp673
(dp674
g73
(dp675
g81
I3
ssg82
Nsg75
(lp676
g68
(g84
g70
NtRp677
(dp678
g73
(dp679
sg82
g673
sg75
(lp680
g68
(g89
g70
NtRp681
(dp682
g73
(dp683
g93
g94
ssg82
g677
sg75
(lp684
g305
asbag68
(g89
g70
NtRp685
(dp686
g73
(dp687
g100
g101
ssg82
g677
sg75
(lp688
S':'
asbag68
(g89
g70
NtRp689
(dp690
g73
(dp691
sg82
g677
sg75
(lp692
g68
(g69
g70
NtRp693
(dp694
g73
(dp695
g81
I3
ssg82
g689
sg75
(lp696
S''
asbasbasbag68
(g84
g70
NtRp697
(dp698
g73
(dp699
sg82
g673
sg75
(lp700
g68
(g89
g70
NtRp701
(dp702
g73
(dp703
g93
g94
ssg82
g697
sg75
(lp704
g326
asbag68
(g89
g70
NtRp705
(dp706
g73
(dp707
g100
g101
ssg82
g697
sg75
(lp708
S':'
asbag68
(g89
g70
NtRp709
(dp710
g73
(dp711
sg82
g697
sg75
(lp712
g68
(g69
g70
NtRp713
(dp714
g73
(dp715
g81
I3
ssg82
g709
sg75
(lp716
S''
asbasbasbag68
(g84
g70
NtRp717
(dp718
g73
(dp719
sg82
g673
sg75
(lp720
g68
(g89
g70
NtRp721
(dp722
g73
(dp723
g93
g94
ssg82
g717
sg75
(lp724
g347
asbag68
(g89
g70
NtRp725
(dp726
g73
(dp727
g100
g101
ssg82
g717
sg75
(lp728
S':'
asbag68
(g89
g70
NtRp729
(dp730
g73
(dp731
sg82
g717
sg75
(lp732
g68
(g69
g70
NtRp733
(dp734
g73
(dp735
g81
I3
ssg82
g729
sg75
(lp736
S''
asbasbasbag68
(g84
g70
NtRp737
(dp738
g73
(dp739
sg82
g673
sg75
(lp740
g68
(g89
g70
NtRp741
(dp742
g73
(dp743
g93
g94
ssg82
g737
sg75
(lp744
g368
asbag68
(g89
g70
NtRp745
(dp746
g73
(dp747
g100
g101
ssg82
g737
sg75
(lp748
S':'
asbag68
(g89
g70
NtRp749
(dp750
g73
(dp751
sg82
g737
sg75
(lp752
g68
(g69
g70
NtRp753
(dp754
g73
(dp755
g81
I3
ssg82
g749
sg75
(lp756
S''
asbasbasbag68
(g84
g70
NtRp757
(dp758
g73
(dp759
sg82
g673
sg75
(lp760
g68
(g89
g70
NtRp761
(dp762
g73
(dp763
g93
g94
ssg82
g757
sg75
(lp764
g389
asbag68
(g89
g70
NtRp765
(dp766
g73
(dp767
g100
g101
ssg82
g757
sg75
(lp768
S':'
asbag68
(g89
g70
NtRp769
(dp770
g73
(dp771
sg82
g757
sg75
(lp772
g68
(g69
g70
NtRp773
(dp774
g73
(dp775
g81
I3
ssg82
g769
sg75
(lp776
S''
asbasbasbag68
(g84
g70
NtRp777
(dp778
g73
(dp779
sg82
g673
sg75
(lp780
g68
(g89
g70
NtRp781
(dp782
g73
(dp783
g93
g94
ssg82
g777
sg75
(lp784
g410
asbag68
(g89
g70
NtRp785
(dp786
g73
(dp787
g100
g101
ssg82
g777
sg75
(lp788
S':'
asbag68
(g89
g70
NtRp789
(dp790
g73
(dp791
sg82
g777
sg75
(lp792
g68
(g69
g70
NtRp793
(dp794
g73
(dp795
g81
I3
ssg82
g789
sg75
(lp796
S''
asbasbasbag68
(g84
g70
NtRp797
(dp798
g73
(dp799
sg82
g673
sg75
(lp800
g68
(g89
g70
NtRp801
(dp802
g73
(dp803
g93
g94
ssg82
g797
sg75
(lp804
g431
asbag68
(g89
g70
NtRp805
(dp806
g73
(dp807
g100
g101
ssg82
g797
sg75
(lp808
S':'
asbag68
(g89
g70
NtRp809
(dp810
g73
(dp811
sg82
g797
sg75
(lp812
g68
(g69
g70
NtRp813
(dp814
g73
(dp815
g81
I3
ssg82
g809
sg75
(lp816
S''
asbasbasbag68
(g84
g70
NtRp817
(dp818
g73
(dp819
sg82
g673
sg75
(lp820
g68
(g89
g70
NtRp821
(dp822
g73
(dp823
g93
g94
ssg82
g817
sg75
(lp824
g452
asbag68
(g89
g70
NtRp825
(dp826
g73
(dp827
g100
g101
ssg82
g817
sg75
(lp828
S':'
asbag68
(g89
g70
NtRp829
(dp830
g73
(dp831
sg82
g817
sg75
(lp832
g68
(g69
g70
NtRp833
(dp834
g73
(dp835
g81
I3
ssg82
g829
sg75
(lp836
S''
asbasbasbasbasbasbasbasbasbasbasbag68
(g84
g70
NtRp837
(dp838
g73
(dp839
sg82
g78
sg75
(lp840
g68
(g89
g70
NtRp841
(dp842
g73
(dp843
g93
g94
ssg82
g837
sg75
(lp844
S'env'
p845
asbag68
(g89
g70
NtRp846
(dp847
g73
(dp848
g100
g101
ssg82
g837
sg75
(lp849
S':'
asbag68
(g89
g70
NtRp850
(dp851
g73
(dp852
sg82
g837
sg75
(lp853
g68
(g69
g70
NtRp854
(dp855
g73
(dp856
g81
I5
ssg82
g850
sg75
(lp857
g68
(g77
g70
NtRp858
(dp859
g73
(dp860
g81
I4
ssg82
Nsg75
(lp861
g68
(g84
g70
NtRp862
(dp863
g73
(dp864
sg82
g858
sg75
(lp865
g68
(g89
g70
NtRp866
(dp867
g73
(dp868
g93
g94
ssg82
g862
sg75
(lp869
S'app_folders'
p870
asbag68
(g89
g70
NtRp871
(dp872
g73
(dp873
g100
g101
ssg82
g862
sg75
(lp874
S':'
asbag68
(g89
g70
NtRp875
(dp876
g73
(dp877
sg82
g862
sg75
(lp878
g68
(g69
g70
NtRp879
(dp880
g73
(dp881
g81
I4
ssg82
g875
sg75
(lp882
S"set(['/Users/Truki/Desarrollo/web2py/applications/welcome/', '/Users/Truki/Desarrollo/web2py/applications/rosan/', '/Users/Truki/Desarrollo/web2py/applications/admin/'])"
p883
asbasbasbag68
(g84
g70
NtRp884
(dp885
g73
(dp886
sg82
g858
sg75
(lp887
g68
(g89
g70
NtRp888
(dp889
g73
(dp890
g93
g94
ssg82
g884
sg75
(lp891
S'applications_parent'
p892
asbag68
(g89
g70
NtRp893
(dp894
g73
(dp895
g100
g101
ssg82
g884
sg75
(lp896
S':'
asbag68
(g89
g70
NtRp897
(dp898
g73
(dp899
sg82
g884
sg75
(lp900
g68
(g69
g70
NtRp901
(dp902
g73
(dp903
g81
I4
ssg82
g897
sg75
(lp904
S'/Users/Truki/Desarrollo/web2py'
p905
asbasbasbag68
(g84
g70
NtRp906
(dp907
g73
(dp908
sg82
g858
sg75
(lp909
g68
(g89
g70
NtRp910
(dp911
g73
(dp912
g93
g94
ssg82
g906
sg75
(lp913
S'cmd_args'
p914
asbag68
(g89
g70
NtRp915
(dp916
g73
(dp917
g100
g101
ssg82
g906
sg75
(lp918
S':'
asbag68
(g89
g70
NtRp919
(dp920
g73
(dp921
sg82
g906
sg75
(lp922
g68
(g69
g70
NtRp923
(dp924
g73
(dp925
g81
I4
ssg82
g919
sg75
(lp926
g68
(g77
g70
NtRp927
(dp928
g73
(dp929
g81
I3
ssg82
Nsg75
(lp930
sbasbasbasbag68
(g84
g70
NtRp931
(dp932
g73
(dp933
sg82
g858
sg75
(lp934
g68
(g89
g70
NtRp935
(dp936
g73
(dp937
g93
g94
ssg82
g931
sg75
(lp938
S'cmd_options'
p939
asbag68
(g89
g70
NtRp940
(dp941
g73
(dp942
g100
g101
ssg82
g931
sg75
(lp943
S':'
asbag68
(g89
g70
NtRp944
(dp945
g73
(dp946
sg82
g931
sg75
(lp947
g68
(g69
g70
NtRp948
(dp949
g73
(dp950
g81
I4
ssg82
g944
sg75
(lp951
S"<Values at 0x10aa51128: {'verbose': False, 'ip': '127.0.0.1', 'with_scheduler': False, 'ips': ['fe80::8e2d:aaff:fe4a:3d35%en1', '192.168.1.35'], 'shutdown_timeout': 5, 'taskbar': False, 'port': 8000, 'maxthreads': None, 'softcron': False, 'server_name': 'PeritoMascao.local', 'bpython': False, 'nogui': False, 'pid_filename': 'httpserver.pid', 'extcron': False, 'runcron': False, 'run_system_tests': False, 'test': None, 'folder': '/Users/Truki/Desarrollo/web2py', 'config': '', 'minthreads': None, 'winservice': '', 'shell': None, 'run': '', 'log_filename': 'httpserver.log', 'debuglevel': 30, 'args': [''], 'socket_timeout': 5, 'ssl_ca_certificate': None, 'scheduler': None, 'profiler_filename': None, 'ssl_private_key': '', 'scheduler_groups': None, 'password': '<ask>', 'request_queue_size': 5, 'ssl_certificate': '', 'cronjob': False, 'numthreads': None, 'quiet': False, 'interfaces': None, 'import_models': False, 'timeout': 10, 'plain': False, 'nobanner': False}>"
p952
asbasbasbag68
(g84
g70
NtRp953
(dp954
g73
(dp955
sg82
g858
sg75
(lp956
g68
(g89
g70
NtRp957
(dp958
g73
(dp959
g93
g94
ssg82
g953
sg75
(lp960
S'content_length'
p961
asbag68
(g89
g70
NtRp962
(dp963
g73
(dp964
g100
g101
ssg82
g953
sg75
(lp965
S':'
asbag68
(g89
g70
NtRp966
(dp967
g73
(dp968
sg82
g953
sg75
(lp969
g68
(g69
g70
NtRp970
(dp971
g73
(dp972
g81
I4
ssg82
g966
sg75
(lp973
S'689'
p974
asbasbasbag68
(g84
g70
NtRp975
(dp976
g73
(dp977
sg82
g858
sg75
(lp978
g68
(g89
g70
NtRp979
(dp980
g73
(dp981
g93
g94
ssg82
g975
sg75
(lp982
S'content_type'
p983
asbag68
(g89
g70
NtRp984
(dp985
g73
(dp986
g100
g101
ssg82
g975
sg75
(lp987
S':'
asbag68
(g89
g70
NtRp988
(dp989
g73
(dp990
sg82
g975
sg75
(lp991
g68
(g69
g70
NtRp992
(dp993
g73
(dp994
g81
I4
ssg82
g988
sg75
(lp995
S'multipart/form-data; boundary=----WebKitFormBoundary8j9zAZdqn7ABLYFb'
p996
asbasbasbag68
(g84
g70
NtRp997
(dp998
g73
(dp999
sg82
g858
sg75
(lp1000
g68
(g89
g70
NtRp1001
(dp1002
g73
(dp1003
g93
g94
ssg82
g997
sg75
(lp1004
S'db_sessions'
p1005
asbag68
(g89
g70
NtRp1006
(dp1007
g73
(dp1008
g100
g101
ssg82
g997
sg75
(lp1009
S':'
asbag68
(g89
g70
NtRp1010
(dp1011
g73
(dp1012
sg82
g997
sg75
(lp1013
g68
(g69
g70
NtRp1014
(dp1015
g73
(dp1016
g81
I4
ssg82
g1010
sg75
(lp1017
S'set([])'
p1018
asbasbasbag68
(g84
g70
NtRp1019
(dp1020
g73
(dp1021
sg82
g858
sg75
(lp1022
g68
(g89
g70
NtRp1023
(dp1024
g73
(dp1025
g93
g94
ssg82
g1019
sg75
(lp1026
S'debugging'
p1027
asbag68
(g89
g70
NtRp1028
(dp1029
g73
(dp1030
g100
g101
ssg82
g1019
sg75
(lp1031
S':'
asbag68
(g89
g70
NtRp1032
(dp1033
g73
(dp1034
sg82
g1019
sg75
(lp1035
g68
(g69
g70
NtRp1036
(dp1037
g73
(dp1038
g81
I4
ssg82
g1032
sg75
(lp1039
g111
asbasbasbag68
(g84
g70
NtRp1040
(dp1041
g73
(dp1042
sg82
g858
sg75
(lp1043
g68
(g89
g70
NtRp1044
(dp1045
g73
(dp1046
g93
g94
ssg82
g1040
sg75
(lp1047
S'gluon_parent'
p1048
asbag68
(g89
g70
NtRp1049
(dp1050
g73
(dp1051
g100
g101
ssg82
g1040
sg75
(lp1052
S':'
asbag68
(g89
g70
NtRp1053
(dp1054
g73
(dp1055
sg82
g1040
sg75
(lp1056
g68
(g69
g70
NtRp1057
(dp1058
g73
(dp1059
g81
I4
ssg82
g1053
sg75
(lp1060
S'/Users/Truki/Desarrollo/web2py'
p1061
asbasbasbag68
(g84
g70
NtRp1062
(dp1063
g73
(dp1064
sg82
g858
sg75
(lp1065
g68
(g89
g70
NtRp1066
(dp1067
g73
(dp1068
g93
g94
ssg82
g1062
sg75
(lp1069
S'http_accept'
p1070
asbag68
(g89
g70
NtRp1071
(dp1072
g73
(dp1073
g100
g101
ssg82
g1062
sg75
(lp1074
S':'
asbag68
(g89
g70
NtRp1075
(dp1076
g73
(dp1077
sg82
g1062
sg75
(lp1078
g68
(g69
g70
NtRp1079
(dp1080
g73
(dp1081
g81
I4
ssg82
g1075
sg75
(lp1082
S'text/html,application/xhtml+xml,application/xml;q=0.9,*/*;q=0.8'
p1083
asbasbasbag68
(g84
g70
NtRp1084
(dp1085
g73
(dp1086
sg82
g858
sg75
(lp1087
g68
(g89
g70
NtRp1088
(dp1089
g73
(dp1090
g93
g94
ssg82
g1084
sg75
(lp1091
S'http_accept_charset'
p1092
asbag68
(g89
g70
NtRp1093
(dp1094
g73
(dp1095
g100
g101
ssg82
g1084
sg75
(lp1096
S':'
asbag68
(g89
g70
NtRp1097
(dp1098
g73
(dp1099
sg82
g1084
sg75
(lp1100
g68
(g69
g70
NtRp1101
(dp1102
g73
(dp1103
g81
I4
ssg82
g1097
sg75
(lp1104
S'ISO-8859-1,utf-8;q=0.7,*;q=0.3'
p1105
asbasbasbag68
(g84
g70
NtRp1106
(dp1107
g73
(dp1108
sg82
g858
sg75
(lp1109
g68
(g89
g70
NtRp1110
(dp1111
g73
(dp1112
g93
g94
ssg82
g1106
sg75
(lp1113
S'http_accept_encoding'
p1114
asbag68
(g89
g70
NtRp1115
(dp1116
g73
(dp1117
g100
g101
ssg82
g1106
sg75
(lp1118
S':'
asbag68
(g89
g70
NtRp1119
(dp1120
g73
(dp1121
sg82
g1106
sg75
(lp1122
g68
(g69
g70
NtRp1123
(dp1124
g73
(dp1125
g81
I4
ssg82
g1119
sg75
(lp1126
S'gzip,deflate,sdch'
p1127
asbasbasbag68
(g84
g70
NtRp1128
(dp1129
g73
(dp1130
sg82
g858
sg75
(lp1131
g68
(g89
g70
NtRp1132
(dp1133
g73
(dp1134
g93
g94
ssg82
g1128
sg75
(lp1135
S'http_accept_language'
p1136
asbag68
(g89
g70
NtRp1137
(dp1138
g73
(dp1139
g100
g101
ssg82
g1128
sg75
(lp1140
S':'
asbag68
(g89
g70
NtRp1141
(dp1142
g73
(dp1143
sg82
g1128
sg75
(lp1144
g68
(g69
g70
NtRp1145
(dp1146
g73
(dp1147
g81
I4
ssg82
g1141
sg75
(lp1148
S'es-ES,es;q=0.8'
p1149
asbasbasbag68
(g84
g70
NtRp1150
(dp1151
g73
(dp1152
sg82
g858
sg75
(lp1153
g68
(g89
g70
NtRp1154
(dp1155
g73
(dp1156
g93
g94
ssg82
g1150
sg75
(lp1157
S'http_cache_control'
p1158
asbag68
(g89
g70
NtRp1159
(dp1160
g73
(dp1161
g100
g101
ssg82
g1150
sg75
(lp1162
S':'
asbag68
(g89
g70
NtRp1163
(dp1164
g73
(dp1165
sg82
g1150
sg75
(lp1166
g68
(g69
g70
NtRp1167
(dp1168
g73
(dp1169
g81
I4
ssg82
g1163
sg75
(lp1170
S'max-age=0'
p1171
asbasbasbag68
(g84
g70
NtRp1172
(dp1173
g73
(dp1174
sg82
g858
sg75
(lp1175
g68
(g89
g70
NtRp1176
(dp1177
g73
(dp1178
g93
g94
ssg82
g1172
sg75
(lp1179
S'http_connection'
p1180
asbag68
(g89
g70
NtRp1181
(dp1182
g73
(dp1183
g100
g101
ssg82
g1172
sg75
(lp1184
S':'
asbag68
(g89
g70
NtRp1185
(dp1186
g73
(dp1187
sg82
g1172
sg75
(lp1188
g68
(g69
g70
NtRp1189
(dp1190
g73
(dp1191
g81
I4
ssg82
g1185
sg75
(lp1192
S'keep-alive'
p1193
asbasbasbag68
(g84
g70
NtRp1194
(dp1195
g73
(dp1196
sg82
g858
sg75
(lp1197
g68
(g89
g70
NtRp1198
(dp1199
g73
(dp1200
g93
g94
ssg82
g1194
sg75
(lp1201
S'http_content_length'
p1202
asbag68
(g89
g70
NtRp1203
(dp1204
g73
(dp1205
g100
g101
ssg82
g1194
sg75
(lp1206
S':'
asbag68
(g89
g70
NtRp1207
(dp1208
g73
(dp1209
sg82
g1194
sg75
(lp1210
g68
(g69
g70
NtRp1211
(dp1212
g73
(dp1213
g81
I4
ssg82
g1207
sg75
(lp1214
g974
asbasbasbag68
(g84
g70
NtRp1215
(dp1216
g73
(dp1217
sg82
g858
sg75
(lp1218
g68
(g89
g70
NtRp1219
(dp1220
g73
(dp1221
g93
g94
ssg82
g1215
sg75
(lp1222
S'http_content_type'
p1223
asbag68
(g89
g70
NtRp1224
(dp1225
g73
(dp1226
g100
g101
ssg82
g1215
sg75
(lp1227
S':'
asbag68
(g89
g70
NtRp1228
(dp1229
g73
(dp1230
sg82
g1215
sg75
(lp1231
g68
(g69
g70
NtRp1232
(dp1233
g73
(dp1234
g81
I4
ssg82
g1228
sg75
(lp1235
g996
asbasbasbag68
(g84
g70
NtRp1236
(dp1237
g73
(dp1238
sg82
g858
sg75
(lp1239
g68
(g89
g70
NtRp1240
(dp1241
g73
(dp1242
g93
g94
ssg82
g1236
sg75
(lp1243
S'http_cookie'
p1244
asbag68
(g89
g70
NtRp1245
(dp1246
g73
(dp1247
g100
g101
ssg82
g1236
sg75
(lp1248
S':'
asbag68
(g89
g70
NtRp1249
(dp1250
g73
(dp1251
sg82
g1236
sg75
(lp1252
g68
(g69
g70
NtRp1253
(dp1254
g73
(dp1255
g81
I4
ssg82
g1249
sg75
(lp1256
S'session_id_welcome=127.0.0.1-70fac521-7f5c-422f-a856-bf00b2216810; session_id_rosan=127.0.0.1-e44cb93f-049c-40c0-ade5-b5e99985895d; session_id_admin=127.0.0.1-f0bf2f80-d47a-4c63-a82e-44a845bfe7e3'
p1257
asbasbasbag68
(g84
g70
NtRp1258
(dp1259
g73
(dp1260
sg82
g858
sg75
(lp1261
g68
(g89
g70
NtRp1262
(dp1263
g73
(dp1264
g93
g94
ssg82
g1258
sg75
(lp1265
S'http_host'
p1266
asbag68
(g89
g70
NtRp1267
(dp1268
g73
(dp1269
g100
g101
ssg82
g1258
sg75
(lp1270
S':'
asbag68
(g89
g70
NtRp1271
(dp1272
g73
(dp1273
sg82
g1258
sg75
(lp1274
g68
(g69
g70
NtRp1275
(dp1276
g73
(dp1277
g81
I4
ssg82
g1271
sg75
(lp1278
S'127.0.0.1:8000'
p1279
asbasbasbag68
(g84
g70
NtRp1280
(dp1281
g73
(dp1282
sg82
g858
sg75
(lp1283
g68
(g89
g70
NtRp1284
(dp1285
g73
(dp1286
g93
g94
ssg82
g1280
sg75
(lp1287
S'http_origin'
p1288
asbag68
(g89
g70
NtRp1289
(dp1290
g73
(dp1291
g100
g101
ssg82
g1280
sg75
(lp1292
S':'
asbag68
(g89
g70
NtRp1293
(dp1294
g73
(dp1295
sg82
g1280
sg75
(lp1296
g68
(g69
g70
NtRp1297
(dp1298
g73
(dp1299
g81
I4
ssg82
g1293
sg75
(lp1300
S'http://127.0.0.1:8000'
p1301
asbasbasbag68
(g84
g70
NtRp1302
(dp1303
g73
(dp1304
sg82
g858
sg75
(lp1305
g68
(g89
g70
NtRp1306
(dp1307
g73
(dp1308
g93
g94
ssg82
g1302
sg75
(lp1309
S'http_referer'
p1310
asbag68
(g89
g70
NtRp1311
(dp1312
g73
(dp1313
g100
g101
ssg82
g1302
sg75
(lp1314
S':'
asbag68
(g89
g70
NtRp1315
(dp1316
g73
(dp1317
sg82
g1302
sg75
(lp1318
g68
(g69
g70
NtRp1319
(dp1320
g73
(dp1321
g81
I4
ssg82
g1315
sg75
(lp1322
S'http://127.0.0.1:8000/rosan/facturas/detalleFactura'
p1323
asbasbasbag68
(g84
g70
NtRp1324
(dp1325
g73
(dp1326
sg82
g858
sg75
(lp1327
g68
(g89
g70
NtRp1328
(dp1329
g73
(dp1330
g93
g94
ssg82
g1324
sg75
(lp1331
S'http_user_agent'
p1332
asbag68
(g89
g70
NtRp1333
(dp1334
g73
(dp1335
g100
g101
ssg82
g1324
sg75
(lp1336
S':'
asbag68
(g89
g70
NtRp1337
(dp1338
g73
(dp1339
sg82
g1324
sg75
(lp1340
g68
(g69
g70
NtRp1341
(dp1342
g73
(dp1343
g81
I4
ssg82
g1337
sg75
(lp1344
S'Mozilla/5.0 (Macintosh; Intel Mac OS X 10_8_2) AppleWebKit/537.17 (KHTML, like Gecko) Chrome/24.0.1312.57 Safari/537.17'
p1345
asbasbasbag68
(g84
g70
NtRp1346
(dp1347
g73
(dp1348
sg82
g858
sg75
(lp1349
g68
(g89
g70
NtRp1350
(dp1351
g73
(dp1352
g93
g94
ssg82
g1346
sg75
(lp1353
S'is_jython'
p1354
asbag68
(g89
g70
NtRp1355
(dp1356
g73
(dp1357
g100
g101
ssg82
g1346
sg75
(lp1358
S':'
asbag68
(g89
g70
NtRp1359
(dp1360
g73
(dp1361
sg82
g1346
sg75
(lp1362
g68
(g69
g70
NtRp1363
(dp1364
g73
(dp1365
g81
I4
ssg82
g1359
sg75
(lp1366
g111
asbasbasbag68
(g84
g70
NtRp1367
(dp1368
g73
(dp1369
sg82
g858
sg75
(lp1370
g68
(g89
g70
NtRp1371
(dp1372
g73
(dp1373
g93
g94
ssg82
g1367
sg75
(lp1374
S'is_pypy'
p1375
asbag68
(g89
g70
NtRp1376
(dp1377
g73
(dp1378
g100
g101
ssg82
g1367
sg75
(lp1379
S':'
asbag68
(g89
g70
NtRp1380
(dp1381
g73
(dp1382
sg82
g1367
sg75
(lp1383
g68
(g69
g70
NtRp1384
(dp1385
g73
(dp1386
g81
I4
ssg82
g1380
sg75
(lp1387
g111
asbasbasbag68
(g84
g70
NtRp1388
(dp1389
g73
(dp1390
sg82
g858
sg75
(lp1391
g68
(g89
g70
NtRp1392
(dp1393
g73
(dp1394
g93
g94
ssg82
g1388
sg75
(lp1395
S'local_hosts'
p1396
asbag68
(g89
g70
NtRp1397
(dp1398
g73
(dp1399
g100
g101
ssg82
g1388
sg75
(lp1400
S':'
asbag68
(g89
g70
NtRp1401
(dp1402
g73
(dp1403
sg82
g1388
sg75
(lp1404
g68
(g69
g70
NtRp1405
(dp1406
g73
(dp1407
g81
I4
ssg82
g1401
sg75
(lp1408
g68
(g77
g70
NtRp1409
(dp1410
g73
(dp1411
g81
I3
ssg82
Nsg75
(lp1412
g68
(g84
g70
NtRp1413
(dp1414
g73
(dp1415
sg82
g1409
sg75
(lp1416
g68
(g89
g70
NtRp1417
(dp1418
g73
(dp1419
sg82
g1413
sg75
(lp1420
g68
(g69
g70
NtRp1421
(dp1422
g73
(dp1423
g81
I3
ssg82
g1417
sg75
(lp1424
S'fe80::8e2d:aaff:fe4a:3d35%en1'
p1425
asbasbasbag68
(g84
g70
NtRp1426
(dp1427
g73
(dp1428
sg82
g1409
sg75
(lp1429
g68
(g89
g70
NtRp1430
(dp1431
g73
(dp1432
sg82
g1426
sg75
(lp1433
g68
(g69
g70
NtRp1434
(dp1435
g73
(dp1436
g81
I3
ssg82
g1430
sg75
(lp1437
S'192.168.1.35'
p1438
asbasbasbag68
(g84
g70
NtRp1439
(dp1440
g73
(dp1441
sg82
g1409
sg75
(lp1442
g68
(g89
g70
NtRp1443
(dp1444
g73
(dp1445
sg82
g1439
sg75
(lp1446
g68
(g69
g70
NtRp1447
(dp1448
g73
(dp1449
g81
I3
ssg82
g1443
sg75
(lp1450
S'::ffff:127.0.0.1'
p1451
asbasbasbag68
(g84
g70
NtRp1452
(dp1453
g73
(dp1454
sg82
g1409
sg75
(lp1455
g68
(g89
g70
NtRp1456
(dp1457
g73
(dp1458
sg82
g1452
sg75
(lp1459
g68
(g69
g70
NtRp1460
(dp1461
g73
(dp1462
g81
I3
ssg82
g1456
sg75
(lp1463
S'::1'
p1464
asbasbasbag68
(g84
g70
NtRp1465
(dp1466
g73
(dp1467
sg82
g1409
sg75
(lp1468
g68
(g89
g70
NtRp1469
(dp1470
g73
(dp1471
sg82
g1465
sg75
(lp1472
g68
(g69
g70
NtRp1473
(dp1474
g73
(dp1475
g81
I3
ssg82
g1469
sg75
(lp1476
S'PeritoMascao.local'
p1477
asbasbasbag68
(g84
g70
NtRp1478
(dp1479
g73
(dp1480
sg82
g1409
sg75
(lp1481
g68
(g89
g70
NtRp1482
(dp1483
g73
(dp1484
sg82
g1478
sg75
(lp1485
g68
(g69
g70
NtRp1486
(dp1487
g73
(dp1488
g81
I3
ssg82
g1482
sg75
(lp1489
S'127.0.0.1'
p1490
asbasbasbasbasbasbasbag68
(g84
g70
NtRp1491
(dp1492
g73
(dp1493
sg82
g858
sg75
(lp1494
g68
(g89
g70
NtRp1495
(dp1496
g73
(dp1497
g93
g94
ssg82
g1491
sg75
(lp1498
S'path_info'
p1499
asbag68
(g89
g70
NtRp1500
(dp1501
g73
(dp1502
g100
g101
ssg82
g1491
sg75
(lp1503
S':'
asbag68
(g89
g70
NtRp1504
(dp1505
g73
(dp1506
sg82
g1491
sg75
(lp1507
g68
(g69
g70
NtRp1508
(dp1509
g73
(dp1510
g81
I4
ssg82
g1504
sg75
(lp1511
S'/rosan/facturas/detalleFactura'
p1512
asbasbasbag68
(g84
g70
NtRp1513
(dp1514
g73
(dp1515
sg82
g858
sg75
(lp1516
g68
(g89
g70
NtRp1517
(dp1518
g73
(dp1519
g93
g94
ssg82
g1513
sg75
(lp1520
S'query_string'
p1521
asbag68
(g89
g70
NtRp1522
(dp1523
g73
(dp1524
g100
g101
ssg82
g1513
sg75
(lp1525
S':'
asbag68
(g89
g70
NtRp1526
(dp1527
g73
(dp1528
sg82
g1513
sg75
(lp1529
g68
(g69
g70
NtRp1530
(dp1531
g73
(dp1532
g81
I4
ssg82
g1526
sg75
(lp1533
S''
asbasbasbag68
(g84
g70
NtRp1534
(dp1535
g73
(dp1536
sg82
g858
sg75
(lp1537
g68
(g89
g70
NtRp1538
(dp1539
g73
(dp1540
g93
g94
ssg82
g1534
sg75
(lp1541
S'remote_addr'
p1542
asbag68
(g89
g70
NtRp1543
(dp1544
g73
(dp1545
g100
g101
ssg82
g1534
sg75
(lp1546
S':'
asbag68
(g89
g70
NtRp1547
(dp1548
g73
(dp1549
sg82
g1534
sg75
(lp1550
g68
(g69
g70
NtRp1551
(dp1552
g73
(dp1553
g81
I4
ssg82
g1547
sg75
(lp1554
g223
asbasbasbag68
(g84
g70
NtRp1555
(dp1556
g73
(dp1557
sg82
g858
sg75
(lp1558
g68
(g89
g70
NtRp1559
(dp1560
g73
(dp1561
g93
g94
ssg82
g1555
sg75
(lp1562
S'remote_port'
p1563
asbag68
(g89
g70
NtRp1564
(dp1565
g73
(dp1566
g100
g101
ssg82
g1555
sg75
(lp1567
S':'
asbag68
(g89
g70
NtRp1568
(dp1569
g73
(dp1570
sg82
g1555
sg75
(lp1571
g68
(g69
g70
NtRp1572
(dp1573
g73
(dp1574
g81
I4
ssg82
g1568
sg75
(lp1575
S'54553'
p1576
asbasbasbag68
(g84
g70
NtRp1577
(dp1578
g73
(dp1579
sg82
g858
sg75
(lp1580
g68
(g89
g70
NtRp1581
(dp1582
g73
(dp1583
g93
g94
ssg82
g1577
sg75
(lp1584
S'request_method'
p1585
asbag68
(g89
g70
NtRp1586
(dp1587
g73
(dp1588
g100
g101
ssg82
g1577
sg75
(lp1589
S':'
asbag68
(g89
g70
NtRp1590
(dp1591
g73
(dp1592
sg82
g1577
sg75
(lp1593
g68
(g69
g70
NtRp1594
(dp1595
g73
(dp1596
g81
I4
ssg82
g1590
sg75
(lp1597
S'POST'
p1598
asbasbasbag68
(g84
g70
NtRp1599
(dp1600
g73
(dp1601
sg82
g858
sg75
(lp1602
g68
(g89
g70
NtRp1603
(dp1604
g73
(dp1605
g93
g94
ssg82
g1599
sg75
(lp1606
S'request_uri'
p1607
asbag68
(g89
g70
NtRp1608
(dp1609
g73
(dp1610
g100
g101
ssg82
g1599
sg75
(lp1611
S':'
asbag68
(g89
g70
NtRp1612
(dp1613
g73
(dp1614
sg82
g1599
sg75
(lp1615
g68
(g69
g70
NtRp1616
(dp1617
g73
(dp1618
g81
I4
ssg82
g1612
sg75
(lp1619
g1512
asbasbasbag68
(g84
g70
NtRp1620
(dp1621
g73
(dp1622
sg82
g858
sg75
(lp1623
g68
(g89
g70
NtRp1624
(dp1625
g73
(dp1626
g93
g94
ssg82
g1620
sg75
(lp1627
S'script_name'
p1628
asbag68
(g89
g70
NtRp1629
(dp1630
g73
(dp1631
g100
g101
ssg82
g1620
sg75
(lp1632
S':'
asbag68
(g89
g70
NtRp1633
(dp1634
g73
(dp1635
sg82
g1620
sg75
(lp1636
g68
(g69
g70
NtRp1637
(dp1638
g73
(dp1639
g81
I4
ssg82
g1633
sg75
(lp1640
S''
asbasbasbag68
(g84
g70
NtRp1641
(dp1642
g73
(dp1643
sg82
g858
sg75
(lp1644
g68
(g89
g70
NtRp1645
(dp1646
g73
(dp1647
g93
g94
ssg82
g1641
sg75
(lp1648
S'server_name'
p1649
asbag68
(g89
g70
NtRp1650
(dp1651
g73
(dp1652
g100
g101
ssg82
g1641
sg75
(lp1653
S':'
asbag68
(g89
g70
NtRp1654
(dp1655
g73
(dp1656
sg82
g1641
sg75
(lp1657
g68
(g69
g70
NtRp1658
(dp1659
g73
(dp1660
g81
I4
ssg82
g1654
sg75
(lp1661
S'PeritoMascao.local'
p1662
asbasbasbag68
(g84
g70
NtRp1663
(dp1664
g73
(dp1665
sg82
g858
sg75
(lp1666
g68
(g89
g70
NtRp1667
(dp1668
g73
(dp1669
g93
g94
ssg82
g1663
sg75
(lp1670
S'server_port'
p1671
asbag68
(g89
g70
NtRp1672
(dp1673
g73
(dp1674
g100
g101
ssg82
g1663
sg75
(lp1675
S':'
asbag68
(g89
g70
NtRp1676
(dp1677
g73
(dp1678
sg82
g1663
sg75
(lp1679
g68
(g69
g70
NtRp1680
(dp1681
g73
(dp1682
g81
I4
ssg82
g1676
sg75
(lp1683
S'8000'
p1684
asbasbasbag68
(g84
g70
NtRp1685
(dp1686
g73
(dp1687
sg82
g858
sg75
(lp1688
g68
(g89
g70
NtRp1689
(dp1690
g73
(dp1691
g93
g94
ssg82
g1685
sg75
(lp1692
S'server_protocol'
p1693
asbag68
(g89
g70
NtRp1694
(dp1695
g73
(dp1696
g100
g101
ssg82
g1685
sg75
(lp1697
S':'
asbag68
(g89
g70
NtRp1698
(dp1699
g73
(dp1700
sg82
g1685
sg75
(lp1701
g68
(g69
g70
NtRp1702
(dp1703
g73
(dp1704
g81
I4
ssg82
g1698
sg75
(lp1705
S'HTTP/1.1'
p1706
asbasbasbag68
(g84
g70
NtRp1707
(dp1708
g73
(dp1709
sg82
g858
sg75
(lp1710
g68
(g89
g70
NtRp1711
(dp1712
g73
(dp1713
g93
g94
ssg82
g1707
sg75
(lp1714
S'server_software'
p1715
asbag68
(g89
g70
NtRp1716
(dp1717
g73
(dp1718
g100
g101
ssg82
g1707
sg75
(lp1719
S':'
asbag68
(g89
g70
NtRp1720
(dp1721
g73
(dp1722
sg82
g1707
sg75
(lp1723
g68
(g69
g70
NtRp1724
(dp1725
g73
(dp1726
g81
I4
ssg82
g1720
sg75
(lp1727
S'Rocket 1.2.6'
p1728
asbasbasbag68
(g84
g70
NtRp1729
(dp1730
g73
(dp1731
sg82
g858
sg75
(lp1732
g68
(g89
g70
NtRp1733
(dp1734
g73
(dp1735
g93
g94
ssg82
g1729
sg75
(lp1736
S'web2py_path'
p1737
asbag68
(g89
g70
NtRp1738
(dp1739
g73
(dp1740
g100
g101
ssg82
g1729
sg75
(lp1741
S':'
asbag68
(g89
g70
NtRp1742
(dp1743
g73
(dp1744
sg82
g1729
sg75
(lp1745
g68
(g69
g70
NtRp1746
(dp1747
g73
(dp1748
g81
I4
ssg82
g1742
sg75
(lp1749
g905
asbasbasbag68
(g84
g70
NtRp1750
(dp1751
g73
(dp1752
sg82
g858
sg75
(lp1753
g68
(g89
g70
NtRp1754
(dp1755
g73
(dp1756
g93
g94
ssg82
g1750
sg75
(lp1757
S'web2py_version'
p1758
asbag68
(g89
g70
NtRp1759
(dp1760
g73
(dp1761
g100
g101
ssg82
g1750
sg75
(lp1762
S':'
asbag68
(g89
g70
NtRp1763
(dp1764
g73
(dp1765
sg82
g1750
sg75
(lp1766
g68
(g69
g70
NtRp1767
(dp1768
g73
(dp1769
g81
I4
ssg82
g1763
sg75
(lp1770
g68
(g77
g70
NtRp1771
(dp1772
g73
(dp1773
g81
I3
ssg82
Nsg75
(lp1774
g68
(g84
g70
NtRp1775
(dp1776
g73
(dp1777
sg82
g1771
sg75
(lp1778
g68
(g89
g70
NtRp1779
(dp1780
g73
(dp1781
sg82
g1775
sg75
(lp1782
g68
(g69
g70
NtRp1783
(dp1784
g73
(dp1785
g81
I3
ssg82
g1779
sg75
(lp1786
S'2'
asbasbasbag68
(g84
g70
NtRp1787
(dp1788
g73
(dp1789
sg82
g1771
sg75
(lp1790
g68
(g89
g70
NtRp1791
(dp1792
g73
(dp1793
sg82
g1787
sg75
(lp1794
g68
(g69
g70
NtRp1795
(dp1796
g73
(dp1797
g81
I3
ssg82
g1791
sg75
(lp1798
S'3'
asbasbasbag68
(g84
g70
NtRp1799
(dp1800
g73
(dp1801
sg82
g1771
sg75
(lp1802
g68
(g89
g70
NtRp1803
(dp1804
g73
(dp1805
sg82
g1799
sg75
(lp1806
g68
(g69
g70
NtRp1807
(dp1808
g73
(dp1809
g81
I3
ssg82
g1803
sg75
(lp1810
S'2'
asbasbasbag68
(g84
g70
NtRp1811
(dp1812
g73
(dp1813
sg82
g1771
sg75
(lp1814
g68
(g89
g70
NtRp1815
(dp1816
g73
(dp1817
sg82
g1811
sg75
(lp1818
g68
(g69
g70
NtRp1819
(dp1820
g73
(dp1821
g81
I3
ssg82
g1815
sg75
(lp1822
S'datetime.datetime(2012, 12, 17, 15, 3, 30)'
p1823
asbasbasbag68
(g84
g70
NtRp1824
(dp1825
g73
(dp1826
sg82
g1771
sg75
(lp1827
g68
(g89
g70
NtRp1828
(dp1829
g73
(dp1830
sg82
g1824
sg75
(lp1831
g68
(g69
g70
NtRp1832
(dp1833
g73
(dp1834
g81
I3
ssg82
g1828
sg75
(lp1835
S'stable'
p1836
asbasbasbasbasbasbasbag68
(g84
g70
NtRp1837
(dp1838
g73
(dp1839
sg82
g858
sg75
(lp1840
g68
(g89
g70
NtRp1841
(dp1842
g73
(dp1843
g93
g94
ssg82
g1837
sg75
(lp1844
S'wsgi_errors'
p1845
asbag68
(g89
g70
NtRp1846
(dp1847
g73
(dp1848
g100
g101
ssg82
g1837
sg75
(lp1849
S':'
asbag68
(g89
g70
NtRp1850
(dp1851
g73
(dp1852
sg82
g1837
sg75
(lp1853
g68
(g69
g70
NtRp1854
(dp1855
g73
(dp1856
g81
I4
ssg82
g1850
sg75
(lp1857
S"<open file '<stderr>', mode 'w' at 0x109baf270>"
p1858
asbasbasbag68
(g84
g70
NtRp1859
(dp1860
g73
(dp1861
sg82
g858
sg75
(lp1862
g68
(g89
g70
NtRp1863
(dp1864
g73
(dp1865
g93
g94
ssg82
g1859
sg75
(lp1866
S'wsgi_file_wrapper'
p1867
asbag68
(g89
g70
NtRp1868
(dp1869
g73
(dp1870
g100
g101
ssg82
g1859
sg75
(lp1871
S':'
asbag68
(g89
g70
NtRp1872
(dp1873
g73
(dp1874
sg82
g1859
sg75
(lp1875
g68
(g69
g70
NtRp1876
(dp1877
g73
(dp1878
g81
I4
ssg82
g1872
sg75
(lp1879
S'<class wsgiref.util.FileWrapper at 0x10a7b1ef0>'
p1880
asbasbasbag68
(g84
g70
NtRp1881
(dp1882
g73
(dp1883
sg82
g858
sg75
(lp1884
g68
(g89
g70
NtRp1885
(dp1886
g73
(dp1887
g93
g94
ssg82
g1881
sg75
(lp1888
S'wsgi_input'
p1889
asbag68
(g89
g70
NtRp1890
(dp1891
g73
(dp1892
g100
g101
ssg82
g1881
sg75
(lp1893
S':'
asbag68
(g89
g70
NtRp1894
(dp1895
g73
(dp1896
sg82
g1881
sg75
(lp1897
g68
(g69
g70
NtRp1898
(dp1899
g73
(dp1900
g81
I4
ssg82
g1894
sg75
(lp1901
S'<socket._fileobject object at 0x10ec694d0>'
p1902
asbasbasbag68
(g84
g70
NtRp1903
(dp1904
g73
(dp1905
sg82
g858
sg75
(lp1906
g68
(g89
g70
NtRp1907
(dp1908
g73
(dp1909
g93
g94
ssg82
g1903
sg75
(lp1910
S'wsgi_multiprocess'
p1911
asbag68
(g89
g70
NtRp1912
(dp1913
g73
(dp1914
g100
g101
ssg82
g1903
sg75
(lp1915
S':'
asbag68
(g89
g70
NtRp1916
(dp1917
g73
(dp1918
sg82
g1903
sg75
(lp1919
g68
(g69
g70
NtRp1920
(dp1921
g73
(dp1922
g81
I4
ssg82
g1916
sg75
(lp1923
g111
asbasbasbag68
(g84
g70
NtRp1924
(dp1925
g73
(dp1926
sg82
g858
sg75
(lp1927
g68
(g89
g70
NtRp1928
(dp1929
g73
(dp1930
g93
g94
ssg82
g1924
sg75
(lp1931
S'wsgi_multithread'
p1932
asbag68
(g89
g70
NtRp1933
(dp1934
g73
(dp1935
g100
g101
ssg82
g1924
sg75
(lp1936
S':'
asbag68
(g89
g70
NtRp1937
(dp1938
g73
(dp1939
sg82
g1924
sg75
(lp1940
g68
(g69
g70
NtRp1941
(dp1942
g73
(dp1943
g81
I4
ssg82
g1937
sg75
(lp1944
S'True'
p1945
asbasbasbag68
(g84
g70
NtRp1946
(dp1947
g73
(dp1948
sg82
g858
sg75
(lp1949
g68
(g89
g70
NtRp1950
(dp1951
g73
(dp1952
g93
g94
ssg82
g1946
sg75
(lp1953
S'wsgi_run_once'
p1954
asbag68
(g89
g70
NtRp1955
(dp1956
g73
(dp1957
g100
g101
ssg82
g1946
sg75
(lp1958
S':'
asbag68
(g89
g70
NtRp1959
(dp1960
g73
(dp1961
sg82
g1946
sg75
(lp1962
g68
(g69
g70
NtRp1963
(dp1964
g73
(dp1965
g81
I4
ssg82
g1959
sg75
(lp1966
g111
asbasbasbag68
(g84
g70
NtRp1967
(dp1968
g73
(dp1969
sg82
g858
sg75
(lp1970
g68
(g89
g70
NtRp1971
(dp1972
g73
(dp1973
g93
g94
ssg82
g1967
sg75
(lp1974
S'wsgi_url_scheme'
p1975
asbag68
(g89
g70
NtRp1976
(dp1977
g73
(dp1978
g100
g101
ssg82
g1967
sg75
(lp1979
S':'
asbag68
(g89
g70
NtRp1980
(dp1981
g73
(dp1982
sg82
g1967
sg75
(lp1983
g68
(g69
g70
NtRp1984
(dp1985
g73
(dp1986
g81
I4
ssg82
g1980
sg75
(lp1987
S'http'
p1988
asbasbasbag68
(g84
g70
NtRp1989
(dp1990
g73
(dp1991
sg82
g858
sg75
(lp1992
g68
(g89
g70
NtRp1993
(dp1994
g73
(dp1995
g93
g94
ssg82
g1989
sg75
(lp1996
S'wsgi_version'
p1997
asbag68
(g89
g70
NtRp1998
(dp1999
g73
(dp2000
g100
g101
ssg82
g1989
sg75
(lp2001
S':'
asbag68
(g89
g70
NtRp2002
(dp2003
g73
(dp2004
sg82
g1989
sg75
(lp2005
g68
(g69
g70
NtRp2006
(dp2007
g73
(dp2008
g81
I4
ssg82
g2002
sg75
(lp2009
g68
(g77
g70
NtRp2010
(dp2011
g73
(dp2012
g81
I3
ssg82
Nsg75
(lp2013
g68
(g84
g70
NtRp2014
(dp2015
g73
(dp2016
sg82
g2010
sg75
(lp2017
g68
(g89
g70
NtRp2018
(dp2019
g73
(dp2020
sg82
g2014
sg75
(lp2021
g68
(g69
g70
NtRp2022
(dp2023
g73
(dp2024
g81
I3
ssg82
g2018
sg75
(lp2025
S'1'
asbasbasbag68
(g84
g70
NtRp2026
(dp2027
g73
(dp2028
sg82
g2010
sg75
(lp2029
g68
(g89
g70
NtRp2030
(dp2031
g73
(dp2032
sg82
g2026
sg75
(lp2033
g68
(g69
g70
NtRp2034
(dp2035
g73
(dp2036
g81
I3
ssg82
g2030
sg75
(lp2037
S'0'
asbasbasbasbasbasbasbasbasbasbasbag68
(g84
g70
NtRp2038
(dp2039
g73
(dp2040
sg82
g78
sg75
(lp2041
g68
(g89
g70
NtRp2042
(dp2043
g73
(dp2044
g93
g94
ssg82
g2038
sg75
(lp2045
S'extension'
p2046
asbag68
(g89
g70
NtRp2047
(dp2048
g73
(dp2049
g100
g101
ssg82
g2038
sg75
(lp2050
S':'
asbag68
(g89
g70
NtRp2051
(dp2052
g73
(dp2053
sg82
g2038
sg75
(lp2054
g68
(g69
g70
NtRp2055
(dp2056
g73
(dp2057
g81
I5
ssg82
g2051
sg75
(lp2058
S'html'
p2059
asbasbasbag68
(g84
g70
NtRp2060
(dp2061
g73
(dp2062
sg82
g78
sg75
(lp2063
g68
(g89
g70
NtRp2064
(dp2065
g73
(dp2066
g93
g94
ssg82
g2060
sg75
(lp2067
S'folder'
p2068
asbag68
(g89
g70
NtRp2069
(dp2070
g73
(dp2071
g100
g101
ssg82
g2060
sg75
(lp2072
S':'
asbag68
(g89
g70
NtRp2073
(dp2074
g73
(dp2075
sg82
g2060
sg75
(lp2076
g68
(g69
g70
NtRp2077
(dp2078
g73
(dp2079
g81
I5
ssg82
g2073
sg75
(lp2080
S'/Users/Truki/Desarrollo/web2py/applications/rosan/'
p2081
asbasbasbag68
(g84
g70
NtRp2082
(dp2083
g73
(dp2084
sg82
g78
sg75
(lp2085
g68
(g89
g70
NtRp2086
(dp2087
g73
(dp2088
g93
g94
ssg82
g2082
sg75
(lp2089
S'function'
p2090
asbag68
(g89
g70
NtRp2091
(dp2092
g73
(dp2093
g100
g101
ssg82
g2082
sg75
(lp2094
S':'
asbag68
(g89
g70
NtRp2095
(dp2096
g73
(dp2097
sg82
g2082
sg75
(lp2098
g68
(g69
g70
NtRp2099
(dp2100
g73
(dp2101
g81
I5
ssg82
g2095
sg75
(lp2102
S'detalleFactura'
p2103
asbasbasbag68
(g84
g70
NtRp2104
(dp2105
g73
(dp2106
sg82
g78
sg75
(lp2107
g68
(g89
g70
NtRp2108
(dp2109
g73
(dp2110
g93
g94
ssg82
g2104
sg75
(lp2111
S'get_vars'
p2112
asbag68
(g89
g70
NtRp2113
(dp2114
g73
(dp2115
g100
g101
ssg82
g2104
sg75
(lp2116
S':'
asbag68
(g89
g70
NtRp2117
(dp2118
g73
(dp2119
sg82
g2104
sg75
(lp2120
g68
(g69
g70
NtRp2121
(dp2122
g73
(dp2123
g81
I5
ssg82
g2117
sg75
(lp2124
g68
(g77
g70
NtRp2125
(dp2126
g73
(dp2127
g81
I4
ssg82
Nsg75
(lp2128
sbasbasbasbag68
(g84
g70
NtRp2129
(dp2130
g73
(dp2131
sg82
g78
sg75
(lp2132
g68
(g89
g70
NtRp2133
(dp2134
g73
(dp2135
g93
g94
ssg82
g2129
sg75
(lp2136
S'global_settings'
p2137
asbag68
(g89
g70
NtRp2138
(dp2139
g73
(dp2140
g100
g101
ssg82
g2129
sg75
(lp2141
S':'
asbag68
(g89
g70
NtRp2142
(dp2143
g73
(dp2144
sg82
g2129
sg75
(lp2145
g68
(g69
g70
NtRp2146
(dp2147
g73
(dp2148
g81
I5
ssg82
g2142
sg75
(lp2149
g68
(g77
g70
NtRp2150
(dp2151
g73
(dp2152
g81
I4
ssg82
Nsg75
(lp2153
g68
(g84
g70
NtRp2154
(dp2155
g73
(dp2156
sg82
g2150
sg75
(lp2157
g68
(g89
g70
NtRp2158
(dp2159
g73
(dp2160
g93
g94
ssg82
g2154
sg75
(lp2161
g870
asbag68
(g89
g70
NtRp2162
(dp2163
g73
(dp2164
g100
g101
ssg82
g2154
sg75
(lp2165
S':'
asbag68
(g89
g70
NtRp2166
(dp2167
g73
(dp2168
sg82
g2154
sg75
(lp2169
g68
(g69
g70
NtRp2170
(dp2171
g73
(dp2172
g81
I4
ssg82
g2166
sg75
(lp2173
S"set(['/Users/Truki/Desarrollo/web2py/applications/welcome/', '/Users/Truki/Desarrollo/web2py/applications/rosan/', '/Users/Truki/Desarrollo/web2py/applications/admin/'])"
p2174
asbasbasbag68
(g84
g70
NtRp2175
(dp2176
g73
(dp2177
sg82
g2150
sg75
(lp2178
g68
(g89
g70
NtRp2179
(dp2180
g73
(dp2181
g93
g94
ssg82
g2175
sg75
(lp2182
g892
asbag68
(g89
g70
NtRp2183
(dp2184
g73
(dp2185
g100
g101
ssg82
g2175
sg75
(lp2186
S':'
asbag68
(g89
g70
NtRp2187
(dp2188
g73
(dp2189
sg82
g2175
sg75
(lp2190
g68
(g69
g70
NtRp2191
(dp2192
g73
(dp2193
g81
I4
ssg82
g2187
sg75
(lp2194
g905
asbasbasbag68
(g84
g70
NtRp2195
(dp2196
g73
(dp2197
sg82
g2150
sg75
(lp2198
g68
(g89
g70
NtRp2199
(dp2200
g73
(dp2201
g93
g94
ssg82
g2195
sg75
(lp2202
g914
asbag68
(g89
g70
NtRp2203
(dp2204
g73
(dp2205
g100
g101
ssg82
g2195
sg75
(lp2206
S':'
asbag68
(g89
g70
NtRp2207
(dp2208
g73
(dp2209
sg82
g2195
sg75
(lp2210
g68
(g69
g70
NtRp2211
(dp2212
g73
(dp2213
g81
I4
ssg82
g2207
sg75
(lp2214
g68
(g77
g70
NtRp2215
(dp2216
g73
(dp2217
g81
I3
ssg82
Nsg75
(lp2218
sbasbasbasbag68
(g84
g70
NtRp2219
(dp2220
g73
(dp2221
sg82
g2150
sg75
(lp2222
g68
(g89
g70
NtRp2223
(dp2224
g73
(dp2225
g93
g94
ssg82
g2219
sg75
(lp2226
g939
asbag68
(g89
g70
NtRp2227
(dp2228
g73
(dp2229
g100
g101
ssg82
g2219
sg75
(lp2230
S':'
asbag68
(g89
g70
NtRp2231
(dp2232
g73
(dp2233
sg82
g2219
sg75
(lp2234
g68
(g69
g70
NtRp2235
(dp2236
g73
(dp2237
g81
I4
ssg82
g2231
sg75
(lp2238
S"<Values at 0x10aa51128: {'verbose': False, 'ip': '127.0.0.1', 'with_scheduler': False, 'ips': ['fe80::8e2d:aaff:fe4a:3d35%en1', '192.168.1.35'], 'shutdown_timeout': 5, 'taskbar': False, 'port': 8000, 'maxthreads': None, 'softcron': False, 'server_name': 'PeritoMascao.local', 'bpython': False, 'nogui': False, 'pid_filename': 'httpserver.pid', 'extcron': False, 'runcron': False, 'run_system_tests': False, 'test': None, 'folder': '/Users/Truki/Desarrollo/web2py', 'config': '', 'minthreads': None, 'winservice': '', 'shell': None, 'run': '', 'log_filename': 'httpserver.log', 'debuglevel': 30, 'args': [''], 'socket_timeout': 5, 'ssl_ca_certificate': None, 'scheduler': None, 'profiler_filename': None, 'ssl_private_key': '', 'scheduler_groups': None, 'password': '<ask>', 'request_queue_size': 5, 'ssl_certificate': '', 'cronjob': False, 'numthreads': None, 'quiet': False, 'interfaces': None, 'import_models': False, 'timeout': 10, 'plain': False, 'nobanner': False}>"
p2239
asbasbasbag68
(g84
g70
NtRp2240
(dp2241
g73
(dp2242
sg82
g2150
sg75
(lp2243
g68
(g89
g70
NtRp2244
(dp2245
g73
(dp2246
g93
g94
ssg82
g2240
sg75
(lp2247
g1005
asbag68
(g89
g70
NtRp2248
(dp2249
g73
(dp2250
g100
g101
ssg82
g2240
sg75
(lp2251
S':'
asbag68
(g89
g70
NtRp2252
(dp2253
g73
(dp2254
sg82
g2240
sg75
(lp2255
g68
(g69
g70
NtRp2256
(dp2257
g73
(dp2258
g81
I4
ssg82
g2252
sg75
(lp2259
S'set([])'
p2260
asbasbasbag68
(g84
g70
NtRp2261
(dp2262
g73
(dp2263
sg82
g2150
sg75
(lp2264
g68
(g89
g70
NtRp2265
(dp2266
g73
(dp2267
g93
g94
ssg82
g2261
sg75
(lp2268
g1027
asbag68
(g89
g70
NtRp2269
(dp2270
g73
(dp2271
g100
g101
ssg82
g2261
sg75
(lp2272
S':'
asbag68
(g89
g70
NtRp2273
(dp2274
g73
(dp2275
sg82
g2261
sg75
(lp2276
g68
(g69
g70
NtRp2277
(dp2278
g73
(dp2279
g81
I4
ssg82
g2273
sg75
(lp2280
g111
asbasbasbag68
(g84
g70
NtRp2281
(dp2282
g73
(dp2283
sg82
g2150
sg75
(lp2284
g68
(g89
g70
NtRp2285
(dp2286
g73
(dp2287
g93
g94
ssg82
g2281
sg75
(lp2288
g1048
asbag68
(g89
g70
NtRp2289
(dp2290
g73
(dp2291
g100
g101
ssg82
g2281
sg75
(lp2292
S':'
asbag68
(g89
g70
NtRp2293
(dp2294
g73
(dp2295
sg82
g2281
sg75
(lp2296
g68
(g69
g70
NtRp2297
(dp2298
g73
(dp2299
g81
I4
ssg82
g2293
sg75
(lp2300
g1061
asbasbasbag68
(g84
g70
NtRp2301
(dp2302
g73
(dp2303
sg82
g2150
sg75
(lp2304
g68
(g89
g70
NtRp2305
(dp2306
g73
(dp2307
g93
g94
ssg82
g2301
sg75
(lp2308
g1354
asbag68
(g89
g70
NtRp2309
(dp2310
g73
(dp2311
g100
g101
ssg82
g2301
sg75
(lp2312
S':'
asbag68
(g89
g70
NtRp2313
(dp2314
g73
(dp2315
sg82
g2301
sg75
(lp2316
g68
(g69
g70
NtRp2317
(dp2318
g73
(dp2319
g81
I4
ssg82
g2313
sg75
(lp2320
g111
asbasbasbag68
(g84
g70
NtRp2321
(dp2322
g73
(dp2323
sg82
g2150
sg75
(lp2324
g68
(g89
g70
NtRp2325
(dp2326
g73
(dp2327
g93
g94
ssg82
g2321
sg75
(lp2328
g1375
asbag68
(g89
g70
NtRp2329
(dp2330
g73
(dp2331
g100
g101
ssg82
g2321
sg75
(lp2332
S':'
asbag68
(g89
g70
NtRp2333
(dp2334
g73
(dp2335
sg82
g2321
sg75
(lp2336
g68
(g69
g70
NtRp2337
(dp2338
g73
(dp2339
g81
I4
ssg82
g2333
sg75
(lp2340
g111
asbasbasbag68
(g84
g70
NtRp2341
(dp2342
g73
(dp2343
sg82
g2150
sg75
(lp2344
g68
(g89
g70
NtRp2345
(dp2346
g73
(dp2347
g93
g94
ssg82
g2341
sg75
(lp2348
g1396
asbag68
(g89
g70
NtRp2349
(dp2350
g73
(dp2351
g100
g101
ssg82
g2341
sg75
(lp2352
S':'
asbag68
(g89
g70
NtRp2353
(dp2354
g73
(dp2355
sg82
g2341
sg75
(lp2356
g68
(g69
g70
NtRp2357
(dp2358
g73
(dp2359
g81
I4
ssg82
g2353
sg75
(lp2360
g68
(g77
g70
NtRp2361
(dp2362
g73
(dp2363
g81
I3
ssg82
Nsg75
(lp2364
g68
(g84
g70
NtRp2365
(dp2366
g73
(dp2367
sg82
g2361
sg75
(lp2368
g68
(g89
g70
NtRp2369
(dp2370
g73
(dp2371
sg82
g2365
sg75
(lp2372
g68
(g69
g70
NtRp2373
(dp2374
g73
(dp2375
g81
I3
ssg82
g2369
sg75
(lp2376
g1425
asbasbasbag68
(g84
g70
NtRp2377
(dp2378
g73
(dp2379
sg82
g2361
sg75
(lp2380
g68
(g89
g70
NtRp2381
(dp2382
g73
(dp2383
sg82
g2377
sg75
(lp2384
g68
(g69
g70
NtRp2385
(dp2386
g73
(dp2387
g81
I3
ssg82
g2381
sg75
(lp2388
g1438
asbasbasbag68
(g84
g70
NtRp2389
(dp2390
g73
(dp2391
sg82
g2361
sg75
(lp2392
g68
(g89
g70
NtRp2393
(dp2394
g73
(dp2395
sg82
g2389
sg75
(lp2396
g68
(g69
g70
NtRp2397
(dp2398
g73
(dp2399
g81
I3
ssg82
g2393
sg75
(lp2400
g1451
asbasbasbag68
(g84
g70
NtRp2401
(dp2402
g73
(dp2403
sg82
g2361
sg75
(lp2404
g68
(g89
g70
NtRp2405
(dp2406
g73
(dp2407
sg82
g2401
sg75
(lp2408
g68
(g69
g70
NtRp2409
(dp2410
g73
(dp2411
g81
I3
ssg82
g2405
sg75
(lp2412
g1464
asbasbasbag68
(g84
g70
NtRp2413
(dp2414
g73
(dp2415
sg82
g2361
sg75
(lp2416
g68
(g89
g70
NtRp2417
(dp2418
g73
(dp2419
sg82
g2413
sg75
(lp2420
g68
(g69
g70
NtRp2421
(dp2422
g73
(dp2423
g81
I3
ssg82
g2417
sg75
(lp2424
g1477
asbasbasbag68
(g84
g70
NtRp2425
(dp2426
g73
(dp2427
sg82
g2361
sg75
(lp2428
g68
(g89
g70
NtRp2429
(dp2430
g73
(dp2431
sg82
g2425
sg75
(lp2432
g68
(g69
g70
NtRp2433
(dp2434
g73
(dp2435
g81
I3
ssg82
g2429
sg75
(lp2436
g1490
asbasbasbasbasbasbasbag68
(g84
g70
NtRp2437
(dp2438
g73
(dp2439
sg82
g2150
sg75
(lp2440
g68
(g89
g70
NtRp2441
(dp2442
g73
(dp2443
g93
g94
ssg82
g2437
sg75
(lp2444
g1758
asbag68
(g89
g70
NtRp2445
(dp2446
g73
(dp2447
g100
g101
ssg82
g2437
sg75
(lp2448
S':'
asbag68
(g89
g70
NtRp2449
(dp2450
g73
(dp2451
sg82
g2437
sg75
(lp2452
g68
(g69
g70
NtRp2453
(dp2454
g73
(dp2455
g81
I4
ssg82
g2449
sg75
(lp2456
g68
(g77
g70
NtRp2457
(dp2458
g73
(dp2459
g81
I3
ssg82
Nsg75
(lp2460
g68
(g84
g70
NtRp2461
(dp2462
g73
(dp2463
sg82
g2457
sg75
(lp2464
g68
(g89
g70
NtRp2465
(dp2466
g73
(dp2467
sg82
g2461
sg75
(lp2468
g68
(g69
g70
NtRp2469
(dp2470
g73
(dp2471
g81
I3
ssg82
g2465
sg75
(lp2472
S'2'
asbasbasbag68
(g84
g70
NtRp2473
(dp2474
g73
(dp2475
sg82
g2457
sg75
(lp2476
g68
(g89
g70
NtRp2477
(dp2478
g73
(dp2479
sg82
g2473
sg75
(lp2480
g68
(g69
g70
NtRp2481
(dp2482
g73
(dp2483
g81
I3
ssg82
g2477
sg75
(lp2484
S'3'
asbasbasbag68
(g84
g70
NtRp2485
(dp2486
g73
(dp2487
sg82
g2457
sg75
(lp2488
g68
(g89
g70
NtRp2489
(dp2490
g73
(dp2491
sg82
g2485
sg75
(lp2492
g68
(g69
g70
NtRp2493
(dp2494
g73
(dp2495
g81
I3
ssg82
g2489
sg75
(lp2496
S'2'
asbasbasbag68
(g84
g70
NtRp2497
(dp2498
g73
(dp2499
sg82
g2457
sg75
(lp2500
g68
(g89
g70
NtRp2501
(dp2502
g73
(dp2503
sg82
g2497
sg75
(lp2504
g68
(g69
g70
NtRp2505
(dp2506
g73
(dp2507
g81
I3
ssg82
g2501
sg75
(lp2508
S'datetime.datetime(2012, 12, 17, 15, 3, 30)'
p2509
asbasbasbag68
(g84
g70
NtRp2510
(dp2511
g73
(dp2512
sg82
g2457
sg75
(lp2513
g68
(g89
g70
NtRp2514
(dp2515
g73
(dp2516
sg82
g2510
sg75
(lp2517
g68
(g69
g70
NtRp2518
(dp2519
g73
(dp2520
g81
I3
ssg82
g2514
sg75
(lp2521
g1836
asbasbasbasbasbasbasbasbasbasbasbag68
(g84
g70
NtRp2522
(dp2523
g73
(dp2524
sg82
g78
sg75
(lp2525
g68
(g89
g70
NtRp2526
(dp2527
g73
(dp2528
g93
g94
ssg82
g2522
sg75
(lp2529
S'is_https'
p2530
asbag68
(g89
g70
NtRp2531
(dp2532
g73
(dp2533
g100
g101
ssg82
g2522
sg75
(lp2534
S':'
asbag68
(g89
g70
NtRp2535
(dp2536
g73
(dp2537
sg82
g2522
sg75
(lp2538
g68
(g69
g70
NtRp2539
(dp2540
g73
(dp2541
g81
I5
ssg82
g2535
sg75
(lp2542
g111
asbasbasbag68
(g84
g70
NtRp2543
(dp2544
g73
(dp2545
sg82
g78
sg75
(lp2546
g68
(g89
g70
NtRp2547
(dp2548
g73
(dp2549
g93
g94
ssg82
g2543
sg75
(lp2550
S'is_local'
p2551
asbag68
(g89
g70
NtRp2552
(dp2553
g73
(dp2554
g100
g101
ssg82
g2543
sg75
(lp2555
S':'
asbag68
(g89
g70
NtRp2556
(dp2557
g73
(dp2558
sg82
g2543
sg75
(lp2559
g68
(g69
g70
NtRp2560
(dp2561
g73
(dp2562
g81
I5
ssg82
g2556
sg75
(lp2563
g1945
asbasbasbag68
(g84
g70
NtRp2564
(dp2565
g73
(dp2566
sg82
g78
sg75
(lp2567
g68
(g89
g70
NtRp2568
(dp2569
g73
(dp2570
g93
g94
ssg82
g2564
sg75
(lp2571
S'is_restful'
p2572
asbag68
(g89
g70
NtRp2573
(dp2574
g73
(dp2575
g100
g101
ssg82
g2564
sg75
(lp2576
S':'
asbag68
(g89
g70
NtRp2577
(dp2578
g73
(dp2579
sg82
g2564
sg75
(lp2580
g68
(g69
g70
NtRp2581
(dp2582
g73
(dp2583
g81
I5
ssg82
g2577
sg75
(lp2584
g111
asbasbasbag68
(g84
g70
NtRp2585
(dp2586
g73
(dp2587
sg82
g78
sg75
(lp2588
g68
(g89
g70
NtRp2589
(dp2590
g73
(dp2591
g93
g94
ssg82
g2585
sg75
(lp2592
S'now'
p2593
asbag68
(g89
g70
NtRp2594
(dp2595
g73
(dp2596
g100
g101
ssg82
g2585
sg75
(lp2597
S':'
asbag68
(g89
g70
NtRp2598
(dp2599
g73
(dp2600
sg82
g2585
sg75
(lp2601
g68
(g69
g70
NtRp2602
(dp2603
g73
(dp2604
g81
I5
ssg82
g2598
sg75
(lp2605
S'datetime.datetime(2013, 2, 21, 23, 18, 3, 114214)'
p2606
asbasbasbag68
(g84
g70
NtRp2607
(dp2608
g73
(dp2609
sg82
g78
sg75
(lp2610
g68
(g89
g70
NtRp2611
(dp2612
g73
(dp2613
g93
g94
ssg82
g2607
sg75
(lp2614
S'post_vars'
p2615
asbag68
(g89
g70
NtRp2616
(dp2617
g73
(dp2618
g100
g101
ssg82
g2607
sg75
(lp2619
S':'
asbag68
(g89
g70
NtRp2620
(dp2621
g73
(dp2622
sg82
g2607
sg75
(lp2623
g68
(g69
g70
NtRp2624
(dp2625
g73
(dp2626
g81
I5
ssg82
g2620
sg75
(lp2627
g68
(g77
g70
NtRp2628
(dp2629
g73
(dp2630
g81
I4
ssg82
Nsg75
(lp2631
g68
(g84
g70
NtRp2632
(dp2633
g73
(dp2634
sg82
g2628
sg75
(lp2635
g68
(g89
g70
NtRp2636
(dp2637
g73
(dp2638
g93
g94
ssg82
g2632
sg75
(lp2639
S'cantidad'
p2640
asbag68
(g89
g70
NtRp2641
(dp2642
g73
(dp2643
g100
g101
ssg82
g2632
sg75
(lp2644
S':'
asbag68
(g89
g70
NtRp2645
(dp2646
g73
(dp2647
sg82
g2632
sg75
(lp2648
g68
(g69
g70
NtRp2649
(dp2650
g73
(dp2651
g81
I4
ssg82
g2645
sg75
(lp2652
S'10'
p2653
asbasbasbag68
(g84
g70
NtRp2654
(dp2655
g73
(dp2656
sg82
g2628
sg75
(lp2657
g68
(g89
g70
NtRp2658
(dp2659
g73
(dp2660
g93
g94
ssg82
g2654
sg75
(lp2661
S'descripcion'
p2662
asbag68
(g89
g70
NtRp2663
(dp2664
g73
(dp2665
g100
g101
ssg82
g2654
sg75
(lp2666
S':'
asbag68
(g89
g70
NtRp2667
(dp2668
g73
(dp2669
sg82
g2654
sg75
(lp2670
g68
(g69
g70
NtRp2671
(dp2672
g73
(dp2673
g81
I4
ssg82
g2667
sg75
(lp2674
S'concepto6'
p2675
asbasbasbag68
(g84
g70
NtRp2676
(dp2677
g73
(dp2678
sg82
g2628
sg75
(lp2679
g68
(g89
g70
NtRp2680
(dp2681
g73
(dp2682
g93
g94
ssg82
g2676
sg75
(lp2683
S'insertarConcepto'
p2684
asbag68
(g89
g70
NtRp2685
(dp2686
g73
(dp2687
g100
g101
ssg82
g2676
sg75
(lp2688
S':'
asbag68
(g89
g70
NtRp2689
(dp2690
g73
(dp2691
sg82
g2676
sg75
(lp2692
g68
(g69
g70
NtRp2693
(dp2694
g73
(dp2695
g81
I4
ssg82
g2689
sg75
(lp2696
S'Insertar'
p2697
asbasbasbag68
(g84
g70
NtRp2698
(dp2699
g73
(dp2700
sg82
g2628
sg75
(lp2701
g68
(g89
g70
NtRp2702
(dp2703
g73
(dp2704
g93
g94
ssg82
g2698
sg75
(lp2705
S'precio'
p2706
asbag68
(g89
g70
NtRp2707
(dp2708
g73
(dp2709
g100
g101
ssg82
g2698
sg75
(lp2710
S':'
asbag68
(g89
g70
NtRp2711
(dp2712
g73
(dp2713
sg82
g2698
sg75
(lp2714
g68
(g69
g70
NtRp2715
(dp2716
g73
(dp2717
g81
I4
ssg82
g2711
sg75
(lp2718
S'150'
p2719
asbasbasbasbasbasbasbag68
(g84
g70
NtRp2720
(dp2721
g73
(dp2722
sg82
g78
sg75
(lp2723
g68
(g89
g70
NtRp2724
(dp2725
g73
(dp2726
g93
g94
ssg82
g2720
sg75
(lp2727
S'raw_args'
p2728
asbag68
(g89
g70
NtRp2729
(dp2730
g73
(dp2731
g100
g101
ssg82
g2720
sg75
(lp2732
S':'
asbag68
(g89
g70
NtRp2733
(dp2734
g73
(dp2735
sg82
g2720
sg75
(lp2736
g68
(g69
g70
NtRp2737
(dp2738
g73
(dp2739
g81
I5
ssg82
g2733
sg75
(lp2740
S''
asbasbasbag68
(g84
g70
NtRp2741
(dp2742
g73
(dp2743
sg82
g78
sg75
(lp2744
g68
(g89
g70
NtRp2745
(dp2746
g73
(dp2747
g93
g94
ssg82
g2741
sg75
(lp2748
S'raw_extension'
p2749
asbag68
(g89
g70
NtRp2750
(dp2751
g73
(dp2752
g100
g101
ssg82
g2741
sg75
(lp2753
S':'
asbag68
(g89
g70
NtRp2754
(dp2755
g73
(dp2756
sg82
g2741
sg75
(lp2757
g68
(g69
g70
NtRp2758
(dp2759
g73
(dp2760
g81
I5
ssg82
g2754
sg75
(lp2761
S'None'
p2762
asbasbasbag68
(g84
g70
NtRp2763
(dp2764
g73
(dp2765
sg82
g78
sg75
(lp2766
g68
(g89
g70
NtRp2767
(dp2768
g73
(dp2769
g93
g94
ssg82
g2763
sg75
(lp2770
S'url'
p2771
asbag68
(g89
g70
NtRp2772
(dp2773
g73
(dp2774
g100
g101
ssg82
g2763
sg75
(lp2775
S':'
asbag68
(g89
g70
NtRp2776
(dp2777
g73
(dp2778
sg82
g2763
sg75
(lp2779
g68
(g69
g70
NtRp2780
(dp2781
g73
(dp2782
g81
I5
ssg82
g2776
sg75
(lp2783
g1512
asbasbasbag68
(g84
g70
NtRp2784
(dp2785
g73
(dp2786
sg82
g78
sg75
(lp2787
g68
(g89
g70
NtRp2788
(dp2789
g73
(dp2790
g93
g94
ssg82
g2784
sg75
(lp2791
S'utcnow'
p2792
asbag68
(g89
g70
NtRp2793
(dp2794
g73
(dp2795
g100
g101
ssg82
g2784
sg75
(lp2796
S':'
asbag68
(g89
g70
NtRp2797
(dp2798
g73
(dp2799
sg82
g2784
sg75
(lp2800
g68
(g69
g70
NtRp2801
(dp2802
g73
(dp2803
g81
I5
ssg82
g2797
sg75
(lp2804
S'datetime.datetime(2013, 2, 21, 22, 18, 3, 114222)'
p2805
asbasbasbag68
(g84
g70
NtRp2806
(dp2807
g73
(dp2808
sg82
g78
sg75
(lp2809
g68
(g89
g70
NtRp2810
(dp2811
g73
(dp2812
g93
g94
ssg82
g2806
sg75
(lp2813
S'uuid'
p2814
asbag68
(g89
g70
NtRp2815
(dp2816
g73
(dp2817
g100
g101
ssg82
g2806
sg75
(lp2818
S':'
asbag68
(g89
g70
NtRp2819
(dp2820
g73
(dp2821
sg82
g2806
sg75
(lp2822
g68
(g69
g70
NtRp2823
(dp2824
g73
(dp2825
g81
I5
ssg82
g2819
sg75
(lp2826
S'rosan/127.0.0.1.2013-02-21.23-18-03.d4d1c377-a0b0-45be-9dae-3f026a15030b'
p2827
asbasbasbag68
(g84
g70
NtRp2828
(dp2829
g73
(dp2830
sg82
g78
sg75
(lp2831
g68
(g89
g70
NtRp2832
(dp2833
g73
(dp2834
g93
g94
ssg82
g2828
sg75
(lp2835
S'vars'
p2836
asbag68
(g89
g70
NtRp2837
(dp2838
g73
(dp2839
g100
g101
ssg82
g2828
sg75
(lp2840
S':'
asbag68
(g89
g70
NtRp2841
(dp2842
g73
(dp2843
sg82
g2828
sg75
(lp2844
g68
(g69
g70
NtRp2845
(dp2846
g73
(dp2847
g81
I5
ssg82
g2841
sg75
(lp2848
g68
(g77
g70
NtRp2849
(dp2850
g73
(dp2851
g81
I4
ssg82
Nsg75
(lp2852
g68
(g84
g70
NtRp2853
(dp2854
g73
(dp2855
sg82
g2849
sg75
(lp2856
g68
(g89
g70
NtRp2857
(dp2858
g73
(dp2859
g93
g94
ssg82
g2853
sg75
(lp2860
g2640
asbag68
(g89
g70
NtRp2861
(dp2862
g73
(dp2863
g100
g101
ssg82
g2853
sg75
(lp2864
S':'
asbag68
(g89
g70
NtRp2865
(dp2866
g73
(dp2867
sg82
g2853
sg75
(lp2868
g68
(g69
g70
NtRp2869
(dp2870
g73
(dp2871
g81
I4
ssg82
g2865
sg75
(lp2872
g2653
asbasbasbag68
(g84
g70
NtRp2873
(dp2874
g73
(dp2875
sg82
g2849
sg75
(lp2876
g68
(g89
g70
NtRp2877
(dp2878
g73
(dp2879
g93
g94
ssg82
g2873
sg75
(lp2880
g2662
asbag68
(g89
g70
NtRp2881
(dp2882
g73
(dp2883
g100
g101
ssg82
g2873
sg75
(lp2884
S':'
asbag68
(g89
g70
NtRp2885
(dp2886
g73
(dp2887
sg82
g2873
sg75
(lp2888
g68
(g69
g70
NtRp2889
(dp2890
g73
(dp2891
g81
I4
ssg82
g2885
sg75
(lp2892
g2675
asbasbasbag68
(g84
g70
NtRp2893
(dp2894
g73
(dp2895
sg82
g2849
sg75
(lp2896
g68
(g89
g70
NtRp2897
(dp2898
g73
(dp2899
g93
g94
ssg82
g2893
sg75
(lp2900
g2684
asbag68
(g89
g70
NtRp2901
(dp2902
g73
(dp2903
g100
g101
ssg82
g2893
sg75
(lp2904
S':'
asbag68
(g89
g70
NtRp2905
(dp2906
g73
(dp2907
sg82
g2893
sg75
(lp2908
g68
(g69
g70
NtRp2909
(dp2910
g73
(dp2911
g81
I4
ssg82
g2905
sg75
(lp2912
g2697
asbasbasbag68
(g84
g70
NtRp2913
(dp2914
g73
(dp2915
sg82
g2849
sg75
(lp2916
g68
(g89
g70
NtRp2917
(dp2918
g73
(dp2919
g93
g94
ssg82
g2913
sg75
(lp2920
g2706
asbag68
(g89
g70
NtRp2921
(dp2922
g73
(dp2923
g100
g101
ssg82
g2913
sg75
(lp2924
S':'
asbag68
(g89
g70
NtRp2925
(dp2926
g73
(dp2927
sg82
g2913
sg75
(lp2928
g68
(g69
g70
NtRp2929
(dp2930
g73
(dp2931
g81
I4
ssg82
g2925
sg75
(lp2932
g2719
asbasbasbasbasbasbasbag68
(g84
g70
NtRp2933
(dp2934
g73
(dp2935
sg82
g78
sg75
(lp2936
g68
(g89
g70
NtRp2937
(dp2938
g73
(dp2939
g93
g94
ssg82
g2933
sg75
(lp2940
S'wsgi'
p2941
asbag68
(g89
g70
NtRp2942
(dp2943
g73
(dp2944
g100
g101
ssg82
g2933
sg75
(lp2945
S':'
asbag68
(g89
g70
NtRp2946
(dp2947
g73
(dp2948
sg82
g2933
sg75
(lp2949
g68
(g69
g70
NtRp2950
(dp2951
g73
(dp2952
g81
I5
ssg82
g2946
sg75
(lp2953
g68
(g77
g70
NtRp2954
(dp2955
g73
(dp2956
g81
I4
ssg82
Nsg75
(lp2957
g68
(g84
g70
NtRp2958
(dp2959
g73
(dp2960
sg82
g2954
sg75
(lp2961
g68
(g89
g70
NtRp2962
(dp2963
g73
(dp2964
g93
g94
ssg82
g2958
sg75
(lp2965
S'environ'
p2966
asbag68
(g89
g70
NtRp2967
(dp2968
g73
(dp2969
g100
g101
ssg82
g2958
sg75
(lp2970
S':'
asbag68
(g89
g70
NtRp2971
(dp2972
g73
(dp2973
sg82
g2958
sg75
(lp2974
g68
(g69
g70
NtRp2975
(dp2976
g73
(dp2977
g81
I4
ssg82
g2971
sg75
(lp2978
g68
(g77
g70
NtRp2979
(dp2980
g73
(dp2981
g81
I3
ssg82
Nsg75
(lp2982
g68
(g84
g70
NtRp2983
(dp2984
g73
(dp2985
sg82
g2979
sg75
(lp2986
g68
(g89
g70
NtRp2987
(dp2988
g73
(dp2989
g93
g94
ssg82
g2983
sg75
(lp2990
S'CONTENT_LENGTH'
p2991
asbag68
(g89
g70
NtRp2992
(dp2993
g73
(dp2994
g100
g101
ssg82
g2983
sg75
(lp2995
S':'
asbag68
(g89
g70
NtRp2996
(dp2997
g73
(dp2998
sg82
g2983
sg75
(lp2999
g68
(g69
g70
NtRp3000
(dp3001
g73
(dp3002
g81
I3
ssg82
g2996
sg75
(lp3003
g974
asbasbasbag68
(g84
g70
NtRp3004
(dp3005
g73
(dp3006
sg82
g2979
sg75
(lp3007
g68
(g89
g70
NtRp3008
(dp3009
g73
(dp3010
g93
g94
ssg82
g3004
sg75
(lp3011
S'CONTENT_TYPE'
p3012
asbag68
(g89
g70
NtRp3013
(dp3014
g73
(dp3015
g100
g101
ssg82
g3004
sg75
(lp3016
S':'
asbag68
(g89
g70
NtRp3017
(dp3018
g73
(dp3019
sg82
g3004
sg75
(lp3020
g68
(g69
g70
NtRp3021
(dp3022
g73
(dp3023
g81
I3
ssg82
g3017
sg75
(lp3024
g996
asbasbasbag68
(g84
g70
NtRp3025
(dp3026
g73
(dp3027
sg82
g2979
sg75
(lp3028
g68
(g89
g70
NtRp3029
(dp3030
g73
(dp3031
g93
g94
ssg82
g3025
sg75
(lp3032
S'HTTP_ACCEPT'
p3033
asbag68
(g89
g70
NtRp3034
(dp3035
g73
(dp3036
g100
g101
ssg82
g3025
sg75
(lp3037
S':'
asbag68
(g89
g70
NtRp3038
(dp3039
g73
(dp3040
sg82
g3025
sg75
(lp3041
g68
(g69
g70
NtRp3042
(dp3043
g73
(dp3044
g81
I3
ssg82
g3038
sg75
(lp3045
g1083
asbasbasbag68
(g84
g70
NtRp3046
(dp3047
g73
(dp3048
sg82
g2979
sg75
(lp3049
g68
(g89
g70
NtRp3050
(dp3051
g73
(dp3052
g93
g94
ssg82
g3046
sg75
(lp3053
S'HTTP_ACCEPT_CHARSET'
p3054
asbag68
(g89
g70
NtRp3055
(dp3056
g73
(dp3057
g100
g101
ssg82
g3046
sg75
(lp3058
S':'
asbag68
(g89
g70
NtRp3059
(dp3060
g73
(dp3061
sg82
g3046
sg75
(lp3062
g68
(g69
g70
NtRp3063
(dp3064
g73
(dp3065
g81
I3
ssg82
g3059
sg75
(lp3066
g1105
asbasbasbag68
(g84
g70
NtRp3067
(dp3068
g73
(dp3069
sg82
g2979
sg75
(lp3070
g68
(g89
g70
NtRp3071
(dp3072
g73
(dp3073
g93
g94
ssg82
g3067
sg75
(lp3074
S'HTTP_ACCEPT_ENCODING'
p3075
asbag68
(g89
g70
NtRp3076
(dp3077
g73
(dp3078
g100
g101
ssg82
g3067
sg75
(lp3079
S':'
asbag68
(g89
g70
NtRp3080
(dp3081
g73
(dp3082
sg82
g3067
sg75
(lp3083
g68
(g69
g70
NtRp3084
(dp3085
g73
(dp3086
g81
I3
ssg82
g3080
sg75
(lp3087
g1127
asbasbasbag68
(g84
g70
NtRp3088
(dp3089
g73
(dp3090
sg82
g2979
sg75
(lp3091
g68
(g89
g70
NtRp3092
(dp3093
g73
(dp3094
g93
g94
ssg82
g3088
sg75
(lp3095
S'HTTP_ACCEPT_LANGUAGE'
p3096
asbag68
(g89
g70
NtRp3097
(dp3098
g73
(dp3099
g100
g101
ssg82
g3088
sg75
(lp3100
S':'
asbag68
(g89
g70
NtRp3101
(dp3102
g73
(dp3103
sg82
g3088
sg75
(lp3104
g68
(g69
g70
NtRp3105
(dp3106
g73
(dp3107
g81
I3
ssg82
g3101
sg75
(lp3108
g1149
asbasbasbag68
(g84
g70
NtRp3109
(dp3110
g73
(dp3111
sg82
g2979
sg75
(lp3112
g68
(g89
g70
NtRp3113
(dp3114
g73
(dp3115
g93
g94
ssg82
g3109
sg75
(lp3116
S'HTTP_CACHE_CONTROL'
p3117
asbag68
(g89
g70
NtRp3118
(dp3119
g73
(dp3120
g100
g101
ssg82
g3109
sg75
(lp3121
S':'
asbag68
(g89
g70
NtRp3122
(dp3123
g73
(dp3124
sg82
g3109
sg75
(lp3125
g68
(g69
g70
NtRp3126
(dp3127
g73
(dp3128
g81
I3
ssg82
g3122
sg75
(lp3129
g1171
asbasbasbag68
(g84
g70
NtRp3130
(dp3131
g73
(dp3132
sg82
g2979
sg75
(lp3133
g68
(g89
g70
NtRp3134
(dp3135
g73
(dp3136
g93
g94
ssg82
g3130
sg75
(lp3137
S'HTTP_CONNECTION'
p3138
asbag68
(g89
g70
NtRp3139
(dp3140
g73
(dp3141
g100
g101
ssg82
g3130
sg75
(lp3142
S':'
asbag68
(g89
g70
NtRp3143
(dp3144
g73
(dp3145
sg82
g3130
sg75
(lp3146
g68
(g69
g70
NtRp3147
(dp3148
g73
(dp3149
g81
I3
ssg82
g3143
sg75
(lp3150
g1193
asbasbasbag68
(g84
g70
NtRp3151
(dp3152
g73
(dp3153
sg82
g2979
sg75
(lp3154
g68
(g89
g70
NtRp3155
(dp3156
g73
(dp3157
g93
g94
ssg82
g3151
sg75
(lp3158
S'HTTP_CONTENT_LENGTH'
p3159
asbag68
(g89
g70
NtRp3160
(dp3161
g73
(dp3162
g100
g101
ssg82
g3151
sg75
(lp3163
S':'
asbag68
(g89
g70
NtRp3164
(dp3165
g73
(dp3166
sg82
g3151
sg75
(lp3167
g68
(g69
g70
NtRp3168
(dp3169
g73
(dp3170
g81
I3
ssg82
g3164
sg75
(lp3171
g974
asbasbasbag68
(g84
g70
NtRp3172
(dp3173
g73
(dp3174
sg82
g2979
sg75
(lp3175
g68
(g89
g70
NtRp3176
(dp3177
g73
(dp3178
g93
g94
ssg82
g3172
sg75
(lp3179
S'HTTP_CONTENT_TYPE'
p3180
asbag68
(g89
g70
NtRp3181
(dp3182
g73
(dp3183
g100
g101
ssg82
g3172
sg75
(lp3184
S':'
asbag68
(g89
g70
NtRp3185
(dp3186
g73
(dp3187
sg82
g3172
sg75
(lp3188
g68
(g69
g70
NtRp3189
(dp3190
g73
(dp3191
g81
I3
ssg82
g3185
sg75
(lp3192
g996
asbasbasbag68
(g84
g70
NtRp3193
(dp3194
g73
(dp3195
sg82
g2979
sg75
(lp3196
g68
(g89
g70
NtRp3197
(dp3198
g73
(dp3199
g93
g94
ssg82
g3193
sg75
(lp3200
S'HTTP_COOKIE'
p3201
asbag68
(g89
g70
NtRp3202
(dp3203
g73
(dp3204
g100
g101
ssg82
g3193
sg75
(lp3205
S':'
asbag68
(g89
g70
NtRp3206
(dp3207
g73
(dp3208
sg82
g3193
sg75
(lp3209
g68
(g69
g70
NtRp3210
(dp3211
g73
(dp3212
g81
I3
ssg82
g3206
sg75
(lp3213
g1257
asbasbasbag68
(g84
g70
NtRp3214
(dp3215
g73
(dp3216
sg82
g2979
sg75
(lp3217
g68
(g89
g70
NtRp3218
(dp3219
g73
(dp3220
g93
g94
ssg82
g3214
sg75
(lp3221
S'HTTP_HOST'
p3222
asbag68
(g89
g70
NtRp3223
(dp3224
g73
(dp3225
g100
g101
ssg82
g3214
sg75
(lp3226
S':'
asbag68
(g89
g70
NtRp3227
(dp3228
g73
(dp3229
sg82
g3214
sg75
(lp3230
g68
(g69
g70
NtRp3231
(dp3232
g73
(dp3233
g81
I3
ssg82
g3227
sg75
(lp3234
g1279
asbasbasbag68
(g84
g70
NtRp3235
(dp3236
g73
(dp3237
sg82
g2979
sg75
(lp3238
g68
(g89
g70
NtRp3239
(dp3240
g73
(dp3241
g93
g94
ssg82
g3235
sg75
(lp3242
S'HTTP_ORIGIN'
p3243
asbag68
(g89
g70
NtRp3244
(dp3245
g73
(dp3246
g100
g101
ssg82
g3235
sg75
(lp3247
S':'
asbag68
(g89
g70
NtRp3248
(dp3249
g73
(dp3250
sg82
g3235
sg75
(lp3251
g68
(g69
g70
NtRp3252
(dp3253
g73
(dp3254
g81
I3
ssg82
g3248
sg75
(lp3255
g1301
asbasbasbag68
(g84
g70
NtRp3256
(dp3257
g73
(dp3258
sg82
g2979
sg75
(lp3259
g68
(g89
g70
NtRp3260
(dp3261
g73
(dp3262
g93
g94
ssg82
g3256
sg75
(lp3263
S'HTTP_REFERER'
p3264
asbag68
(g89
g70
NtRp3265
(dp3266
g73
(dp3267
g100
g101
ssg82
g3256
sg75
(lp3268
S':'
asbag68
(g89
g70
NtRp3269
(dp3270
g73
(dp3271
sg82
g3256
sg75
(lp3272
g68
(g69
g70
NtRp3273
(dp3274
g73
(dp3275
g81
I3
ssg82
g3269
sg75
(lp3276
g1323
asbasbasbag68
(g84
g70
NtRp3277
(dp3278
g73
(dp3279
sg82
g2979
sg75
(lp3280
g68
(g89
g70
NtRp3281
(dp3282
g73
(dp3283
g93
g94
ssg82
g3277
sg75
(lp3284
S'HTTP_USER_AGENT'
p3285
asbag68
(g89
g70
NtRp3286
(dp3287
g73
(dp3288
g100
g101
ssg82
g3277
sg75
(lp3289
S':'
asbag68
(g89
g70
NtRp3290
(dp3291
g73
(dp3292
sg82
g3277
sg75
(lp3293
g68
(g69
g70
NtRp3294
(dp3295
g73
(dp3296
g81
I3
ssg82
g3290
sg75
(lp3297
g1345
asbasbasbag68
(g84
g70
NtRp3298
(dp3299
g73
(dp3300
sg82
g2979
sg75
(lp3301
g68
(g89
g70
NtRp3302
(dp3303
g73
(dp3304
g93
g94
ssg82
g3298
sg75
(lp3305
S'PATH_INFO'
p3306
asbag68
(g89
g70
NtRp3307
(dp3308
g73
(dp3309
g100
g101
ssg82
g3298
sg75
(lp3310
S':'
asbag68
(g89
g70
NtRp3311
(dp3312
g73
(dp3313
sg82
g3298
sg75
(lp3314
g68
(g69
g70
NtRp3315
(dp3316
g73
(dp3317
g81
I3
ssg82
g3311
sg75
(lp3318
g1512
asbasbasbag68
(g84
g70
NtRp3319
(dp3320
g73
(dp3321
sg82
g2979
sg75
(lp3322
g68
(g89
g70
NtRp3323
(dp3324
g73
(dp3325
g93
g94
ssg82
g3319
sg75
(lp3326
S'QUERY_STRING'
p3327
asbag68
(g89
g70
NtRp3328
(dp3329
g73
(dp3330
g100
g101
ssg82
g3319
sg75
(lp3331
S':'
asbag68
(g89
g70
NtRp3332
(dp3333
g73
(dp3334
sg82
g3319
sg75
(lp3335
g68
(g69
g70
NtRp3336
(dp3337
g73
(dp3338
g81
I3
ssg82
g3332
sg75
(lp3339
S''
asbasbasbag68
(g84
g70
NtRp3340
(dp3341
g73
(dp3342
sg82
g2979
sg75
(lp3343
g68
(g89
g70
NtRp3344
(dp3345
g73
(dp3346
g93
g94
ssg82
g3340
sg75
(lp3347
S'REMOTE_ADDR'
p3348
asbag68
(g89
g70
NtRp3349
(dp3350
g73
(dp3351
g100
g101
ssg82
g3340
sg75
(lp3352
S':'
asbag68
(g89
g70
NtRp3353
(dp3354
g73
(dp3355
sg82
g3340
sg75
(lp3356
g68
(g69
g70
NtRp3357
(dp3358
g73
(dp3359
g81
I3
ssg82
g3353
sg75
(lp3360
g223
asbasbasbag68
(g84
g70
NtRp3361
(dp3362
g73
(dp3363
sg82
g2979
sg75
(lp3364
g68
(g89
g70
NtRp3365
(dp3366
g73
(dp3367
g93
g94
ssg82
g3361
sg75
(lp3368
S'REMOTE_PORT'
p3369
asbag68
(g89
g70
NtRp3370
(dp3371
g73
(dp3372
g100
g101
ssg82
g3361
sg75
(lp3373
S':'
asbag68
(g89
g70
NtRp3374
(dp3375
g73
(dp3376
sg82
g3361
sg75
(lp3377
g68
(g69
g70
NtRp3378
(dp3379
g73
(dp3380
g81
I3
ssg82
g3374
sg75
(lp3381
g1576
asbasbasbag68
(g84
g70
NtRp3382
(dp3383
g73
(dp3384
sg82
g2979
sg75
(lp3385
g68
(g89
g70
NtRp3386
(dp3387
g73
(dp3388
g93
g94
ssg82
g3382
sg75
(lp3389
S'REQUEST_METHOD'
p3390
asbag68
(g89
g70
NtRp3391
(dp3392
g73
(dp3393
g100
g101
ssg82
g3382
sg75
(lp3394
S':'
asbag68
(g89
g70
NtRp3395
(dp3396
g73
(dp3397
sg82
g3382
sg75
(lp3398
g68
(g69
g70
NtRp3399
(dp3400
g73
(dp3401
g81
I3
ssg82
g3395
sg75
(lp3402
g1598
asbasbasbag68
(g84
g70
NtRp3403
(dp3404
g73
(dp3405
sg82
g2979
sg75
(lp3406
g68
(g89
g70
NtRp3407
(dp3408
g73
(dp3409
g93
g94
ssg82
g3403
sg75
(lp3410
S'REQUEST_URI'
p3411
asbag68
(g89
g70
NtRp3412
(dp3413
g73
(dp3414
g100
g101
ssg82
g3403
sg75
(lp3415
S':'
asbag68
(g89
g70
NtRp3416
(dp3417
g73
(dp3418
sg82
g3403
sg75
(lp3419
g68
(g69
g70
NtRp3420
(dp3421
g73
(dp3422
g81
I3
ssg82
g3416
sg75
(lp3423
g1512
asbasbasbag68
(g84
g70
NtRp3424
(dp3425
g73
(dp3426
sg82
g2979
sg75
(lp3427
g68
(g89
g70
NtRp3428
(dp3429
g73
(dp3430
g93
g94
ssg82
g3424
sg75
(lp3431
S'SCRIPT_NAME'
p3432
asbag68
(g89
g70
NtRp3433
(dp3434
g73
(dp3435
g100
g101
ssg82
g3424
sg75
(lp3436
S':'
asbag68
(g89
g70
NtRp3437
(dp3438
g73
(dp3439
sg82
g3424
sg75
(lp3440
g68
(g69
g70
NtRp3441
(dp3442
g73
(dp3443
g81
I3
ssg82
g3437
sg75
(lp3444
S''
asbasbasbag68
(g84
g70
NtRp3445
(dp3446
g73
(dp3447
sg82
g2979
sg75
(lp3448
g68
(g89
g70
NtRp3449
(dp3450
g73
(dp3451
g93
g94
ssg82
g3445
sg75
(lp3452
S'SERVER_NAME'
p3453
asbag68
(g89
g70
NtRp3454
(dp3455
g73
(dp3456
g100
g101
ssg82
g3445
sg75
(lp3457
S':'
asbag68
(g89
g70
NtRp3458
(dp3459
g73
(dp3460
sg82
g3445
sg75
(lp3461
g68
(g69
g70
NtRp3462
(dp3463
g73
(dp3464
g81
I3
ssg82
g3458
sg75
(lp3465
g1662
asbasbasbag68
(g84
g70
NtRp3466
(dp3467
g73
(dp3468
sg82
g2979
sg75
(lp3469
g68
(g89
g70
NtRp3470
(dp3471
g73
(dp3472
g93
g94
ssg82
g3466
sg75
(lp3473
S'SERVER_PORT'
p3474
asbag68
(g89
g70
NtRp3475
(dp3476
g73
(dp3477
g100
g101
ssg82
g3466
sg75
(lp3478
S':'
asbag68
(g89
g70
NtRp3479
(dp3480
g73
(dp3481
sg82
g3466
sg75
(lp3482
g68
(g69
g70
NtRp3483
(dp3484
g73
(dp3485
g81
I3
ssg82
g3479
sg75
(lp3486
g1684
asbasbasbag68
(g84
g70
NtRp3487
(dp3488
g73
(dp3489
sg82
g2979
sg75
(lp3490
g68
(g89
g70
NtRp3491
(dp3492
g73
(dp3493
g93
g94
ssg82
g3487
sg75
(lp3494
S'SERVER_PROTOCOL'
p3495
asbag68
(g89
g70
NtRp3496
(dp3497
g73
(dp3498
g100
g101
ssg82
g3487
sg75
(lp3499
S':'
asbag68
(g89
g70
NtRp3500
(dp3501
g73
(dp3502
sg82
g3487
sg75
(lp3503
g68
(g69
g70
NtRp3504
(dp3505
g73
(dp3506
g81
I3
ssg82
g3500
sg75
(lp3507
g1706
asbasbasbag68
(g84
g70
NtRp3508
(dp3509
g73
(dp3510
sg82
g2979
sg75
(lp3511
g68
(g89
g70
NtRp3512
(dp3513
g73
(dp3514
g93
g94
ssg82
g3508
sg75
(lp3515
S'SERVER_SOFTWARE'
p3516
asbag68
(g89
g70
NtRp3517
(dp3518
g73
(dp3519
g100
g101
ssg82
g3508
sg75
(lp3520
S':'
asbag68
(g89
g70
NtRp3521
(dp3522
g73
(dp3523
sg82
g3508
sg75
(lp3524
g68
(g69
g70
NtRp3525
(dp3526
g73
(dp3527
g81
I3
ssg82
g3521
sg75
(lp3528
g1728
asbasbasbag68
(g84
g70
NtRp3529
(dp3530
g73
(dp3531
sg82
g2979
sg75
(lp3532
g68
(g89
g70
NtRp3533
(dp3534
g73
(dp3535
g93
g94
ssg82
g3529
sg75
(lp3536
S'wsgi.errors'
p3537
asbag68
(g89
g70
NtRp3538
(dp3539
g73
(dp3540
g100
g101
ssg82
g3529
sg75
(lp3541
S':'
asbag68
(g89
g70
NtRp3542
(dp3543
g73
(dp3544
sg82
g3529
sg75
(lp3545
g68
(g69
g70
NtRp3546
(dp3547
g73
(dp3548
g81
I3
ssg82
g3542
sg75
(lp3549
S"<open file '<stderr>', mode 'w' at 0x109baf270>"
p3550
asbasbasbag68
(g84
g70
NtRp3551
(dp3552
g73
(dp3553
sg82
g2979
sg75
(lp3554
g68
(g89
g70
NtRp3555
(dp3556
g73
(dp3557
g93
g94
ssg82
g3551
sg75
(lp3558
S'wsgi.file_wrapper'
p3559
asbag68
(g89
g70
NtRp3560
(dp3561
g73
(dp3562
g100
g101
ssg82
g3551
sg75
(lp3563
S':'
asbag68
(g89
g70
NtRp3564
(dp3565
g73
(dp3566
sg82
g3551
sg75
(lp3567
g68
(g69
g70
NtRp3568
(dp3569
g73
(dp3570
g81
I3
ssg82
g3564
sg75
(lp3571
S'<class wsgiref.util.FileWrapper at 0x10a7b1ef0>'
p3572
asbasbasbag68
(g84
g70
NtRp3573
(dp3574
g73
(dp3575
sg82
g2979
sg75
(lp3576
g68
(g89
g70
NtRp3577
(dp3578
g73
(dp3579
g93
g94
ssg82
g3573
sg75
(lp3580
S'wsgi.input'
p3581
asbag68
(g89
g70
NtRp3582
(dp3583
g73
(dp3584
g100
g101
ssg82
g3573
sg75
(lp3585
S':'
asbag68
(g89
g70
NtRp3586
(dp3587
g73
(dp3588
sg82
g3573
sg75
(lp3589
g68
(g69
g70
NtRp3590
(dp3591
g73
(dp3592
g81
I3
ssg82
g3586
sg75
(lp3593
S"<open file '<fdopen>', mode 'w+b' at 0x10a6eb660>"
p3594
asbasbasbag68
(g84
g70
NtRp3595
(dp3596
g73
(dp3597
sg82
g2979
sg75
(lp3598
g68
(g89
g70
NtRp3599
(dp3600
g73
(dp3601
g93
g94
ssg82
g3595
sg75
(lp3602
S'wsgi.multiprocess'
p3603
asbag68
(g89
g70
NtRp3604
(dp3605
g73
(dp3606
g100
g101
ssg82
g3595
sg75
(lp3607
S':'
asbag68
(g89
g70
NtRp3608
(dp3609
g73
(dp3610
sg82
g3595
sg75
(lp3611
g68
(g69
g70
NtRp3612
(dp3613
g73
(dp3614
g81
I3
ssg82
g3608
sg75
(lp3615
g111
asbasbasbag68
(g84
g70
NtRp3616
(dp3617
g73
(dp3618
sg82
g2979
sg75
(lp3619
g68
(g89
g70
NtRp3620
(dp3621
g73
(dp3622
g93
g94
ssg82
g3616
sg75
(lp3623
S'wsgi.multithread'
p3624
asbag68
(g89
g70
NtRp3625
(dp3626
g73
(dp3627
g100
g101
ssg82
g3616
sg75
(lp3628
S':'
asbag68
(g89
g70
NtRp3629
(dp3630
g73
(dp3631
sg82
g3616
sg75
(lp3632
g68
(g69
g70
NtRp3633
(dp3634
g73
(dp3635
g81
I3
ssg82
g3629
sg75
(lp3636
g1945
asbasbasbag68
(g84
g70
NtRp3637
(dp3638
g73
(dp3639
sg82
g2979
sg75
(lp3640
g68
(g89
g70
NtRp3641
(dp3642
g73
(dp3643
g93
g94
ssg82
g3637
sg75
(lp3644
S'wsgi.run_once'
p3645
asbag68
(g89
g70
NtRp3646
(dp3647
g73
(dp3648
g100
g101
ssg82
g3637
sg75
(lp3649
S':'
asbag68
(g89
g70
NtRp3650
(dp3651
g73
(dp3652
sg82
g3637
sg75
(lp3653
g68
(g69
g70
NtRp3654
(dp3655
g73
(dp3656
g81
I3
ssg82
g3650
sg75
(lp3657
g111
asbasbasbag68
(g84
g70
NtRp3658
(dp3659
g73
(dp3660
sg82
g2979
sg75
(lp3661
g68
(g89
g70
NtRp3662
(dp3663
g73
(dp3664
g93
g94
ssg82
g3658
sg75
(lp3665
S'wsgi.url_scheme'
p3666
asbag68
(g89
g70
NtRp3667
(dp3668
g73
(dp3669
g100
g101
ssg82
g3658
sg75
(lp3670
S':'
asbag68
(g89
g70
NtRp3671
(dp3672
g73
(dp3673
sg82
g3658
sg75
(lp3674
g68
(g69
g70
NtRp3675
(dp3676
g73
(dp3677
g81
I3
ssg82
g3671
sg75
(lp3678
g1988
asbasbasbag68
(g84
g70
NtRp3679
(dp3680
g73
(dp3681
sg82
g2979
sg75
(lp3682
g68
(g89
g70
NtRp3683
(dp3684
g73
(dp3685
g93
g94
ssg82
g3679
sg75
(lp3686
S'wsgi.version'
p3687
asbag68
(g89
g70
NtRp3688
(dp3689
g73
(dp3690
g100
g101
ssg82
g3679
sg75
(lp3691
S':'
asbag68
(g89
g70
NtRp3692
(dp3693
g73
(dp3694
sg82
g3679
sg75
(lp3695
g68
(g69
g70
NtRp3696
(dp3697
g73
(dp3698
g81
I3
ssg82
g3692
sg75
(lp3699
S'1'
asbasbasbasbasbasbasbasbasbasbasbasbasbsS'frames'
p3700
(lp3701
(dp3702
S'file'
p3703
S'/Users/Truki/Desarrollo/web2py/gluon/restricted.py'
p3704
sS'dump'
p3705
(dp3706
S'code'
p3707
S"'# coding: utf8\\n# intente algo como\\ndef index(): ...\\nresponse._vars=response._caller(detalleFactura)\\n'"
p3708
sS'layer'
p3709
S"'/Users/Truki/Desarrollo/web2py/applications/rosan/controllers/facturas.py'"
p3710
sS'global compile2'
p3711
S'<function compile2>'
p3712
sS'ccode'
p3713
S'undefined'
p3714
ssS'lnum'
p3715
I211
sS'lines'
p3716
(dp3717
I206
S"    environment['__name__'] = '__restricted__'"
p3718
sI207
S'    try:'
p3719
sI208
S'        if isinstance(code, types.CodeType):'
p3720
sI209
S'            ccode = code'
p3721
sI210
S'        else:'
p3722
sI211
S'            ccode = compile2(code, layer)'
p3723
sI212
S'        exec ccode in environment'
p3724
sI213
S'    except HTTP:'
p3725
sI214
S'        raise'
p3726
sI215
S'    except RestrictedError:'
p3727
ssS'call'
p3728
S"(code='# coding: utf8\\n# intente algo como\\ndef index(): ...\\nresponse._vars=response._caller(detalleFactura)\\n', environment={'A': <class 'gluon.html.A'>, 'Auth': <class 'gluon.tools.Auth'>, 'B': <class 'gluon.html.B'>, 'BEAUTIFY': <class 'gluon.html.BEAUTIFY'>, 'BODY': <class 'gluon.html.BODY'>, 'BR': <class 'gluon.html.BR'>, 'BUTTON': <class 'gluon.html.BUTTON'>, 'CAT': <class 'gluon.html.CAT'>, 'CENTER': <class 'gluon.html.CENTER'>, 'CLEANUP': <class 'gluon.validators.CLEANUP'>, ...}, layer='/Users/Truki/Desarrollo/web2py/applications/rosan/controllers/facturas.py')"
p3729
sS'func'
p3730
S'restricted'
p3731
sa(dp3732
g3703
S'/Users/Truki/Desarrollo/web2py/gluon/restricted.py'
p3733
sg3705
(dp3734
S'builtincompile'
p3735
S'<built-in function compile>'
p3736
sS'code'
p3737
S"'# coding: utf8\\n# intente algo como\\ndef index(): ...\\nresponse._vars=response._caller(detalleFactura)\\n'"
p3738
sS'code.rstrip'
p3739
S'<built-in method rstrip of str object>'
p3740
sS').replace'
p3741
g3714
sS'layer'
p3742
S"'/Users/Truki/Desarrollo/web2py/applications/rosan/controllers/facturas.py'"
p3743
ssg3715
I194
sg3716
(dp3744
I192
S"    The +'\\n' is necessary else compile fails when code ends in a comment."
p3745
sI193
S'    """'
p3746
sI194
S"    return compile(code.rstrip().replace('\\r\\n', '\\n') + '\\n', layer, 'exec')"
p3747
sI195
S''
sI196
S''
sI197
S"def restricted(code, environment=None, layer='Unknown'):"
p3748
sI198
S'    """'
p3749
sI189
S''
sI190
S'def compile2(code, layer):'
p3750
sI191
S'    """'
p3751
ssg3728
S"(code='# coding: utf8\\n# intente algo como\\ndef index(): ...\\nresponse._vars=response._caller(detalleFactura)\\n', layer='/Users/Truki/Desarrollo/web2py/applications/rosan/controllers/facturas.py')"
p3752
sg3730
S'compile2'
p3753
sasS'pyver'
p3754
S'Python 2.7.2: /usr/bin/python'
p3755
sS'session'
p3756
g68
(g69
g70
NtRp3757
(dp3758
g73
(dp3759
sg75
(lp3760
g68
(g77
g70
NtRp3761
(dp3762
g73
(dp3763
g81
I5
ssg82
Nsg75
(lp3764
g68
(g84
g70
NtRp3765
(dp3766
g73
(dp3767
sg82
g3761
sg75
(lp3768
g68
(g89
g70
NtRp3769
(dp3770
g73
(dp3771
g93
g94
ssg82
g3765
sg75
(lp3772
S'facturaId'
p3773
asbag68
(g89
g70
NtRp3774
(dp3775
g73
(dp3776
g100
g101
ssg82
g3765
sg75
(lp3777
S':'
asbag68
(g89
g70
NtRp3778
(dp3779
g73
(dp3780
sg82
g3765
sg75
(lp3781
g68
(g69
g70
NtRp3782
(dp3783
g73
(dp3784
g81
I5
ssg82
g3778
sg75
(lp3785
S'1'
asbasbasbag68
(g84
g70
NtRp3786
(dp3787
g73
(dp3788
sg82
g3761
sg75
(lp3789
g68
(g89
g70
NtRp3790
(dp3791
g73
(dp3792
g93
g94
ssg82
g3786
sg75
(lp3793
S'last_orderby'
p3794
asbag68
(g89
g70
NtRp3795
(dp3796
g73
(dp3797
g100
g101
ssg82
g3786
sg75
(lp3798
S':'
asbag68
(g89
g70
NtRp3799
(dp3800
g73
(dp3801
sg82
g3786
sg75
(lp3802
g68
(g69
g70
NtRp3803
(dp3804
g73
(dp3805
g81
I5
ssg82
g3799
sg75
(lp3806
S'None'
p3807
asbasbasbag68
(g84
g70
NtRp3808
(dp3809
g73
(dp3810
sg82
g3761
sg75
(lp3811
g68
(g89
g70
NtRp3812
(dp3813
g73
(dp3814
g93
g94
ssg82
g3808
sg75
(lp3815
S'last_query'
p3816
asbag68
(g89
g70
NtRp3817
(dp3818
g73
(dp3819
g100
g101
ssg82
g3808
sg75
(lp3820
S':'
asbag68
(g89
g70
NtRp3821
(dp3822
g73
(dp3823
sg82
g3808
sg75
(lp3824
g68
(g69
g70
NtRp3825
(dp3826
g73
(dp3827
g81
I5
ssg82
g3821
sg75
(lp3828
S'dbRosan.factura_detalle_temp.id>0'
p3829
asbasbasbasbasbsS'etype'
p3830
S"<type 'exceptions.IndentationError'>"
p3831
sS'date'
p3832
S'Thu Feb 21 23:18:03 2013'
p3833
sS'response'
p3834
g68
(g69
g70
NtRp3835
(dp3836
g73
(dp3837
sg75
(lp3838
g68
(g77
g70
NtRp3839
(dp3840
g73
(dp3841
g81
I5
ssg82
Nsg75
(lp3842
g68
(g84
g70
NtRp3843
(dp3844
g73
(dp3845
sg82
g3839
sg75
(lp3846
g68
(g89
g70
NtRp3847
(dp3848
g73
(dp3849
g93
g94
ssg82
g3843
sg75
(lp3850
g166
asbag68
(g89
g70
NtRp3851
(dp3852
g73
(dp3853
g100
g101
ssg82
g3843
sg75
(lp3854
S':'
asbag68
(g89
g70
NtRp3855
(dp3856
g73
(dp3857
sg82
g3843
sg75
(lp3858
g68
(g69
g70
NtRp3859
(dp3860
g73
(dp3861
g81
I5
ssg82
g3855
sg75
(lp3862
S'<cStringIO.StringO object at 0x10f499ed8>'
p3863
asbasbasbag68
(g84
g70
NtRp3864
(dp3865
g73
(dp3866
sg82
g3839
sg75
(lp3867
g68
(g89
g70
NtRp3868
(dp3869
g73
(dp3870
g93
g94
ssg82
g3864
sg75
(lp3871
g254
asbag68
(g89
g70
NtRp3872
(dp3873
g73
(dp3874
g100
g101
ssg82
g3864
sg75
(lp3875
S':'
asbag68
(g89
g70
NtRp3876
(dp3877
g73
(dp3878
sg82
g3864
sg75
(lp3879
g68
(g69
g70
NtRp3880
(dp3881
g73
(dp3882
g81
I5
ssg82
g3876
sg75
(lp3883
g68
(g77
g70
NtRp3884
(dp3885
g73
(dp3886
g81
I4
ssg82
Nsg75
(lp3887
g68
(g84
g70
NtRp3888
(dp3889
g73
(dp3890
sg82
g3884
sg75
(lp3891
g68
(g89
g70
NtRp3892
(dp3893
g73
(dp3894
g93
g94
ssg82
g3888
sg75
(lp3895
S'session_id_rosan'
p3896
asbag68
(g89
g70
NtRp3897
(dp3898
g73
(dp3899
g100
g101
ssg82
g3888
sg75
(lp3900
S':'
asbag68
(g89
g70
NtRp3901
(dp3902
g73
(dp3903
sg82
g3888
sg75
(lp3904
g68
(g69
g70
NtRp3905
(dp3906
g73
(dp3907
g81
I4
ssg82
g3901
sg75
(lp3908
g486
ag68
(g77
g70
NtRp3909
(dp3910
g73
(dp3911
g81
I3
ssg82
Nsg75
(lp3912
g68
(g84
g70
NtRp3913
(dp3914
g73
(dp3915
sg82
g3909
sg75
(lp3916
g68
(g89
g70
NtRp3917
(dp3918
g73
(dp3919
g93
g94
ssg82
g3913
sg75
(lp3920
g305
asbag68
(g89
g70
NtRp3921
(dp3922
g73
(dp3923
g100
g101
ssg82
g3913
sg75
(lp3924
S':'
asbag68
(g89
g70
NtRp3925
(dp3926
g73
(dp3927
sg82
g3913
sg75
(lp3928
g68
(g69
g70
NtRp3929
(dp3930
g73
(dp3931
g81
I3
ssg82
g3925
sg75
(lp3932
S''
asbasbasbag68
(g84
g70
NtRp3933
(dp3934
g73
(dp3935
sg82
g3909
sg75
(lp3936
g68
(g89
g70
NtRp3937
(dp3938
g73
(dp3939
g93
g94
ssg82
g3933
sg75
(lp3940
g326
asbag68
(g89
g70
NtRp3941
(dp3942
g73
(dp3943
g100
g101
ssg82
g3933
sg75
(lp3944
S':'
asbag68
(g89
g70
NtRp3945
(dp3946
g73
(dp3947
sg82
g3933
sg75
(lp3948
g68
(g69
g70
NtRp3949
(dp3950
g73
(dp3951
g81
I3
ssg82
g3945
sg75
(lp3952
S''
asbasbasbag68
(g84
g70
NtRp3953
(dp3954
g73
(dp3955
sg82
g3909
sg75
(lp3956
g68
(g89
g70
NtRp3957
(dp3958
g73
(dp3959
g93
g94
ssg82
g3953
sg75
(lp3960
g347
asbag68
(g89
g70
NtRp3961
(dp3962
g73
(dp3963
g100
g101
ssg82
g3953
sg75
(lp3964
S':'
asbag68
(g89
g70
NtRp3965
(dp3966
g73
(dp3967
sg82
g3953
sg75
(lp3968
g68
(g69
g70
NtRp3969
(dp3970
g73
(dp3971
g81
I3
ssg82
g3965
sg75
(lp3972
S''
asbasbasbag68
(g84
g70
NtRp3973
(dp3974
g73
(dp3975
sg82
g3909
sg75
(lp3976
g68
(g89
g70
NtRp3977
(dp3978
g73
(dp3979
g93
g94
ssg82
g3973
sg75
(lp3980
g368
asbag68
(g89
g70
NtRp3981
(dp3982
g73
(dp3983
g100
g101
ssg82
g3973
sg75
(lp3984
S':'
asbag68
(g89
g70
NtRp3985
(dp3986
g73
(dp3987
sg82
g3973
sg75
(lp3988
g68
(g69
g70
NtRp3989
(dp3990
g73
(dp3991
g81
I3
ssg82
g3985
sg75
(lp3992
S''
asbasbasbag68
(g84
g70
NtRp3993
(dp3994
g73
(dp3995
sg82
g3909
sg75
(lp3996
g68
(g89
g70
NtRp3997
(dp3998
g73
(dp3999
g93
g94
ssg82
g3993
sg75
(lp4000
g389
asbag68
(g89
g70
NtRp4001
(dp4002
g73
(dp4003
g100
g101
ssg82
g3993
sg75
(lp4004
S':'
asbag68
(g89
g70
NtRp4005
(dp4006
g73
(dp4007
sg82
g3993
sg75
(lp4008
g68
(g69
g70
NtRp4009
(dp4010
g73
(dp4011
g81
I3
ssg82
g4005
sg75
(lp4012
S''
asbasbasbag68
(g84
g70
NtRp4013
(dp4014
g73
(dp4015
sg82
g3909
sg75
(lp4016
g68
(g89
g70
NtRp4017
(dp4018
g73
(dp4019
g93
g94
ssg82
g4013
sg75
(lp4020
g410
asbag68
(g89
g70
NtRp4021
(dp4022
g73
(dp4023
g100
g101
ssg82
g4013
sg75
(lp4024
S':'
asbag68
(g89
g70
NtRp4025
(dp4026
g73
(dp4027
sg82
g4013
sg75
(lp4028
g68
(g69
g70
NtRp4029
(dp4030
g73
(dp4031
g81
I3
ssg82
g4025
sg75
(lp4032
S'/'
asbasbasbag68
(g84
g70
NtRp4033
(dp4034
g73
(dp4035
sg82
g3909
sg75
(lp4036
g68
(g89
g70
NtRp4037
(dp4038
g73
(dp4039
g93
g94
ssg82
g4033
sg75
(lp4040
g431
asbag68
(g89
g70
NtRp4041
(dp4042
g73
(dp4043
g100
g101
ssg82
g4033
sg75
(lp4044
S':'
asbag68
(g89
g70
NtRp4045
(dp4046
g73
(dp4047
sg82
g4033
sg75
(lp4048
g68
(g69
g70
NtRp4049
(dp4050
g73
(dp4051
g81
I3
ssg82
g4045
sg75
(lp4052
S''
asbasbasbag68
(g84
g70
NtRp4053
(dp4054
g73
(dp4055
sg82
g3909
sg75
(lp4056
g68
(g89
g70
NtRp4057
(dp4058
g73
(dp4059
g93
g94
ssg82
g4053
sg75
(lp4060
g452
asbag68
(g89
g70
NtRp4061
(dp4062
g73
(dp4063
g100
g101
ssg82
g4053
sg75
(lp4064
S':'
asbag68
(g89
g70
NtRp4065
(dp4066
g73
(dp4067
sg82
g4053
sg75
(lp4068
g68
(g69
g70
NtRp4069
(dp4070
g73
(dp4071
g81
I3
ssg82
g4065
sg75
(lp4072
S''
asbasbasbasbasbasbasbasbasbasbasbag68
(g84
g70
NtRp4073
(dp4074
g73
(dp4075
sg82
g3839
sg75
(lp4076
g68
(g89
g70
NtRp4077
(dp4078
g73
(dp4079
g93
g94
ssg82
g4073
sg75
(lp4080
S'delimiters'
p4081
asbag68
(g89
g70
NtRp4082
(dp4083
g73
(dp4084
g100
g101
ssg82
g4073
sg75
(lp4085
S':'
asbag68
(g89
g70
NtRp4086
(dp4087
g73
(dp4088
sg82
g4073
sg75
(lp4089
g68
(g69
g70
NtRp4090
(dp4091
g73
(dp4092
g81
I5
ssg82
g4086
sg75
(lp4093
g68
(g77
g70
NtRp4094
(dp4095
g73
(dp4096
g81
I4
ssg82
Nsg75
(lp4097
g68
(g84
g70
NtRp4098
(dp4099
g73
(dp4100
sg82
g4094
sg75
(lp4101
g68
(g89
g70
NtRp4102
(dp4103
g73
(dp4104
sg82
g4098
sg75
(lp4105
g68
(g69
g70
NtRp4106
(dp4107
g73
(dp4108
g81
I4
ssg82
g4102
sg75
(lp4109
S'{{'
p4110
asbasbasbag68
(g84
g70
NtRp4111
(dp4112
g73
(dp4113
sg82
g4094
sg75
(lp4114
g68
(g89
g70
NtRp4115
(dp4116
g73
(dp4117
sg82
g4111
sg75
(lp4118
g68
(g69
g70
NtRp4119
(dp4120
g73
(dp4121
g81
I4
ssg82
g4115
sg75
(lp4122
S'}}'
p4123
asbasbasbasbasbasbasbag68
(g84
g70
NtRp4124
(dp4125
g73
(dp4126
sg82
g3839
sg75
(lp4127
g68
(g89
g70
NtRp4128
(dp4129
g73
(dp4130
g93
g94
ssg82
g4124
sg75
(lp4131
S'files'
p4132
asbag68
(g89
g70
NtRp4133
(dp4134
g73
(dp4135
g100
g101
ssg82
g4124
sg75
(lp4136
S':'
asbag68
(g89
g70
NtRp4137
(dp4138
g73
(dp4139
sg82
g4124
sg75
(lp4140
g68
(g69
g70
NtRp4141
(dp4142
g73
(dp4143
g81
I5
ssg82
g4137
sg75
(lp4144
g68
(g77
g70
NtRp4145
(dp4146
g73
(dp4147
g81
I4
ssg82
Nsg75
(lp4148
sbasbasbasbag68
(g84
g70
NtRp4149
(dp4150
g73
(dp4151
sg82
g3839
sg75
(lp4152
g68
(g89
g70
NtRp4153
(dp4154
g73
(dp4155
g93
g94
ssg82
g4149
sg75
(lp4156
S'flash'
p4157
asbag68
(g89
g70
NtRp4158
(dp4159
g73
(dp4160
g100
g101
ssg82
g4149
sg75
(lp4161
S':'
asbag68
(g89
g70
NtRp4162
(dp4163
g73
(dp4164
sg82
g4149
sg75
(lp4165
g68
(g69
g70
NtRp4166
(dp4167
g73
(dp4168
g81
I5
ssg82
g4162
sg75
(lp4169
S''
asbasbasbag68
(g84
g70
NtRp4170
(dp4171
g73
(dp4172
sg82
g3839
sg75
(lp4173
g68
(g89
g70
NtRp4174
(dp4175
g73
(dp4176
g93
g94
ssg82
g4170
sg75
(lp4177
S'generic_patterns'
p4178
asbag68
(g89
g70
NtRp4179
(dp4180
g73
(dp4181
g100
g101
ssg82
g4170
sg75
(lp4182
S':'
asbag68
(g89
g70
NtRp4183
(dp4184
g73
(dp4185
sg82
g4170
sg75
(lp4186
g68
(g69
g70
NtRp4187
(dp4188
g73
(dp4189
g81
I5
ssg82
g4183
sg75
(lp4190
g68
(g77
g70
NtRp4191
(dp4192
g73
(dp4193
g81
I4
ssg82
Nsg75
(lp4194
g68
(g84
g70
NtRp4195
(dp4196
g73
(dp4197
sg82
g4191
sg75
(lp4198
g68
(g89
g70
NtRp4199
(dp4200
g73
(dp4201
sg82
g4195
sg75
(lp4202
g68
(g69
g70
NtRp4203
(dp4204
g73
(dp4205
g81
I4
ssg82
g4199
sg75
(lp4206
S'*'
asbasbasbasbasbasbasbag68
(g84
g70
NtRp4207
(dp4208
g73
(dp4209
sg82
g3839
sg75
(lp4210
g68
(g89
g70
NtRp4211
(dp4212
g73
(dp4213
g93
g94
ssg82
g4207
sg75
(lp4214
S'headers'
p4215
asbag68
(g89
g70
NtRp4216
(dp4217
g73
(dp4218
g100
g101
ssg82
g4207
sg75
(lp4219
S':'
asbag68
(g89
g70
NtRp4220
(dp4221
g73
(dp4222
sg82
g4207
sg75
(lp4223
g68
(g69
g70
NtRp4224
(dp4225
g73
(dp4226
g81
I5
ssg82
g4220
sg75
(lp4227
g68
(g77
g70
NtRp4228
(dp4229
g73
(dp4230
g81
I4
ssg82
Nsg75
(lp4231
g68
(g84
g70
NtRp4232
(dp4233
g73
(dp4234
sg82
g4228
sg75
(lp4235
g68
(g89
g70
NtRp4236
(dp4237
g73
(dp4238
g93
g94
ssg82
g4232
sg75
(lp4239
S'X-Powered-By'
p4240
asbag68
(g89
g70
NtRp4241
(dp4242
g73
(dp4243
g100
g101
ssg82
g4232
sg75
(lp4244
S':'
asbag68
(g89
g70
NtRp4245
(dp4246
g73
(dp4247
sg82
g4232
sg75
(lp4248
g68
(g69
g70
NtRp4249
(dp4250
g73
(dp4251
g81
I4
ssg82
g4245
sg75
(lp4252
S'web2py'
p4253
asbasbasbasbasbasbasbag68
(g84
g70
NtRp4254
(dp4255
g73
(dp4256
sg82
g3839
sg75
(lp4257
g68
(g89
g70
NtRp4258
(dp4259
g73
(dp4260
g93
g94
ssg82
g4254
sg75
(lp4261
S'menu'
p4262
asbag68
(g89
g70
NtRp4263
(dp4264
g73
(dp4265
g100
g101
ssg82
g4254
sg75
(lp4266
S':'
asbag68
(g89
g70
NtRp4267
(dp4268
g73
(dp4269
sg82
g4254
sg75
(lp4270
g68
(g69
g70
NtRp4271
(dp4272
g73
(dp4273
g81
I5
ssg82
g4267
sg75
(lp4274
g68
(g77
g70
NtRp4275
(dp4276
g73
(dp4277
g81
I4
ssg82
Nsg75
(lp4278
g68
(g84
g70
NtRp4279
(dp4280
g73
(dp4281
sg82
g4275
sg75
(lp4282
g68
(g89
g70
NtRp4283
(dp4284
g73
(dp4285
sg82
g4279
sg75
(lp4286
g68
(g69
g70
NtRp4287
(dp4288
g73
(dp4289
g81
I4
ssg82
g4283
sg75
(lp4290
g68
(g77
g70
NtRp4291
(dp4292
g73
(dp4293
g81
I3
ssg82
Nsg75
(lp4294
g68
(g84
g70
NtRp4295
(dp4296
g73
(dp4297
sg82
g4291
sg75
(lp4298
g68
(g89
g70
NtRp4299
(dp4300
g73
(dp4301
sg82
g4295
sg75
(lp4302
g68
(g69
g70
NtRp4303
(dp4304
g73
(dp4305
g81
I3
ssg82
g4299
sg75
(lp4306
cgluon.languages
lazyT_unpickle
p4307
(S's\x06\x00\x00\x00Indice'
tRp4308
asbasbasbag68
(g84
g70
NtRp4309
(dp4310
g73
(dp4311
sg82
g4291
sg75
(lp4312
g68
(g89
g70
NtRp4313
(dp4314
g73
(dp4315
sg82
g4309
sg75
(lp4316
g68
(g69
g70
NtRp4317
(dp4318
g73
(dp4319
g81
I3
ssg82
g4313
sg75
(lp4320
g111
asbasbasbag68
(g84
g70
NtRp4321
(dp4322
g73
(dp4323
sg82
g4291
sg75
(lp4324
g68
(g89
g70
NtRp4325
(dp4326
g73
(dp4327
sg82
g4321
sg75
(lp4328
g68
(g69
g70
NtRp4329
(dp4330
g73
(dp4331
g81
I3
ssg82
g4325
sg75
(lp4332
S'/rosan/default/index'
p4333
asbasbasbag68
(g84
g70
NtRp4334
(dp4335
g73
(dp4336
sg82
g4291
sg75
(lp4337
g68
(g89
g70
NtRp4338
(dp4339
g73
(dp4340
sg82
g4334
sg75
(lp4341
g68
(g69
g70
NtRp4342
(dp4343
g73
(dp4344
g81
I3
ssg82
g4338
sg75
(lp4345
g68
(g77
g70
NtRp4346
(dp4347
g73
(dp4348
g81
I2
ssg82
Nsg75
(lp4349
sbasbasbasbasbasbasbasbag68
(g84
g70
NtRp4350
(dp4351
g73
(dp4352
sg82
g4275
sg75
(lp4353
g68
(g89
g70
NtRp4354
(dp4355
g73
(dp4356
sg82
g4350
sg75
(lp4357
g68
(g69
g70
NtRp4358
(dp4359
g73
(dp4360
g81
I4
ssg82
g4354
sg75
(lp4361
g68
(g77
g70
NtRp4362
(dp4363
g73
(dp4364
g81
I3
ssg82
Nsg75
(lp4365
g68
(g84
g70
NtRp4366
(dp4367
g73
(dp4368
sg82
g4362
sg75
(lp4369
g68
(g89
g70
NtRp4370
(dp4371
g73
(dp4372
sg82
g4366
sg75
(lp4373
g68
(g69
g70
NtRp4374
(dp4375
g73
(dp4376
g81
I3
ssg82
g4370
sg75
(lp4377
g4307
(S's\x08\x00\x00\x00Clientes'
tRp4378
asbasbasbag68
(g84
g70
NtRp4379
(dp4380
g73
(dp4381
sg82
g4362
sg75
(lp4382
g68
(g89
g70
NtRp4383
(dp4384
g73
(dp4385
sg82
g4379
sg75
(lp4386
g68
(g69
g70
NtRp4387
(dp4388
g73
(dp4389
g81
I3
ssg82
g4383
sg75
(lp4390
g111
asbasbasbag68
(g84
g70
NtRp4391
(dp4392
g73
(dp4393
sg82
g4362
sg75
(lp4394
g68
(g89
g70
NtRp4395
(dp4396
g73
(dp4397
sg82
g4391
sg75
(lp4398
g68
(g69
g70
NtRp4399
(dp4400
g73
(dp4401
g81
I3
ssg82
g4395
sg75
(lp4402
S'/rosan/default/nuevoCliente'
p4403
asbasbasbag68
(g84
g70
NtRp4404
(dp4405
g73
(dp4406
sg82
g4362
sg75
(lp4407
g68
(g89
g70
NtRp4408
(dp4409
g73
(dp4410
sg82
g4404
sg75
(lp4411
g68
(g69
g70
NtRp4412
(dp4413
g73
(dp4414
g81
I3
ssg82
g4408
sg75
(lp4415
g68
(g77
g70
NtRp4416
(dp4417
g73
(dp4418
g81
I2
ssg82
Nsg75
(lp4419
sbasbasbasbasbasbasbasbag68
(g84
g70
NtRp4420
(dp4421
g73
(dp4422
sg82
g4275
sg75
(lp4423
g68
(g89
g70
NtRp4424
(dp4425
g73
(dp4426
sg82
g4420
sg75
(lp4427
g68
(g69
g70
NtRp4428
(dp4429
g73
(dp4430
g81
I4
ssg82
g4424
sg75
(lp4431
g68
(g77
g70
NtRp4432
(dp4433
g73
(dp4434
g81
I3
ssg82
Nsg75
(lp4435
g68
(g84
g70
NtRp4436
(dp4437
g73
(dp4438
sg82
g4432
sg75
(lp4439
g68
(g89
g70
NtRp4440
(dp4441
g73
(dp4442
sg82
g4436
sg75
(lp4443
g68
(g69
g70
NtRp4444
(dp4445
g73
(dp4446
g81
I3
ssg82
g4440
sg75
(lp4447
g4307
(S's\x08\x00\x00\x00Facturas'
tRp4448
asbasbasbag68
(g84
g70
NtRp4449
(dp4450
g73
(dp4451
sg82
g4432
sg75
(lp4452
g68
(g89
g70
NtRp4453
(dp4454
g73
(dp4455
sg82
g4449
sg75
(lp4456
g68
(g69
g70
NtRp4457
(dp4458
g73
(dp4459
g81
I3
ssg82
g4453
sg75
(lp4460
g111
asbasbasbag68
(g84
g70
NtRp4461
(dp4462
g73
(dp4463
sg82
g4432
sg75
(lp4464
g68
(g89
g70
NtRp4465
(dp4466
g73
(dp4467
sg82
g4461
sg75
(lp4468
g68
(g69
g70
NtRp4469
(dp4470
g73
(dp4471
g81
I3
ssg82
g4465
sg75
(lp4472
S'/rosan/default/nuevaFactura'
p4473
asbasbasbag68
(g84
g70
NtRp4474
(dp4475
g73
(dp4476
sg82
g4432
sg75
(lp4477
g68
(g89
g70
NtRp4478
(dp4479
g73
(dp4480
sg82
g4474
sg75
(lp4481
g68
(g69
g70
NtRp4482
(dp4483
g73
(dp4484
g81
I3
ssg82
g4478
sg75
(lp4485
g68
(g77
g70
NtRp4486
(dp4487
g73
(dp4488
g81
I2
ssg82
Nsg75
(lp4489
sbasbasbasbasbasbasbasbag68
(g84
g70
NtRp4490
(dp4491
g73
(dp4492
sg82
g4275
sg75
(lp4493
g68
(g89
g70
NtRp4494
(dp4495
g73
(dp4496
sg82
g4490
sg75
(lp4497
g68
(g69
g70
NtRp4498
(dp4499
g73
(dp4500
g81
I4
ssg82
g4494
sg75
(lp4501
g68
(g77
g70
NtRp4502
(dp4503
g73
(dp4504
g81
I3
ssg82
Nsg75
(lp4505
g68
(g84
g70
NtRp4506
(dp4507
g73
(dp4508
sg82
g4502
sg75
(lp4509
g68
(g89
g70
NtRp4510
(dp4511
g73
(dp4512
sg82
g4506
sg75
(lp4513
g68
(g69
g70
NtRp4514
(dp4515
g73
(dp4516
g81
I3
ssg82
g4510
sg75
(lp4517
g4307
(S's\x0c\x00\x00\x00Presupuestos'
tRp4518
asbasbasbag68
(g84
g70
NtRp4519
(dp4520
g73
(dp4521
sg82
g4502
sg75
(lp4522
g68
(g89
g70
NtRp4523
(dp4524
g73
(dp4525
sg82
g4519
sg75
(lp4526
g68
(g69
g70
NtRp4527
(dp4528
g73
(dp4529
g81
I3
ssg82
g4523
sg75
(lp4530
g111
asbasbasbag68
(g84
g70
NtRp4531
(dp4532
g73
(dp4533
sg82
g4502
sg75
(lp4534
g68
(g89
g70
NtRp4535
(dp4536
g73
(dp4537
sg82
g4531
sg75
(lp4538
g68
(g69
g70
NtRp4539
(dp4540
g73
(dp4541
g81
I3
ssg82
g4535
sg75
(lp4542
S'/rosan/default/nuevoPresupuesto'
p4543
asbasbasbag68
(g84
g70
NtRp4544
(dp4545
g73
(dp4546
sg82
g4502
sg75
(lp4547
g68
(g89
g70
NtRp4548
(dp4549
g73
(dp4550
sg82
g4544
sg75
(lp4551
g68
(g69
g70
NtRp4552
(dp4553
g73
(dp4554
g81
I3
ssg82
g4548
sg75
(lp4555
g68
(g77
g70
NtRp4556
(dp4557
g73
(dp4558
g81
I2
ssg82
Nsg75
(lp4559
sbasbasbasbasbasbasbasbasbasbasbasbag68
(g84
g70
NtRp4560
(dp4561
g73
(dp4562
sg82
g3839
sg75
(lp4563
g68
(g89
g70
NtRp4564
(dp4565
g73
(dp4566
g93
g94
ssg82
g4560
sg75
(lp4567
S'meta'
p4568
asbag68
(g89
g70
NtRp4569
(dp4570
g73
(dp4571
g100
g101
ssg82
g4560
sg75
(lp4572
S':'
asbag68
(g89
g70
NtRp4573
(dp4574
g73
(dp4575
sg82
g4560
sg75
(lp4576
g68
(g69
g70
NtRp4577
(dp4578
g73
(dp4579
g81
I5
ssg82
g4573
sg75
(lp4580
g68
(g77
g70
NtRp4581
(dp4582
g73
(dp4583
g81
I4
ssg82
Nsg75
(lp4584
g68
(g84
g70
NtRp4585
(dp4586
g73
(dp4587
sg82
g4581
sg75
(lp4588
g68
(g89
g70
NtRp4589
(dp4590
g73
(dp4591
g93
g94
ssg82
g4585
sg75
(lp4592
S'author'
p4593
asbag68
(g89
g70
NtRp4594
(dp4595
g73
(dp4596
g100
g101
ssg82
g4585
sg75
(lp4597
S':'
asbag68
(g89
g70
NtRp4598
(dp4599
g73
(dp4600
sg82
g4585
sg75
(lp4601
g68
(g69
g70
NtRp4602
(dp4603
g73
(dp4604
g81
I4
ssg82
g4598
sg75
(lp4605
S'@trukise <trukise@gmail.com>'
p4606
asbasbasbag68
(g84
g70
NtRp4607
(dp4608
g73
(dp4609
sg82
g4581
sg75
(lp4610
g68
(g89
g70
NtRp4611
(dp4612
g73
(dp4613
g93
g94
ssg82
g4607
sg75
(lp4614
S'description'
p4615
asbag68
(g89
g70
NtRp4616
(dp4617
g73
(dp4618
g100
g101
ssg82
g4607
sg75
(lp4619
S':'
asbag68
(g89
g70
NtRp4620
(dp4621
g73
(dp4622
sg82
g4607
sg75
(lp4623
g68
(g69
g70
NtRp4624
(dp4625
g73
(dp4626
g81
I4
ssg82
g4620
sg75
(lp4627
S'Gesti\xc3\xb3n intengral de Fontaner\xc3\xada Rosa y S\xc3\xa1nchez'
p4628
asbasbasbag68
(g84
g70
NtRp4629
(dp4630
g73
(dp4631
sg82
g4581
sg75
(lp4632
g68
(g89
g70
NtRp4633
(dp4634
g73
(dp4635
g93
g94
ssg82
g4629
sg75
(lp4636
S'keywords'
p4637
asbag68
(g89
g70
NtRp4638
(dp4639
g73
(dp4640
g100
g101
ssg82
g4629
sg75
(lp4641
S':'
asbag68
(g89
g70
NtRp4642
(dp4643
g73
(dp4644
sg82
g4629
sg75
(lp4645
g68
(g69
g70
NtRp4646
(dp4647
g73
(dp4648
g81
I4
ssg82
g4642
sg75
(lp4649
S'Rosan, facturacion'
p4650
asbasbasbasbasbasbasbag68
(g84
g70
NtRp4651
(dp4652
g73
(dp4653
sg82
g3839
sg75
(lp4654
g68
(g89
g70
NtRp4655
(dp4656
g73
(dp4657
g93
g94
ssg82
g4651
sg75
(lp4658
S'models_to_run'
p4659
asbag68
(g89
g70
NtRp4660
(dp4661
g73
(dp4662
g100
g101
ssg82
g4651
sg75
(lp4663
S':'
asbag68
(g89
g70
NtRp4664
(dp4665
g73
(dp4666
sg82
g4651
sg75
(lp4667
g68
(g69
g70
NtRp4668
(dp4669
g73
(dp4670
g81
I5
ssg82
g4664
sg75
(lp4671
g68
(g77
g70
NtRp4672
(dp4673
g73
(dp4674
g81
I4
ssg82
Nsg75
(lp4675
g68
(g84
g70
NtRp4676
(dp4677
g73
(dp4678
sg82
g4672
sg75
(lp4679
g68
(g89
g70
NtRp4680
(dp4681
g73
(dp4682
sg82
g4676
sg75
(lp4683
g68
(g69
g70
NtRp4684
(dp4685
g73
(dp4686
g81
I4
ssg82
g4680
sg75
(lp4687
S'^\\w+\\.py$'
p4688
asbasbasbag68
(g84
g70
NtRp4689
(dp4690
g73
(dp4691
sg82
g4672
sg75
(lp4692
g68
(g89
g70
NtRp4693
(dp4694
g73
(dp4695
sg82
g4689
sg75
(lp4696
g68
(g69
g70
NtRp4697
(dp4698
g73
(dp4699
g81
I4
ssg82
g4693
sg75
(lp4700
S'^facturas/\\w+\\.py$'
p4701
asbasbasbag68
(g84
g70
NtRp4702
(dp4703
g73
(dp4704
sg82
g4672
sg75
(lp4705
g68
(g89
g70
NtRp4706
(dp4707
g73
(dp4708
sg82
g4702
sg75
(lp4709
g68
(g69
g70
NtRp4710
(dp4711
g73
(dp4712
g81
I4
ssg82
g4706
sg75
(lp4713
S'^facturas/detalleFactura/\\w+\\.py$'
p4714
asbasbasbasbasbasbasbag68
(g84
g70
NtRp4715
(dp4716
g73
(dp4717
sg82
g3839
sg75
(lp4718
g68
(g89
g70
NtRp4719
(dp4720
g73
(dp4721
g93
g94
ssg82
g4715
sg75
(lp4722
S'postprocessing'
p4723
asbag68
(g89
g70
NtRp4724
(dp4725
g73
(dp4726
g100
g101
ssg82
g4715
sg75
(lp4727
S':'
asbag68
(g89
g70
NtRp4728
(dp4729
g73
(dp4730
sg82
g4715
sg75
(lp4731
g68
(g69
g70
NtRp4732
(dp4733
g73
(dp4734
g81
I5
ssg82
g4728
sg75
(lp4735
g68
(g77
g70
NtRp4736
(dp4737
g73
(dp4738
g81
I4
ssg82
Nsg75
(lp4739
sbasbasbasbag68
(g84
g70
NtRp4740
(dp4741
g73
(dp4742
sg82
g3839
sg75
(lp4743
g68
(g89
g70
NtRp4744
(dp4745
g73
(dp4746
g93
g94
ssg82
g4740
sg75
(lp4747
S'session_cookie_expires'
p4748
asbag68
(g89
g70
NtRp4749
(dp4750
g73
(dp4751
g100
g101
ssg82
g4740
sg75
(lp4752
S':'
asbag68
(g89
g70
NtRp4753
(dp4754
g73
(dp4755
sg82
g4740
sg75
(lp4756
g68
(g69
g70
NtRp4757
(dp4758
g73
(dp4759
g81
I5
ssg82
g4753
sg75
(lp4760
S'None'
p4761
asbasbasbag68
(g84
g70
NtRp4762
(dp4763
g73
(dp4764
sg82
g3839
sg75
(lp4765
g68
(g89
g70
NtRp4766
(dp4767
g73
(dp4768
g93
g94
ssg82
g4762
sg75
(lp4769
S'session_data_name'
p4770
asbag68
(g89
g70
NtRp4771
(dp4772
g73
(dp4773
g100
g101
ssg82
g4762
sg75
(lp4774
S':'
asbag68
(g89
g70
NtRp4775
(dp4776
g73
(dp4777
sg82
g4762
sg75
(lp4778
g68
(g69
g70
NtRp4779
(dp4780
g73
(dp4781
g81
I5
ssg82
g4775
sg75
(lp4782
S'session_data_rosan'
p4783
asbasbasbag68
(g84
g70
NtRp4784
(dp4785
g73
(dp4786
sg82
g3839
sg75
(lp4787
g68
(g89
g70
NtRp4788
(dp4789
g73
(dp4790
g93
g94
ssg82
g4784
sg75
(lp4791
S'session_file'
p4792
asbag68
(g89
g70
NtRp4793
(dp4794
g73
(dp4795
g100
g101
ssg82
g4784
sg75
(lp4796
S':'
asbag68
(g89
g70
NtRp4797
(dp4798
g73
(dp4799
sg82
g4784
sg75
(lp4800
g68
(g69
g70
NtRp4801
(dp4802
g73
(dp4803
g81
I5
ssg82
g4797
sg75
(lp4804
S"<open file '/Users/Truki/Desarrollo/web2py/applications/rosan/sessions/127.0.0.1-e44cb93f-049c-40c0-ade5-b5e99985895d', mode 'rb+' at 0x10f4695d0>"
p4805
asbasbasbag68
(g84
g70
NtRp4806
(dp4807
g73
(dp4808
sg82
g3839
sg75
(lp4809
g68
(g89
g70
NtRp4810
(dp4811
g73
(dp4812
g93
g94
ssg82
g4806
sg75
(lp4813
S'session_filename'
p4814
asbag68
(g89
g70
NtRp4815
(dp4816
g73
(dp4817
g100
g101
ssg82
g4806
sg75
(lp4818
S':'
asbag68
(g89
g70
NtRp4819
(dp4820
g73
(dp4821
sg82
g4806
sg75
(lp4822
g68
(g69
g70
NtRp4823
(dp4824
g73
(dp4825
g81
I5
ssg82
g4819
sg75
(lp4826
S'/Users/Truki/Desarrollo/web2py/applications/rosan/sessions/127.0.0.1-e44cb93f-049c-40c0-ade5-b5e99985895d'
p4827
asbasbasbag68
(g84
g70
NtRp4828
(dp4829
g73
(dp4830
sg82
g3839
sg75
(lp4831
g68
(g89
g70
NtRp4832
(dp4833
g73
(dp4834
g93
g94
ssg82
g4828
sg75
(lp4835
S'session_id'
p4836
asbag68
(g89
g70
NtRp4837
(dp4838
g73
(dp4839
g100
g101
ssg82
g4828
sg75
(lp4840
S':'
asbag68
(g89
g70
NtRp4841
(dp4842
g73
(dp4843
sg82
g4828
sg75
(lp4844
g68
(g69
g70
NtRp4845
(dp4846
g73
(dp4847
g81
I5
ssg82
g4841
sg75
(lp4848
g486
asbasbasbag68
(g84
g70
NtRp4849
(dp4850
g73
(dp4851
sg82
g3839
sg75
(lp4852
g68
(g89
g70
NtRp4853
(dp4854
g73
(dp4855
g93
g94
ssg82
g4849
sg75
(lp4856
S'session_id_name'
p4857
asbag68
(g89
g70
NtRp4858
(dp4859
g73
(dp4860
g100
g101
ssg82
g4849
sg75
(lp4861
S':'
asbag68
(g89
g70
NtRp4862
(dp4863
g73
(dp4864
sg82
g4849
sg75
(lp4865
g68
(g69
g70
NtRp4866
(dp4867
g73
(dp4868
g81
I5
ssg82
g4862
sg75
(lp4869
g3896
asbasbasbag68
(g84
g70
NtRp4870
(dp4871
g73
(dp4872
sg82
g3839
sg75
(lp4873
g68
(g89
g70
NtRp4874
(dp4875
g73
(dp4876
g93
g94
ssg82
g4870
sg75
(lp4877
S'session_locked'
p4878
asbag68
(g89
g70
NtRp4879
(dp4880
g73
(dp4881
g100
g101
ssg82
g4870
sg75
(lp4882
S':'
asbag68
(g89
g70
NtRp4883
(dp4884
g73
(dp4885
sg82
g4870
sg75
(lp4886
g68
(g69
g70
NtRp4887
(dp4888
g73
(dp4889
g81
I5
ssg82
g4883
sg75
(lp4890
g1945
asbasbasbag68
(g84
g70
NtRp4891
(dp4892
g73
(dp4893
sg82
g3839
sg75
(lp4894
g68
(g89
g70
NtRp4895
(dp4896
g73
(dp4897
g93
g94
ssg82
g4891
sg75
(lp4898
S'session_new'
p4899
asbag68
(g89
g70
NtRp4900
(dp4901
g73
(dp4902
g100
g101
ssg82
g4891
sg75
(lp4903
S':'
asbag68
(g89
g70
NtRp4904
(dp4905
g73
(dp4906
sg82
g4891
sg75
(lp4907
g68
(g69
g70
NtRp4908
(dp4909
g73
(dp4910
g81
I5
ssg82
g4904
sg75
(lp4911
g111
asbasbasbag68
(g84
g70
NtRp4912
(dp4913
g73
(dp4914
sg82
g3839
sg75
(lp4915
g68
(g89
g70
NtRp4916
(dp4917
g73
(dp4918
g93
g94
ssg82
g4912
sg75
(lp4919
S'session_storage_type'
p4920
asbag68
(g89
g70
NtRp4921
(dp4922
g73
(dp4923
g100
g101
ssg82
g4912
sg75
(lp4924
S':'
asbag68
(g89
g70
NtRp4925
(dp4926
g73
(dp4927
sg82
g4912
sg75
(lp4928
g68
(g69
g70
NtRp4929
(dp4930
g73
(dp4931
g81
I5
ssg82
g4925
sg75
(lp4932
g3703
asbasbasbag68
(g84
g70
NtRp4933
(dp4934
g73
(dp4935
sg82
g3839
sg75
(lp4936
g68
(g89
g70
NtRp4937
(dp4938
g73
(dp4939
g93
g94
ssg82
g4933
sg75
(lp4940
S'status'
p4941
asbag68
(g89
g70
NtRp4942
(dp4943
g73
(dp4944
g100
g101
ssg82
g4933
sg75
(lp4945
S':'
asbag68
(g89
g70
NtRp4946
(dp4947
g73
(dp4948
sg82
g4933
sg75
(lp4949
g68
(g69
g70
NtRp4950
(dp4951
g73
(dp4952
g81
I5
ssg82
g4946
sg75
(lp4953
S'200'
p4954
asbasbasbag68
(g84
g70
NtRp4955
(dp4956
g73
(dp4957
sg82
g3839
sg75
(lp4958
g68
(g89
g70
NtRp4959
(dp4960
g73
(dp4961
g93
g94
ssg82
g4955
sg75
(lp4962
S'subtitle'
p4963
asbag68
(g89
g70
NtRp4964
(dp4965
g73
(dp4966
g100
g101
ssg82
g4955
sg75
(lp4967
S':'
asbag68
(g89
g70
NtRp4968
(dp4969
g73
(dp4970
sg82
g4955
sg75
(lp4971
g68
(g69
g70
NtRp4972
(dp4973
g73
(dp4974
g81
I5
ssg82
g4968
sg75
(lp4975
S'by @trukise'
p4976
asbasbasbag68
(g84
g70
NtRp4977
(dp4978
g73
(dp4979
sg82
g3839
sg75
(lp4980
g68
(g89
g70
NtRp4981
(dp4982
g73
(dp4983
g93
g94
ssg82
g4977
sg75
(lp4984
S'title'
p4985
asbag68
(g89
g70
NtRp4986
(dp4987
g73
(dp4988
g100
g101
ssg82
g4977
sg75
(lp4989
S':'
asbag68
(g89
g70
NtRp4990
(dp4991
g73
(dp4992
sg82
g4977
sg75
(lp4993
g68
(g69
g70
NtRp4994
(dp4995
g73
(dp4996
g81
I5
ssg82
g4990
sg75
(lp4997
S'Rosan'
p4998
asbasbasbag68
(g84
g70
NtRp4999
(dp5000
g73
(dp5001
sg82
g3839
sg75
(lp5002
g68
(g89
g70
NtRp5003
(dp5004
g73
(dp5005
g93
g94
ssg82
g4999
sg75
(lp5006
S'view'
p5007
asbag68
(g89
g70
NtRp5008
(dp5009
g73
(dp5010
g100
g101
ssg82
g4999
sg75
(lp5011
S':'
asbag68
(g89
g70
NtRp5012
(dp5013
g73
(dp5014
sg82
g4999
sg75
(lp5015
g68
(g69
g70
NtRp5016
(dp5017
g73
(dp5018
g81
I5
ssg82
g5012
sg75
(lp5019
S'facturas/detalleFactura.html'
p5020
asbasbasbasbasbsS'locals'
p5021
(dp5022
g4
S"'/Users/Truki/Desarrollo/web2py/applications/rosan/controllers/facturas.py'"
p5023
sg6
S"'# coding: utf8\\n# intente algo como\\ndef index(): ...\\nresponse._vars=response._caller(detalleFactura)\\n'"
p5024
sssS'traceback'
p5025
S'Traceback (most recent call last):\n  File "/Users/Truki/Desarrollo/web2py/gluon/restricted.py", line 211, in restricted\n    ccode = compile2(code, layer)\n  File "/Users/Truki/Desarrollo/web2py/gluon/restricted.py", line 194, in compile2\n    return compile(code.rstrip().replace(\'\\r\\n\', \'\\n\') + \'\\n\', layer, \'exec\')\n  File "/Users/Truki/Desarrollo/web2py/applications/rosan/controllers/facturas.py", line 75\n    neto = datosFacturaTemp.neto - lineaEliminada.total_articulo\n   ^\nIndentationError: unexpected indent\n'
p5026
s.