(dp1
S'output'
p2
S"<type 'exceptions.SyntaxError'> invalid syntax (detalleFactura.html, line 48)"
p3
sS'layer'
p4
S'/Users/Truki/Desarrollo/web2py/applications/rosan/views/facturas/detalleFactura.html'
p5
sS'code'
p6
S'response.write(\'<!DOCTYPE html>\\n<!-- paulirish.com/2008/conditional-stylesheets-vs-css-hacks-answer-neither/ -->\\n<!--[if lt IE 7]><html class="ie ie6 ie-lte9 ie-lte8 ie-lte7 no-js" lang="\', escape=False)\nresponse.write(T.accepted_language or \'en\')\nresponse.write(\'"> <![endif]-->\\n<!--[if IE 7]><html class="ie ie7 ie-lte9 ie-lte8 ie-lte7 no-js" lang="\', escape=False)\nresponse.write(T.accepted_language or \'en\')\nresponse.write(\'"> <![endif]-->\\n<!--[if IE 8]><html class="ie ie8 ie-lte9 ie-lte8 no-js" lang="\', escape=False)\nresponse.write(T.accepted_language or \'en\')\nresponse.write(\'"> <![endif]-->\\n<!--[if IE 9]><html class="ie9 ie-lte9 no-js" lang="\', escape=False)\nresponse.write(T.accepted_language or \'en\')\nresponse.write(\'"> <![endif]-->\\n<!--[if (gt IE 9)|!(IE)]><!--> <html class="no-js" lang="\', escape=False)\nresponse.write(T.accepted_language or \'en\')\nresponse.write(\'"> <!--<![endif]-->\\n<head>\\n  <meta charset="utf-8" />\\n  <!-- www.phpied.com/conditional-comments-block-downloads/ -->\\n  <!-- Always force latest IE rendering engine\\n\\t   (even in intranet) & Chrome Frame\\n\\t   Remove this if you use the .htaccess -->\\n  <!--[if IE]>\\n    <meta http-equiv="X-UA-Compatible" content="IE=edge\', escape=False)\nresponse.write(not request.is_local and \',chrome=1\' or \'\')\nresponse.write(\'">\\n  <![endif]-->\\n  \\n  <title>\', escape=False)\nresponse.write(response.title or request.application)\nresponse.write(\'</title>\\n  \\n  <!-- http://dev.w3.org/html5/markup/meta.name.html -->\\n  <meta name="application-name" content="\', escape=False)\nresponse.write(request.application)\nresponse.write(\'" />\\n  \\n  <!-- Speaking of Google, don\\\'t forget to set your site up:\\n\\t   http://google.com/webmasters -->\\n  <meta name="google-site-verification" content="" />\\n\\n  <!--  Mobile Viewport Fix\\n\\t  j.mp/mobileviewport & davidbcalhoun.com/2010/viewport-metatag\\n\\t  device-width: Occupy full width of the screen in its current orientation\\n\\t  initial-scale = 1.0 retains dimensions instead of zooming out if page height > device height\\n\\t  user-scalable = yes allows the user to zoom in -->\\n  <meta name="viewport" content="width=device-width, initial-scale=1.0, user-scalable=yes">\\n  \\n  <!-- Place favicon.ico and apple-touch-icon.png in the root of your domain and delete these references -->\\n  <link rel="shortcut icon" href="\', escape=False)\nresponse.write(URL(\'static\',\'favicon.ico\'))\nresponse.write(\'" type="image/x-icon">\\n  <link rel="apple-touch-icon" href="\', escape=False)\nresponse.write(URL(\'static\',\'favicon.png\'))\nresponse.write(\'">\\n\\n  <!-- All JavaScript at the bottom, except for Modernizr which enables \\n\\t   HTML5 elements & feature detects -->\\n  <script src="\', escape=False)\nresponse.write(URL(\'static\',\'js/modernizr.custom.js\'))\nresponse.write(\'"></script>  \\n\\n  <!-- include stylesheets -->\\n  <link href="http://fonts.googleapis.com/css?family=Open+Sans:400italic,600italic,400,600" rel="stylesheet">\\n  <link rel="stylesheet" href="\', escape=False)\nresponse.write(URL(\'static\',\'css/datepicker.css\'))\nresponse.write(\'">\\n  <link rel="stylesheet" href="\', escape=False)\nresponse.write(URL(\'static\',\'css/bootstrap.min.css\'))\nresponse.write(\'">\\n  <link rel="stylesheet" href="\', escape=False)\nresponse.write(URL(\'static\',\'css/bootstrap-responsive.min.css\'))\nresponse.write(\'">\\n  <link rel="stylesheet" href="\', escape=False)\nresponse.write(URL(\'static\',\'css/font-awesome.css\'))\nresponse.write(\'">\\n  <link rel="stylesheet" href="\', escape=False)\nresponse.write(URL(\'static\',\'css/base-admin.css\'))\nresponse.write(\'">\\n  <link rel="stylesheet" href="\', escape=False)\nresponse.write(URL(\'static\',\'css/base-admin-responsive.css\'))\nresponse.write(\'">\\n  <link rel="stylesheet" href="\', escape=False)\nresponse.write(URL(\'static\',\'css/pages/reports.css\'))\nresponse.write(\'">\\n  <link rel="stylesheet" href="\', escape=False)\nresponse.write(URL(\'static\',\'css/pages/signin.css\'))\nresponse.write(\'">\\n  <link rel="stylesheet" href="\', escape=False)\nresponse.write(URL(\'static\',\'css/pages/faq.css\'))\nresponse.write(\'">\\n  <link rel="stylesheet" href="\', escape=False)\nresponse.write(URL(\'static\',\'css/datepicker.css\'))\nresponse.write(\'">\\n\\n  \\n\\n \\n</head>\\n<body>\\n\\n    <div class="navbar navbar-fixed-top">\\n    \\n    <div class="navbar-inner">\\n      \\n      <div class="container">\\n        \\n        <a class="btn btn-navbar" data-toggle="collapse" data-target=".nav-collapse">\\n          <span class="icon-bar"></span>\\n          <span class="icon-bar"></span>\\n          <span class="icon-bar"></span>\\n        </a>\\n        \\n        <a class="brand" href="./">\\n          Rosan ERP      \\n        </a>    \\n        \\n        <div class="nav-collapse">\\n          <ul class="nav pull-right">\\n            <li class="dropdown">\\n              \\n              <a href="#" class="dropdown-toggle" data-toggle="dropdown">\\n                <i class="icon-cog"></i>\\n                Settings\\n                <b class="caret"></b>\\n              </a>\\n              \\n              <ul class="dropdown-menu">\\n                <li><a href="javascript:;">Account Settings</a></li>\\n                <li><a href="javascript:;">Privacy Settings</a></li>\\n                <li class="divider"></li>\\n                <li><a href="javascript:;">Help</a></li>\\n              </ul>\\n              \\n            </li>\\n        \\n            <li class="dropdown">\\n              \\n              <a href="" class="dropdown-toggle" data-toggle="dropdown">\\n                <i class="icon-user"></i> \\n                Rod Howard\\n                <b class="caret"></b>\\n              </a>\\n              \\n              <ul class="dropdown-menu">\\n                <li><a href="javascript:;">My Profile</a></li>\\n                <li><a href="javascript:;">My Groups</a></li>\\n                <li class="divider"></li>\\n                <li><a href="javascript:;">Logout</a></li>\\n              </ul>\\n              \\n            </li>\\n          </ul>\\n        \\n          <form class="navbar-search pull-right">\\n            <input type="text" class="search-query" placeholder="Search">\\n          </form>\\n          \\n        </div><!--/.nav-collapse -->  \\n    \\n      </div> <!-- /container -->\\n      \\n    </div> <!-- /navbar-inner -->\\n    \\n  </div> <!-- /navbar -->\\n      \\n\\n\\n\\n      \\n  <div class="subnavbar">\\n\\n    <div class="subnavbar-inner">\\n    \\n      <div class="container">\\n\\n        <ul class="mainnav">\\n        \\n          <li>\\n              <a href="/rosan/default/frontend">\\n              <i class="icon-home"></i>\\n              <span>Home</span>\\n            </a>              \\n          </li>\\n          \\n          <li>\\n              <a href="/rosan/clientes/index">\\n              <i class="icon-user"></i>\\n              <span>Clientes</span>\\n            </a>              \\n          </li>\\n          \\n          <li>\\n              <a href="/rosan/presupuestos/index">\\n              <i class="icon-edit"></i>\\n              <span>Presupuestos</span>\\n            </a>              \\n          </li>\\n          \\n          <li class="active">\\n              <a href="/rosan/facturas/index">\\n              <i class="icon-check"></i>\\n              <span>Facturas</span>\\n            </a>              \\n          </li>\\n          \\n          <li>\\n              <a href="/rosan/articulos/index">\\n              <i class="icon-tags"></i>\\n              <span>Art\\xc3\\xadculos</span>\\n            </a>              \\n          </li>\\n\\n          <li>\\n              <a href="/rosan/contabilidad/index">\\n              <i class="icon-briefcase"></i>\\n              <span>C\\xc3\\xa1lculos contables</span>\\n            </a>              \\n          </li>\\n          \\n          <li class="dropdown">         \\n            <a class="dropdown-toggle" data-toggle="dropdown" href="#">\\n              <i class="icon-cog"></i>\\n              <span>Configuraci\\xc3\\xb3n</span>\\n              <b class="caret"></b>\\n            </a>  \\n          \\n            <ul class="dropdown-menu">\\n              <li><a href="./charts.html">Datos empresa</a></li>\\n              <li><a href="./account.html">Impuestos</a></li>\\n              <li class="divider"></li>\\n              <li><a href="./login.html">Cerrar sesi\\xc3\\xb3n</a></li>\\n            </ul>           \\n          </li>\\n        \\n        </ul>\\n\\n      </div> <!-- /container -->\\n    \\n    </div> <!-- /subnavbar-inner -->\\n\\n  </div> <!-- /subnavbar -->\\n    \\n    \', escape=False)\nresponse.write(\'\\n    \', escape=False)\nresponse.write(\'\\n<div class="main">\\n    <div class="main-inner">\\n        <div class="container">\\n        \\t<div class="row">\\n        \\t\\t<div class="span10">\\n\\t\\t\\t\\t\\t\\t\\n\\t\\t\\t\\t\\t<div class="widget">\\t\\n\\t\\t\\t\\t\\t\\t<div class="widget-header">\\n\\t\\t\\t\\t\\t\\t\\t<span class="icon-check"></span>\\n\\t\\t\\t\\t\\t\\t\\t<h3>Introduce un concepto o art\\xc3\\xadculo...</h3>\\n\\t\\t\\t\\t\\t\\t</div> <!-- .widget-header -->\\n\\t\\t\\t\\t\\t\\t<div class="widget-content">\\n\\t\\t\\t\\t\\t\\t\\t<div class="accordion" id="accordion2">\\n\\t\\t\\t\\t\\t\\t\\t  <div class="accordion-group">\\n\\t\\t\\t\\t\\t\\t\\t    <div class="accordion-heading">\\n\\t\\t\\t\\t\\t\\t\\t      <a class="accordion-toggle" data-toggle="collapse" data-parent="#accordion2" href="#collapseOne">\\n\\t\\t\\t\\t\\t\\t\\t        <b>Introduce un concepto</b>\\n\\t\\t\\t\\t\\t\\t\\t      </a>\\n\\t\\t\\t\\t\\t\\t\\t    </div>\\n\\t\\t\\t\\t\\t\\t\\t    <div id="collapseOne" class="accordion-body collapse in">\\n\\t\\t\\t\\t\\t\\t\\t     \\n\\t\\t\\t\\t\\t\\t\\t     <div class="accordion-inner">\\n\\t\\t\\t\\t\\t\\t\\t     \\t\', escape=False)\nresponse.write(formConcepto)\nresponse.write(\'\\t\\n\\t\\t\\t\\t\\t\\t\\t     </div>\\n\\t\\t\\t\\t\\t\\t\\t    </div>\\n\\t\\t\\t\\t\\t\\t\\t  </div>\\n\\t\\t\\t\\t\\t\\t\\t  <div class="accordion-group">\\n\\t\\t\\t\\t\\t\\t\\t    <div class="accordion-heading">\\n\\t\\t\\t\\t\\t\\t\\t      <a class="accordion-toggle" data-toggle="collapse" data-parent="#accordion2" href="#collapseTwo">\\n\\t\\t\\t\\t\\t\\t\\t        <b>Introduce un art\\xc3\\xadculo de la base de datos</b>\\n\\t\\t\\t\\t\\t\\t\\t      </a>\\n\\t\\t\\t\\t\\t\\t\\t    </div>\\n\\t\\t\\t\\t\\t\\t\\t    <div id="collapseTwo" class="accordion-body collapse">\\n\\t\\t\\t\\t\\t\\t\\t      <div class="accordion-inner">\\n\\t\\t\\t\\t\\t\\t\\t        <form id="nuevaConcepto" class="form-horizontal" name="nuevoArticulos">\\n\\t\\t\\t\\t\\t\\t\\t\\t\\t\\t<fieldset>\\n\\t\\t\\t\\t\\t\\t\\t\\t\\t\\t\\t<div class="control-group">\\t\\t\\t\\t\\t\\t\\t\\t\\t\\t\\t\\n\\t\\t\\t\\t\\t\\t\\t\\t\\t\\t\\t\\t<label class="control-label" for="titulo">Art\\xc3\\xadculo</label>\\n\\t\\t\\t\\t\\t\\t\\t\\t\\t\\t\\t\\t<div class="controls">\\t\\n\\t\\t\\t\\t\\t\\t\\t\\t\\t\\t\\t\\t\\t<input type="text" class="input-xxlarge" id="titulo" value="">\\n\\t\\t\\t\\t\\t\\t\\t\\t\\t\\t\\t\\t</div>\\t\\t\\t\\n\\t\\t\\t\\t\\t\\t\\t\\t\\t\\t\\t</div> <!-- /control-group -->\\n\\t\\t\\t\\t\\t\\t\\t\\t\\t\\t\\t<div class="control-group">\\t\\t\\t\\t\\t\\t\\t\\t\\t\\t\\t\\n\\t\\t\\t\\t\\t\\t\\t\\t\\t\\t\\t\\t<label class="control-label" for="cantidad">Cantidad</label>\\n\\t\\t\\t\\t\\t\\t\\t\\t\\t\\t\\t\\t<div class="controls">\\t\\n\\t\\t\\t\\t\\t\\t\\t\\t\\t\\t\\t\\t\\t<input type="text" class="input-large" id="cantidad" value="1">\\n\\t\\t\\t\\t\\t\\t\\t\\t\\t\\t\\t\\t</div>\\n\\t\\t\\t\\t\\t\\t\\t\\t\\t\\t\\t</div> <!-- /control-group -->\\n\\t\\t\\t\\t\\t\\t\\t\\t\\t\\t\\t<div class="control-group">\\t\\t\\t\\t\\t\\t\\t\\t\\t\\t\\t\\n\\t\\t\\t\\t\\t\\t\\t\\t\\t\\t\\t\\t<label class="control-label" for="precio">Precio</label>\\n\\t\\t\\t\\t\\t\\t\\t\\t\\t\\t\\t\\t<div class="controls">\\t\\n\\t\\t\\t\\t\\t\\t\\t\\t\\t\\t\\t\\t\\t<input type="text" class="input-large" id="precio" value="">\\n\\t\\t\\t\\t\\t\\t\\t\\t\\t\\t\\t\\t</div>\\t\\t\\n\\t\\t\\t\\t\\t\\t\\t\\t\\t\\t\\t</div> <!-- /control-group -->\\n\\t\\t\\t\\t\\t\\t\\t\\t\\t\\t\\t<div class="control-group">\\t\\n\\t\\t\\t\\t\\t\\t\\t\\t\\t\\t\\t\\t<div class="controls">\\n\\t\\t\\t\\t\\t\\t\\t\\t\\t\\t\\t\\t\\t<button type="submit" class="btn btn-primary">Insertar</button>\\n\\t\\t\\t\\t\\t\\t\\t\\t\\t\\t\\t\\t</div>\\n\\t\\t\\t\\t\\t\\t\\t\\t\\t\\t\\t</div> <!-- /control-group -->\\n\\t\\t\\t\\t\\t\\t\\t\\t\\t\\t\\t\\n\\t\\t\\t\\t\\t\\t\\t\\t\\t\\t\\n\\t\\t\\t\\t\\t\\t\\t\\t\\t\\t</fieldset>\\n\\t\\t\\t\\t\\t\\t\\t\\t\\t\\t\\n\\t\\t\\t\\t\\t\\t\\t\\t\\t</form>\\n\\t\\t\\t\\t\\t\\t\\t      </div>\\n\\t\\t\\t\\t\\t\\t\\t    </div>\\n\\t\\t\\t\\t\\t\\t\\t  </div>\\n\\t\\t\\t\\t\\t\\t\\t</div>\\n\\t\\t\\t\\t\\t\\t\\t\\n\\t\\t\\t\\t\\t\\t</div> <!-- .widget-content -->\\n\\n\\t\\t\\t\\t\\t</div> <!-- .widget widget-table -->\\n\\n                </div>\\n                <div class="span2">\\n                \\t<div class="widget big-stats-container">\\n\\t\\t\\t\\t\\t\\t<div class="widget-content">\\n\\t\\t\\t\\t\\t\\t\\t<div id="big_stats" class="cf">\\n\\t\\t\\t\\t\\t\\t\\t\\t<div class="stat">\\n\\t\\t\\t\\t\\t\\t\\t\\t\\t<h4>Base imponible</h4>\\n\\t\\t\\t\\t\\t\\t\\t\\t\\t<span class="value-modificado">15000 \\xe2\\x82\\xac</span>\\n\\t\\t\\t\\t\\t\\t\\t\\t</div>\\n\\t\\t\\t\\t\\t\\t\\t</div>\\n\\t\\t\\t\\t\\t\\t\\t<div id="big_stats" class="cf">\\n\\t\\t\\t\\t\\t\\t\\t\\t<div class="stat">\\n\\t\\t\\t\\t\\t\\t\\t\\t\\t<h4>IVA</h4>\\n\\t\\t\\t\\t\\t\\t\\t\\t\\t<span class="value-modificado">150 \\xe2\\x82\\xac</span>\\n\\t\\t\\t\\t\\t\\t\\t\\t</div>\\n\\t\\t\\t\\t\\t\\t\\t</div>\\n\\t\\t\\t\\t\\t\\t</div> <!-- /widget-content -->\\n\\t\\t\\t\\t\\t</div> <!-- /widget big-stats-container -->\\n\\t\\t\\t\\t\\t<div class="widget big-stats-container">\\n\\t\\t\\t\\t\\t\\t<div class="widget-content">\\n\\t\\t\\t\\t\\t\\t\\t<div id="big_stats" class="cf">\\n\\t\\t\\t\\t\\t\\t\\t\\t<div class="stat">\\n\\t\\t\\t\\t\\t\\t\\t\\t\\t<h3>Total</h3>\\n\\t\\t\\t\\t\\t\\t\\t\\t\\t<span class="value-modificado-total">151507,54 \\xe2\\x82\\xac</span>\\n\\t\\t\\t\\t\\t\\t\\t\\t</div>\\n\\t\\t\\t\\t\\t\\t\\t</div>\\n\\t\\t\\t\\t\\t\\t</div> <!-- /widget-content -->\\n\\t\\t\\t\\t\\t</div> <!-- /widget big-stats-container -->\\n                </div>\\n                \\n       \\t\\t</div>\\n       \\t\\t<div class="row">\\n        \\t\\t<div class="span12">\\n\\t\\t\\t\\t\\t<div class="widget widget-table">\\t\\n\\t\\t\\t\\t\\t\\t<div class="widget-header">\\n\\t\\t\\t\\t\\t\\t\\t<span class="icon-check"></span>\\n\\t\\t\\t\\t\\t\\t\\t<h3>Detalle de la factura</h3>\\n\\t\\t\\t\\t\\t\\t</div> <!-- .widget-header -->\\n\\t\\t\\t\\t\\t\\t<div class="widget-content">\\n\\t\\t\\t\\t\\t\\t\\t<table class="table table-bordered table-striped">\\n\\t\\t\\t\\t\\t\\t\\t\\t<thead>\\n\\t\\t\\t\\t\\t\\t\\t\\t<tr>\\t\\t\\t\\t\\t\\t\\t\\t\\n\\t\\t\\t\\t\\t\\t\\t\\t\\t<th>Concepto / Art\\xc3\\xadculo</th>\\n\\t\\t\\t\\t\\t\\t\\t\\t\\t<th>Cantidad</th>\\n\\t\\t\\t\\t\\t\\t\\t\\t\\t<th>Precio</th>\\n                                    <th>Acciones</th>\\t\\t\\t\\t\\t\\t\\t\\t\\n\\t\\t\\t\\t\\t\\t\\t\\t</tr>\\n\\t\\t\\t\\t\\t\\t\\t\\t</thead>\\n\\t\\t\\t\\t\\t\\t\\t\\t<tbody>\\n\\t\\t\\t\\t\\t\\t\\t\\t\\t\', escape=False)\nfor linea in lineas\nresponse.write(\'\\n\\t\\t\\t\\t\\t\\t\\t\\t\\t\\t<tr>\\n\\t\\t\\t\\t\\t\\t\\t\\t\\t\\t\\t<td class="articulo">\', escape=False)\nresponse.write(linea.articulo)\nresponse.write(\'</td>\\n\\t\\t\\t\\t\\t\\t\\t\\t\\t\\t\\t<td class="cantidad">\', escape=False)\nresponse.write(linea.cantidad)\nresponse.write(\'</td>\\n\\t\\t\\t\\t\\t\\t\\t\\t\\t\\t\\t<td class="precio">\', escape=False)\nresponse.write(linea.precio)\nresponse.write(\'</td>\\n\\t\\t\\t\\t\\t\\t\\t\\t\\t\\t\\t<td class="td-actions">\\n\\t\\t\\t\\t\\t\\t\\t\\t\\t\\t\\t\\t<a href="/rosan/facturas/detalleFactura/" class="btn btn-small btn-primary">\\n\\t\\t\\t\\t\\t\\t\\t\\t\\t\\t\\t\\t\\t<i class="btn-icon-only icon-eye-open"></i>\\t\\t\\t\\t\\t\\n\\t\\t\\t\\t\\t\\t\\t\\t\\t\\t\\t\\t</a>\\n\\t\\t\\t\\t\\t\\t\\t\\t\\t\\t\\t\\t<!-- Modal -->\\n\\t\\t\\t\\t\\t\\t\\t\\t\\t\\t\\t\\t\\n\\t\\t\\t\\t\\t\\t\\t\\t\\t\\t\\t\\t<a href="#myModal\', escape=False)\nresponse.write(linea.id)\nresponse.write(\'" class="btn btn-small btn-danger " data-toggle="modal">\\n\\t\\t\\t\\t\\t\\t\\t\\t\\t\\t\\t\\t\\t<i class="btn-icon-only icon-remove"></i>\\t\\t\\t\\t\\t\\t\\t\\t\\t\\t\\n\\t\\t\\t\\t\\t\\t\\t\\t\\t\\t\\t\\t</a>\\n\\t\\t\\t\\t\\t\\t\\t\\t\\t\\t\\t\\t<div id="myModal\', escape=False)\nresponse.write(linea.id)\nresponse.write(\'" class="modal hide fade" tabindex="-1" role="dialog" aria-labelledby="myModalLabel" aria-hidden="true">\\n\\t\\t\\t                                        <div class="modal-header">\\n\\t\\t\\t                                        \\t<button type="button" class="close" data-dismiss="modal" aria-hidden="true">\\xc3\\x97</button>\\n\\t\\t\\t                                        \\t<h3 id="myModalLabel">\\xc2\\xbfQuieres eliminar esta linea de la factura?</h3>\\n\\t\\t\\t                                        </div>\\n\\t\\t\\t                                        <div class="modal-body">\\n\\t\\t\\t                                        \\t<p>Vas a eliminar la siguiente l\\xc3\\xadnea de la factura</p>\\n\\t\\t\\t                                        \\t<p>\', escape=False)\nresponse.write(linea.id)\nresponse.write(\'</p>\\n\\t\\t\\t                                        </div>\\n\\t\\t\\t                                        <div class="modal-footer">\\n\\t\\t\\t                                        \\t<button class="btn" data-dismiss="modal" aria-hidden="true">Cancelar</button>\\n\\t\\t\\t                                            <a href="/rosan/facturas/eliminarLinea/\', escape=False)\nresponse.write(linea.id)\nresponse.write(\'" class="btn btn-danger">Eliminar</a>\\n\\t\\t\\t                                        </div>\\n\\t\\t                                        </div>\\n\\n\\t\\t\\t\\t\\t\\t\\t\\t\\t\\t\\t</td>\\n\\n\\t\\t\\t\\t\\t\\t\\t\\t\\t\\t</tr>\\n\\t\\t\\t\\t\\t\\t\\t\\t</tbody>\\n\\t\\t\\t\\t\\t\\t\\t</table>\\t\\n\\t\\t\\t\\t\\t\\t</div> <!-- .widget-content -->\\n\\t\\t\\t\\t\\t</div> <!-- .widget widget-table -->\\n                </div>\\n        </div>     \\n\\t</div>\\n</div>\\n\\n\\n\', escape=False)\nresponse.write(\'\\n    \', escape=False)\nresponse.write(\'\\n    \\n    \\n    <script src="\', escape=False)\nresponse.write(URL(\'static\',\'js/jquery-1.7.2.min.js\'))\nresponse.write(\'"></script>  \\n    <script src="\', escape=False)\nresponse.write(URL(\'static\',\'js/signin.js\'))\nresponse.write(\'"></script>  \\n    <script src="\', escape=False)\nresponse.write(URL(\'static\',\'js/jexcanvas.min.js\'))\nresponse.write(\'"></script>  \\n    <script src="\', escape=False)\nresponse.write(URL(\'static\',\'js/bootstrap.js\'))\nresponse.write(\'"></script>  \\n    <script src="\', escape=False)\nresponse.write(URL(\'static\',\'js/bootstrap-datepicker.js\'))\nresponse.write(\'"></script>  \\n    <script src="\', escape=False)\nresponse.write(URL(\'static\',\'js/base.js\'))\nresponse.write(\'"></script>  \\n    <script>\\n      $(function(){\\n        $(\\\'#dp3\\\').datepicker();\\n      });\\n    </script>\\n\\n  <div class="footer">\\n    <div class="footer-inner">\\n      <div class="container">\\n        <div class="row">\\n          <div class="span12">\\n            &copy; 2012 <a href="http://itrukise.tumblr.com">@trukise # Sergio S\\xc3\\xa1nchez Trujillo -- </a><img src="../static/images/sticker5.png">   &   <img src="../static/images/logo-bootstrap.png" height="50" width="50" >\\n          </div> <!-- /span12 -->\\n          </div> <!-- /row -->\\n        </div> <!-- /container -->\\n    </div> <!-- /footer-inner -->\\n  </div> <!-- /footer -->\\n\\n  \', escape=False)\nif response.google_analytics_id:\n    response.write(\'<script type="text/javascript"> var _gaq = _gaq || []; _gaq.push([\\\'_setAccount\\\', \\\'\', escape=False)\n    response.write(response.google_analytics_id)\n    response.write("\']); _gaq.push([\'_trackPageview\']); (function() { var ga = document.createElement(\'script\'); ga.type = \'text/javascript\'; ga.async = true; ga.src = (\'https:\' == document.location.protocol ? \'https://ssl\' : \'http://www\') + \'.google-analytics.com/ga.js\'; var s = document.getElementsByTagName(\'script\')[0]; s.parentNode.insertBefore(ga, s); })(); </script> ", escape=False)\n    pass\nresponse.write(\'\\n</body>\\n</html>\\n\', escape=False)'
p7
sS'snapshot'
p8
(dp9
S'exception'
p10
(dp11
S'__getslice__'
p12
S"<method-wrapper '__getslice__' of exceptions.SyntaxError object>"
p13
sS'text'
p14
S"'for linea in lineas\\n'"
p15
sS'__str__'
p16
S"<method-wrapper '__str__' of exceptions.SyntaxError object>"
p17
sS'__reduce__'
p18
S'<built-in method __reduce__ of exceptions.SyntaxError object>'
p19
sS'__dict__'
p20
S'{}'
p21
sS'__sizeof__'
p22
S'<built-in method __sizeof__ of exceptions.SyntaxError object>'
p23
sS'__init__'
p24
S"<method-wrapper '__init__' of exceptions.SyntaxError object>"
p25
sS'__setattr__'
p26
S"<method-wrapper '__setattr__' of exceptions.SyntaxError object>"
p27
sS'__reduce_ex__'
p28
S'<built-in method __reduce_ex__ of exceptions.SyntaxError object>'
p29
sS'__new__'
p30
S'<built-in method __new__ of type object>'
p31
sS'__format__'
p32
S'<built-in method __format__ of exceptions.SyntaxError object>'
p33
sS'__class__'
p34
S"<type 'exceptions.SyntaxError'>"
p35
sS'filename'
p36
S"'/Users/Truki/Desarrollo/web2py/applications/rosan/views/facturas/detalleFactura.html'"
p37
sS'lineno'
p38
S'48'
p39
sS'msg'
p40
S"'invalid syntax'"
p41
sS'__doc__'
p42
S"'Invalid syntax.'"
p43
sS'__getitem__'
p44
S"<method-wrapper '__getitem__' of exceptions.SyntaxError object>"
p45
sS'__setstate__'
p46
S'<built-in method __setstate__ of exceptions.SyntaxError object>'
p47
sS'__getattribute__'
p48
S"<method-wrapper '__getattribute__' of exceptions.SyntaxError object>"
p49
sS'print_file_and_line'
p50
S'None'
p51
sS'args'
p52
S"('invalid syntax', ('/Users/Truki/Desarrollo/web2py/applications/rosan/views/facturas/detalleFactura.html', 48, 20, 'for linea in lineas\\n'))"
p53
sS'__subclasshook__'
p54
S'<built-in method __subclasshook__ of type object>'
p55
sS'offset'
p56
S'20'
p57
sS'__unicode__'
p58
S'<built-in method __unicode__ of exceptions.SyntaxError object>'
p59
sS'__delattr__'
p60
S"<method-wrapper '__delattr__' of exceptions.SyntaxError object>"
p61
sS'__repr__'
p62
S"<method-wrapper '__repr__' of exceptions.SyntaxError object>"
p63
sS'__hash__'
p64
S"<method-wrapper '__hash__' of exceptions.SyntaxError object>"
p65
ssS'evalue'
p66
S'invalid syntax (detalleFactura.html, line 48)'
p67
sS'request'
p68
ccopy_reg
_reconstructor
p69
(cgluon.html
BEAUTIFY
p70
c__builtin__
object
p71
NtRp72
(dp73
S'attributes'
p74
(dp75
sS'components'
p76
(lp77
g69
(cgluon.html
TABLE
p78
g71
NtRp79
(dp80
g74
(dp81
S'level'
p82
I5
ssS'parent'
p83
Nsg76
(lp84
g69
(cgluon.html
TR
p85
g71
NtRp86
(dp87
g74
(dp88
sg83
g79
sg76
(lp89
g69
(cgluon.html
TD
p90
g71
NtRp91
(dp92
g74
(dp93
S'_style'
p94
S'font-weight:bold;vertical-align:top'
p95
ssg83
g86
sg76
(lp96
S'ajax'
p97
asbag69
(g90
g71
NtRp98
(dp99
g74
(dp100
S'_valign'
p101
S'top'
p102
ssg83
g86
sg76
(lp103
S':'
asbag69
(g90
g71
NtRp104
(dp105
g74
(dp106
sg83
g86
sg76
(lp107
g69
(g70
g71
NtRp108
(dp109
g74
(dp110
g82
I5
ssg83
g104
sg76
(lp111
S'False'
p112
asbasbasbag69
(g85
g71
NtRp113
(dp114
g74
(dp115
sg83
g79
sg76
(lp116
g69
(g90
g71
NtRp117
(dp118
g74
(dp119
g94
g95
ssg83
g113
sg76
(lp120
S'application'
p121
asbag69
(g90
g71
NtRp122
(dp123
g74
(dp124
g101
g102
ssg83
g113
sg76
(lp125
S':'
asbag69
(g90
g71
NtRp126
(dp127
g74
(dp128
sg83
g113
sg76
(lp129
g69
(g70
g71
NtRp130
(dp131
g74
(dp132
g82
I5
ssg83
g126
sg76
(lp133
S'rosan'
p134
asbasbasbag69
(g85
g71
NtRp135
(dp136
g74
(dp137
sg83
g79
sg76
(lp138
g69
(g90
g71
NtRp139
(dp140
g74
(dp141
g94
g95
ssg83
g135
sg76
(lp142
g52
asbag69
(g90
g71
NtRp143
(dp144
g74
(dp145
g101
g102
ssg83
g135
sg76
(lp146
S':'
asbag69
(g90
g71
NtRp147
(dp148
g74
(dp149
sg83
g135
sg76
(lp150
g69
(g70
g71
NtRp151
(dp152
g74
(dp153
g82
I5
ssg83
g147
sg76
(lp154
g69
(g78
g71
NtRp155
(dp156
g74
(dp157
g82
I4
ssg83
Nsg76
(lp158
sbasbasbasbag69
(g85
g71
NtRp159
(dp160
g74
(dp161
sg83
g79
sg76
(lp162
g69
(g90
g71
NtRp163
(dp164
g74
(dp165
g94
g95
ssg83
g159
sg76
(lp166
S'body'
p167
asbag69
(g90
g71
NtRp168
(dp169
g74
(dp170
g101
g102
ssg83
g159
sg76
(lp171
S':'
asbag69
(g90
g71
NtRp172
(dp173
g74
(dp174
sg83
g159
sg76
(lp175
g69
(g70
g71
NtRp176
(dp177
g74
(dp178
g82
I5
ssg83
g172
sg76
(lp179
S'<cStringIO.StringO object at 0x10c327b58>'
p180
asbasbasbag69
(g85
g71
NtRp181
(dp182
g74
(dp183
sg83
g79
sg76
(lp184
g69
(g90
g71
NtRp185
(dp186
g74
(dp187
g94
g95
ssg83
g181
sg76
(lp188
S'cid'
p189
asbag69
(g90
g71
NtRp190
(dp191
g74
(dp192
g101
g102
ssg83
g181
sg76
(lp193
S':'
asbag69
(g90
g71
NtRp194
(dp195
g74
(dp196
sg83
g181
sg76
(lp197
g69
(g70
g71
NtRp198
(dp199
g74
(dp200
g82
I5
ssg83
g194
sg76
(lp201
S'None'
p202
asbasbasbag69
(g85
g71
NtRp203
(dp204
g74
(dp205
sg83
g79
sg76
(lp206
g69
(g90
g71
NtRp207
(dp208
g74
(dp209
g94
g95
ssg83
g203
sg76
(lp210
S'client'
p211
asbag69
(g90
g71
NtRp212
(dp213
g74
(dp214
g101
g102
ssg83
g203
sg76
(lp215
S':'
asbag69
(g90
g71
NtRp216
(dp217
g74
(dp218
sg83
g203
sg76
(lp219
g69
(g70
g71
NtRp220
(dp221
g74
(dp222
g82
I5
ssg83
g216
sg76
(lp223
S'127.0.0.1'
p224
asbasbasbag69
(g85
g71
NtRp225
(dp226
g74
(dp227
sg83
g79
sg76
(lp228
g69
(g90
g71
NtRp229
(dp230
g74
(dp231
g94
g95
ssg83
g225
sg76
(lp232
S'controller'
p233
asbag69
(g90
g71
NtRp234
(dp235
g74
(dp236
g101
g102
ssg83
g225
sg76
(lp237
S':'
asbag69
(g90
g71
NtRp238
(dp239
g74
(dp240
sg83
g225
sg76
(lp241
g69
(g70
g71
NtRp242
(dp243
g74
(dp244
g82
I5
ssg83
g238
sg76
(lp245
S'facturas'
p246
asbasbasbag69
(g85
g71
NtRp247
(dp248
g74
(dp249
sg83
g79
sg76
(lp250
g69
(g90
g71
NtRp251
(dp252
g74
(dp253
g94
g95
ssg83
g247
sg76
(lp254
S'cookies'
p255
asbag69
(g90
g71
NtRp256
(dp257
g74
(dp258
g101
g102
ssg83
g247
sg76
(lp259
S':'
asbag69
(g90
g71
NtRp260
(dp261
g74
(dp262
sg83
g247
sg76
(lp263
g69
(g70
g71
NtRp264
(dp265
g74
(dp266
g82
I5
ssg83
g260
sg76
(lp267
g69
(g78
g71
NtRp268
(dp269
g74
(dp270
g82
I4
ssg83
Nsg76
(lp271
g69
(g85
g71
NtRp272
(dp273
g74
(dp274
sg83
g268
sg76
(lp275
g69
(g90
g71
NtRp276
(dp277
g74
(dp278
g94
g95
ssg83
g272
sg76
(lp279
S'session_id_admin'
p280
asbag69
(g90
g71
NtRp281
(dp282
g74
(dp283
g101
g102
ssg83
g272
sg76
(lp284
S':'
asbag69
(g90
g71
NtRp285
(dp286
g74
(dp287
sg83
g272
sg76
(lp288
g69
(g70
g71
NtRp289
(dp290
g74
(dp291
g82
I4
ssg83
g285
sg76
(lp292
S'127.0.0.1-a5493054-f74f-4925-8c9e-0c612102c628'
p293
ag69
(g78
g71
NtRp294
(dp295
g74
(dp296
g82
I3
ssg83
Nsg76
(lp297
g69
(g85
g71
NtRp298
(dp299
g74
(dp300
sg83
g294
sg76
(lp301
g69
(g90
g71
NtRp302
(dp303
g74
(dp304
g94
g95
ssg83
g298
sg76
(lp305
S'comment'
p306
asbag69
(g90
g71
NtRp307
(dp308
g74
(dp309
g101
g102
ssg83
g298
sg76
(lp310
S':'
asbag69
(g90
g71
NtRp311
(dp312
g74
(dp313
sg83
g298
sg76
(lp314
g69
(g70
g71
NtRp315
(dp316
g74
(dp317
g82
I3
ssg83
g311
sg76
(lp318
S''
asbasbasbag69
(g85
g71
NtRp319
(dp320
g74
(dp321
sg83
g294
sg76
(lp322
g69
(g90
g71
NtRp323
(dp324
g74
(dp325
g94
g95
ssg83
g319
sg76
(lp326
S'domain'
p327
asbag69
(g90
g71
NtRp328
(dp329
g74
(dp330
g101
g102
ssg83
g319
sg76
(lp331
S':'
asbag69
(g90
g71
NtRp332
(dp333
g74
(dp334
sg83
g319
sg76
(lp335
g69
(g70
g71
NtRp336
(dp337
g74
(dp338
g82
I3
ssg83
g332
sg76
(lp339
S''
asbasbasbag69
(g85
g71
NtRp340
(dp341
g74
(dp342
sg83
g294
sg76
(lp343
g69
(g90
g71
NtRp344
(dp345
g74
(dp346
g94
g95
ssg83
g340
sg76
(lp347
S'expires'
p348
asbag69
(g90
g71
NtRp349
(dp350
g74
(dp351
g101
g102
ssg83
g340
sg76
(lp352
S':'
asbag69
(g90
g71
NtRp353
(dp354
g74
(dp355
sg83
g340
sg76
(lp356
g69
(g70
g71
NtRp357
(dp358
g74
(dp359
g82
I3
ssg83
g353
sg76
(lp360
S''
asbasbasbag69
(g85
g71
NtRp361
(dp362
g74
(dp363
sg83
g294
sg76
(lp364
g69
(g90
g71
NtRp365
(dp366
g74
(dp367
g94
g95
ssg83
g361
sg76
(lp368
S'httponly'
p369
asbag69
(g90
g71
NtRp370
(dp371
g74
(dp372
g101
g102
ssg83
g361
sg76
(lp373
S':'
asbag69
(g90
g71
NtRp374
(dp375
g74
(dp376
sg83
g361
sg76
(lp377
g69
(g70
g71
NtRp378
(dp379
g74
(dp380
g82
I3
ssg83
g374
sg76
(lp381
S''
asbasbasbag69
(g85
g71
NtRp382
(dp383
g74
(dp384
sg83
g294
sg76
(lp385
g69
(g90
g71
NtRp386
(dp387
g74
(dp388
g94
g95
ssg83
g382
sg76
(lp389
S'max-age'
p390
asbag69
(g90
g71
NtRp391
(dp392
g74
(dp393
g101
g102
ssg83
g382
sg76
(lp394
S':'
asbag69
(g90
g71
NtRp395
(dp396
g74
(dp397
sg83
g382
sg76
(lp398
g69
(g70
g71
NtRp399
(dp400
g74
(dp401
g82
I3
ssg83
g395
sg76
(lp402
S''
asbasbasbag69
(g85
g71
NtRp403
(dp404
g74
(dp405
sg83
g294
sg76
(lp406
g69
(g90
g71
NtRp407
(dp408
g74
(dp409
g94
g95
ssg83
g403
sg76
(lp410
S'path'
p411
asbag69
(g90
g71
NtRp412
(dp413
g74
(dp414
g101
g102
ssg83
g403
sg76
(lp415
S':'
asbag69
(g90
g71
NtRp416
(dp417
g74
(dp418
sg83
g403
sg76
(lp419
g69
(g70
g71
NtRp420
(dp421
g74
(dp422
g82
I3
ssg83
g416
sg76
(lp423
S''
asbasbasbag69
(g85
g71
NtRp424
(dp425
g74
(dp426
sg83
g294
sg76
(lp427
g69
(g90
g71
NtRp428
(dp429
g74
(dp430
g94
g95
ssg83
g424
sg76
(lp431
S'secure'
p432
asbag69
(g90
g71
NtRp433
(dp434
g74
(dp435
g101
g102
ssg83
g424
sg76
(lp436
S':'
asbag69
(g90
g71
NtRp437
(dp438
g74
(dp439
sg83
g424
sg76
(lp440
g69
(g70
g71
NtRp441
(dp442
g74
(dp443
g82
I3
ssg83
g437
sg76
(lp444
S''
asbasbasbag69
(g85
g71
NtRp445
(dp446
g74
(dp447
sg83
g294
sg76
(lp448
g69
(g90
g71
NtRp449
(dp450
g74
(dp451
g94
g95
ssg83
g445
sg76
(lp452
S'version'
p453
asbag69
(g90
g71
NtRp454
(dp455
g74
(dp456
g101
g102
ssg83
g445
sg76
(lp457
S':'
asbag69
(g90
g71
NtRp458
(dp459
g74
(dp460
sg83
g445
sg76
(lp461
g69
(g70
g71
NtRp462
(dp463
g74
(dp464
g82
I3
ssg83
g458
sg76
(lp465
S''
asbasbasbasbasbasbasbag69
(g85
g71
NtRp466
(dp467
g74
(dp468
sg83
g268
sg76
(lp469
g69
(g90
g71
NtRp470
(dp471
g74
(dp472
g94
g95
ssg83
g466
sg76
(lp473
S'session_id_rosan'
p474
asbag69
(g90
g71
NtRp475
(dp476
g74
(dp477
g101
g102
ssg83
g466
sg76
(lp478
S':'
asbag69
(g90
g71
NtRp479
(dp480
g74
(dp481
sg83
g466
sg76
(lp482
g69
(g70
g71
NtRp483
(dp484
g74
(dp485
g82
I4
ssg83
g479
sg76
(lp486
S'127.0.0.1-883cce21-7f68-4212-9cb5-c194bf38a2ff'
p487
ag69
(g78
g71
NtRp488
(dp489
g74
(dp490
g82
I3
ssg83
Nsg76
(lp491
g69
(g85
g71
NtRp492
(dp493
g74
(dp494
sg83
g488
sg76
(lp495
g69
(g90
g71
NtRp496
(dp497
g74
(dp498
g94
g95
ssg83
g492
sg76
(lp499
g306
asbag69
(g90
g71
NtRp500
(dp501
g74
(dp502
g101
g102
ssg83
g492
sg76
(lp503
S':'
asbag69
(g90
g71
NtRp504
(dp505
g74
(dp506
sg83
g492
sg76
(lp507
g69
(g70
g71
NtRp508
(dp509
g74
(dp510
g82
I3
ssg83
g504
sg76
(lp511
S''
asbasbasbag69
(g85
g71
NtRp512
(dp513
g74
(dp514
sg83
g488
sg76
(lp515
g69
(g90
g71
NtRp516
(dp517
g74
(dp518
g94
g95
ssg83
g512
sg76
(lp519
g327
asbag69
(g90
g71
NtRp520
(dp521
g74
(dp522
g101
g102
ssg83
g512
sg76
(lp523
S':'
asbag69
(g90
g71
NtRp524
(dp525
g74
(dp526
sg83
g512
sg76
(lp527
g69
(g70
g71
NtRp528
(dp529
g74
(dp530
g82
I3
ssg83
g524
sg76
(lp531
S''
asbasbasbag69
(g85
g71
NtRp532
(dp533
g74
(dp534
sg83
g488
sg76
(lp535
g69
(g90
g71
NtRp536
(dp537
g74
(dp538
g94
g95
ssg83
g532
sg76
(lp539
g348
asbag69
(g90
g71
NtRp540
(dp541
g74
(dp542
g101
g102
ssg83
g532
sg76
(lp543
S':'
asbag69
(g90
g71
NtRp544
(dp545
g74
(dp546
sg83
g532
sg76
(lp547
g69
(g70
g71
NtRp548
(dp549
g74
(dp550
g82
I3
ssg83
g544
sg76
(lp551
S''
asbasbasbag69
(g85
g71
NtRp552
(dp553
g74
(dp554
sg83
g488
sg76
(lp555
g69
(g90
g71
NtRp556
(dp557
g74
(dp558
g94
g95
ssg83
g552
sg76
(lp559
g369
asbag69
(g90
g71
NtRp560
(dp561
g74
(dp562
g101
g102
ssg83
g552
sg76
(lp563
S':'
asbag69
(g90
g71
NtRp564
(dp565
g74
(dp566
sg83
g552
sg76
(lp567
g69
(g70
g71
NtRp568
(dp569
g74
(dp570
g82
I3
ssg83
g564
sg76
(lp571
S''
asbasbasbag69
(g85
g71
NtRp572
(dp573
g74
(dp574
sg83
g488
sg76
(lp575
g69
(g90
g71
NtRp576
(dp577
g74
(dp578
g94
g95
ssg83
g572
sg76
(lp579
g390
asbag69
(g90
g71
NtRp580
(dp581
g74
(dp582
g101
g102
ssg83
g572
sg76
(lp583
S':'
asbag69
(g90
g71
NtRp584
(dp585
g74
(dp586
sg83
g572
sg76
(lp587
g69
(g70
g71
NtRp588
(dp589
g74
(dp590
g82
I3
ssg83
g584
sg76
(lp591
S''
asbasbasbag69
(g85
g71
NtRp592
(dp593
g74
(dp594
sg83
g488
sg76
(lp595
g69
(g90
g71
NtRp596
(dp597
g74
(dp598
g94
g95
ssg83
g592
sg76
(lp599
g411
asbag69
(g90
g71
NtRp600
(dp601
g74
(dp602
g101
g102
ssg83
g592
sg76
(lp603
S':'
asbag69
(g90
g71
NtRp604
(dp605
g74
(dp606
sg83
g592
sg76
(lp607
g69
(g70
g71
NtRp608
(dp609
g74
(dp610
g82
I3
ssg83
g604
sg76
(lp611
S''
asbasbasbag69
(g85
g71
NtRp612
(dp613
g74
(dp614
sg83
g488
sg76
(lp615
g69
(g90
g71
NtRp616
(dp617
g74
(dp618
g94
g95
ssg83
g612
sg76
(lp619
g432
asbag69
(g90
g71
NtRp620
(dp621
g74
(dp622
g101
g102
ssg83
g612
sg76
(lp623
S':'
asbag69
(g90
g71
NtRp624
(dp625
g74
(dp626
sg83
g612
sg76
(lp627
g69
(g70
g71
NtRp628
(dp629
g74
(dp630
g82
I3
ssg83
g624
sg76
(lp631
S''
asbasbasbag69
(g85
g71
NtRp632
(dp633
g74
(dp634
sg83
g488
sg76
(lp635
g69
(g90
g71
NtRp636
(dp637
g74
(dp638
g94
g95
ssg83
g632
sg76
(lp639
g453
asbag69
(g90
g71
NtRp640
(dp641
g74
(dp642
g101
g102
ssg83
g632
sg76
(lp643
S':'
asbag69
(g90
g71
NtRp644
(dp645
g74
(dp646
sg83
g632
sg76
(lp647
g69
(g70
g71
NtRp648
(dp649
g74
(dp650
g82
I3
ssg83
g644
sg76
(lp651
S''
asbasbasbasbasbasbasbag69
(g85
g71
NtRp652
(dp653
g74
(dp654
sg83
g268
sg76
(lp655
g69
(g90
g71
NtRp656
(dp657
g74
(dp658
g94
g95
ssg83
g652
sg76
(lp659
S'session_id_welcome'
p660
asbag69
(g90
g71
NtRp661
(dp662
g74
(dp663
g101
g102
ssg83
g652
sg76
(lp664
S':'
asbag69
(g90
g71
NtRp665
(dp666
g74
(dp667
sg83
g652
sg76
(lp668
g69
(g70
g71
NtRp669
(dp670
g74
(dp671
g82
I4
ssg83
g665
sg76
(lp672
S'127.0.0.1-a3bfaf0d-f47a-45b4-bd8a-eeb4ec2fa744'
p673
ag69
(g78
g71
NtRp674
(dp675
g74
(dp676
g82
I3
ssg83
Nsg76
(lp677
g69
(g85
g71
NtRp678
(dp679
g74
(dp680
sg83
g674
sg76
(lp681
g69
(g90
g71
NtRp682
(dp683
g74
(dp684
g94
g95
ssg83
g678
sg76
(lp685
g306
asbag69
(g90
g71
NtRp686
(dp687
g74
(dp688
g101
g102
ssg83
g678
sg76
(lp689
S':'
asbag69
(g90
g71
NtRp690
(dp691
g74
(dp692
sg83
g678
sg76
(lp693
g69
(g70
g71
NtRp694
(dp695
g74
(dp696
g82
I3
ssg83
g690
sg76
(lp697
S''
asbasbasbag69
(g85
g71
NtRp698
(dp699
g74
(dp700
sg83
g674
sg76
(lp701
g69
(g90
g71
NtRp702
(dp703
g74
(dp704
g94
g95
ssg83
g698
sg76
(lp705
g327
asbag69
(g90
g71
NtRp706
(dp707
g74
(dp708
g101
g102
ssg83
g698
sg76
(lp709
S':'
asbag69
(g90
g71
NtRp710
(dp711
g74
(dp712
sg83
g698
sg76
(lp713
g69
(g70
g71
NtRp714
(dp715
g74
(dp716
g82
I3
ssg83
g710
sg76
(lp717
S''
asbasbasbag69
(g85
g71
NtRp718
(dp719
g74
(dp720
sg83
g674
sg76
(lp721
g69
(g90
g71
NtRp722
(dp723
g74
(dp724
g94
g95
ssg83
g718
sg76
(lp725
g348
asbag69
(g90
g71
NtRp726
(dp727
g74
(dp728
g101
g102
ssg83
g718
sg76
(lp729
S':'
asbag69
(g90
g71
NtRp730
(dp731
g74
(dp732
sg83
g718
sg76
(lp733
g69
(g70
g71
NtRp734
(dp735
g74
(dp736
g82
I3
ssg83
g730
sg76
(lp737
S''
asbasbasbag69
(g85
g71
NtRp738
(dp739
g74
(dp740
sg83
g674
sg76
(lp741
g69
(g90
g71
NtRp742
(dp743
g74
(dp744
g94
g95
ssg83
g738
sg76
(lp745
g369
asbag69
(g90
g71
NtRp746
(dp747
g74
(dp748
g101
g102
ssg83
g738
sg76
(lp749
S':'
asbag69
(g90
g71
NtRp750
(dp751
g74
(dp752
sg83
g738
sg76
(lp753
g69
(g70
g71
NtRp754
(dp755
g74
(dp756
g82
I3
ssg83
g750
sg76
(lp757
S''
asbasbasbag69
(g85
g71
NtRp758
(dp759
g74
(dp760
sg83
g674
sg76
(lp761
g69
(g90
g71
NtRp762
(dp763
g74
(dp764
g94
g95
ssg83
g758
sg76
(lp765
g390
asbag69
(g90
g71
NtRp766
(dp767
g74
(dp768
g101
g102
ssg83
g758
sg76
(lp769
S':'
asbag69
(g90
g71
NtRp770
(dp771
g74
(dp772
sg83
g758
sg76
(lp773
g69
(g70
g71
NtRp774
(dp775
g74
(dp776
g82
I3
ssg83
g770
sg76
(lp777
S''
asbasbasbag69
(g85
g71
NtRp778
(dp779
g74
(dp780
sg83
g674
sg76
(lp781
g69
(g90
g71
NtRp782
(dp783
g74
(dp784
g94
g95
ssg83
g778
sg76
(lp785
g411
asbag69
(g90
g71
NtRp786
(dp787
g74
(dp788
g101
g102
ssg83
g778
sg76
(lp789
S':'
asbag69
(g90
g71
NtRp790
(dp791
g74
(dp792
sg83
g778
sg76
(lp793
g69
(g70
g71
NtRp794
(dp795
g74
(dp796
g82
I3
ssg83
g790
sg76
(lp797
S''
asbasbasbag69
(g85
g71
NtRp798
(dp799
g74
(dp800
sg83
g674
sg76
(lp801
g69
(g90
g71
NtRp802
(dp803
g74
(dp804
g94
g95
ssg83
g798
sg76
(lp805
g432
asbag69
(g90
g71
NtRp806
(dp807
g74
(dp808
g101
g102
ssg83
g798
sg76
(lp809
S':'
asbag69
(g90
g71
NtRp810
(dp811
g74
(dp812
sg83
g798
sg76
(lp813
g69
(g70
g71
NtRp814
(dp815
g74
(dp816
g82
I3
ssg83
g810
sg76
(lp817
S''
asbasbasbag69
(g85
g71
NtRp818
(dp819
g74
(dp820
sg83
g674
sg76
(lp821
g69
(g90
g71
NtRp822
(dp823
g74
(dp824
g94
g95
ssg83
g818
sg76
(lp825
g453
asbag69
(g90
g71
NtRp826
(dp827
g74
(dp828
g101
g102
ssg83
g818
sg76
(lp829
S':'
asbag69
(g90
g71
NtRp830
(dp831
g74
(dp832
sg83
g818
sg76
(lp833
g69
(g70
g71
NtRp834
(dp835
g74
(dp836
g82
I3
ssg83
g830
sg76
(lp837
S''
asbasbasbasbasbasbasbasbasbasbasbag69
(g85
g71
NtRp838
(dp839
g74
(dp840
sg83
g79
sg76
(lp841
g69
(g90
g71
NtRp842
(dp843
g74
(dp844
g94
g95
ssg83
g838
sg76
(lp845
S'env'
p846
asbag69
(g90
g71
NtRp847
(dp848
g74
(dp849
g101
g102
ssg83
g838
sg76
(lp850
S':'
asbag69
(g90
g71
NtRp851
(dp852
g74
(dp853
sg83
g838
sg76
(lp854
g69
(g70
g71
NtRp855
(dp856
g74
(dp857
g82
I5
ssg83
g851
sg76
(lp858
g69
(g78
g71
NtRp859
(dp860
g74
(dp861
g82
I4
ssg83
Nsg76
(lp862
g69
(g85
g71
NtRp863
(dp864
g74
(dp865
sg83
g859
sg76
(lp866
g69
(g90
g71
NtRp867
(dp868
g74
(dp869
g94
g95
ssg83
g863
sg76
(lp870
S'app_folders'
p871
asbag69
(g90
g71
NtRp872
(dp873
g74
(dp874
g101
g102
ssg83
g863
sg76
(lp875
S':'
asbag69
(g90
g71
NtRp876
(dp877
g74
(dp878
sg83
g863
sg76
(lp879
g69
(g70
g71
NtRp880
(dp881
g74
(dp882
g82
I4
ssg83
g876
sg76
(lp883
S"set(['/Users/Truki/Desarrollo/web2py/applications/welcome/', '/Users/Truki/Desarrollo/web2py/applications/rosan/', '/Users/Truki/Desarrollo/web2py/applications/admin/'])"
p884
asbasbasbag69
(g85
g71
NtRp885
(dp886
g74
(dp887
sg83
g859
sg76
(lp888
g69
(g90
g71
NtRp889
(dp890
g74
(dp891
g94
g95
ssg83
g885
sg76
(lp892
S'applications_parent'
p893
asbag69
(g90
g71
NtRp894
(dp895
g74
(dp896
g101
g102
ssg83
g885
sg76
(lp897
S':'
asbag69
(g90
g71
NtRp898
(dp899
g74
(dp900
sg83
g885
sg76
(lp901
g69
(g70
g71
NtRp902
(dp903
g74
(dp904
g82
I4
ssg83
g898
sg76
(lp905
S'/Users/Truki/Desarrollo/web2py'
p906
asbasbasbag69
(g85
g71
NtRp907
(dp908
g74
(dp909
sg83
g859
sg76
(lp910
g69
(g90
g71
NtRp911
(dp912
g74
(dp913
g94
g95
ssg83
g907
sg76
(lp914
S'cmd_args'
p915
asbag69
(g90
g71
NtRp916
(dp917
g74
(dp918
g101
g102
ssg83
g907
sg76
(lp919
S':'
asbag69
(g90
g71
NtRp920
(dp921
g74
(dp922
sg83
g907
sg76
(lp923
g69
(g70
g71
NtRp924
(dp925
g74
(dp926
g82
I4
ssg83
g920
sg76
(lp927
g69
(g78
g71
NtRp928
(dp929
g74
(dp930
g82
I3
ssg83
Nsg76
(lp931
sbasbasbasbag69
(g85
g71
NtRp932
(dp933
g74
(dp934
sg83
g859
sg76
(lp935
g69
(g90
g71
NtRp936
(dp937
g74
(dp938
g94
g95
ssg83
g932
sg76
(lp939
S'cmd_options'
p940
asbag69
(g90
g71
NtRp941
(dp942
g74
(dp943
g101
g102
ssg83
g932
sg76
(lp944
S':'
asbag69
(g90
g71
NtRp945
(dp946
g74
(dp947
sg83
g932
sg76
(lp948
g69
(g70
g71
NtRp949
(dp950
g74
(dp951
g82
I4
ssg83
g945
sg76
(lp952
S"<Values at 0x104191128: {'verbose': False, 'ip': '127.0.0.1', 'with_scheduler': False, 'ips': ['fe80::8e2d:aaff:fe4a:3d35%en1', '192.168.1.35'], 'shutdown_timeout': 5, 'taskbar': False, 'port': 8000, 'maxthreads': None, 'softcron': False, 'server_name': 'PeritoMascao.local', 'bpython': False, 'nogui': False, 'pid_filename': 'httpserver.pid', 'extcron': False, 'runcron': False, 'run_system_tests': False, 'test': None, 'folder': '/Users/Truki/Desarrollo/web2py', 'config': '', 'minthreads': None, 'winservice': '', 'shell': None, 'run': '', 'log_filename': 'httpserver.log', 'debuglevel': 30, 'args': [''], 'socket_timeout': 5, 'ssl_ca_certificate': None, 'scheduler': None, 'profiler_filename': None, 'ssl_private_key': '', 'scheduler_groups': None, 'password': '<ask>', 'request_queue_size': 5, 'ssl_certificate': '', 'cronjob': False, 'numthreads': None, 'quiet': False, 'interfaces': None, 'import_models': False, 'timeout': 10, 'plain': False, 'nobanner': False}>"
p953
asbasbasbag69
(g85
g71
NtRp954
(dp955
g74
(dp956
sg83
g859
sg76
(lp957
g69
(g90
g71
NtRp958
(dp959
g74
(dp960
g94
g95
ssg83
g954
sg76
(lp961
S'db_sessions'
p962
asbag69
(g90
g71
NtRp963
(dp964
g74
(dp965
g101
g102
ssg83
g954
sg76
(lp966
S':'
asbag69
(g90
g71
NtRp967
(dp968
g74
(dp969
sg83
g954
sg76
(lp970
g69
(g70
g71
NtRp971
(dp972
g74
(dp973
g82
I4
ssg83
g967
sg76
(lp974
S'set([])'
p975
asbasbasbag69
(g85
g71
NtRp976
(dp977
g74
(dp978
sg83
g859
sg76
(lp979
g69
(g90
g71
NtRp980
(dp981
g74
(dp982
g94
g95
ssg83
g976
sg76
(lp983
S'debugging'
p984
asbag69
(g90
g71
NtRp985
(dp986
g74
(dp987
g101
g102
ssg83
g976
sg76
(lp988
S':'
asbag69
(g90
g71
NtRp989
(dp990
g74
(dp991
sg83
g976
sg76
(lp992
g69
(g70
g71
NtRp993
(dp994
g74
(dp995
g82
I4
ssg83
g989
sg76
(lp996
g112
asbasbasbag69
(g85
g71
NtRp997
(dp998
g74
(dp999
sg83
g859
sg76
(lp1000
g69
(g90
g71
NtRp1001
(dp1002
g74
(dp1003
g94
g95
ssg83
g997
sg76
(lp1004
S'gluon_parent'
p1005
asbag69
(g90
g71
NtRp1006
(dp1007
g74
(dp1008
g101
g102
ssg83
g997
sg76
(lp1009
S':'
asbag69
(g90
g71
NtRp1010
(dp1011
g74
(dp1012
sg83
g997
sg76
(lp1013
g69
(g70
g71
NtRp1014
(dp1015
g74
(dp1016
g82
I4
ssg83
g1010
sg76
(lp1017
S'/Users/Truki/Desarrollo/web2py'
p1018
asbasbasbag69
(g85
g71
NtRp1019
(dp1020
g74
(dp1021
sg83
g859
sg76
(lp1022
g69
(g90
g71
NtRp1023
(dp1024
g74
(dp1025
g94
g95
ssg83
g1019
sg76
(lp1026
S'http_accept'
p1027
asbag69
(g90
g71
NtRp1028
(dp1029
g74
(dp1030
g101
g102
ssg83
g1019
sg76
(lp1031
S':'
asbag69
(g90
g71
NtRp1032
(dp1033
g74
(dp1034
sg83
g1019
sg76
(lp1035
g69
(g70
g71
NtRp1036
(dp1037
g74
(dp1038
g82
I4
ssg83
g1032
sg76
(lp1039
S'text/html,application/xhtml+xml,application/xml;q=0.9,*/*;q=0.8'
p1040
asbasbasbag69
(g85
g71
NtRp1041
(dp1042
g74
(dp1043
sg83
g859
sg76
(lp1044
g69
(g90
g71
NtRp1045
(dp1046
g74
(dp1047
g94
g95
ssg83
g1041
sg76
(lp1048
S'http_accept_charset'
p1049
asbag69
(g90
g71
NtRp1050
(dp1051
g74
(dp1052
g101
g102
ssg83
g1041
sg76
(lp1053
S':'
asbag69
(g90
g71
NtRp1054
(dp1055
g74
(dp1056
sg83
g1041
sg76
(lp1057
g69
(g70
g71
NtRp1058
(dp1059
g74
(dp1060
g82
I4
ssg83
g1054
sg76
(lp1061
S'ISO-8859-1,utf-8;q=0.7,*;q=0.3'
p1062
asbasbasbag69
(g85
g71
NtRp1063
(dp1064
g74
(dp1065
sg83
g859
sg76
(lp1066
g69
(g90
g71
NtRp1067
(dp1068
g74
(dp1069
g94
g95
ssg83
g1063
sg76
(lp1070
S'http_accept_encoding'
p1071
asbag69
(g90
g71
NtRp1072
(dp1073
g74
(dp1074
g101
g102
ssg83
g1063
sg76
(lp1075
S':'
asbag69
(g90
g71
NtRp1076
(dp1077
g74
(dp1078
sg83
g1063
sg76
(lp1079
g69
(g70
g71
NtRp1080
(dp1081
g74
(dp1082
g82
I4
ssg83
g1076
sg76
(lp1083
S'gzip,deflate,sdch'
p1084
asbasbasbag69
(g85
g71
NtRp1085
(dp1086
g74
(dp1087
sg83
g859
sg76
(lp1088
g69
(g90
g71
NtRp1089
(dp1090
g74
(dp1091
g94
g95
ssg83
g1085
sg76
(lp1092
S'http_accept_language'
p1093
asbag69
(g90
g71
NtRp1094
(dp1095
g74
(dp1096
g101
g102
ssg83
g1085
sg76
(lp1097
S':'
asbag69
(g90
g71
NtRp1098
(dp1099
g74
(dp1100
sg83
g1085
sg76
(lp1101
g69
(g70
g71
NtRp1102
(dp1103
g74
(dp1104
g82
I4
ssg83
g1098
sg76
(lp1105
S'es-ES,es;q=0.8'
p1106
asbasbasbag69
(g85
g71
NtRp1107
(dp1108
g74
(dp1109
sg83
g859
sg76
(lp1110
g69
(g90
g71
NtRp1111
(dp1112
g74
(dp1113
g94
g95
ssg83
g1107
sg76
(lp1114
S'http_connection'
p1115
asbag69
(g90
g71
NtRp1116
(dp1117
g74
(dp1118
g101
g102
ssg83
g1107
sg76
(lp1119
S':'
asbag69
(g90
g71
NtRp1120
(dp1121
g74
(dp1122
sg83
g1107
sg76
(lp1123
g69
(g70
g71
NtRp1124
(dp1125
g74
(dp1126
g82
I4
ssg83
g1120
sg76
(lp1127
S'keep-alive'
p1128
asbasbasbag69
(g85
g71
NtRp1129
(dp1130
g74
(dp1131
sg83
g859
sg76
(lp1132
g69
(g90
g71
NtRp1133
(dp1134
g74
(dp1135
g94
g95
ssg83
g1129
sg76
(lp1136
S'http_cookie'
p1137
asbag69
(g90
g71
NtRp1138
(dp1139
g74
(dp1140
g101
g102
ssg83
g1129
sg76
(lp1141
S':'
asbag69
(g90
g71
NtRp1142
(dp1143
g74
(dp1144
sg83
g1129
sg76
(lp1145
g69
(g70
g71
NtRp1146
(dp1147
g74
(dp1148
g82
I4
ssg83
g1142
sg76
(lp1149
S'session_id_welcome=127.0.0.1-a3bfaf0d-f47a-45b4-bd8a-eeb4ec2fa744; session_id_admin=127.0.0.1-a5493054-f74f-4925-8c9e-0c612102c628; session_id_rosan=127.0.0.1-883cce21-7f68-4212-9cb5-c194bf38a2ff'
p1150
asbasbasbag69
(g85
g71
NtRp1151
(dp1152
g74
(dp1153
sg83
g859
sg76
(lp1154
g69
(g90
g71
NtRp1155
(dp1156
g74
(dp1157
g94
g95
ssg83
g1151
sg76
(lp1158
S'http_host'
p1159
asbag69
(g90
g71
NtRp1160
(dp1161
g74
(dp1162
g101
g102
ssg83
g1151
sg76
(lp1163
S':'
asbag69
(g90
g71
NtRp1164
(dp1165
g74
(dp1166
sg83
g1151
sg76
(lp1167
g69
(g70
g71
NtRp1168
(dp1169
g74
(dp1170
g82
I4
ssg83
g1164
sg76
(lp1171
S'127.0.0.1:8000'
p1172
asbasbasbag69
(g85
g71
NtRp1173
(dp1174
g74
(dp1175
sg83
g859
sg76
(lp1176
g69
(g90
g71
NtRp1177
(dp1178
g74
(dp1179
g94
g95
ssg83
g1173
sg76
(lp1180
S'http_referer'
p1181
asbag69
(g90
g71
NtRp1182
(dp1183
g74
(dp1184
g101
g102
ssg83
g1173
sg76
(lp1185
S':'
asbag69
(g90
g71
NtRp1186
(dp1187
g74
(dp1188
sg83
g1173
sg76
(lp1189
g69
(g70
g71
NtRp1190
(dp1191
g74
(dp1192
g82
I4
ssg83
g1186
sg76
(lp1193
S'http://127.0.0.1:8000/rosan/facturas/nuevaFactura'
p1194
asbasbasbag69
(g85
g71
NtRp1195
(dp1196
g74
(dp1197
sg83
g859
sg76
(lp1198
g69
(g90
g71
NtRp1199
(dp1200
g74
(dp1201
g94
g95
ssg83
g1195
sg76
(lp1202
S'http_user_agent'
p1203
asbag69
(g90
g71
NtRp1204
(dp1205
g74
(dp1206
g101
g102
ssg83
g1195
sg76
(lp1207
S':'
asbag69
(g90
g71
NtRp1208
(dp1209
g74
(dp1210
sg83
g1195
sg76
(lp1211
g69
(g70
g71
NtRp1212
(dp1213
g74
(dp1214
g82
I4
ssg83
g1208
sg76
(lp1215
S'Mozilla/5.0 (Macintosh; Intel Mac OS X 10_8_2) AppleWebKit/537.17 (KHTML, like Gecko) Chrome/24.0.1312.57 Safari/537.17'
p1216
asbasbasbag69
(g85
g71
NtRp1217
(dp1218
g74
(dp1219
sg83
g859
sg76
(lp1220
g69
(g90
g71
NtRp1221
(dp1222
g74
(dp1223
g94
g95
ssg83
g1217
sg76
(lp1224
S'is_jython'
p1225
asbag69
(g90
g71
NtRp1226
(dp1227
g74
(dp1228
g101
g102
ssg83
g1217
sg76
(lp1229
S':'
asbag69
(g90
g71
NtRp1230
(dp1231
g74
(dp1232
sg83
g1217
sg76
(lp1233
g69
(g70
g71
NtRp1234
(dp1235
g74
(dp1236
g82
I4
ssg83
g1230
sg76
(lp1237
g112
asbasbasbag69
(g85
g71
NtRp1238
(dp1239
g74
(dp1240
sg83
g859
sg76
(lp1241
g69
(g90
g71
NtRp1242
(dp1243
g74
(dp1244
g94
g95
ssg83
g1238
sg76
(lp1245
S'is_pypy'
p1246
asbag69
(g90
g71
NtRp1247
(dp1248
g74
(dp1249
g101
g102
ssg83
g1238
sg76
(lp1250
S':'
asbag69
(g90
g71
NtRp1251
(dp1252
g74
(dp1253
sg83
g1238
sg76
(lp1254
g69
(g70
g71
NtRp1255
(dp1256
g74
(dp1257
g82
I4
ssg83
g1251
sg76
(lp1258
g112
asbasbasbag69
(g85
g71
NtRp1259
(dp1260
g74
(dp1261
sg83
g859
sg76
(lp1262
g69
(g90
g71
NtRp1263
(dp1264
g74
(dp1265
g94
g95
ssg83
g1259
sg76
(lp1266
S'local_hosts'
p1267
asbag69
(g90
g71
NtRp1268
(dp1269
g74
(dp1270
g101
g102
ssg83
g1259
sg76
(lp1271
S':'
asbag69
(g90
g71
NtRp1272
(dp1273
g74
(dp1274
sg83
g1259
sg76
(lp1275
g69
(g70
g71
NtRp1276
(dp1277
g74
(dp1278
g82
I4
ssg83
g1272
sg76
(lp1279
g69
(g78
g71
NtRp1280
(dp1281
g74
(dp1282
g82
I3
ssg83
Nsg76
(lp1283
g69
(g85
g71
NtRp1284
(dp1285
g74
(dp1286
sg83
g1280
sg76
(lp1287
g69
(g90
g71
NtRp1288
(dp1289
g74
(dp1290
sg83
g1284
sg76
(lp1291
g69
(g70
g71
NtRp1292
(dp1293
g74
(dp1294
g82
I3
ssg83
g1288
sg76
(lp1295
S'fe80::8e2d:aaff:fe4a:3d35%en1'
p1296
asbasbasbag69
(g85
g71
NtRp1297
(dp1298
g74
(dp1299
sg83
g1280
sg76
(lp1300
g69
(g90
g71
NtRp1301
(dp1302
g74
(dp1303
sg83
g1297
sg76
(lp1304
g69
(g70
g71
NtRp1305
(dp1306
g74
(dp1307
g82
I3
ssg83
g1301
sg76
(lp1308
S'192.168.1.35'
p1309
asbasbasbag69
(g85
g71
NtRp1310
(dp1311
g74
(dp1312
sg83
g1280
sg76
(lp1313
g69
(g90
g71
NtRp1314
(dp1315
g74
(dp1316
sg83
g1310
sg76
(lp1317
g69
(g70
g71
NtRp1318
(dp1319
g74
(dp1320
g82
I3
ssg83
g1314
sg76
(lp1321
S'::ffff:127.0.0.1'
p1322
asbasbasbag69
(g85
g71
NtRp1323
(dp1324
g74
(dp1325
sg83
g1280
sg76
(lp1326
g69
(g90
g71
NtRp1327
(dp1328
g74
(dp1329
sg83
g1323
sg76
(lp1330
g69
(g70
g71
NtRp1331
(dp1332
g74
(dp1333
g82
I3
ssg83
g1327
sg76
(lp1334
S'::1'
p1335
asbasbasbag69
(g85
g71
NtRp1336
(dp1337
g74
(dp1338
sg83
g1280
sg76
(lp1339
g69
(g90
g71
NtRp1340
(dp1341
g74
(dp1342
sg83
g1336
sg76
(lp1343
g69
(g70
g71
NtRp1344
(dp1345
g74
(dp1346
g82
I3
ssg83
g1340
sg76
(lp1347
S'PeritoMascao.local'
p1348
asbasbasbag69
(g85
g71
NtRp1349
(dp1350
g74
(dp1351
sg83
g1280
sg76
(lp1352
g69
(g90
g71
NtRp1353
(dp1354
g74
(dp1355
sg83
g1349
sg76
(lp1356
g69
(g70
g71
NtRp1357
(dp1358
g74
(dp1359
g82
I3
ssg83
g1353
sg76
(lp1360
S'127.0.0.1'
p1361
asbasbasbasbasbasbasbag69
(g85
g71
NtRp1362
(dp1363
g74
(dp1364
sg83
g859
sg76
(lp1365
g69
(g90
g71
NtRp1366
(dp1367
g74
(dp1368
g94
g95
ssg83
g1362
sg76
(lp1369
S'path_info'
p1370
asbag69
(g90
g71
NtRp1371
(dp1372
g74
(dp1373
g101
g102
ssg83
g1362
sg76
(lp1374
S':'
asbag69
(g90
g71
NtRp1375
(dp1376
g74
(dp1377
sg83
g1362
sg76
(lp1378
g69
(g70
g71
NtRp1379
(dp1380
g74
(dp1381
g82
I4
ssg83
g1375
sg76
(lp1382
S'/rosan/facturas/detalleFactura'
p1383
asbasbasbag69
(g85
g71
NtRp1384
(dp1385
g74
(dp1386
sg83
g859
sg76
(lp1387
g69
(g90
g71
NtRp1388
(dp1389
g74
(dp1390
g94
g95
ssg83
g1384
sg76
(lp1391
S'query_string'
p1392
asbag69
(g90
g71
NtRp1393
(dp1394
g74
(dp1395
g101
g102
ssg83
g1384
sg76
(lp1396
S':'
asbag69
(g90
g71
NtRp1397
(dp1398
g74
(dp1399
sg83
g1384
sg76
(lp1400
g69
(g70
g71
NtRp1401
(dp1402
g74
(dp1403
g82
I4
ssg83
g1397
sg76
(lp1404
S''
asbasbasbag69
(g85
g71
NtRp1405
(dp1406
g74
(dp1407
sg83
g859
sg76
(lp1408
g69
(g90
g71
NtRp1409
(dp1410
g74
(dp1411
g94
g95
ssg83
g1405
sg76
(lp1412
S'remote_addr'
p1413
asbag69
(g90
g71
NtRp1414
(dp1415
g74
(dp1416
g101
g102
ssg83
g1405
sg76
(lp1417
S':'
asbag69
(g90
g71
NtRp1418
(dp1419
g74
(dp1420
sg83
g1405
sg76
(lp1421
g69
(g70
g71
NtRp1422
(dp1423
g74
(dp1424
g82
I4
ssg83
g1418
sg76
(lp1425
g224
asbasbasbag69
(g85
g71
NtRp1426
(dp1427
g74
(dp1428
sg83
g859
sg76
(lp1429
g69
(g90
g71
NtRp1430
(dp1431
g74
(dp1432
g94
g95
ssg83
g1426
sg76
(lp1433
S'remote_port'
p1434
asbag69
(g90
g71
NtRp1435
(dp1436
g74
(dp1437
g101
g102
ssg83
g1426
sg76
(lp1438
S':'
asbag69
(g90
g71
NtRp1439
(dp1440
g74
(dp1441
sg83
g1426
sg76
(lp1442
g69
(g70
g71
NtRp1443
(dp1444
g74
(dp1445
g82
I4
ssg83
g1439
sg76
(lp1446
S'50292'
p1447
asbasbasbag69
(g85
g71
NtRp1448
(dp1449
g74
(dp1450
sg83
g859
sg76
(lp1451
g69
(g90
g71
NtRp1452
(dp1453
g74
(dp1454
g94
g95
ssg83
g1448
sg76
(lp1455
S'request_method'
p1456
asbag69
(g90
g71
NtRp1457
(dp1458
g74
(dp1459
g101
g102
ssg83
g1448
sg76
(lp1460
S':'
asbag69
(g90
g71
NtRp1461
(dp1462
g74
(dp1463
sg83
g1448
sg76
(lp1464
g69
(g70
g71
NtRp1465
(dp1466
g74
(dp1467
g82
I4
ssg83
g1461
sg76
(lp1468
S'GET'
p1469
asbasbasbag69
(g85
g71
NtRp1470
(dp1471
g74
(dp1472
sg83
g859
sg76
(lp1473
g69
(g90
g71
NtRp1474
(dp1475
g74
(dp1476
g94
g95
ssg83
g1470
sg76
(lp1477
S'request_uri'
p1478
asbag69
(g90
g71
NtRp1479
(dp1480
g74
(dp1481
g101
g102
ssg83
g1470
sg76
(lp1482
S':'
asbag69
(g90
g71
NtRp1483
(dp1484
g74
(dp1485
sg83
g1470
sg76
(lp1486
g69
(g70
g71
NtRp1487
(dp1488
g74
(dp1489
g82
I4
ssg83
g1483
sg76
(lp1490
g1383
asbasbasbag69
(g85
g71
NtRp1491
(dp1492
g74
(dp1493
sg83
g859
sg76
(lp1494
g69
(g90
g71
NtRp1495
(dp1496
g74
(dp1497
g94
g95
ssg83
g1491
sg76
(lp1498
S'script_name'
p1499
asbag69
(g90
g71
NtRp1500
(dp1501
g74
(dp1502
g101
g102
ssg83
g1491
sg76
(lp1503
S':'
asbag69
(g90
g71
NtRp1504
(dp1505
g74
(dp1506
sg83
g1491
sg76
(lp1507
g69
(g70
g71
NtRp1508
(dp1509
g74
(dp1510
g82
I4
ssg83
g1504
sg76
(lp1511
S''
asbasbasbag69
(g85
g71
NtRp1512
(dp1513
g74
(dp1514
sg83
g859
sg76
(lp1515
g69
(g90
g71
NtRp1516
(dp1517
g74
(dp1518
g94
g95
ssg83
g1512
sg76
(lp1519
S'server_name'
p1520
asbag69
(g90
g71
NtRp1521
(dp1522
g74
(dp1523
g101
g102
ssg83
g1512
sg76
(lp1524
S':'
asbag69
(g90
g71
NtRp1525
(dp1526
g74
(dp1527
sg83
g1512
sg76
(lp1528
g69
(g70
g71
NtRp1529
(dp1530
g74
(dp1531
g82
I4
ssg83
g1525
sg76
(lp1532
S'PeritoMascao.local'
p1533
asbasbasbag69
(g85
g71
NtRp1534
(dp1535
g74
(dp1536
sg83
g859
sg76
(lp1537
g69
(g90
g71
NtRp1538
(dp1539
g74
(dp1540
g94
g95
ssg83
g1534
sg76
(lp1541
S'server_port'
p1542
asbag69
(g90
g71
NtRp1543
(dp1544
g74
(dp1545
g101
g102
ssg83
g1534
sg76
(lp1546
S':'
asbag69
(g90
g71
NtRp1547
(dp1548
g74
(dp1549
sg83
g1534
sg76
(lp1550
g69
(g70
g71
NtRp1551
(dp1552
g74
(dp1553
g82
I4
ssg83
g1547
sg76
(lp1554
S'8000'
p1555
asbasbasbag69
(g85
g71
NtRp1556
(dp1557
g74
(dp1558
sg83
g859
sg76
(lp1559
g69
(g90
g71
NtRp1560
(dp1561
g74
(dp1562
g94
g95
ssg83
g1556
sg76
(lp1563
S'server_protocol'
p1564
asbag69
(g90
g71
NtRp1565
(dp1566
g74
(dp1567
g101
g102
ssg83
g1556
sg76
(lp1568
S':'
asbag69
(g90
g71
NtRp1569
(dp1570
g74
(dp1571
sg83
g1556
sg76
(lp1572
g69
(g70
g71
NtRp1573
(dp1574
g74
(dp1575
g82
I4
ssg83
g1569
sg76
(lp1576
S'HTTP/1.1'
p1577
asbasbasbag69
(g85
g71
NtRp1578
(dp1579
g74
(dp1580
sg83
g859
sg76
(lp1581
g69
(g90
g71
NtRp1582
(dp1583
g74
(dp1584
g94
g95
ssg83
g1578
sg76
(lp1585
S'server_software'
p1586
asbag69
(g90
g71
NtRp1587
(dp1588
g74
(dp1589
g101
g102
ssg83
g1578
sg76
(lp1590
S':'
asbag69
(g90
g71
NtRp1591
(dp1592
g74
(dp1593
sg83
g1578
sg76
(lp1594
g69
(g70
g71
NtRp1595
(dp1596
g74
(dp1597
g82
I4
ssg83
g1591
sg76
(lp1598
S'Rocket 1.2.6'
p1599
asbasbasbag69
(g85
g71
NtRp1600
(dp1601
g74
(dp1602
sg83
g859
sg76
(lp1603
g69
(g90
g71
NtRp1604
(dp1605
g74
(dp1606
g94
g95
ssg83
g1600
sg76
(lp1607
S'web2py_path'
p1608
asbag69
(g90
g71
NtRp1609
(dp1610
g74
(dp1611
g101
g102
ssg83
g1600
sg76
(lp1612
S':'
asbag69
(g90
g71
NtRp1613
(dp1614
g74
(dp1615
sg83
g1600
sg76
(lp1616
g69
(g70
g71
NtRp1617
(dp1618
g74
(dp1619
g82
I4
ssg83
g1613
sg76
(lp1620
g906
asbasbasbag69
(g85
g71
NtRp1621
(dp1622
g74
(dp1623
sg83
g859
sg76
(lp1624
g69
(g90
g71
NtRp1625
(dp1626
g74
(dp1627
g94
g95
ssg83
g1621
sg76
(lp1628
S'web2py_version'
p1629
asbag69
(g90
g71
NtRp1630
(dp1631
g74
(dp1632
g101
g102
ssg83
g1621
sg76
(lp1633
S':'
asbag69
(g90
g71
NtRp1634
(dp1635
g74
(dp1636
sg83
g1621
sg76
(lp1637
g69
(g70
g71
NtRp1638
(dp1639
g74
(dp1640
g82
I4
ssg83
g1634
sg76
(lp1641
g69
(g78
g71
NtRp1642
(dp1643
g74
(dp1644
g82
I3
ssg83
Nsg76
(lp1645
g69
(g85
g71
NtRp1646
(dp1647
g74
(dp1648
sg83
g1642
sg76
(lp1649
g69
(g90
g71
NtRp1650
(dp1651
g74
(dp1652
sg83
g1646
sg76
(lp1653
g69
(g70
g71
NtRp1654
(dp1655
g74
(dp1656
g82
I3
ssg83
g1650
sg76
(lp1657
S'2'
asbasbasbag69
(g85
g71
NtRp1658
(dp1659
g74
(dp1660
sg83
g1642
sg76
(lp1661
g69
(g90
g71
NtRp1662
(dp1663
g74
(dp1664
sg83
g1658
sg76
(lp1665
g69
(g70
g71
NtRp1666
(dp1667
g74
(dp1668
g82
I3
ssg83
g1662
sg76
(lp1669
S'3'
asbasbasbag69
(g85
g71
NtRp1670
(dp1671
g74
(dp1672
sg83
g1642
sg76
(lp1673
g69
(g90
g71
NtRp1674
(dp1675
g74
(dp1676
sg83
g1670
sg76
(lp1677
g69
(g70
g71
NtRp1678
(dp1679
g74
(dp1680
g82
I3
ssg83
g1674
sg76
(lp1681
S'2'
asbasbasbag69
(g85
g71
NtRp1682
(dp1683
g74
(dp1684
sg83
g1642
sg76
(lp1685
g69
(g90
g71
NtRp1686
(dp1687
g74
(dp1688
sg83
g1682
sg76
(lp1689
g69
(g70
g71
NtRp1690
(dp1691
g74
(dp1692
g82
I3
ssg83
g1686
sg76
(lp1693
S'datetime.datetime(2012, 12, 17, 15, 3, 30)'
p1694
asbasbasbag69
(g85
g71
NtRp1695
(dp1696
g74
(dp1697
sg83
g1642
sg76
(lp1698
g69
(g90
g71
NtRp1699
(dp1700
g74
(dp1701
sg83
g1695
sg76
(lp1702
g69
(g70
g71
NtRp1703
(dp1704
g74
(dp1705
g82
I3
ssg83
g1699
sg76
(lp1706
S'stable'
p1707
asbasbasbasbasbasbasbag69
(g85
g71
NtRp1708
(dp1709
g74
(dp1710
sg83
g859
sg76
(lp1711
g69
(g90
g71
NtRp1712
(dp1713
g74
(dp1714
g94
g95
ssg83
g1708
sg76
(lp1715
S'wsgi_errors'
p1716
asbag69
(g90
g71
NtRp1717
(dp1718
g74
(dp1719
g101
g102
ssg83
g1708
sg76
(lp1720
S':'
asbag69
(g90
g71
NtRp1721
(dp1722
g74
(dp1723
sg83
g1708
sg76
(lp1724
g69
(g70
g71
NtRp1725
(dp1726
g74
(dp1727
g82
I4
ssg83
g1721
sg76
(lp1728
S"<open file '<stderr>', mode 'w' at 0x1032f1270>"
p1729
asbasbasbag69
(g85
g71
NtRp1730
(dp1731
g74
(dp1732
sg83
g859
sg76
(lp1733
g69
(g90
g71
NtRp1734
(dp1735
g74
(dp1736
g94
g95
ssg83
g1730
sg76
(lp1737
S'wsgi_file_wrapper'
p1738
asbag69
(g90
g71
NtRp1739
(dp1740
g74
(dp1741
g101
g102
ssg83
g1730
sg76
(lp1742
S':'
asbag69
(g90
g71
NtRp1743
(dp1744
g74
(dp1745
sg83
g1730
sg76
(lp1746
g69
(g70
g71
NtRp1747
(dp1748
g74
(dp1749
g82
I4
ssg83
g1743
sg76
(lp1750
S'<class wsgiref.util.FileWrapper at 0x103ef4e88>'
p1751
asbasbasbag69
(g85
g71
NtRp1752
(dp1753
g74
(dp1754
sg83
g859
sg76
(lp1755
g69
(g90
g71
NtRp1756
(dp1757
g74
(dp1758
g94
g95
ssg83
g1752
sg76
(lp1759
S'wsgi_input'
p1760
asbag69
(g90
g71
NtRp1761
(dp1762
g74
(dp1763
g101
g102
ssg83
g1752
sg76
(lp1764
S':'
asbag69
(g90
g71
NtRp1765
(dp1766
g74
(dp1767
sg83
g1752
sg76
(lp1768
g69
(g70
g71
NtRp1769
(dp1770
g74
(dp1771
g82
I4
ssg83
g1765
sg76
(lp1772
S'<socket._fileobject object at 0x108a71cd0>'
p1773
asbasbasbag69
(g85
g71
NtRp1774
(dp1775
g74
(dp1776
sg83
g859
sg76
(lp1777
g69
(g90
g71
NtRp1778
(dp1779
g74
(dp1780
g94
g95
ssg83
g1774
sg76
(lp1781
S'wsgi_multiprocess'
p1782
asbag69
(g90
g71
NtRp1783
(dp1784
g74
(dp1785
g101
g102
ssg83
g1774
sg76
(lp1786
S':'
asbag69
(g90
g71
NtRp1787
(dp1788
g74
(dp1789
sg83
g1774
sg76
(lp1790
g69
(g70
g71
NtRp1791
(dp1792
g74
(dp1793
g82
I4
ssg83
g1787
sg76
(lp1794
g112
asbasbasbag69
(g85
g71
NtRp1795
(dp1796
g74
(dp1797
sg83
g859
sg76
(lp1798
g69
(g90
g71
NtRp1799
(dp1800
g74
(dp1801
g94
g95
ssg83
g1795
sg76
(lp1802
S'wsgi_multithread'
p1803
asbag69
(g90
g71
NtRp1804
(dp1805
g74
(dp1806
g101
g102
ssg83
g1795
sg76
(lp1807
S':'
asbag69
(g90
g71
NtRp1808
(dp1809
g74
(dp1810
sg83
g1795
sg76
(lp1811
g69
(g70
g71
NtRp1812
(dp1813
g74
(dp1814
g82
I4
ssg83
g1808
sg76
(lp1815
S'True'
p1816
asbasbasbag69
(g85
g71
NtRp1817
(dp1818
g74
(dp1819
sg83
g859
sg76
(lp1820
g69
(g90
g71
NtRp1821
(dp1822
g74
(dp1823
g94
g95
ssg83
g1817
sg76
(lp1824
S'wsgi_run_once'
p1825
asbag69
(g90
g71
NtRp1826
(dp1827
g74
(dp1828
g101
g102
ssg83
g1817
sg76
(lp1829
S':'
asbag69
(g90
g71
NtRp1830
(dp1831
g74
(dp1832
sg83
g1817
sg76
(lp1833
g69
(g70
g71
NtRp1834
(dp1835
g74
(dp1836
g82
I4
ssg83
g1830
sg76
(lp1837
g112
asbasbasbag69
(g85
g71
NtRp1838
(dp1839
g74
(dp1840
sg83
g859
sg76
(lp1841
g69
(g90
g71
NtRp1842
(dp1843
g74
(dp1844
g94
g95
ssg83
g1838
sg76
(lp1845
S'wsgi_url_scheme'
p1846
asbag69
(g90
g71
NtRp1847
(dp1848
g74
(dp1849
g101
g102
ssg83
g1838
sg76
(lp1850
S':'
asbag69
(g90
g71
NtRp1851
(dp1852
g74
(dp1853
sg83
g1838
sg76
(lp1854
g69
(g70
g71
NtRp1855
(dp1856
g74
(dp1857
g82
I4
ssg83
g1851
sg76
(lp1858
S'http'
p1859
asbasbasbag69
(g85
g71
NtRp1860
(dp1861
g74
(dp1862
sg83
g859
sg76
(lp1863
g69
(g90
g71
NtRp1864
(dp1865
g74
(dp1866
g94
g95
ssg83
g1860
sg76
(lp1867
S'wsgi_version'
p1868
asbag69
(g90
g71
NtRp1869
(dp1870
g74
(dp1871
g101
g102
ssg83
g1860
sg76
(lp1872
S':'
asbag69
(g90
g71
NtRp1873
(dp1874
g74
(dp1875
sg83
g1860
sg76
(lp1876
g69
(g70
g71
NtRp1877
(dp1878
g74
(dp1879
g82
I4
ssg83
g1873
sg76
(lp1880
g69
(g78
g71
NtRp1881
(dp1882
g74
(dp1883
g82
I3
ssg83
Nsg76
(lp1884
g69
(g85
g71
NtRp1885
(dp1886
g74
(dp1887
sg83
g1881
sg76
(lp1888
g69
(g90
g71
NtRp1889
(dp1890
g74
(dp1891
sg83
g1885
sg76
(lp1892
g69
(g70
g71
NtRp1893
(dp1894
g74
(dp1895
g82
I3
ssg83
g1889
sg76
(lp1896
S'1'
asbasbasbag69
(g85
g71
NtRp1897
(dp1898
g74
(dp1899
sg83
g1881
sg76
(lp1900
g69
(g90
g71
NtRp1901
(dp1902
g74
(dp1903
sg83
g1897
sg76
(lp1904
g69
(g70
g71
NtRp1905
(dp1906
g74
(dp1907
g82
I3
ssg83
g1901
sg76
(lp1908
S'0'
asbasbasbasbasbasbasbasbasbasbasbag69
(g85
g71
NtRp1909
(dp1910
g74
(dp1911
sg83
g79
sg76
(lp1912
g69
(g90
g71
NtRp1913
(dp1914
g74
(dp1915
g94
g95
ssg83
g1909
sg76
(lp1916
S'extension'
p1917
asbag69
(g90
g71
NtRp1918
(dp1919
g74
(dp1920
g101
g102
ssg83
g1909
sg76
(lp1921
S':'
asbag69
(g90
g71
NtRp1922
(dp1923
g74
(dp1924
sg83
g1909
sg76
(lp1925
g69
(g70
g71
NtRp1926
(dp1927
g74
(dp1928
g82
I5
ssg83
g1922
sg76
(lp1929
S'html'
p1930
asbasbasbag69
(g85
g71
NtRp1931
(dp1932
g74
(dp1933
sg83
g79
sg76
(lp1934
g69
(g90
g71
NtRp1935
(dp1936
g74
(dp1937
g94
g95
ssg83
g1931
sg76
(lp1938
S'folder'
p1939
asbag69
(g90
g71
NtRp1940
(dp1941
g74
(dp1942
g101
g102
ssg83
g1931
sg76
(lp1943
S':'
asbag69
(g90
g71
NtRp1944
(dp1945
g74
(dp1946
sg83
g1931
sg76
(lp1947
g69
(g70
g71
NtRp1948
(dp1949
g74
(dp1950
g82
I5
ssg83
g1944
sg76
(lp1951
S'/Users/Truki/Desarrollo/web2py/applications/rosan/'
p1952
asbasbasbag69
(g85
g71
NtRp1953
(dp1954
g74
(dp1955
sg83
g79
sg76
(lp1956
g69
(g90
g71
NtRp1957
(dp1958
g74
(dp1959
g94
g95
ssg83
g1953
sg76
(lp1960
S'function'
p1961
asbag69
(g90
g71
NtRp1962
(dp1963
g74
(dp1964
g101
g102
ssg83
g1953
sg76
(lp1965
S':'
asbag69
(g90
g71
NtRp1966
(dp1967
g74
(dp1968
sg83
g1953
sg76
(lp1969
g69
(g70
g71
NtRp1970
(dp1971
g74
(dp1972
g82
I5
ssg83
g1966
sg76
(lp1973
S'detalleFactura'
p1974
asbasbasbag69
(g85
g71
NtRp1975
(dp1976
g74
(dp1977
sg83
g79
sg76
(lp1978
g69
(g90
g71
NtRp1979
(dp1980
g74
(dp1981
g94
g95
ssg83
g1975
sg76
(lp1982
S'get_vars'
p1983
asbag69
(g90
g71
NtRp1984
(dp1985
g74
(dp1986
g101
g102
ssg83
g1975
sg76
(lp1987
S':'
asbag69
(g90
g71
NtRp1988
(dp1989
g74
(dp1990
sg83
g1975
sg76
(lp1991
g69
(g70
g71
NtRp1992
(dp1993
g74
(dp1994
g82
I5
ssg83
g1988
sg76
(lp1995
g69
(g78
g71
NtRp1996
(dp1997
g74
(dp1998
g82
I4
ssg83
Nsg76
(lp1999
sbasbasbasbag69
(g85
g71
NtRp2000
(dp2001
g74
(dp2002
sg83
g79
sg76
(lp2003
g69
(g90
g71
NtRp2004
(dp2005
g74
(dp2006
g94
g95
ssg83
g2000
sg76
(lp2007
S'global_settings'
p2008
asbag69
(g90
g71
NtRp2009
(dp2010
g74
(dp2011
g101
g102
ssg83
g2000
sg76
(lp2012
S':'
asbag69
(g90
g71
NtRp2013
(dp2014
g74
(dp2015
sg83
g2000
sg76
(lp2016
g69
(g70
g71
NtRp2017
(dp2018
g74
(dp2019
g82
I5
ssg83
g2013
sg76
(lp2020
g69
(g78
g71
NtRp2021
(dp2022
g74
(dp2023
g82
I4
ssg83
Nsg76
(lp2024
g69
(g85
g71
NtRp2025
(dp2026
g74
(dp2027
sg83
g2021
sg76
(lp2028
g69
(g90
g71
NtRp2029
(dp2030
g74
(dp2031
g94
g95
ssg83
g2025
sg76
(lp2032
g871
asbag69
(g90
g71
NtRp2033
(dp2034
g74
(dp2035
g101
g102
ssg83
g2025
sg76
(lp2036
S':'
asbag69
(g90
g71
NtRp2037
(dp2038
g74
(dp2039
sg83
g2025
sg76
(lp2040
g69
(g70
g71
NtRp2041
(dp2042
g74
(dp2043
g82
I4
ssg83
g2037
sg76
(lp2044
S"set(['/Users/Truki/Desarrollo/web2py/applications/welcome/', '/Users/Truki/Desarrollo/web2py/applications/rosan/', '/Users/Truki/Desarrollo/web2py/applications/admin/'])"
p2045
asbasbasbag69
(g85
g71
NtRp2046
(dp2047
g74
(dp2048
sg83
g2021
sg76
(lp2049
g69
(g90
g71
NtRp2050
(dp2051
g74
(dp2052
g94
g95
ssg83
g2046
sg76
(lp2053
g893
asbag69
(g90
g71
NtRp2054
(dp2055
g74
(dp2056
g101
g102
ssg83
g2046
sg76
(lp2057
S':'
asbag69
(g90
g71
NtRp2058
(dp2059
g74
(dp2060
sg83
g2046
sg76
(lp2061
g69
(g70
g71
NtRp2062
(dp2063
g74
(dp2064
g82
I4
ssg83
g2058
sg76
(lp2065
g906
asbasbasbag69
(g85
g71
NtRp2066
(dp2067
g74
(dp2068
sg83
g2021
sg76
(lp2069
g69
(g90
g71
NtRp2070
(dp2071
g74
(dp2072
g94
g95
ssg83
g2066
sg76
(lp2073
g915
asbag69
(g90
g71
NtRp2074
(dp2075
g74
(dp2076
g101
g102
ssg83
g2066
sg76
(lp2077
S':'
asbag69
(g90
g71
NtRp2078
(dp2079
g74
(dp2080
sg83
g2066
sg76
(lp2081
g69
(g70
g71
NtRp2082
(dp2083
g74
(dp2084
g82
I4
ssg83
g2078
sg76
(lp2085
g69
(g78
g71
NtRp2086
(dp2087
g74
(dp2088
g82
I3
ssg83
Nsg76
(lp2089
sbasbasbasbag69
(g85
g71
NtRp2090
(dp2091
g74
(dp2092
sg83
g2021
sg76
(lp2093
g69
(g90
g71
NtRp2094
(dp2095
g74
(dp2096
g94
g95
ssg83
g2090
sg76
(lp2097
g940
asbag69
(g90
g71
NtRp2098
(dp2099
g74
(dp2100
g101
g102
ssg83
g2090
sg76
(lp2101
S':'
asbag69
(g90
g71
NtRp2102
(dp2103
g74
(dp2104
sg83
g2090
sg76
(lp2105
g69
(g70
g71
NtRp2106
(dp2107
g74
(dp2108
g82
I4
ssg83
g2102
sg76
(lp2109
S"<Values at 0x104191128: {'verbose': False, 'ip': '127.0.0.1', 'with_scheduler': False, 'ips': ['fe80::8e2d:aaff:fe4a:3d35%en1', '192.168.1.35'], 'shutdown_timeout': 5, 'taskbar': False, 'port': 8000, 'maxthreads': None, 'softcron': False, 'server_name': 'PeritoMascao.local', 'bpython': False, 'nogui': False, 'pid_filename': 'httpserver.pid', 'extcron': False, 'runcron': False, 'run_system_tests': False, 'test': None, 'folder': '/Users/Truki/Desarrollo/web2py', 'config': '', 'minthreads': None, 'winservice': '', 'shell': None, 'run': '', 'log_filename': 'httpserver.log', 'debuglevel': 30, 'args': [''], 'socket_timeout': 5, 'ssl_ca_certificate': None, 'scheduler': None, 'profiler_filename': None, 'ssl_private_key': '', 'scheduler_groups': None, 'password': '<ask>', 'request_queue_size': 5, 'ssl_certificate': '', 'cronjob': False, 'numthreads': None, 'quiet': False, 'interfaces': None, 'import_models': False, 'timeout': 10, 'plain': False, 'nobanner': False}>"
p2110
asbasbasbag69
(g85
g71
NtRp2111
(dp2112
g74
(dp2113
sg83
g2021
sg76
(lp2114
g69
(g90
g71
NtRp2115
(dp2116
g74
(dp2117
g94
g95
ssg83
g2111
sg76
(lp2118
g962
asbag69
(g90
g71
NtRp2119
(dp2120
g74
(dp2121
g101
g102
ssg83
g2111
sg76
(lp2122
S':'
asbag69
(g90
g71
NtRp2123
(dp2124
g74
(dp2125
sg83
g2111
sg76
(lp2126
g69
(g70
g71
NtRp2127
(dp2128
g74
(dp2129
g82
I4
ssg83
g2123
sg76
(lp2130
S'set([])'
p2131
asbasbasbag69
(g85
g71
NtRp2132
(dp2133
g74
(dp2134
sg83
g2021
sg76
(lp2135
g69
(g90
g71
NtRp2136
(dp2137
g74
(dp2138
g94
g95
ssg83
g2132
sg76
(lp2139
g984
asbag69
(g90
g71
NtRp2140
(dp2141
g74
(dp2142
g101
g102
ssg83
g2132
sg76
(lp2143
S':'
asbag69
(g90
g71
NtRp2144
(dp2145
g74
(dp2146
sg83
g2132
sg76
(lp2147
g69
(g70
g71
NtRp2148
(dp2149
g74
(dp2150
g82
I4
ssg83
g2144
sg76
(lp2151
g112
asbasbasbag69
(g85
g71
NtRp2152
(dp2153
g74
(dp2154
sg83
g2021
sg76
(lp2155
g69
(g90
g71
NtRp2156
(dp2157
g74
(dp2158
g94
g95
ssg83
g2152
sg76
(lp2159
g1005
asbag69
(g90
g71
NtRp2160
(dp2161
g74
(dp2162
g101
g102
ssg83
g2152
sg76
(lp2163
S':'
asbag69
(g90
g71
NtRp2164
(dp2165
g74
(dp2166
sg83
g2152
sg76
(lp2167
g69
(g70
g71
NtRp2168
(dp2169
g74
(dp2170
g82
I4
ssg83
g2164
sg76
(lp2171
g1018
asbasbasbag69
(g85
g71
NtRp2172
(dp2173
g74
(dp2174
sg83
g2021
sg76
(lp2175
g69
(g90
g71
NtRp2176
(dp2177
g74
(dp2178
g94
g95
ssg83
g2172
sg76
(lp2179
g1225
asbag69
(g90
g71
NtRp2180
(dp2181
g74
(dp2182
g101
g102
ssg83
g2172
sg76
(lp2183
S':'
asbag69
(g90
g71
NtRp2184
(dp2185
g74
(dp2186
sg83
g2172
sg76
(lp2187
g69
(g70
g71
NtRp2188
(dp2189
g74
(dp2190
g82
I4
ssg83
g2184
sg76
(lp2191
g112
asbasbasbag69
(g85
g71
NtRp2192
(dp2193
g74
(dp2194
sg83
g2021
sg76
(lp2195
g69
(g90
g71
NtRp2196
(dp2197
g74
(dp2198
g94
g95
ssg83
g2192
sg76
(lp2199
g1246
asbag69
(g90
g71
NtRp2200
(dp2201
g74
(dp2202
g101
g102
ssg83
g2192
sg76
(lp2203
S':'
asbag69
(g90
g71
NtRp2204
(dp2205
g74
(dp2206
sg83
g2192
sg76
(lp2207
g69
(g70
g71
NtRp2208
(dp2209
g74
(dp2210
g82
I4
ssg83
g2204
sg76
(lp2211
g112
asbasbasbag69
(g85
g71
NtRp2212
(dp2213
g74
(dp2214
sg83
g2021
sg76
(lp2215
g69
(g90
g71
NtRp2216
(dp2217
g74
(dp2218
g94
g95
ssg83
g2212
sg76
(lp2219
g1267
asbag69
(g90
g71
NtRp2220
(dp2221
g74
(dp2222
g101
g102
ssg83
g2212
sg76
(lp2223
S':'
asbag69
(g90
g71
NtRp2224
(dp2225
g74
(dp2226
sg83
g2212
sg76
(lp2227
g69
(g70
g71
NtRp2228
(dp2229
g74
(dp2230
g82
I4
ssg83
g2224
sg76
(lp2231
g69
(g78
g71
NtRp2232
(dp2233
g74
(dp2234
g82
I3
ssg83
Nsg76
(lp2235
g69
(g85
g71
NtRp2236
(dp2237
g74
(dp2238
sg83
g2232
sg76
(lp2239
g69
(g90
g71
NtRp2240
(dp2241
g74
(dp2242
sg83
g2236
sg76
(lp2243
g69
(g70
g71
NtRp2244
(dp2245
g74
(dp2246
g82
I3
ssg83
g2240
sg76
(lp2247
g1296
asbasbasbag69
(g85
g71
NtRp2248
(dp2249
g74
(dp2250
sg83
g2232
sg76
(lp2251
g69
(g90
g71
NtRp2252
(dp2253
g74
(dp2254
sg83
g2248
sg76
(lp2255
g69
(g70
g71
NtRp2256
(dp2257
g74
(dp2258
g82
I3
ssg83
g2252
sg76
(lp2259
g1309
asbasbasbag69
(g85
g71
NtRp2260
(dp2261
g74
(dp2262
sg83
g2232
sg76
(lp2263
g69
(g90
g71
NtRp2264
(dp2265
g74
(dp2266
sg83
g2260
sg76
(lp2267
g69
(g70
g71
NtRp2268
(dp2269
g74
(dp2270
g82
I3
ssg83
g2264
sg76
(lp2271
g1322
asbasbasbag69
(g85
g71
NtRp2272
(dp2273
g74
(dp2274
sg83
g2232
sg76
(lp2275
g69
(g90
g71
NtRp2276
(dp2277
g74
(dp2278
sg83
g2272
sg76
(lp2279
g69
(g70
g71
NtRp2280
(dp2281
g74
(dp2282
g82
I3
ssg83
g2276
sg76
(lp2283
g1335
asbasbasbag69
(g85
g71
NtRp2284
(dp2285
g74
(dp2286
sg83
g2232
sg76
(lp2287
g69
(g90
g71
NtRp2288
(dp2289
g74
(dp2290
sg83
g2284
sg76
(lp2291
g69
(g70
g71
NtRp2292
(dp2293
g74
(dp2294
g82
I3
ssg83
g2288
sg76
(lp2295
g1348
asbasbasbag69
(g85
g71
NtRp2296
(dp2297
g74
(dp2298
sg83
g2232
sg76
(lp2299
g69
(g90
g71
NtRp2300
(dp2301
g74
(dp2302
sg83
g2296
sg76
(lp2303
g69
(g70
g71
NtRp2304
(dp2305
g74
(dp2306
g82
I3
ssg83
g2300
sg76
(lp2307
g1361
asbasbasbasbasbasbasbag69
(g85
g71
NtRp2308
(dp2309
g74
(dp2310
sg83
g2021
sg76
(lp2311
g69
(g90
g71
NtRp2312
(dp2313
g74
(dp2314
g94
g95
ssg83
g2308
sg76
(lp2315
g1629
asbag69
(g90
g71
NtRp2316
(dp2317
g74
(dp2318
g101
g102
ssg83
g2308
sg76
(lp2319
S':'
asbag69
(g90
g71
NtRp2320
(dp2321
g74
(dp2322
sg83
g2308
sg76
(lp2323
g69
(g70
g71
NtRp2324
(dp2325
g74
(dp2326
g82
I4
ssg83
g2320
sg76
(lp2327
g69
(g78
g71
NtRp2328
(dp2329
g74
(dp2330
g82
I3
ssg83
Nsg76
(lp2331
g69
(g85
g71
NtRp2332
(dp2333
g74
(dp2334
sg83
g2328
sg76
(lp2335
g69
(g90
g71
NtRp2336
(dp2337
g74
(dp2338
sg83
g2332
sg76
(lp2339
g69
(g70
g71
NtRp2340
(dp2341
g74
(dp2342
g82
I3
ssg83
g2336
sg76
(lp2343
S'2'
asbasbasbag69
(g85
g71
NtRp2344
(dp2345
g74
(dp2346
sg83
g2328
sg76
(lp2347
g69
(g90
g71
NtRp2348
(dp2349
g74
(dp2350
sg83
g2344
sg76
(lp2351
g69
(g70
g71
NtRp2352
(dp2353
g74
(dp2354
g82
I3
ssg83
g2348
sg76
(lp2355
S'3'
asbasbasbag69
(g85
g71
NtRp2356
(dp2357
g74
(dp2358
sg83
g2328
sg76
(lp2359
g69
(g90
g71
NtRp2360
(dp2361
g74
(dp2362
sg83
g2356
sg76
(lp2363
g69
(g70
g71
NtRp2364
(dp2365
g74
(dp2366
g82
I3
ssg83
g2360
sg76
(lp2367
S'2'
asbasbasbag69
(g85
g71
NtRp2368
(dp2369
g74
(dp2370
sg83
g2328
sg76
(lp2371
g69
(g90
g71
NtRp2372
(dp2373
g74
(dp2374
sg83
g2368
sg76
(lp2375
g69
(g70
g71
NtRp2376
(dp2377
g74
(dp2378
g82
I3
ssg83
g2372
sg76
(lp2379
S'datetime.datetime(2012, 12, 17, 15, 3, 30)'
p2380
asbasbasbag69
(g85
g71
NtRp2381
(dp2382
g74
(dp2383
sg83
g2328
sg76
(lp2384
g69
(g90
g71
NtRp2385
(dp2386
g74
(dp2387
sg83
g2381
sg76
(lp2388
g69
(g70
g71
NtRp2389
(dp2390
g74
(dp2391
g82
I3
ssg83
g2385
sg76
(lp2392
g1707
asbasbasbasbasbasbasbasbasbasbasbag69
(g85
g71
NtRp2393
(dp2394
g74
(dp2395
sg83
g79
sg76
(lp2396
g69
(g90
g71
NtRp2397
(dp2398
g74
(dp2399
g94
g95
ssg83
g2393
sg76
(lp2400
S'is_https'
p2401
asbag69
(g90
g71
NtRp2402
(dp2403
g74
(dp2404
g101
g102
ssg83
g2393
sg76
(lp2405
S':'
asbag69
(g90
g71
NtRp2406
(dp2407
g74
(dp2408
sg83
g2393
sg76
(lp2409
g69
(g70
g71
NtRp2410
(dp2411
g74
(dp2412
g82
I5
ssg83
g2406
sg76
(lp2413
g112
asbasbasbag69
(g85
g71
NtRp2414
(dp2415
g74
(dp2416
sg83
g79
sg76
(lp2417
g69
(g90
g71
NtRp2418
(dp2419
g74
(dp2420
g94
g95
ssg83
g2414
sg76
(lp2421
S'is_local'
p2422
asbag69
(g90
g71
NtRp2423
(dp2424
g74
(dp2425
g101
g102
ssg83
g2414
sg76
(lp2426
S':'
asbag69
(g90
g71
NtRp2427
(dp2428
g74
(dp2429
sg83
g2414
sg76
(lp2430
g69
(g70
g71
NtRp2431
(dp2432
g74
(dp2433
g82
I5
ssg83
g2427
sg76
(lp2434
g1816
asbasbasbag69
(g85
g71
NtRp2435
(dp2436
g74
(dp2437
sg83
g79
sg76
(lp2438
g69
(g90
g71
NtRp2439
(dp2440
g74
(dp2441
g94
g95
ssg83
g2435
sg76
(lp2442
S'is_restful'
p2443
asbag69
(g90
g71
NtRp2444
(dp2445
g74
(dp2446
g101
g102
ssg83
g2435
sg76
(lp2447
S':'
asbag69
(g90
g71
NtRp2448
(dp2449
g74
(dp2450
sg83
g2435
sg76
(lp2451
g69
(g70
g71
NtRp2452
(dp2453
g74
(dp2454
g82
I5
ssg83
g2448
sg76
(lp2455
g112
asbasbasbag69
(g85
g71
NtRp2456
(dp2457
g74
(dp2458
sg83
g79
sg76
(lp2459
g69
(g90
g71
NtRp2460
(dp2461
g74
(dp2462
g94
g95
ssg83
g2456
sg76
(lp2463
S'now'
p2464
asbag69
(g90
g71
NtRp2465
(dp2466
g74
(dp2467
g101
g102
ssg83
g2456
sg76
(lp2468
S':'
asbag69
(g90
g71
NtRp2469
(dp2470
g74
(dp2471
sg83
g2456
sg76
(lp2472
g69
(g70
g71
NtRp2473
(dp2474
g74
(dp2475
g82
I5
ssg83
g2469
sg76
(lp2476
S'datetime.datetime(2013, 2, 14, 17, 48, 17, 326133)'
p2477
asbasbasbag69
(g85
g71
NtRp2478
(dp2479
g74
(dp2480
sg83
g79
sg76
(lp2481
g69
(g90
g71
NtRp2482
(dp2483
g74
(dp2484
g94
g95
ssg83
g2478
sg76
(lp2485
S'post_vars'
p2486
asbag69
(g90
g71
NtRp2487
(dp2488
g74
(dp2489
g101
g102
ssg83
g2478
sg76
(lp2490
S':'
asbag69
(g90
g71
NtRp2491
(dp2492
g74
(dp2493
sg83
g2478
sg76
(lp2494
g69
(g70
g71
NtRp2495
(dp2496
g74
(dp2497
g82
I5
ssg83
g2491
sg76
(lp2498
g69
(g78
g71
NtRp2499
(dp2500
g74
(dp2501
g82
I4
ssg83
Nsg76
(lp2502
sbasbasbasbag69
(g85
g71
NtRp2503
(dp2504
g74
(dp2505
sg83
g79
sg76
(lp2506
g69
(g90
g71
NtRp2507
(dp2508
g74
(dp2509
g94
g95
ssg83
g2503
sg76
(lp2510
S'raw_args'
p2511
asbag69
(g90
g71
NtRp2512
(dp2513
g74
(dp2514
g101
g102
ssg83
g2503
sg76
(lp2515
S':'
asbag69
(g90
g71
NtRp2516
(dp2517
g74
(dp2518
sg83
g2503
sg76
(lp2519
g69
(g70
g71
NtRp2520
(dp2521
g74
(dp2522
g82
I5
ssg83
g2516
sg76
(lp2523
S''
asbasbasbag69
(g85
g71
NtRp2524
(dp2525
g74
(dp2526
sg83
g79
sg76
(lp2527
g69
(g90
g71
NtRp2528
(dp2529
g74
(dp2530
g94
g95
ssg83
g2524
sg76
(lp2531
S'raw_extension'
p2532
asbag69
(g90
g71
NtRp2533
(dp2534
g74
(dp2535
g101
g102
ssg83
g2524
sg76
(lp2536
S':'
asbag69
(g90
g71
NtRp2537
(dp2538
g74
(dp2539
sg83
g2524
sg76
(lp2540
g69
(g70
g71
NtRp2541
(dp2542
g74
(dp2543
g82
I5
ssg83
g2537
sg76
(lp2544
S'None'
p2545
asbasbasbag69
(g85
g71
NtRp2546
(dp2547
g74
(dp2548
sg83
g79
sg76
(lp2549
g69
(g90
g71
NtRp2550
(dp2551
g74
(dp2552
g94
g95
ssg83
g2546
sg76
(lp2553
S'url'
p2554
asbag69
(g90
g71
NtRp2555
(dp2556
g74
(dp2557
g101
g102
ssg83
g2546
sg76
(lp2558
S':'
asbag69
(g90
g71
NtRp2559
(dp2560
g74
(dp2561
sg83
g2546
sg76
(lp2562
g69
(g70
g71
NtRp2563
(dp2564
g74
(dp2565
g82
I5
ssg83
g2559
sg76
(lp2566
g1383
asbasbasbag69
(g85
g71
NtRp2567
(dp2568
g74
(dp2569
sg83
g79
sg76
(lp2570
g69
(g90
g71
NtRp2571
(dp2572
g74
(dp2573
g94
g95
ssg83
g2567
sg76
(lp2574
S'utcnow'
p2575
asbag69
(g90
g71
NtRp2576
(dp2577
g74
(dp2578
g101
g102
ssg83
g2567
sg76
(lp2579
S':'
asbag69
(g90
g71
NtRp2580
(dp2581
g74
(dp2582
sg83
g2567
sg76
(lp2583
g69
(g70
g71
NtRp2584
(dp2585
g74
(dp2586
g82
I5
ssg83
g2580
sg76
(lp2587
S'datetime.datetime(2013, 2, 14, 16, 48, 17, 326141)'
p2588
asbasbasbag69
(g85
g71
NtRp2589
(dp2590
g74
(dp2591
sg83
g79
sg76
(lp2592
g69
(g90
g71
NtRp2593
(dp2594
g74
(dp2595
g94
g95
ssg83
g2589
sg76
(lp2596
S'uuid'
p2597
asbag69
(g90
g71
NtRp2598
(dp2599
g74
(dp2600
g101
g102
ssg83
g2589
sg76
(lp2601
S':'
asbag69
(g90
g71
NtRp2602
(dp2603
g74
(dp2604
sg83
g2589
sg76
(lp2605
g69
(g70
g71
NtRp2606
(dp2607
g74
(dp2608
g82
I5
ssg83
g2602
sg76
(lp2609
S'rosan/127.0.0.1.2013-02-14.17-48-17.d659bd4c-9e9a-4f76-b709-897ef5da4ee6'
p2610
asbasbasbag69
(g85
g71
NtRp2611
(dp2612
g74
(dp2613
sg83
g79
sg76
(lp2614
g69
(g90
g71
NtRp2615
(dp2616
g74
(dp2617
g94
g95
ssg83
g2611
sg76
(lp2618
S'vars'
p2619
asbag69
(g90
g71
NtRp2620
(dp2621
g74
(dp2622
g101
g102
ssg83
g2611
sg76
(lp2623
S':'
asbag69
(g90
g71
NtRp2624
(dp2625
g74
(dp2626
sg83
g2611
sg76
(lp2627
g69
(g70
g71
NtRp2628
(dp2629
g74
(dp2630
g82
I5
ssg83
g2624
sg76
(lp2631
g69
(g78
g71
NtRp2632
(dp2633
g74
(dp2634
g82
I4
ssg83
Nsg76
(lp2635
sbasbasbasbag69
(g85
g71
NtRp2636
(dp2637
g74
(dp2638
sg83
g79
sg76
(lp2639
g69
(g90
g71
NtRp2640
(dp2641
g74
(dp2642
g94
g95
ssg83
g2636
sg76
(lp2643
S'wsgi'
p2644
asbag69
(g90
g71
NtRp2645
(dp2646
g74
(dp2647
g101
g102
ssg83
g2636
sg76
(lp2648
S':'
asbag69
(g90
g71
NtRp2649
(dp2650
g74
(dp2651
sg83
g2636
sg76
(lp2652
g69
(g70
g71
NtRp2653
(dp2654
g74
(dp2655
g82
I5
ssg83
g2649
sg76
(lp2656
g69
(g78
g71
NtRp2657
(dp2658
g74
(dp2659
g82
I4
ssg83
Nsg76
(lp2660
g69
(g85
g71
NtRp2661
(dp2662
g74
(dp2663
sg83
g2657
sg76
(lp2664
g69
(g90
g71
NtRp2665
(dp2666
g74
(dp2667
g94
g95
ssg83
g2661
sg76
(lp2668
S'environ'
p2669
asbag69
(g90
g71
NtRp2670
(dp2671
g74
(dp2672
g101
g102
ssg83
g2661
sg76
(lp2673
S':'
asbag69
(g90
g71
NtRp2674
(dp2675
g74
(dp2676
sg83
g2661
sg76
(lp2677
g69
(g70
g71
NtRp2678
(dp2679
g74
(dp2680
g82
I4
ssg83
g2674
sg76
(lp2681
g69
(g78
g71
NtRp2682
(dp2683
g74
(dp2684
g82
I3
ssg83
Nsg76
(lp2685
g69
(g85
g71
NtRp2686
(dp2687
g74
(dp2688
sg83
g2682
sg76
(lp2689
g69
(g90
g71
NtRp2690
(dp2691
g74
(dp2692
g94
g95
ssg83
g2686
sg76
(lp2693
S'HTTP_ACCEPT'
p2694
asbag69
(g90
g71
NtRp2695
(dp2696
g74
(dp2697
g101
g102
ssg83
g2686
sg76
(lp2698
S':'
asbag69
(g90
g71
NtRp2699
(dp2700
g74
(dp2701
sg83
g2686
sg76
(lp2702
g69
(g70
g71
NtRp2703
(dp2704
g74
(dp2705
g82
I3
ssg83
g2699
sg76
(lp2706
g1040
asbasbasbag69
(g85
g71
NtRp2707
(dp2708
g74
(dp2709
sg83
g2682
sg76
(lp2710
g69
(g90
g71
NtRp2711
(dp2712
g74
(dp2713
g94
g95
ssg83
g2707
sg76
(lp2714
S'HTTP_ACCEPT_CHARSET'
p2715
asbag69
(g90
g71
NtRp2716
(dp2717
g74
(dp2718
g101
g102
ssg83
g2707
sg76
(lp2719
S':'
asbag69
(g90
g71
NtRp2720
(dp2721
g74
(dp2722
sg83
g2707
sg76
(lp2723
g69
(g70
g71
NtRp2724
(dp2725
g74
(dp2726
g82
I3
ssg83
g2720
sg76
(lp2727
g1062
asbasbasbag69
(g85
g71
NtRp2728
(dp2729
g74
(dp2730
sg83
g2682
sg76
(lp2731
g69
(g90
g71
NtRp2732
(dp2733
g74
(dp2734
g94
g95
ssg83
g2728
sg76
(lp2735
S'HTTP_ACCEPT_ENCODING'
p2736
asbag69
(g90
g71
NtRp2737
(dp2738
g74
(dp2739
g101
g102
ssg83
g2728
sg76
(lp2740
S':'
asbag69
(g90
g71
NtRp2741
(dp2742
g74
(dp2743
sg83
g2728
sg76
(lp2744
g69
(g70
g71
NtRp2745
(dp2746
g74
(dp2747
g82
I3
ssg83
g2741
sg76
(lp2748
g1084
asbasbasbag69
(g85
g71
NtRp2749
(dp2750
g74
(dp2751
sg83
g2682
sg76
(lp2752
g69
(g90
g71
NtRp2753
(dp2754
g74
(dp2755
g94
g95
ssg83
g2749
sg76
(lp2756
S'HTTP_ACCEPT_LANGUAGE'
p2757
asbag69
(g90
g71
NtRp2758
(dp2759
g74
(dp2760
g101
g102
ssg83
g2749
sg76
(lp2761
S':'
asbag69
(g90
g71
NtRp2762
(dp2763
g74
(dp2764
sg83
g2749
sg76
(lp2765
g69
(g70
g71
NtRp2766
(dp2767
g74
(dp2768
g82
I3
ssg83
g2762
sg76
(lp2769
g1106
asbasbasbag69
(g85
g71
NtRp2770
(dp2771
g74
(dp2772
sg83
g2682
sg76
(lp2773
g69
(g90
g71
NtRp2774
(dp2775
g74
(dp2776
g94
g95
ssg83
g2770
sg76
(lp2777
S'HTTP_CONNECTION'
p2778
asbag69
(g90
g71
NtRp2779
(dp2780
g74
(dp2781
g101
g102
ssg83
g2770
sg76
(lp2782
S':'
asbag69
(g90
g71
NtRp2783
(dp2784
g74
(dp2785
sg83
g2770
sg76
(lp2786
g69
(g70
g71
NtRp2787
(dp2788
g74
(dp2789
g82
I3
ssg83
g2783
sg76
(lp2790
g1128
asbasbasbag69
(g85
g71
NtRp2791
(dp2792
g74
(dp2793
sg83
g2682
sg76
(lp2794
g69
(g90
g71
NtRp2795
(dp2796
g74
(dp2797
g94
g95
ssg83
g2791
sg76
(lp2798
S'HTTP_COOKIE'
p2799
asbag69
(g90
g71
NtRp2800
(dp2801
g74
(dp2802
g101
g102
ssg83
g2791
sg76
(lp2803
S':'
asbag69
(g90
g71
NtRp2804
(dp2805
g74
(dp2806
sg83
g2791
sg76
(lp2807
g69
(g70
g71
NtRp2808
(dp2809
g74
(dp2810
g82
I3
ssg83
g2804
sg76
(lp2811
g1150
asbasbasbag69
(g85
g71
NtRp2812
(dp2813
g74
(dp2814
sg83
g2682
sg76
(lp2815
g69
(g90
g71
NtRp2816
(dp2817
g74
(dp2818
g94
g95
ssg83
g2812
sg76
(lp2819
S'HTTP_HOST'
p2820
asbag69
(g90
g71
NtRp2821
(dp2822
g74
(dp2823
g101
g102
ssg83
g2812
sg76
(lp2824
S':'
asbag69
(g90
g71
NtRp2825
(dp2826
g74
(dp2827
sg83
g2812
sg76
(lp2828
g69
(g70
g71
NtRp2829
(dp2830
g74
(dp2831
g82
I3
ssg83
g2825
sg76
(lp2832
g1172
asbasbasbag69
(g85
g71
NtRp2833
(dp2834
g74
(dp2835
sg83
g2682
sg76
(lp2836
g69
(g90
g71
NtRp2837
(dp2838
g74
(dp2839
g94
g95
ssg83
g2833
sg76
(lp2840
S'HTTP_REFERER'
p2841
asbag69
(g90
g71
NtRp2842
(dp2843
g74
(dp2844
g101
g102
ssg83
g2833
sg76
(lp2845
S':'
asbag69
(g90
g71
NtRp2846
(dp2847
g74
(dp2848
sg83
g2833
sg76
(lp2849
g69
(g70
g71
NtRp2850
(dp2851
g74
(dp2852
g82
I3
ssg83
g2846
sg76
(lp2853
g1194
asbasbasbag69
(g85
g71
NtRp2854
(dp2855
g74
(dp2856
sg83
g2682
sg76
(lp2857
g69
(g90
g71
NtRp2858
(dp2859
g74
(dp2860
g94
g95
ssg83
g2854
sg76
(lp2861
S'HTTP_USER_AGENT'
p2862
asbag69
(g90
g71
NtRp2863
(dp2864
g74
(dp2865
g101
g102
ssg83
g2854
sg76
(lp2866
S':'
asbag69
(g90
g71
NtRp2867
(dp2868
g74
(dp2869
sg83
g2854
sg76
(lp2870
g69
(g70
g71
NtRp2871
(dp2872
g74
(dp2873
g82
I3
ssg83
g2867
sg76
(lp2874
g1216
asbasbasbag69
(g85
g71
NtRp2875
(dp2876
g74
(dp2877
sg83
g2682
sg76
(lp2878
g69
(g90
g71
NtRp2879
(dp2880
g74
(dp2881
g94
g95
ssg83
g2875
sg76
(lp2882
S'PATH_INFO'
p2883
asbag69
(g90
g71
NtRp2884
(dp2885
g74
(dp2886
g101
g102
ssg83
g2875
sg76
(lp2887
S':'
asbag69
(g90
g71
NtRp2888
(dp2889
g74
(dp2890
sg83
g2875
sg76
(lp2891
g69
(g70
g71
NtRp2892
(dp2893
g74
(dp2894
g82
I3
ssg83
g2888
sg76
(lp2895
g1383
asbasbasbag69
(g85
g71
NtRp2896
(dp2897
g74
(dp2898
sg83
g2682
sg76
(lp2899
g69
(g90
g71
NtRp2900
(dp2901
g74
(dp2902
g94
g95
ssg83
g2896
sg76
(lp2903
S'QUERY_STRING'
p2904
asbag69
(g90
g71
NtRp2905
(dp2906
g74
(dp2907
g101
g102
ssg83
g2896
sg76
(lp2908
S':'
asbag69
(g90
g71
NtRp2909
(dp2910
g74
(dp2911
sg83
g2896
sg76
(lp2912
g69
(g70
g71
NtRp2913
(dp2914
g74
(dp2915
g82
I3
ssg83
g2909
sg76
(lp2916
S''
asbasbasbag69
(g85
g71
NtRp2917
(dp2918
g74
(dp2919
sg83
g2682
sg76
(lp2920
g69
(g90
g71
NtRp2921
(dp2922
g74
(dp2923
g94
g95
ssg83
g2917
sg76
(lp2924
S'REMOTE_ADDR'
p2925
asbag69
(g90
g71
NtRp2926
(dp2927
g74
(dp2928
g101
g102
ssg83
g2917
sg76
(lp2929
S':'
asbag69
(g90
g71
NtRp2930
(dp2931
g74
(dp2932
sg83
g2917
sg76
(lp2933
g69
(g70
g71
NtRp2934
(dp2935
g74
(dp2936
g82
I3
ssg83
g2930
sg76
(lp2937
g224
asbasbasbag69
(g85
g71
NtRp2938
(dp2939
g74
(dp2940
sg83
g2682
sg76
(lp2941
g69
(g90
g71
NtRp2942
(dp2943
g74
(dp2944
g94
g95
ssg83
g2938
sg76
(lp2945
S'REMOTE_PORT'
p2946
asbag69
(g90
g71
NtRp2947
(dp2948
g74
(dp2949
g101
g102
ssg83
g2938
sg76
(lp2950
S':'
asbag69
(g90
g71
NtRp2951
(dp2952
g74
(dp2953
sg83
g2938
sg76
(lp2954
g69
(g70
g71
NtRp2955
(dp2956
g74
(dp2957
g82
I3
ssg83
g2951
sg76
(lp2958
g1447
asbasbasbag69
(g85
g71
NtRp2959
(dp2960
g74
(dp2961
sg83
g2682
sg76
(lp2962
g69
(g90
g71
NtRp2963
(dp2964
g74
(dp2965
g94
g95
ssg83
g2959
sg76
(lp2966
S'REQUEST_METHOD'
p2967
asbag69
(g90
g71
NtRp2968
(dp2969
g74
(dp2970
g101
g102
ssg83
g2959
sg76
(lp2971
S':'
asbag69
(g90
g71
NtRp2972
(dp2973
g74
(dp2974
sg83
g2959
sg76
(lp2975
g69
(g70
g71
NtRp2976
(dp2977
g74
(dp2978
g82
I3
ssg83
g2972
sg76
(lp2979
g1469
asbasbasbag69
(g85
g71
NtRp2980
(dp2981
g74
(dp2982
sg83
g2682
sg76
(lp2983
g69
(g90
g71
NtRp2984
(dp2985
g74
(dp2986
g94
g95
ssg83
g2980
sg76
(lp2987
S'REQUEST_URI'
p2988
asbag69
(g90
g71
NtRp2989
(dp2990
g74
(dp2991
g101
g102
ssg83
g2980
sg76
(lp2992
S':'
asbag69
(g90
g71
NtRp2993
(dp2994
g74
(dp2995
sg83
g2980
sg76
(lp2996
g69
(g70
g71
NtRp2997
(dp2998
g74
(dp2999
g82
I3
ssg83
g2993
sg76
(lp3000
g1383
asbasbasbag69
(g85
g71
NtRp3001
(dp3002
g74
(dp3003
sg83
g2682
sg76
(lp3004
g69
(g90
g71
NtRp3005
(dp3006
g74
(dp3007
g94
g95
ssg83
g3001
sg76
(lp3008
S'SCRIPT_NAME'
p3009
asbag69
(g90
g71
NtRp3010
(dp3011
g74
(dp3012
g101
g102
ssg83
g3001
sg76
(lp3013
S':'
asbag69
(g90
g71
NtRp3014
(dp3015
g74
(dp3016
sg83
g3001
sg76
(lp3017
g69
(g70
g71
NtRp3018
(dp3019
g74
(dp3020
g82
I3
ssg83
g3014
sg76
(lp3021
S''
asbasbasbag69
(g85
g71
NtRp3022
(dp3023
g74
(dp3024
sg83
g2682
sg76
(lp3025
g69
(g90
g71
NtRp3026
(dp3027
g74
(dp3028
g94
g95
ssg83
g3022
sg76
(lp3029
S'SERVER_NAME'
p3030
asbag69
(g90
g71
NtRp3031
(dp3032
g74
(dp3033
g101
g102
ssg83
g3022
sg76
(lp3034
S':'
asbag69
(g90
g71
NtRp3035
(dp3036
g74
(dp3037
sg83
g3022
sg76
(lp3038
g69
(g70
g71
NtRp3039
(dp3040
g74
(dp3041
g82
I3
ssg83
g3035
sg76
(lp3042
g1533
asbasbasbag69
(g85
g71
NtRp3043
(dp3044
g74
(dp3045
sg83
g2682
sg76
(lp3046
g69
(g90
g71
NtRp3047
(dp3048
g74
(dp3049
g94
g95
ssg83
g3043
sg76
(lp3050
S'SERVER_PORT'
p3051
asbag69
(g90
g71
NtRp3052
(dp3053
g74
(dp3054
g101
g102
ssg83
g3043
sg76
(lp3055
S':'
asbag69
(g90
g71
NtRp3056
(dp3057
g74
(dp3058
sg83
g3043
sg76
(lp3059
g69
(g70
g71
NtRp3060
(dp3061
g74
(dp3062
g82
I3
ssg83
g3056
sg76
(lp3063
g1555
asbasbasbag69
(g85
g71
NtRp3064
(dp3065
g74
(dp3066
sg83
g2682
sg76
(lp3067
g69
(g90
g71
NtRp3068
(dp3069
g74
(dp3070
g94
g95
ssg83
g3064
sg76
(lp3071
S'SERVER_PROTOCOL'
p3072
asbag69
(g90
g71
NtRp3073
(dp3074
g74
(dp3075
g101
g102
ssg83
g3064
sg76
(lp3076
S':'
asbag69
(g90
g71
NtRp3077
(dp3078
g74
(dp3079
sg83
g3064
sg76
(lp3080
g69
(g70
g71
NtRp3081
(dp3082
g74
(dp3083
g82
I3
ssg83
g3077
sg76
(lp3084
g1577
asbasbasbag69
(g85
g71
NtRp3085
(dp3086
g74
(dp3087
sg83
g2682
sg76
(lp3088
g69
(g90
g71
NtRp3089
(dp3090
g74
(dp3091
g94
g95
ssg83
g3085
sg76
(lp3092
S'SERVER_SOFTWARE'
p3093
asbag69
(g90
g71
NtRp3094
(dp3095
g74
(dp3096
g101
g102
ssg83
g3085
sg76
(lp3097
S':'
asbag69
(g90
g71
NtRp3098
(dp3099
g74
(dp3100
sg83
g3085
sg76
(lp3101
g69
(g70
g71
NtRp3102
(dp3103
g74
(dp3104
g82
I3
ssg83
g3098
sg76
(lp3105
g1599
asbasbasbag69
(g85
g71
NtRp3106
(dp3107
g74
(dp3108
sg83
g2682
sg76
(lp3109
g69
(g90
g71
NtRp3110
(dp3111
g74
(dp3112
g94
g95
ssg83
g3106
sg76
(lp3113
S'wsgi.errors'
p3114
asbag69
(g90
g71
NtRp3115
(dp3116
g74
(dp3117
g101
g102
ssg83
g3106
sg76
(lp3118
S':'
asbag69
(g90
g71
NtRp3119
(dp3120
g74
(dp3121
sg83
g3106
sg76
(lp3122
g69
(g70
g71
NtRp3123
(dp3124
g74
(dp3125
g82
I3
ssg83
g3119
sg76
(lp3126
S"<open file '<stderr>', mode 'w' at 0x1032f1270>"
p3127
asbasbasbag69
(g85
g71
NtRp3128
(dp3129
g74
(dp3130
sg83
g2682
sg76
(lp3131
g69
(g90
g71
NtRp3132
(dp3133
g74
(dp3134
g94
g95
ssg83
g3128
sg76
(lp3135
S'wsgi.file_wrapper'
p3136
asbag69
(g90
g71
NtRp3137
(dp3138
g74
(dp3139
g101
g102
ssg83
g3128
sg76
(lp3140
S':'
asbag69
(g90
g71
NtRp3141
(dp3142
g74
(dp3143
sg83
g3128
sg76
(lp3144
g69
(g70
g71
NtRp3145
(dp3146
g74
(dp3147
g82
I3
ssg83
g3141
sg76
(lp3148
S'<class wsgiref.util.FileWrapper at 0x103ef4e88>'
p3149
asbasbasbag69
(g85
g71
NtRp3150
(dp3151
g74
(dp3152
sg83
g2682
sg76
(lp3153
g69
(g90
g71
NtRp3154
(dp3155
g74
(dp3156
g94
g95
ssg83
g3150
sg76
(lp3157
S'wsgi.input'
p3158
asbag69
(g90
g71
NtRp3159
(dp3160
g74
(dp3161
g101
g102
ssg83
g3150
sg76
(lp3162
S':'
asbag69
(g90
g71
NtRp3163
(dp3164
g74
(dp3165
sg83
g3150
sg76
(lp3166
g69
(g70
g71
NtRp3167
(dp3168
g74
(dp3169
g82
I3
ssg83
g3163
sg76
(lp3170
S'<cStringIO.StringO object at 0x10c327b58>'
p3171
asbasbasbag69
(g85
g71
NtRp3172
(dp3173
g74
(dp3174
sg83
g2682
sg76
(lp3175
g69
(g90
g71
NtRp3176
(dp3177
g74
(dp3178
g94
g95
ssg83
g3172
sg76
(lp3179
S'wsgi.multiprocess'
p3180
asbag69
(g90
g71
NtRp3181
(dp3182
g74
(dp3183
g101
g102
ssg83
g3172
sg76
(lp3184
S':'
asbag69
(g90
g71
NtRp3185
(dp3186
g74
(dp3187
sg83
g3172
sg76
(lp3188
g69
(g70
g71
NtRp3189
(dp3190
g74
(dp3191
g82
I3
ssg83
g3185
sg76
(lp3192
g112
asbasbasbag69
(g85
g71
NtRp3193
(dp3194
g74
(dp3195
sg83
g2682
sg76
(lp3196
g69
(g90
g71
NtRp3197
(dp3198
g74
(dp3199
g94
g95
ssg83
g3193
sg76
(lp3200
S'wsgi.multithread'
p3201
asbag69
(g90
g71
NtRp3202
(dp3203
g74
(dp3204
g101
g102
ssg83
g3193
sg76
(lp3205
S':'
asbag69
(g90
g71
NtRp3206
(dp3207
g74
(dp3208
sg83
g3193
sg76
(lp3209
g69
(g70
g71
NtRp3210
(dp3211
g74
(dp3212
g82
I3
ssg83
g3206
sg76
(lp3213
g1816
asbasbasbag69
(g85
g71
NtRp3214
(dp3215
g74
(dp3216
sg83
g2682
sg76
(lp3217
g69
(g90
g71
NtRp3218
(dp3219
g74
(dp3220
g94
g95
ssg83
g3214
sg76
(lp3221
S'wsgi.run_once'
p3222
asbag69
(g90
g71
NtRp3223
(dp3224
g74
(dp3225
g101
g102
ssg83
g3214
sg76
(lp3226
S':'
asbag69
(g90
g71
NtRp3227
(dp3228
g74
(dp3229
sg83
g3214
sg76
(lp3230
g69
(g70
g71
NtRp3231
(dp3232
g74
(dp3233
g82
I3
ssg83
g3227
sg76
(lp3234
g112
asbasbasbag69
(g85
g71
NtRp3235
(dp3236
g74
(dp3237
sg83
g2682
sg76
(lp3238
g69
(g90
g71
NtRp3239
(dp3240
g74
(dp3241
g94
g95
ssg83
g3235
sg76
(lp3242
S'wsgi.url_scheme'
p3243
asbag69
(g90
g71
NtRp3244
(dp3245
g74
(dp3246
g101
g102
ssg83
g3235
sg76
(lp3247
S':'
asbag69
(g90
g71
NtRp3248
(dp3249
g74
(dp3250
sg83
g3235
sg76
(lp3251
g69
(g70
g71
NtRp3252
(dp3253
g74
(dp3254
g82
I3
ssg83
g3248
sg76
(lp3255
g1859
asbasbasbag69
(g85
g71
NtRp3256
(dp3257
g74
(dp3258
sg83
g2682
sg76
(lp3259
g69
(g90
g71
NtRp3260
(dp3261
g74
(dp3262
g94
g95
ssg83
g3256
sg76
(lp3263
S'wsgi.version'
p3264
asbag69
(g90
g71
NtRp3265
(dp3266
g74
(dp3267
g101
g102
ssg83
g3256
sg76
(lp3268
S':'
asbag69
(g90
g71
NtRp3269
(dp3270
g74
(dp3271
sg83
g3256
sg76
(lp3272
g69
(g70
g71
NtRp3273
(dp3274
g74
(dp3275
g82
I3
ssg83
g3269
sg76
(lp3276
S'1'
asbasbasbasbasbasbasbasbasbasbasbasbasbsS'frames'
p3277
(lp3278
(dp3279
S'file'
p3280
S'/Users/Truki/Desarrollo/web2py/gluon/restricted.py'
p3281
sS'dump'
p3282
(dp3283
S'code'
p3284
S'r"response.write(\'<!DOCTYPE html>\\n<!-- paulirish....ponse.write(\'\\n</body>\\n</html>\\n\', escape=False)"'
p3285
sS'layer'
p3286
S"'/Users/Truki/Desarrollo/web2py/applications/rosan/views/facturas/detalleFactura.html'"
p3287
sS'global compile2'
p3288
S'<function compile2>'
p3289
sS'ccode'
p3290
S'undefined'
p3291
ssS'lnum'
p3292
I211
sS'lines'
p3293
(dp3294
I206
S"    environment['__name__'] = '__restricted__'"
p3295
sI207
S'    try:'
p3296
sI208
S'        if isinstance(code, types.CodeType):'
p3297
sI209
S'            ccode = code'
p3298
sI210
S'        else:'
p3299
sI211
S'            ccode = compile2(code, layer)'
p3300
sI212
S'        exec ccode in environment'
p3301
sI213
S'    except HTTP:'
p3302
sI214
S'        raise'
p3303
sI215
S'    except RestrictedError:'
p3304
ssS'call'
p3305
S'(code=r"response.write(\'<!DOCTYPE html>\\n<!-- paulirish....ponse.write(\'\\n</body>\\n</html>\\n\', escape=False)", environment={\'A\': <class \'gluon.html.A\'>, \'Auth\': <class \'gluon.tools.Auth\'>, \'B\': <class \'gluon.html.B\'>, \'BEAUTIFY\': <class \'gluon.html.BEAUTIFY\'>, \'BODY\': <class \'gluon.html.BODY\'>, \'BR\': <class \'gluon.html.BR\'>, \'BUTTON\': <class \'gluon.html.BUTTON\'>, \'CAT\': <class \'gluon.html.CAT\'>, \'CENTER\': <class \'gluon.html.CENTER\'>, \'CLEANUP\': <class \'gluon.validators.CLEANUP\'>, ...}, layer=\'/Users/Truki/Desarrollo/web2py/applications/rosan/views/facturas/detalleFactura.html\')'
p3306
sS'func'
p3307
S'restricted'
p3308
sa(dp3309
g3280
S'/Users/Truki/Desarrollo/web2py/gluon/restricted.py'
p3310
sg3282
(dp3311
S'builtincompile'
p3312
S'<built-in function compile>'
p3313
sS'code'
p3314
S'r"response.write(\'<!DOCTYPE html>\\n<!-- paulirish....ponse.write(\'\\n</body>\\n</html>\\n\', escape=False)"'
p3315
sS'code.rstrip'
p3316
S'<built-in method rstrip of str object>'
p3317
sS').replace'
p3318
g3291
sS'layer'
p3319
S"'/Users/Truki/Desarrollo/web2py/applications/rosan/views/facturas/detalleFactura.html'"
p3320
ssg3292
I194
sg3293
(dp3321
I192
S"    The +'\\n' is necessary else compile fails when code ends in a comment."
p3322
sI193
S'    """'
p3323
sI194
S"    return compile(code.rstrip().replace('\\r\\n', '\\n') + '\\n', layer, 'exec')"
p3324
sI195
S''
sI196
S''
sI197
S"def restricted(code, environment=None, layer='Unknown'):"
p3325
sI198
S'    """'
p3326
sI189
S''
sI190
S'def compile2(code, layer):'
p3327
sI191
S'    """'
p3328
ssg3305
S'(code=r"response.write(\'<!DOCTYPE html>\\n<!-- paulirish....ponse.write(\'\\n</body>\\n</html>\\n\', escape=False)", layer=\'/Users/Truki/Desarrollo/web2py/applications/rosan/views/facturas/detalleFactura.html\')'
p3329
sg3307
S'compile2'
p3330
sasS'pyver'
p3331
S'Python 2.7.2: /usr/bin/python'
p3332
sS'session'
p3333
g69
(g70
g71
NtRp3334
(dp3335
g74
(dp3336
sg76
(lp3337
g69
(g78
g71
NtRp3338
(dp3339
g74
(dp3340
g82
I5
ssg83
Nsg76
(lp3341
g69
(g85
g71
NtRp3342
(dp3343
g74
(dp3344
sg83
g3338
sg76
(lp3345
g69
(g90
g71
NtRp3346
(dp3347
g74
(dp3348
g94
g95
ssg83
g3342
sg76
(lp3349
S'last_orderby'
p3350
asbag69
(g90
g71
NtRp3351
(dp3352
g74
(dp3353
g101
g102
ssg83
g3342
sg76
(lp3354
S':'
asbag69
(g90
g71
NtRp3355
(dp3356
g74
(dp3357
sg83
g3342
sg76
(lp3358
g69
(g70
g71
NtRp3359
(dp3360
g74
(dp3361
g82
I5
ssg83
g3355
sg76
(lp3362
S'None'
p3363
asbasbasbag69
(g85
g71
NtRp3364
(dp3365
g74
(dp3366
sg83
g3338
sg76
(lp3367
g69
(g90
g71
NtRp3368
(dp3369
g74
(dp3370
g94
g95
ssg83
g3364
sg76
(lp3371
S'last_query'
p3372
asbag69
(g90
g71
NtRp3373
(dp3374
g74
(dp3375
g101
g102
ssg83
g3364
sg76
(lp3376
S':'
asbag69
(g90
g71
NtRp3377
(dp3378
g74
(dp3379
sg83
g3364
sg76
(lp3380
g69
(g70
g71
NtRp3381
(dp3382
g74
(dp3383
g82
I5
ssg83
g3377
sg76
(lp3384
S'dbRosan.factura_temp.id>0'
p3385
asbasbasbasbasbsS'etype'
p3386
S"<type 'exceptions.SyntaxError'>"
p3387
sS'date'
p3388
S'Thu Feb 14 17:48:17 2013'
p3389
sS'response'
p3390
g69
(g70
g71
NtRp3391
(dp3392
g74
(dp3393
sg76
(lp3394
g69
(g78
g71
NtRp3395
(dp3396
g74
(dp3397
g82
I5
ssg83
Nsg76
(lp3398
g69
(g85
g71
NtRp3399
(dp3400
g74
(dp3401
sg83
g3395
sg76
(lp3402
g69
(g90
g71
NtRp3403
(dp3404
g74
(dp3405
g94
g95
ssg83
g3399
sg76
(lp3406
g167
asbag69
(g90
g71
NtRp3407
(dp3408
g74
(dp3409
g101
g102
ssg83
g3399
sg76
(lp3410
S':'
asbag69
(g90
g71
NtRp3411
(dp3412
g74
(dp3413
sg83
g3399
sg76
(lp3414
g69
(g70
g71
NtRp3415
(dp3416
g74
(dp3417
g82
I5
ssg83
g3411
sg76
(lp3418
S'<cStringIO.StringO object at 0x10c2a5e30>'
p3419
asbasbasbag69
(g85
g71
NtRp3420
(dp3421
g74
(dp3422
sg83
g3395
sg76
(lp3423
g69
(g90
g71
NtRp3424
(dp3425
g74
(dp3426
g94
g95
ssg83
g3420
sg76
(lp3427
g255
asbag69
(g90
g71
NtRp3428
(dp3429
g74
(dp3430
g101
g102
ssg83
g3420
sg76
(lp3431
S':'
asbag69
(g90
g71
NtRp3432
(dp3433
g74
(dp3434
sg83
g3420
sg76
(lp3435
g69
(g70
g71
NtRp3436
(dp3437
g74
(dp3438
g82
I5
ssg83
g3432
sg76
(lp3439
g69
(g78
g71
NtRp3440
(dp3441
g74
(dp3442
g82
I4
ssg83
Nsg76
(lp3443
g69
(g85
g71
NtRp3444
(dp3445
g74
(dp3446
sg83
g3440
sg76
(lp3447
g69
(g90
g71
NtRp3448
(dp3449
g74
(dp3450
g94
g95
ssg83
g3444
sg76
(lp3451
S'session_id_rosan'
p3452
asbag69
(g90
g71
NtRp3453
(dp3454
g74
(dp3455
g101
g102
ssg83
g3444
sg76
(lp3456
S':'
asbag69
(g90
g71
NtRp3457
(dp3458
g74
(dp3459
sg83
g3444
sg76
(lp3460
g69
(g70
g71
NtRp3461
(dp3462
g74
(dp3463
g82
I4
ssg83
g3457
sg76
(lp3464
g487
ag69
(g78
g71
NtRp3465
(dp3466
g74
(dp3467
g82
I3
ssg83
Nsg76
(lp3468
g69
(g85
g71
NtRp3469
(dp3470
g74
(dp3471
sg83
g3465
sg76
(lp3472
g69
(g90
g71
NtRp3473
(dp3474
g74
(dp3475
g94
g95
ssg83
g3469
sg76
(lp3476
g306
asbag69
(g90
g71
NtRp3477
(dp3478
g74
(dp3479
g101
g102
ssg83
g3469
sg76
(lp3480
S':'
asbag69
(g90
g71
NtRp3481
(dp3482
g74
(dp3483
sg83
g3469
sg76
(lp3484
g69
(g70
g71
NtRp3485
(dp3486
g74
(dp3487
g82
I3
ssg83
g3481
sg76
(lp3488
S''
asbasbasbag69
(g85
g71
NtRp3489
(dp3490
g74
(dp3491
sg83
g3465
sg76
(lp3492
g69
(g90
g71
NtRp3493
(dp3494
g74
(dp3495
g94
g95
ssg83
g3489
sg76
(lp3496
g327
asbag69
(g90
g71
NtRp3497
(dp3498
g74
(dp3499
g101
g102
ssg83
g3489
sg76
(lp3500
S':'
asbag69
(g90
g71
NtRp3501
(dp3502
g74
(dp3503
sg83
g3489
sg76
(lp3504
g69
(g70
g71
NtRp3505
(dp3506
g74
(dp3507
g82
I3
ssg83
g3501
sg76
(lp3508
S''
asbasbasbag69
(g85
g71
NtRp3509
(dp3510
g74
(dp3511
sg83
g3465
sg76
(lp3512
g69
(g90
g71
NtRp3513
(dp3514
g74
(dp3515
g94
g95
ssg83
g3509
sg76
(lp3516
g348
asbag69
(g90
g71
NtRp3517
(dp3518
g74
(dp3519
g101
g102
ssg83
g3509
sg76
(lp3520
S':'
asbag69
(g90
g71
NtRp3521
(dp3522
g74
(dp3523
sg83
g3509
sg76
(lp3524
g69
(g70
g71
NtRp3525
(dp3526
g74
(dp3527
g82
I3
ssg83
g3521
sg76
(lp3528
S''
asbasbasbag69
(g85
g71
NtRp3529
(dp3530
g74
(dp3531
sg83
g3465
sg76
(lp3532
g69
(g90
g71
NtRp3533
(dp3534
g74
(dp3535
g94
g95
ssg83
g3529
sg76
(lp3536
g369
asbag69
(g90
g71
NtRp3537
(dp3538
g74
(dp3539
g101
g102
ssg83
g3529
sg76
(lp3540
S':'
asbag69
(g90
g71
NtRp3541
(dp3542
g74
(dp3543
sg83
g3529
sg76
(lp3544
g69
(g70
g71
NtRp3545
(dp3546
g74
(dp3547
g82
I3
ssg83
g3541
sg76
(lp3548
S''
asbasbasbag69
(g85
g71
NtRp3549
(dp3550
g74
(dp3551
sg83
g3465
sg76
(lp3552
g69
(g90
g71
NtRp3553
(dp3554
g74
(dp3555
g94
g95
ssg83
g3549
sg76
(lp3556
g390
asbag69
(g90
g71
NtRp3557
(dp3558
g74
(dp3559
g101
g102
ssg83
g3549
sg76
(lp3560
S':'
asbag69
(g90
g71
NtRp3561
(dp3562
g74
(dp3563
sg83
g3549
sg76
(lp3564
g69
(g70
g71
NtRp3565
(dp3566
g74
(dp3567
g82
I3
ssg83
g3561
sg76
(lp3568
S''
asbasbasbag69
(g85
g71
NtRp3569
(dp3570
g74
(dp3571
sg83
g3465
sg76
(lp3572
g69
(g90
g71
NtRp3573
(dp3574
g74
(dp3575
g94
g95
ssg83
g3569
sg76
(lp3576
g411
asbag69
(g90
g71
NtRp3577
(dp3578
g74
(dp3579
g101
g102
ssg83
g3569
sg76
(lp3580
S':'
asbag69
(g90
g71
NtRp3581
(dp3582
g74
(dp3583
sg83
g3569
sg76
(lp3584
g69
(g70
g71
NtRp3585
(dp3586
g74
(dp3587
g82
I3
ssg83
g3581
sg76
(lp3588
S'/'
asbasbasbag69
(g85
g71
NtRp3589
(dp3590
g74
(dp3591
sg83
g3465
sg76
(lp3592
g69
(g90
g71
NtRp3593
(dp3594
g74
(dp3595
g94
g95
ssg83
g3589
sg76
(lp3596
g432
asbag69
(g90
g71
NtRp3597
(dp3598
g74
(dp3599
g101
g102
ssg83
g3589
sg76
(lp3600
S':'
asbag69
(g90
g71
NtRp3601
(dp3602
g74
(dp3603
sg83
g3589
sg76
(lp3604
g69
(g70
g71
NtRp3605
(dp3606
g74
(dp3607
g82
I3
ssg83
g3601
sg76
(lp3608
S''
asbasbasbag69
(g85
g71
NtRp3609
(dp3610
g74
(dp3611
sg83
g3465
sg76
(lp3612
g69
(g90
g71
NtRp3613
(dp3614
g74
(dp3615
g94
g95
ssg83
g3609
sg76
(lp3616
g453
asbag69
(g90
g71
NtRp3617
(dp3618
g74
(dp3619
g101
g102
ssg83
g3609
sg76
(lp3620
S':'
asbag69
(g90
g71
NtRp3621
(dp3622
g74
(dp3623
sg83
g3609
sg76
(lp3624
g69
(g70
g71
NtRp3625
(dp3626
g74
(dp3627
g82
I3
ssg83
g3621
sg76
(lp3628
S''
asbasbasbasbasbasbasbasbasbasbasbag69
(g85
g71
NtRp3629
(dp3630
g74
(dp3631
sg83
g3395
sg76
(lp3632
g69
(g90
g71
NtRp3633
(dp3634
g74
(dp3635
g94
g95
ssg83
g3629
sg76
(lp3636
S'delimiters'
p3637
asbag69
(g90
g71
NtRp3638
(dp3639
g74
(dp3640
g101
g102
ssg83
g3629
sg76
(lp3641
S':'
asbag69
(g90
g71
NtRp3642
(dp3643
g74
(dp3644
sg83
g3629
sg76
(lp3645
g69
(g70
g71
NtRp3646
(dp3647
g74
(dp3648
g82
I5
ssg83
g3642
sg76
(lp3649
g69
(g78
g71
NtRp3650
(dp3651
g74
(dp3652
g82
I4
ssg83
Nsg76
(lp3653
g69
(g85
g71
NtRp3654
(dp3655
g74
(dp3656
sg83
g3650
sg76
(lp3657
g69
(g90
g71
NtRp3658
(dp3659
g74
(dp3660
sg83
g3654
sg76
(lp3661
g69
(g70
g71
NtRp3662
(dp3663
g74
(dp3664
g82
I4
ssg83
g3658
sg76
(lp3665
S'{{'
p3666
asbasbasbag69
(g85
g71
NtRp3667
(dp3668
g74
(dp3669
sg83
g3650
sg76
(lp3670
g69
(g90
g71
NtRp3671
(dp3672
g74
(dp3673
sg83
g3667
sg76
(lp3674
g69
(g70
g71
NtRp3675
(dp3676
g74
(dp3677
g82
I4
ssg83
g3671
sg76
(lp3678
S'}}'
p3679
asbasbasbasbasbasbasbag69
(g85
g71
NtRp3680
(dp3681
g74
(dp3682
sg83
g3395
sg76
(lp3683
g69
(g90
g71
NtRp3684
(dp3685
g74
(dp3686
g94
g95
ssg83
g3680
sg76
(lp3687
S'files'
p3688
asbag69
(g90
g71
NtRp3689
(dp3690
g74
(dp3691
g101
g102
ssg83
g3680
sg76
(lp3692
S':'
asbag69
(g90
g71
NtRp3693
(dp3694
g74
(dp3695
sg83
g3680
sg76
(lp3696
g69
(g70
g71
NtRp3697
(dp3698
g74
(dp3699
g82
I5
ssg83
g3693
sg76
(lp3700
g69
(g78
g71
NtRp3701
(dp3702
g74
(dp3703
g82
I4
ssg83
Nsg76
(lp3704
sbasbasbasbag69
(g85
g71
NtRp3705
(dp3706
g74
(dp3707
sg83
g3395
sg76
(lp3708
g69
(g90
g71
NtRp3709
(dp3710
g74
(dp3711
g94
g95
ssg83
g3705
sg76
(lp3712
S'flash'
p3713
asbag69
(g90
g71
NtRp3714
(dp3715
g74
(dp3716
g101
g102
ssg83
g3705
sg76
(lp3717
S':'
asbag69
(g90
g71
NtRp3718
(dp3719
g74
(dp3720
sg83
g3705
sg76
(lp3721
g69
(g70
g71
NtRp3722
(dp3723
g74
(dp3724
g82
I5
ssg83
g3718
sg76
(lp3725
S''
asbasbasbag69
(g85
g71
NtRp3726
(dp3727
g74
(dp3728
sg83
g3395
sg76
(lp3729
g69
(g90
g71
NtRp3730
(dp3731
g74
(dp3732
g94
g95
ssg83
g3726
sg76
(lp3733
S'generic_patterns'
p3734
asbag69
(g90
g71
NtRp3735
(dp3736
g74
(dp3737
g101
g102
ssg83
g3726
sg76
(lp3738
S':'
asbag69
(g90
g71
NtRp3739
(dp3740
g74
(dp3741
sg83
g3726
sg76
(lp3742
g69
(g70
g71
NtRp3743
(dp3744
g74
(dp3745
g82
I5
ssg83
g3739
sg76
(lp3746
g69
(g78
g71
NtRp3747
(dp3748
g74
(dp3749
g82
I4
ssg83
Nsg76
(lp3750
g69
(g85
g71
NtRp3751
(dp3752
g74
(dp3753
sg83
g3747
sg76
(lp3754
g69
(g90
g71
NtRp3755
(dp3756
g74
(dp3757
sg83
g3751
sg76
(lp3758
g69
(g70
g71
NtRp3759
(dp3760
g74
(dp3761
g82
I4
ssg83
g3755
sg76
(lp3762
S'*'
asbasbasbasbasbasbasbag69
(g85
g71
NtRp3763
(dp3764
g74
(dp3765
sg83
g3395
sg76
(lp3766
g69
(g90
g71
NtRp3767
(dp3768
g74
(dp3769
g94
g95
ssg83
g3763
sg76
(lp3770
S'headers'
p3771
asbag69
(g90
g71
NtRp3772
(dp3773
g74
(dp3774
g101
g102
ssg83
g3763
sg76
(lp3775
S':'
asbag69
(g90
g71
NtRp3776
(dp3777
g74
(dp3778
sg83
g3763
sg76
(lp3779
g69
(g70
g71
NtRp3780
(dp3781
g74
(dp3782
g82
I5
ssg83
g3776
sg76
(lp3783
g69
(g78
g71
NtRp3784
(dp3785
g74
(dp3786
g82
I4
ssg83
Nsg76
(lp3787
g69
(g85
g71
NtRp3788
(dp3789
g74
(dp3790
sg83
g3784
sg76
(lp3791
g69
(g90
g71
NtRp3792
(dp3793
g74
(dp3794
g94
g95
ssg83
g3788
sg76
(lp3795
S'X-Powered-By'
p3796
asbag69
(g90
g71
NtRp3797
(dp3798
g74
(dp3799
g101
g102
ssg83
g3788
sg76
(lp3800
S':'
asbag69
(g90
g71
NtRp3801
(dp3802
g74
(dp3803
sg83
g3788
sg76
(lp3804
g69
(g70
g71
NtRp3805
(dp3806
g74
(dp3807
g82
I4
ssg83
g3801
sg76
(lp3808
S'web2py'
p3809
asbasbasbasbasbasbasbag69
(g85
g71
NtRp3810
(dp3811
g74
(dp3812
sg83
g3395
sg76
(lp3813
g69
(g90
g71
NtRp3814
(dp3815
g74
(dp3816
g94
g95
ssg83
g3810
sg76
(lp3817
S'menu'
p3818
asbag69
(g90
g71
NtRp3819
(dp3820
g74
(dp3821
g101
g102
ssg83
g3810
sg76
(lp3822
S':'
asbag69
(g90
g71
NtRp3823
(dp3824
g74
(dp3825
sg83
g3810
sg76
(lp3826
g69
(g70
g71
NtRp3827
(dp3828
g74
(dp3829
g82
I5
ssg83
g3823
sg76
(lp3830
g69
(g78
g71
NtRp3831
(dp3832
g74
(dp3833
g82
I4
ssg83
Nsg76
(lp3834
g69
(g85
g71
NtRp3835
(dp3836
g74
(dp3837
sg83
g3831
sg76
(lp3838
g69
(g90
g71
NtRp3839
(dp3840
g74
(dp3841
sg83
g3835
sg76
(lp3842
g69
(g70
g71
NtRp3843
(dp3844
g74
(dp3845
g82
I4
ssg83
g3839
sg76
(lp3846
g69
(g78
g71
NtRp3847
(dp3848
g74
(dp3849
g82
I3
ssg83
Nsg76
(lp3850
g69
(g85
g71
NtRp3851
(dp3852
g74
(dp3853
sg83
g3847
sg76
(lp3854
g69
(g90
g71
NtRp3855
(dp3856
g74
(dp3857
sg83
g3851
sg76
(lp3858
g69
(g70
g71
NtRp3859
(dp3860
g74
(dp3861
g82
I3
ssg83
g3855
sg76
(lp3862
cgluon.languages
lazyT_unpickle
p3863
(S's\x06\x00\x00\x00Indice'
tRp3864
asbasbasbag69
(g85
g71
NtRp3865
(dp3866
g74
(dp3867
sg83
g3847
sg76
(lp3868
g69
(g90
g71
NtRp3869
(dp3870
g74
(dp3871
sg83
g3865
sg76
(lp3872
g69
(g70
g71
NtRp3873
(dp3874
g74
(dp3875
g82
I3
ssg83
g3869
sg76
(lp3876
g112
asbasbasbag69
(g85
g71
NtRp3877
(dp3878
g74
(dp3879
sg83
g3847
sg76
(lp3880
g69
(g90
g71
NtRp3881
(dp3882
g74
(dp3883
sg83
g3877
sg76
(lp3884
g69
(g70
g71
NtRp3885
(dp3886
g74
(dp3887
g82
I3
ssg83
g3881
sg76
(lp3888
S'/rosan/default/index'
p3889
asbasbasbag69
(g85
g71
NtRp3890
(dp3891
g74
(dp3892
sg83
g3847
sg76
(lp3893
g69
(g90
g71
NtRp3894
(dp3895
g74
(dp3896
sg83
g3890
sg76
(lp3897
g69
(g70
g71
NtRp3898
(dp3899
g74
(dp3900
g82
I3
ssg83
g3894
sg76
(lp3901
g69
(g78
g71
NtRp3902
(dp3903
g74
(dp3904
g82
I2
ssg83
Nsg76
(lp3905
sbasbasbasbasbasbasbasbag69
(g85
g71
NtRp3906
(dp3907
g74
(dp3908
sg83
g3831
sg76
(lp3909
g69
(g90
g71
NtRp3910
(dp3911
g74
(dp3912
sg83
g3906
sg76
(lp3913
g69
(g70
g71
NtRp3914
(dp3915
g74
(dp3916
g82
I4
ssg83
g3910
sg76
(lp3917
g69
(g78
g71
NtRp3918
(dp3919
g74
(dp3920
g82
I3
ssg83
Nsg76
(lp3921
g69
(g85
g71
NtRp3922
(dp3923
g74
(dp3924
sg83
g3918
sg76
(lp3925
g69
(g90
g71
NtRp3926
(dp3927
g74
(dp3928
sg83
g3922
sg76
(lp3929
g69
(g70
g71
NtRp3930
(dp3931
g74
(dp3932
g82
I3
ssg83
g3926
sg76
(lp3933
g3863
(S's\x08\x00\x00\x00Clientes'
tRp3934
asbasbasbag69
(g85
g71
NtRp3935
(dp3936
g74
(dp3937
sg83
g3918
sg76
(lp3938
g69
(g90
g71
NtRp3939
(dp3940
g74
(dp3941
sg83
g3935
sg76
(lp3942
g69
(g70
g71
NtRp3943
(dp3944
g74
(dp3945
g82
I3
ssg83
g3939
sg76
(lp3946
g112
asbasbasbag69
(g85
g71
NtRp3947
(dp3948
g74
(dp3949
sg83
g3918
sg76
(lp3950
g69
(g90
g71
NtRp3951
(dp3952
g74
(dp3953
sg83
g3947
sg76
(lp3954
g69
(g70
g71
NtRp3955
(dp3956
g74
(dp3957
g82
I3
ssg83
g3951
sg76
(lp3958
S'/rosan/default/nuevoCliente'
p3959
asbasbasbag69
(g85
g71
NtRp3960
(dp3961
g74
(dp3962
sg83
g3918
sg76
(lp3963
g69
(g90
g71
NtRp3964
(dp3965
g74
(dp3966
sg83
g3960
sg76
(lp3967
g69
(g70
g71
NtRp3968
(dp3969
g74
(dp3970
g82
I3
ssg83
g3964
sg76
(lp3971
g69
(g78
g71
NtRp3972
(dp3973
g74
(dp3974
g82
I2
ssg83
Nsg76
(lp3975
sbasbasbasbasbasbasbasbag69
(g85
g71
NtRp3976
(dp3977
g74
(dp3978
sg83
g3831
sg76
(lp3979
g69
(g90
g71
NtRp3980
(dp3981
g74
(dp3982
sg83
g3976
sg76
(lp3983
g69
(g70
g71
NtRp3984
(dp3985
g74
(dp3986
g82
I4
ssg83
g3980
sg76
(lp3987
g69
(g78
g71
NtRp3988
(dp3989
g74
(dp3990
g82
I3
ssg83
Nsg76
(lp3991
g69
(g85
g71
NtRp3992
(dp3993
g74
(dp3994
sg83
g3988
sg76
(lp3995
g69
(g90
g71
NtRp3996
(dp3997
g74
(dp3998
sg83
g3992
sg76
(lp3999
g69
(g70
g71
NtRp4000
(dp4001
g74
(dp4002
g82
I3
ssg83
g3996
sg76
(lp4003
g3863
(S's\x08\x00\x00\x00Facturas'
tRp4004
asbasbasbag69
(g85
g71
NtRp4005
(dp4006
g74
(dp4007
sg83
g3988
sg76
(lp4008
g69
(g90
g71
NtRp4009
(dp4010
g74
(dp4011
sg83
g4005
sg76
(lp4012
g69
(g70
g71
NtRp4013
(dp4014
g74
(dp4015
g82
I3
ssg83
g4009
sg76
(lp4016
g112
asbasbasbag69
(g85
g71
NtRp4017
(dp4018
g74
(dp4019
sg83
g3988
sg76
(lp4020
g69
(g90
g71
NtRp4021
(dp4022
g74
(dp4023
sg83
g4017
sg76
(lp4024
g69
(g70
g71
NtRp4025
(dp4026
g74
(dp4027
g82
I3
ssg83
g4021
sg76
(lp4028
S'/rosan/default/nuevaFactura'
p4029
asbasbasbag69
(g85
g71
NtRp4030
(dp4031
g74
(dp4032
sg83
g3988
sg76
(lp4033
g69
(g90
g71
NtRp4034
(dp4035
g74
(dp4036
sg83
g4030
sg76
(lp4037
g69
(g70
g71
NtRp4038
(dp4039
g74
(dp4040
g82
I3
ssg83
g4034
sg76
(lp4041
g69
(g78
g71
NtRp4042
(dp4043
g74
(dp4044
g82
I2
ssg83
Nsg76
(lp4045
sbasbasbasbasbasbasbasbag69
(g85
g71
NtRp4046
(dp4047
g74
(dp4048
sg83
g3831
sg76
(lp4049
g69
(g90
g71
NtRp4050
(dp4051
g74
(dp4052
sg83
g4046
sg76
(lp4053
g69
(g70
g71
NtRp4054
(dp4055
g74
(dp4056
g82
I4
ssg83
g4050
sg76
(lp4057
g69
(g78
g71
NtRp4058
(dp4059
g74
(dp4060
g82
I3
ssg83
Nsg76
(lp4061
g69
(g85
g71
NtRp4062
(dp4063
g74
(dp4064
sg83
g4058
sg76
(lp4065
g69
(g90
g71
NtRp4066
(dp4067
g74
(dp4068
sg83
g4062
sg76
(lp4069
g69
(g70
g71
NtRp4070
(dp4071
g74
(dp4072
g82
I3
ssg83
g4066
sg76
(lp4073
g3863
(S's\x0c\x00\x00\x00Presupuestos'
tRp4074
asbasbasbag69
(g85
g71
NtRp4075
(dp4076
g74
(dp4077
sg83
g4058
sg76
(lp4078
g69
(g90
g71
NtRp4079
(dp4080
g74
(dp4081
sg83
g4075
sg76
(lp4082
g69
(g70
g71
NtRp4083
(dp4084
g74
(dp4085
g82
I3
ssg83
g4079
sg76
(lp4086
g112
asbasbasbag69
(g85
g71
NtRp4087
(dp4088
g74
(dp4089
sg83
g4058
sg76
(lp4090
g69
(g90
g71
NtRp4091
(dp4092
g74
(dp4093
sg83
g4087
sg76
(lp4094
g69
(g70
g71
NtRp4095
(dp4096
g74
(dp4097
g82
I3
ssg83
g4091
sg76
(lp4098
S'/rosan/default/nuevoPresupuesto'
p4099
asbasbasbag69
(g85
g71
NtRp4100
(dp4101
g74
(dp4102
sg83
g4058
sg76
(lp4103
g69
(g90
g71
NtRp4104
(dp4105
g74
(dp4106
sg83
g4100
sg76
(lp4107
g69
(g70
g71
NtRp4108
(dp4109
g74
(dp4110
g82
I3
ssg83
g4104
sg76
(lp4111
g69
(g78
g71
NtRp4112
(dp4113
g74
(dp4114
g82
I2
ssg83
Nsg76
(lp4115
sbasbasbasbasbasbasbasbasbasbasbasbag69
(g85
g71
NtRp4116
(dp4117
g74
(dp4118
sg83
g3395
sg76
(lp4119
g69
(g90
g71
NtRp4120
(dp4121
g74
(dp4122
g94
g95
ssg83
g4116
sg76
(lp4123
S'meta'
p4124
asbag69
(g90
g71
NtRp4125
(dp4126
g74
(dp4127
g101
g102
ssg83
g4116
sg76
(lp4128
S':'
asbag69
(g90
g71
NtRp4129
(dp4130
g74
(dp4131
sg83
g4116
sg76
(lp4132
g69
(g70
g71
NtRp4133
(dp4134
g74
(dp4135
g82
I5
ssg83
g4129
sg76
(lp4136
g69
(g78
g71
NtRp4137
(dp4138
g74
(dp4139
g82
I4
ssg83
Nsg76
(lp4140
g69
(g85
g71
NtRp4141
(dp4142
g74
(dp4143
sg83
g4137
sg76
(lp4144
g69
(g90
g71
NtRp4145
(dp4146
g74
(dp4147
g94
g95
ssg83
g4141
sg76
(lp4148
S'author'
p4149
asbag69
(g90
g71
NtRp4150
(dp4151
g74
(dp4152
g101
g102
ssg83
g4141
sg76
(lp4153
S':'
asbag69
(g90
g71
NtRp4154
(dp4155
g74
(dp4156
sg83
g4141
sg76
(lp4157
g69
(g70
g71
NtRp4158
(dp4159
g74
(dp4160
g82
I4
ssg83
g4154
sg76
(lp4161
S'@trukise <trukise@gmail.com>'
p4162
asbasbasbag69
(g85
g71
NtRp4163
(dp4164
g74
(dp4165
sg83
g4137
sg76
(lp4166
g69
(g90
g71
NtRp4167
(dp4168
g74
(dp4169
g94
g95
ssg83
g4163
sg76
(lp4170
S'description'
p4171
asbag69
(g90
g71
NtRp4172
(dp4173
g74
(dp4174
g101
g102
ssg83
g4163
sg76
(lp4175
S':'
asbag69
(g90
g71
NtRp4176
(dp4177
g74
(dp4178
sg83
g4163
sg76
(lp4179
g69
(g70
g71
NtRp4180
(dp4181
g74
(dp4182
g82
I4
ssg83
g4176
sg76
(lp4183
S'Gesti\xc3\xb3n intengral de Fontaner\xc3\xada Rosa y S\xc3\xa1nchez'
p4184
asbasbasbag69
(g85
g71
NtRp4185
(dp4186
g74
(dp4187
sg83
g4137
sg76
(lp4188
g69
(g90
g71
NtRp4189
(dp4190
g74
(dp4191
g94
g95
ssg83
g4185
sg76
(lp4192
S'keywords'
p4193
asbag69
(g90
g71
NtRp4194
(dp4195
g74
(dp4196
g101
g102
ssg83
g4185
sg76
(lp4197
S':'
asbag69
(g90
g71
NtRp4198
(dp4199
g74
(dp4200
sg83
g4185
sg76
(lp4201
g69
(g70
g71
NtRp4202
(dp4203
g74
(dp4204
g82
I4
ssg83
g4198
sg76
(lp4205
S'Rosan, facturacion'
p4206
asbasbasbasbasbasbasbag69
(g85
g71
NtRp4207
(dp4208
g74
(dp4209
sg83
g3395
sg76
(lp4210
g69
(g90
g71
NtRp4211
(dp4212
g74
(dp4213
g94
g95
ssg83
g4207
sg76
(lp4214
S'models_to_run'
p4215
asbag69
(g90
g71
NtRp4216
(dp4217
g74
(dp4218
g101
g102
ssg83
g4207
sg76
(lp4219
S':'
asbag69
(g90
g71
NtRp4220
(dp4221
g74
(dp4222
sg83
g4207
sg76
(lp4223
g69
(g70
g71
NtRp4224
(dp4225
g74
(dp4226
g82
I5
ssg83
g4220
sg76
(lp4227
g69
(g78
g71
NtRp4228
(dp4229
g74
(dp4230
g82
I4
ssg83
Nsg76
(lp4231
g69
(g85
g71
NtRp4232
(dp4233
g74
(dp4234
sg83
g4228
sg76
(lp4235
g69
(g90
g71
NtRp4236
(dp4237
g74
(dp4238
sg83
g4232
sg76
(lp4239
g69
(g70
g71
NtRp4240
(dp4241
g74
(dp4242
g82
I4
ssg83
g4236
sg76
(lp4243
S'^\\w+\\.py$'
p4244
asbasbasbag69
(g85
g71
NtRp4245
(dp4246
g74
(dp4247
sg83
g4228
sg76
(lp4248
g69
(g90
g71
NtRp4249
(dp4250
g74
(dp4251
sg83
g4245
sg76
(lp4252
g69
(g70
g71
NtRp4253
(dp4254
g74
(dp4255
g82
I4
ssg83
g4249
sg76
(lp4256
S'^facturas/\\w+\\.py$'
p4257
asbasbasbag69
(g85
g71
NtRp4258
(dp4259
g74
(dp4260
sg83
g4228
sg76
(lp4261
g69
(g90
g71
NtRp4262
(dp4263
g74
(dp4264
sg83
g4258
sg76
(lp4265
g69
(g70
g71
NtRp4266
(dp4267
g74
(dp4268
g82
I4
ssg83
g4262
sg76
(lp4269
S'^facturas/detalleFactura/\\w+\\.py$'
p4270
asbasbasbasbasbasbasbag69
(g85
g71
NtRp4271
(dp4272
g74
(dp4273
sg83
g3395
sg76
(lp4274
g69
(g90
g71
NtRp4275
(dp4276
g74
(dp4277
g94
g95
ssg83
g4271
sg76
(lp4278
S'postprocessing'
p4279
asbag69
(g90
g71
NtRp4280
(dp4281
g74
(dp4282
g101
g102
ssg83
g4271
sg76
(lp4283
S':'
asbag69
(g90
g71
NtRp4284
(dp4285
g74
(dp4286
sg83
g4271
sg76
(lp4287
g69
(g70
g71
NtRp4288
(dp4289
g74
(dp4290
g82
I5
ssg83
g4284
sg76
(lp4291
g69
(g78
g71
NtRp4292
(dp4293
g74
(dp4294
g82
I4
ssg83
Nsg76
(lp4295
sbasbasbasbag69
(g85
g71
NtRp4296
(dp4297
g74
(dp4298
sg83
g3395
sg76
(lp4299
g69
(g90
g71
NtRp4300
(dp4301
g74
(dp4302
g94
g95
ssg83
g4296
sg76
(lp4303
S'session_cookie_expires'
p4304
asbag69
(g90
g71
NtRp4305
(dp4306
g74
(dp4307
g101
g102
ssg83
g4296
sg76
(lp4308
S':'
asbag69
(g90
g71
NtRp4309
(dp4310
g74
(dp4311
sg83
g4296
sg76
(lp4312
g69
(g70
g71
NtRp4313
(dp4314
g74
(dp4315
g82
I5
ssg83
g4309
sg76
(lp4316
S'None'
p4317
asbasbasbag69
(g85
g71
NtRp4318
(dp4319
g74
(dp4320
sg83
g3395
sg76
(lp4321
g69
(g90
g71
NtRp4322
(dp4323
g74
(dp4324
g94
g95
ssg83
g4318
sg76
(lp4325
S'session_data_name'
p4326
asbag69
(g90
g71
NtRp4327
(dp4328
g74
(dp4329
g101
g102
ssg83
g4318
sg76
(lp4330
S':'
asbag69
(g90
g71
NtRp4331
(dp4332
g74
(dp4333
sg83
g4318
sg76
(lp4334
g69
(g70
g71
NtRp4335
(dp4336
g74
(dp4337
g82
I5
ssg83
g4331
sg76
(lp4338
S'session_data_rosan'
p4339
asbasbasbag69
(g85
g71
NtRp4340
(dp4341
g74
(dp4342
sg83
g3395
sg76
(lp4343
g69
(g90
g71
NtRp4344
(dp4345
g74
(dp4346
g94
g95
ssg83
g4340
sg76
(lp4347
S'session_file'
p4348
asbag69
(g90
g71
NtRp4349
(dp4350
g74
(dp4351
g101
g102
ssg83
g4340
sg76
(lp4352
S':'
asbag69
(g90
g71
NtRp4353
(dp4354
g74
(dp4355
sg83
g4340
sg76
(lp4356
g69
(g70
g71
NtRp4357
(dp4358
g74
(dp4359
g82
I5
ssg83
g4353
sg76
(lp4360
S"<open file '/Users/Truki/Desarrollo/web2py/applications/rosan/sessions/127.0.0.1-883cce21-7f68-4212-9cb5-c194bf38a2ff', mode 'rb+' at 0x10c330540>"
p4361
asbasbasbag69
(g85
g71
NtRp4362
(dp4363
g74
(dp4364
sg83
g3395
sg76
(lp4365
g69
(g90
g71
NtRp4366
(dp4367
g74
(dp4368
g94
g95
ssg83
g4362
sg76
(lp4369
S'session_filename'
p4370
asbag69
(g90
g71
NtRp4371
(dp4372
g74
(dp4373
g101
g102
ssg83
g4362
sg76
(lp4374
S':'
asbag69
(g90
g71
NtRp4375
(dp4376
g74
(dp4377
sg83
g4362
sg76
(lp4378
g69
(g70
g71
NtRp4379
(dp4380
g74
(dp4381
g82
I5
ssg83
g4375
sg76
(lp4382
S'/Users/Truki/Desarrollo/web2py/applications/rosan/sessions/127.0.0.1-883cce21-7f68-4212-9cb5-c194bf38a2ff'
p4383
asbasbasbag69
(g85
g71
NtRp4384
(dp4385
g74
(dp4386
sg83
g3395
sg76
(lp4387
g69
(g90
g71
NtRp4388
(dp4389
g74
(dp4390
g94
g95
ssg83
g4384
sg76
(lp4391
S'session_id'
p4392
asbag69
(g90
g71
NtRp4393
(dp4394
g74
(dp4395
g101
g102
ssg83
g4384
sg76
(lp4396
S':'
asbag69
(g90
g71
NtRp4397
(dp4398
g74
(dp4399
sg83
g4384
sg76
(lp4400
g69
(g70
g71
NtRp4401
(dp4402
g74
(dp4403
g82
I5
ssg83
g4397
sg76
(lp4404
g487
asbasbasbag69
(g85
g71
NtRp4405
(dp4406
g74
(dp4407
sg83
g3395
sg76
(lp4408
g69
(g90
g71
NtRp4409
(dp4410
g74
(dp4411
g94
g95
ssg83
g4405
sg76
(lp4412
S'session_id_name'
p4413
asbag69
(g90
g71
NtRp4414
(dp4415
g74
(dp4416
g101
g102
ssg83
g4405
sg76
(lp4417
S':'
asbag69
(g90
g71
NtRp4418
(dp4419
g74
(dp4420
sg83
g4405
sg76
(lp4421
g69
(g70
g71
NtRp4422
(dp4423
g74
(dp4424
g82
I5
ssg83
g4418
sg76
(lp4425
g3452
asbasbasbag69
(g85
g71
NtRp4426
(dp4427
g74
(dp4428
sg83
g3395
sg76
(lp4429
g69
(g90
g71
NtRp4430
(dp4431
g74
(dp4432
g94
g95
ssg83
g4426
sg76
(lp4433
S'session_locked'
p4434
asbag69
(g90
g71
NtRp4435
(dp4436
g74
(dp4437
g101
g102
ssg83
g4426
sg76
(lp4438
S':'
asbag69
(g90
g71
NtRp4439
(dp4440
g74
(dp4441
sg83
g4426
sg76
(lp4442
g69
(g70
g71
NtRp4443
(dp4444
g74
(dp4445
g82
I5
ssg83
g4439
sg76
(lp4446
g1816
asbasbasbag69
(g85
g71
NtRp4447
(dp4448
g74
(dp4449
sg83
g3395
sg76
(lp4450
g69
(g90
g71
NtRp4451
(dp4452
g74
(dp4453
g94
g95
ssg83
g4447
sg76
(lp4454
S'session_new'
p4455
asbag69
(g90
g71
NtRp4456
(dp4457
g74
(dp4458
g101
g102
ssg83
g4447
sg76
(lp4459
S':'
asbag69
(g90
g71
NtRp4460
(dp4461
g74
(dp4462
sg83
g4447
sg76
(lp4463
g69
(g70
g71
NtRp4464
(dp4465
g74
(dp4466
g82
I5
ssg83
g4460
sg76
(lp4467
g112
asbasbasbag69
(g85
g71
NtRp4468
(dp4469
g74
(dp4470
sg83
g3395
sg76
(lp4471
g69
(g90
g71
NtRp4472
(dp4473
g74
(dp4474
g94
g95
ssg83
g4468
sg76
(lp4475
S'session_storage_type'
p4476
asbag69
(g90
g71
NtRp4477
(dp4478
g74
(dp4479
g101
g102
ssg83
g4468
sg76
(lp4480
S':'
asbag69
(g90
g71
NtRp4481
(dp4482
g74
(dp4483
sg83
g4468
sg76
(lp4484
g69
(g70
g71
NtRp4485
(dp4486
g74
(dp4487
g82
I5
ssg83
g4481
sg76
(lp4488
g3280
asbasbasbag69
(g85
g71
NtRp4489
(dp4490
g74
(dp4491
sg83
g3395
sg76
(lp4492
g69
(g90
g71
NtRp4493
(dp4494
g74
(dp4495
g94
g95
ssg83
g4489
sg76
(lp4496
S'status'
p4497
asbag69
(g90
g71
NtRp4498
(dp4499
g74
(dp4500
g101
g102
ssg83
g4489
sg76
(lp4501
S':'
asbag69
(g90
g71
NtRp4502
(dp4503
g74
(dp4504
sg83
g4489
sg76
(lp4505
g69
(g70
g71
NtRp4506
(dp4507
g74
(dp4508
g82
I5
ssg83
g4502
sg76
(lp4509
S'200'
p4510
asbasbasbag69
(g85
g71
NtRp4511
(dp4512
g74
(dp4513
sg83
g3395
sg76
(lp4514
g69
(g90
g71
NtRp4515
(dp4516
g74
(dp4517
g94
g95
ssg83
g4511
sg76
(lp4518
S'subtitle'
p4519
asbag69
(g90
g71
NtRp4520
(dp4521
g74
(dp4522
g101
g102
ssg83
g4511
sg76
(lp4523
S':'
asbag69
(g90
g71
NtRp4524
(dp4525
g74
(dp4526
sg83
g4511
sg76
(lp4527
g69
(g70
g71
NtRp4528
(dp4529
g74
(dp4530
g82
I5
ssg83
g4524
sg76
(lp4531
S'by @trukise'
p4532
asbasbasbag69
(g85
g71
NtRp4533
(dp4534
g74
(dp4535
sg83
g3395
sg76
(lp4536
g69
(g90
g71
NtRp4537
(dp4538
g74
(dp4539
g94
g95
ssg83
g4533
sg76
(lp4540
S'title'
p4541
asbag69
(g90
g71
NtRp4542
(dp4543
g74
(dp4544
g101
g102
ssg83
g4533
sg76
(lp4545
S':'
asbag69
(g90
g71
NtRp4546
(dp4547
g74
(dp4548
sg83
g4533
sg76
(lp4549
g69
(g70
g71
NtRp4550
(dp4551
g74
(dp4552
g82
I5
ssg83
g4546
sg76
(lp4553
S'Rosan'
p4554
asbasbasbag69
(g85
g71
NtRp4555
(dp4556
g74
(dp4557
sg83
g3395
sg76
(lp4558
g69
(g90
g71
NtRp4559
(dp4560
g74
(dp4561
g94
g95
ssg83
g4555
sg76
(lp4562
S'view'
p4563
asbag69
(g90
g71
NtRp4564
(dp4565
g74
(dp4566
g101
g102
ssg83
g4555
sg76
(lp4567
S':'
asbag69
(g90
g71
NtRp4568
(dp4569
g74
(dp4570
sg83
g4555
sg76
(lp4571
g69
(g70
g71
NtRp4572
(dp4573
g74
(dp4574
g82
I5
ssg83
g4568
sg76
(lp4575
S'facturas/detalleFactura.html'
p4576
asbasbasbasbasbsS'locals'
p4577
(dp4578
g4
S"'/Users/Truki/Desarrollo/web2py/applications/rosan/views/facturas/detalleFactura.html'"
p4579
sg6
S'r"response.write(\'<!DOCTYPE html>\\n<!-- paulirish....ponse.write(\'\\n</body>\\n</html>\\n\', escape=False)"'
p4580
sssS'traceback'
p4581
S'Traceback (most recent call last):\n  File "/Users/Truki/Desarrollo/web2py/gluon/restricted.py", line 211, in restricted\n    ccode = compile2(code, layer)\n  File "/Users/Truki/Desarrollo/web2py/gluon/restricted.py", line 194, in compile2\n    return compile(code.rstrip().replace(\'\\r\\n\', \'\\n\') + \'\\n\', layer, \'exec\')\n  File "/Users/Truki/Desarrollo/web2py/applications/rosan/views/facturas/detalleFactura.html", line 48\n    for linea in lineas\n                      ^\nSyntaxError: invalid syntax\n'
p4582
s.