(dp1
S'output'
p2
S"<type 'exceptions.SyntaxError'> invalid syntax (nuevoCliente.html, line 42)"
p3
sS'layer'
p4
S'/Users/Truki/web2py/applications/rosan/views/clientes/nuevoCliente.html'
p5
sS'code'
p6
S'response.write(\'<!DOCTYPE html>\\n<!-- paulirish.com/2008/conditional-stylesheets-vs-css-hacks-answer-neither/ -->\\n<!--[if lt IE 7]><html class="ie ie6 ie-lte9 ie-lte8 ie-lte7 no-js" lang="\', escape=False)\nresponse.write(T.accepted_language or \'en\')\nresponse.write(\'"> <![endif]-->\\n<!--[if IE 7]><html class="ie ie7 ie-lte9 ie-lte8 ie-lte7 no-js" lang="\', escape=False)\nresponse.write(T.accepted_language or \'en\')\nresponse.write(\'"> <![endif]-->\\n<!--[if IE 8]><html class="ie ie8 ie-lte9 ie-lte8 no-js" lang="\', escape=False)\nresponse.write(T.accepted_language or \'en\')\nresponse.write(\'"> <![endif]-->\\n<!--[if IE 9]><html class="ie9 ie-lte9 no-js" lang="\', escape=False)\nresponse.write(T.accepted_language or \'en\')\nresponse.write(\'"> <![endif]-->\\n<!--[if (gt IE 9)|!(IE)]><!--> <html class="no-js" lang="\', escape=False)\nresponse.write(T.accepted_language or \'en\')\nresponse.write(\'"> <!--<![endif]-->\\n<head>\\n  <meta charset="utf-8" />\\n  <!-- www.phpied.com/conditional-comments-block-downloads/ -->\\n  <!-- Always force latest IE rendering engine\\n\\t   (even in intranet) & Chrome Frame\\n\\t   Remove this if you use the .htaccess -->\\n  <!--[if IE]>\\n    <meta http-equiv="X-UA-Compatible" content="IE=edge\', escape=False)\nresponse.write(not request.is_local and \',chrome=1\' or \'\')\nresponse.write(\'">\\n  <![endif]-->\\n  \\n  <title>\', escape=False)\nresponse.write(response.title or request.application)\nresponse.write(\'</title>\\n  \\n  <!-- http://dev.w3.org/html5/markup/meta.name.html -->\\n  <meta name="application-name" content="\', escape=False)\nresponse.write(request.application)\nresponse.write(\'" />\\n  \\n  <!-- Speaking of Google, don\\\'t forget to set your site up:\\n\\t   http://google.com/webmasters -->\\n  <meta name="google-site-verification" content="" />\\n\\n  <!--  Mobile Viewport Fix\\n\\t  j.mp/mobileviewport & davidbcalhoun.com/2010/viewport-metatag\\n\\t  device-width: Occupy full width of the screen in its current orientation\\n\\t  initial-scale = 1.0 retains dimensions instead of zooming out if page height > device height\\n\\t  user-scalable = yes allows the user to zoom in -->\\n  <meta name="viewport" content="width=device-width, initial-scale=1.0, user-scalable=yes">\\n  \\n  <!-- Place favicon.ico and apple-touch-icon.png in the root of your domain and delete these references -->\\n  <link rel="shortcut icon" href="\', escape=False)\nresponse.write(URL(\'static\',\'favicon.ico\'))\nresponse.write(\'" type="image/x-icon">\\n  <link rel="apple-touch-icon" href="\', escape=False)\nresponse.write(URL(\'static\',\'favicon.png\'))\nresponse.write(\'">\\n\\n  <!-- All JavaScript at the bottom, except for Modernizr which enables \\n\\t   HTML5 elements & feature detects -->\\n  <script src="\', escape=False)\nresponse.write(URL(\'static\',\'js/modernizr.custom.js\'))\nresponse.write(\'"></script>  \\n\\n  <!-- include stylesheets -->\\n  <link rel="stylesheet" href="\', escape=False)\nresponse.write(URL(\'static\',\'css/bootstrap.min.css\'))\nresponse.write(\'">\\n  <link rel="stylesheet" href="\', escape=False)\nresponse.write(URL(\'static\',\'css/bootstrap-responsive.min.css\'))\nresponse.write(\'">\\n  <link rel="stylesheet" href="\', escape=False)\nresponse.write(URL(\'static\',\'css/font-awesome.css\'))\nresponse.write(\'">\\n  <link rel="stylesheet" href="\', escape=False)\nresponse.write(URL(\'static\',\'css/base-admin.css\'))\nresponse.write(\'">\\n  <link rel="stylesheet" href="\', escape=False)\nresponse.write(URL(\'static\',\'css/base-admin-responsive.css\'))\nresponse.write(\'">\\n  <link rel="stylesheet" href="\', escape=False)\nresponse.write(URL(\'static\',\'css/pages/reports.css\'))\nresponse.write(\'">\\n  <link rel="stylesheet" href="\', escape=False)\nresponse.write(URL(\'static\',\'css/pages/signin.css\'))\nresponse.write(\'">\\n  <link rel="stylesheet" href="\', escape=False)\nresponse.write(URL(\'http://fonts.googleapis.com/css?family=Open+Sans:400italic,600italic,400,600\'))\nresponse.write(\'">\\n\\n \\n</head>\\n<body>\\n\\n    <div class="navbar navbar-fixed-top">\\n    \\n    <div class="navbar-inner">\\n      \\n      <div class="container">\\n        \\n        <a class="btn btn-navbar" data-toggle="collapse" data-target=".nav-collapse">\\n          <span class="icon-bar"></span>\\n          <span class="icon-bar"></span>\\n          <span class="icon-bar"></span>\\n        </a>\\n        \\n        <a class="brand" href="./">\\n          Rosan       \\n        </a>    \\n        \\n        <div class="nav-collapse">\\n          <ul class="nav pull-right">\\n            <li class="dropdown">\\n              \\n              <a href="#" class="dropdown-toggle" data-toggle="dropdown">\\n                <i class="icon-cog"></i>\\n                Settings\\n                <b class="caret"></b>\\n              </a>\\n              \\n              <ul class="dropdown-menu">\\n                <li><a href="javascript:;">Account Settings</a></li>\\n                <li><a href="javascript:;">Privacy Settings</a></li>\\n                <li class="divider"></li>\\n                <li><a href="javascript:;">Help</a></li>\\n              </ul>\\n              \\n            </li>\\n        \\n            <li class="dropdown">\\n              \\n              <a href="" class="dropdown-toggle" data-toggle="dropdown">\\n                <i class="icon-user"></i> \\n                Rod Howard\\n                <b class="caret"></b>\\n              </a>\\n              \\n              <ul class="dropdown-menu">\\n                <li><a href="javascript:;">My Profile</a></li>\\n                <li><a href="javascript:;">My Groups</a></li>\\n                <li class="divider"></li>\\n                <li><a href="javascript:;">Logout</a></li>\\n              </ul>\\n              \\n            </li>\\n          </ul>\\n        \\n          <form class="navbar-search pull-right">\\n            <input type="text" class="search-query" placeholder="Search">\\n          </form>\\n          \\n        </div><!--/.nav-collapse -->  \\n    \\n      </div> <!-- /container -->\\n      \\n    </div> <!-- /navbar-inner -->\\n    \\n  </div> <!-- /navbar -->\\n      \\n\\n\\n\\n      \\n  <div class="subnavbar">\\n\\n    <div class="subnavbar-inner">\\n    \\n      <div class="container">\\n\\n        <ul class="mainnav">\\n        \\n          <li>\\n            <a href="/rosan/default/frontend">\\n              <i class="icon-home"></i>\\n              <span>Home</span>\\n            </a>              \\n          </li>\\n          \\n          <li class="active">\\n            <a href="/rosan/clientes/index">\\n              <i class="icon-user"></i>\\n              <span>Clientes</span>\\n            </a>              \\n          </li>\\n          \\n          <li>\\n            <a href="/rosan/presupuestos/index">\\n              <i class="icon-edit"></i>\\n              <span>Presupuestos</span>\\n            </a>              \\n          </li>\\n          \\n          <li>\\n            <a href="/rosan/facturas/index">\\n              <i class="icon-check"></i>\\n              <span>Facturas</span>\\n            </a>              \\n          </li>\\n          \\n          <li>\\n            <a href="/rosan/articulos/index">\\n              <i class="icon-tags"></i>\\n              <span>Art\\xc3\\xadculos</span>\\n            </a>              \\n          </li>\\n\\n          <li>\\n            <a href="/rosan/contabilidad/index">\\n              <i class="icon-briefcase"></i>\\n              <span>C\\xc3\\xa1lculos contables</span>\\n            </a>              \\n          </li>\\n          \\n          <li class="dropdown">         \\n            <a class="dropdown-toggle" data-toggle="dropdown" href="#">\\n              <i class="icon-cog"></i>\\n              <span>Configuraci\\xc3\\xb3n</span>\\n              <b class="caret"></b>\\n            </a>  \\n          \\n            <ul class="dropdown-menu">\\n              <li><a href="./charts.html">Datos empresa</a></li>\\n              <li><a href="./account.html">Impuestos</a></li>\\n              <li class="divider"></li>\\n              <li><a href="./login.html">Cerrar sesi\\xc3\\xb3n</a></li>\\n            </ul>           \\n          </li>\\n        \\n        </ul>\\n\\n      </div> <!-- /container -->\\n    \\n    </div> <!-- /subnavbar-inner -->\\n\\n  </div> <!-- /subnavbar -->\\n    \\n    \', escape=False)\nresponse.write(\'\\n    \', escape=False)\nresponse.write(\'\\n<div class="main">\\n    <div class="main-inner">\\n        <div class="container">\\n        \\t<div class="row">\\n        \\t\\t<div class="span9">\\n        \\t\\t\\t\', escape=False)\nif =error != \'\':\n    response.write(\'\\n        \\t\\t\\t\\t<div class="alert alert-error">\\n        \\t\\t\\t\\t\\t<button type="button" class="close" data-dismiss="alert">x</button>\\n        \\t\\t\\t\\t\\t\', escape=False)\n    response.write(error)\n    response.write(\'\\n        \\t\\t\\t\\t</div>\\n        \\t\\t\\t\', escape=False)\nelif =info != \'\':\n    response.write(\'\\n        \\t\\t\\t\\t<div class="alert alert-info">\\n        \\t\\t\\t\\t\\t<button type="button" class="close" data-dismiss="alert">x</button>\\n        \\t\\t\\t\\t\\t\', escape=False)\n    response.write(info)\n    response.write(\'        \\t\\t\\t\\t\\t\\n        \\t\\t\\t\\t</div>\\n        \\t\\t\\t\', escape=False)\n    pass\nresponse.write(\'\\n\\t\\t\\t\\t\\t\', escape=False)\nresponse.write(form)\nresponse.write(\'\\n\\t\\t\\t\\t</div>\\n\\t\\t\\t</div>\\n\\t\\t</div>\\n\\t</div>\\n</div>\\t\\n\\n\', escape=False)\nresponse.write(\'\\n    \', escape=False)\nresponse.write(\'\\n    \\n    \\n    <script src="\', escape=False)\nresponse.write(URL(\'static\',\'js/jquery-1.7.2.min.js\'))\nresponse.write(\'"></script>  \\n    <script src="\', escape=False)\nresponse.write(URL(\'static\',\'js/signin.js\'))\nresponse.write(\'"></script>  \\n    <script src="\', escape=False)\nresponse.write(URL(\'static\',\'js/jexcanvas.min.js\'))\nresponse.write(\'"></script>  \\n    <script src="\', escape=False)\nresponse.write(URL(\'static\',\'js/bootstrap.js\'))\nresponse.write(\'"></script>  \\n    <script src="\', escape=False)\nresponse.write(URL(\'static\',\'js/base.js\'))\nresponse.write(\'"></script>  \\n\\n\\n  <div class="footer">\\n    <div class="footer-inner">\\n      <div class="container">\\n        <div class="row">\\n          <div class="span12">\\n            &copy; 2012 <a href="http://itrukise.tumblr.com">@trukise # Sergio S\\xc3\\xa1nchez Trujillo # </a>.\\n          </div> <!-- /span12 -->\\n          </div> <!-- /row -->\\n        </div> <!-- /container -->\\n    </div> <!-- /footer-inner -->\\n  </div> <!-- /footer -->\\n\\n  \', escape=False)\nif response.google_analytics_id:\n    response.write(\'<script type="text/javascript"> var _gaq = _gaq || []; _gaq.push([\\\'_setAccount\\\', \\\'\', escape=False)\n    response.write(response.google_analytics_id)\n    response.write("\']); _gaq.push([\'_trackPageview\']); (function() { var ga = document.createElement(\'script\'); ga.type = \'text/javascript\'; ga.async = true; ga.src = (\'https:\' == document.location.protocol ? \'https://ssl\' : \'http://www\') + \'.google-analytics.com/ga.js\'; var s = document.getElementsByTagName(\'script\')[0]; s.parentNode.insertBefore(ga, s); })(); </script> ", escape=False)\n    pass\nresponse.write(\'\\n</body>\\n</html>\\n\', escape=False)'
p7
sS'snapshot'
p8
(dp9
S'exception'
p10
(dp11
S'__getslice__'
p12
S"<method-wrapper '__getslice__' of exceptions.SyntaxError object>"
p13
sS'text'
p14
S'"if =error != \'\':\\n"'
p15
sS'__str__'
p16
S"<method-wrapper '__str__' of exceptions.SyntaxError object>"
p17
sS'__reduce__'
p18
S'<built-in method __reduce__ of exceptions.SyntaxError object>'
p19
sS'__dict__'
p20
S'{}'
p21
sS'__sizeof__'
p22
S'<built-in method __sizeof__ of exceptions.SyntaxError object>'
p23
sS'__init__'
p24
S"<method-wrapper '__init__' of exceptions.SyntaxError object>"
p25
sS'__setattr__'
p26
S"<method-wrapper '__setattr__' of exceptions.SyntaxError object>"
p27
sS'__reduce_ex__'
p28
S'<built-in method __reduce_ex__ of exceptions.SyntaxError object>'
p29
sS'__new__'
p30
S'<built-in method __new__ of type object>'
p31
sS'__format__'
p32
S'<built-in method __format__ of exceptions.SyntaxError object>'
p33
sS'__class__'
p34
S"<type 'exceptions.SyntaxError'>"
p35
sS'filename'
p36
S"'/Users/Truki/web2py/applications/rosan/views/clientes/nuevoCliente.html'"
p37
sS'lineno'
p38
S'42'
p39
sS'msg'
p40
S"'invalid syntax'"
p41
sS'__doc__'
p42
S"'Invalid syntax.'"
p43
sS'__getitem__'
p44
S"<method-wrapper '__getitem__' of exceptions.SyntaxError object>"
p45
sS'__setstate__'
p46
S'<built-in method __setstate__ of exceptions.SyntaxError object>'
p47
sS'__getattribute__'
p48
S"<method-wrapper '__getattribute__' of exceptions.SyntaxError object>"
p49
sS'print_file_and_line'
p50
S'None'
p51
sS'args'
p52
S'(\'invalid syntax\', (\'/Users/Truki/web2py/applications/rosan/views/clientes/nuevoCliente.html\', 42, 4, "if =error != \'\':\\n"))'
p53
sS'__subclasshook__'
p54
S'<built-in method __subclasshook__ of type object>'
p55
sS'offset'
p56
S'4'
sS'__unicode__'
p57
S'<built-in method __unicode__ of exceptions.SyntaxError object>'
p58
sS'__delattr__'
p59
S"<method-wrapper '__delattr__' of exceptions.SyntaxError object>"
p60
sS'__repr__'
p61
S"<method-wrapper '__repr__' of exceptions.SyntaxError object>"
p62
sS'__hash__'
p63
S"<method-wrapper '__hash__' of exceptions.SyntaxError object>"
p64
ssS'evalue'
p65
S'invalid syntax (nuevoCliente.html, line 42)'
p66
sS'request'
p67
ccopy_reg
_reconstructor
p68
(cgluon.html
BEAUTIFY
p69
c__builtin__
object
p70
NtRp71
(dp72
S'attributes'
p73
(dp74
sS'components'
p75
(lp76
g68
(cgluon.html
TABLE
p77
g70
NtRp78
(dp79
g73
(dp80
S'level'
p81
I5
ssS'parent'
p82
Nsg75
(lp83
g68
(cgluon.html
TR
p84
g70
NtRp85
(dp86
g73
(dp87
sg82
g78
sg75
(lp88
g68
(cgluon.html
TD
p89
g70
NtRp90
(dp91
g73
(dp92
S'_style'
p93
S'font-weight:bold;vertical-align:top'
p94
ssg82
g85
sg75
(lp95
S'ajax'
p96
asbag68
(g89
g70
NtRp97
(dp98
g73
(dp99
S'_valign'
p100
S'top'
p101
ssg82
g85
sg75
(lp102
S':'
asbag68
(g89
g70
NtRp103
(dp104
g73
(dp105
sg82
g85
sg75
(lp106
g68
(g69
g70
NtRp107
(dp108
g73
(dp109
g81
I5
ssg82
g103
sg75
(lp110
S'False'
p111
asbasbasbag68
(g84
g70
NtRp112
(dp113
g73
(dp114
sg82
g78
sg75
(lp115
g68
(g89
g70
NtRp116
(dp117
g73
(dp118
g93
g94
ssg82
g112
sg75
(lp119
S'application'
p120
asbag68
(g89
g70
NtRp121
(dp122
g73
(dp123
g100
g101
ssg82
g112
sg75
(lp124
S':'
asbag68
(g89
g70
NtRp125
(dp126
g73
(dp127
sg82
g112
sg75
(lp128
g68
(g69
g70
NtRp129
(dp130
g73
(dp131
g81
I5
ssg82
g125
sg75
(lp132
S'rosan'
p133
asbasbasbag68
(g84
g70
NtRp134
(dp135
g73
(dp136
sg82
g78
sg75
(lp137
g68
(g89
g70
NtRp138
(dp139
g73
(dp140
g93
g94
ssg82
g134
sg75
(lp141
g52
asbag68
(g89
g70
NtRp142
(dp143
g73
(dp144
g100
g101
ssg82
g134
sg75
(lp145
S':'
asbag68
(g89
g70
NtRp146
(dp147
g73
(dp148
sg82
g134
sg75
(lp149
g68
(g69
g70
NtRp150
(dp151
g73
(dp152
g81
I5
ssg82
g146
sg75
(lp153
g68
(g77
g70
NtRp154
(dp155
g73
(dp156
g81
I4
ssg82
Nsg75
(lp157
sbasbasbasbag68
(g84
g70
NtRp158
(dp159
g73
(dp160
sg82
g78
sg75
(lp161
g68
(g89
g70
NtRp162
(dp163
g73
(dp164
g93
g94
ssg82
g158
sg75
(lp165
S'body'
p166
asbag68
(g89
g70
NtRp167
(dp168
g73
(dp169
g100
g101
ssg82
g158
sg75
(lp170
S':'
asbag68
(g89
g70
NtRp171
(dp172
g73
(dp173
sg82
g158
sg75
(lp174
g68
(g69
g70
NtRp175
(dp176
g73
(dp177
g81
I5
ssg82
g171
sg75
(lp178
S'<cStringIO.StringO object at 0x189e1a40>'
p179
asbasbasbag68
(g84
g70
NtRp180
(dp181
g73
(dp182
sg82
g78
sg75
(lp183
g68
(g89
g70
NtRp184
(dp185
g73
(dp186
g93
g94
ssg82
g180
sg75
(lp187
S'cid'
p188
asbag68
(g89
g70
NtRp189
(dp190
g73
(dp191
g100
g101
ssg82
g180
sg75
(lp192
S':'
asbag68
(g89
g70
NtRp193
(dp194
g73
(dp195
sg82
g180
sg75
(lp196
g68
(g69
g70
NtRp197
(dp198
g73
(dp199
g81
I5
ssg82
g193
sg75
(lp200
S'None'
p201
asbasbasbag68
(g84
g70
NtRp202
(dp203
g73
(dp204
sg82
g78
sg75
(lp205
g68
(g89
g70
NtRp206
(dp207
g73
(dp208
g93
g94
ssg82
g202
sg75
(lp209
S'client'
p210
asbag68
(g89
g70
NtRp211
(dp212
g73
(dp213
g100
g101
ssg82
g202
sg75
(lp214
S':'
asbag68
(g89
g70
NtRp215
(dp216
g73
(dp217
sg82
g202
sg75
(lp218
g68
(g69
g70
NtRp219
(dp220
g73
(dp221
g81
I5
ssg82
g215
sg75
(lp222
S'127.0.0.1'
p223
asbasbasbag68
(g84
g70
NtRp224
(dp225
g73
(dp226
sg82
g78
sg75
(lp227
g68
(g89
g70
NtRp228
(dp229
g73
(dp230
g93
g94
ssg82
g224
sg75
(lp231
S'controller'
p232
asbag68
(g89
g70
NtRp233
(dp234
g73
(dp235
g100
g101
ssg82
g224
sg75
(lp236
S':'
asbag68
(g89
g70
NtRp237
(dp238
g73
(dp239
sg82
g224
sg75
(lp240
g68
(g69
g70
NtRp241
(dp242
g73
(dp243
g81
I5
ssg82
g237
sg75
(lp244
S'clientes'
p245
asbasbasbag68
(g84
g70
NtRp246
(dp247
g73
(dp248
sg82
g78
sg75
(lp249
g68
(g89
g70
NtRp250
(dp251
g73
(dp252
g93
g94
ssg82
g246
sg75
(lp253
S'cookies'
p254
asbag68
(g89
g70
NtRp255
(dp256
g73
(dp257
g100
g101
ssg82
g246
sg75
(lp258
S':'
asbag68
(g89
g70
NtRp259
(dp260
g73
(dp261
sg82
g246
sg75
(lp262
g68
(g69
g70
NtRp263
(dp264
g73
(dp265
g81
I5
ssg82
g259
sg75
(lp266
g68
(g77
g70
NtRp267
(dp268
g73
(dp269
g81
I4
ssg82
Nsg75
(lp270
g68
(g84
g70
NtRp271
(dp272
g73
(dp273
sg82
g267
sg75
(lp274
g68
(g89
g70
NtRp275
(dp276
g73
(dp277
g93
g94
ssg82
g271
sg75
(lp278
S'session_id_admin'
p279
asbag68
(g89
g70
NtRp280
(dp281
g73
(dp282
g100
g101
ssg82
g271
sg75
(lp283
S':'
asbag68
(g89
g70
NtRp284
(dp285
g73
(dp286
sg82
g271
sg75
(lp287
g68
(g69
g70
NtRp288
(dp289
g73
(dp290
g81
I4
ssg82
g284
sg75
(lp291
S'127.0.0.1-6e934a6a-b7eb-4d02-8ce3-00c38085d6eb'
p292
ag68
(g77
g70
NtRp293
(dp294
g73
(dp295
g81
I3
ssg82
Nsg75
(lp296
g68
(g84
g70
NtRp297
(dp298
g73
(dp299
sg82
g293
sg75
(lp300
g68
(g89
g70
NtRp301
(dp302
g73
(dp303
g93
g94
ssg82
g297
sg75
(lp304
S'comment'
p305
asbag68
(g89
g70
NtRp306
(dp307
g73
(dp308
g100
g101
ssg82
g297
sg75
(lp309
S':'
asbag68
(g89
g70
NtRp310
(dp311
g73
(dp312
sg82
g297
sg75
(lp313
g68
(g69
g70
NtRp314
(dp315
g73
(dp316
g81
I3
ssg82
g310
sg75
(lp317
S''
asbasbasbag68
(g84
g70
NtRp318
(dp319
g73
(dp320
sg82
g293
sg75
(lp321
g68
(g89
g70
NtRp322
(dp323
g73
(dp324
g93
g94
ssg82
g318
sg75
(lp325
S'domain'
p326
asbag68
(g89
g70
NtRp327
(dp328
g73
(dp329
g100
g101
ssg82
g318
sg75
(lp330
S':'
asbag68
(g89
g70
NtRp331
(dp332
g73
(dp333
sg82
g318
sg75
(lp334
g68
(g69
g70
NtRp335
(dp336
g73
(dp337
g81
I3
ssg82
g331
sg75
(lp338
S''
asbasbasbag68
(g84
g70
NtRp339
(dp340
g73
(dp341
sg82
g293
sg75
(lp342
g68
(g89
g70
NtRp343
(dp344
g73
(dp345
g93
g94
ssg82
g339
sg75
(lp346
S'expires'
p347
asbag68
(g89
g70
NtRp348
(dp349
g73
(dp350
g100
g101
ssg82
g339
sg75
(lp351
S':'
asbag68
(g89
g70
NtRp352
(dp353
g73
(dp354
sg82
g339
sg75
(lp355
g68
(g69
g70
NtRp356
(dp357
g73
(dp358
g81
I3
ssg82
g352
sg75
(lp359
S''
asbasbasbag68
(g84
g70
NtRp360
(dp361
g73
(dp362
sg82
g293
sg75
(lp363
g68
(g89
g70
NtRp364
(dp365
g73
(dp366
g93
g94
ssg82
g360
sg75
(lp367
S'httponly'
p368
asbag68
(g89
g70
NtRp369
(dp370
g73
(dp371
g100
g101
ssg82
g360
sg75
(lp372
S':'
asbag68
(g89
g70
NtRp373
(dp374
g73
(dp375
sg82
g360
sg75
(lp376
g68
(g69
g70
NtRp377
(dp378
g73
(dp379
g81
I3
ssg82
g373
sg75
(lp380
S''
asbasbasbag68
(g84
g70
NtRp381
(dp382
g73
(dp383
sg82
g293
sg75
(lp384
g68
(g89
g70
NtRp385
(dp386
g73
(dp387
g93
g94
ssg82
g381
sg75
(lp388
S'max-age'
p389
asbag68
(g89
g70
NtRp390
(dp391
g73
(dp392
g100
g101
ssg82
g381
sg75
(lp393
S':'
asbag68
(g89
g70
NtRp394
(dp395
g73
(dp396
sg82
g381
sg75
(lp397
g68
(g69
g70
NtRp398
(dp399
g73
(dp400
g81
I3
ssg82
g394
sg75
(lp401
S''
asbasbasbag68
(g84
g70
NtRp402
(dp403
g73
(dp404
sg82
g293
sg75
(lp405
g68
(g89
g70
NtRp406
(dp407
g73
(dp408
g93
g94
ssg82
g402
sg75
(lp409
S'path'
p410
asbag68
(g89
g70
NtRp411
(dp412
g73
(dp413
g100
g101
ssg82
g402
sg75
(lp414
S':'
asbag68
(g89
g70
NtRp415
(dp416
g73
(dp417
sg82
g402
sg75
(lp418
g68
(g69
g70
NtRp419
(dp420
g73
(dp421
g81
I3
ssg82
g415
sg75
(lp422
S''
asbasbasbag68
(g84
g70
NtRp423
(dp424
g73
(dp425
sg82
g293
sg75
(lp426
g68
(g89
g70
NtRp427
(dp428
g73
(dp429
g93
g94
ssg82
g423
sg75
(lp430
S'secure'
p431
asbag68
(g89
g70
NtRp432
(dp433
g73
(dp434
g100
g101
ssg82
g423
sg75
(lp435
S':'
asbag68
(g89
g70
NtRp436
(dp437
g73
(dp438
sg82
g423
sg75
(lp439
g68
(g69
g70
NtRp440
(dp441
g73
(dp442
g81
I3
ssg82
g436
sg75
(lp443
S''
asbasbasbag68
(g84
g70
NtRp444
(dp445
g73
(dp446
sg82
g293
sg75
(lp447
g68
(g89
g70
NtRp448
(dp449
g73
(dp450
g93
g94
ssg82
g444
sg75
(lp451
S'version'
p452
asbag68
(g89
g70
NtRp453
(dp454
g73
(dp455
g100
g101
ssg82
g444
sg75
(lp456
S':'
asbag68
(g89
g70
NtRp457
(dp458
g73
(dp459
sg82
g444
sg75
(lp460
g68
(g69
g70
NtRp461
(dp462
g73
(dp463
g81
I3
ssg82
g457
sg75
(lp464
S''
asbasbasbasbasbasbasbag68
(g84
g70
NtRp465
(dp466
g73
(dp467
sg82
g267
sg75
(lp468
g68
(g89
g70
NtRp469
(dp470
g73
(dp471
g93
g94
ssg82
g465
sg75
(lp472
S'session_id_rosan'
p473
asbag68
(g89
g70
NtRp474
(dp475
g73
(dp476
g100
g101
ssg82
g465
sg75
(lp477
S':'
asbag68
(g89
g70
NtRp478
(dp479
g73
(dp480
sg82
g465
sg75
(lp481
g68
(g69
g70
NtRp482
(dp483
g73
(dp484
g81
I4
ssg82
g478
sg75
(lp485
S'127.0.0.1-7f26bdf4-3ca9-4fdc-87e8-ce55bec35287'
p486
ag68
(g77
g70
NtRp487
(dp488
g73
(dp489
g81
I3
ssg82
Nsg75
(lp490
g68
(g84
g70
NtRp491
(dp492
g73
(dp493
sg82
g487
sg75
(lp494
g68
(g89
g70
NtRp495
(dp496
g73
(dp497
g93
g94
ssg82
g491
sg75
(lp498
g305
asbag68
(g89
g70
NtRp499
(dp500
g73
(dp501
g100
g101
ssg82
g491
sg75
(lp502
S':'
asbag68
(g89
g70
NtRp503
(dp504
g73
(dp505
sg82
g491
sg75
(lp506
g68
(g69
g70
NtRp507
(dp508
g73
(dp509
g81
I3
ssg82
g503
sg75
(lp510
S''
asbasbasbag68
(g84
g70
NtRp511
(dp512
g73
(dp513
sg82
g487
sg75
(lp514
g68
(g89
g70
NtRp515
(dp516
g73
(dp517
g93
g94
ssg82
g511
sg75
(lp518
g326
asbag68
(g89
g70
NtRp519
(dp520
g73
(dp521
g100
g101
ssg82
g511
sg75
(lp522
S':'
asbag68
(g89
g70
NtRp523
(dp524
g73
(dp525
sg82
g511
sg75
(lp526
g68
(g69
g70
NtRp527
(dp528
g73
(dp529
g81
I3
ssg82
g523
sg75
(lp530
S''
asbasbasbag68
(g84
g70
NtRp531
(dp532
g73
(dp533
sg82
g487
sg75
(lp534
g68
(g89
g70
NtRp535
(dp536
g73
(dp537
g93
g94
ssg82
g531
sg75
(lp538
g347
asbag68
(g89
g70
NtRp539
(dp540
g73
(dp541
g100
g101
ssg82
g531
sg75
(lp542
S':'
asbag68
(g89
g70
NtRp543
(dp544
g73
(dp545
sg82
g531
sg75
(lp546
g68
(g69
g70
NtRp547
(dp548
g73
(dp549
g81
I3
ssg82
g543
sg75
(lp550
S''
asbasbasbag68
(g84
g70
NtRp551
(dp552
g73
(dp553
sg82
g487
sg75
(lp554
g68
(g89
g70
NtRp555
(dp556
g73
(dp557
g93
g94
ssg82
g551
sg75
(lp558
g368
asbag68
(g89
g70
NtRp559
(dp560
g73
(dp561
g100
g101
ssg82
g551
sg75
(lp562
S':'
asbag68
(g89
g70
NtRp563
(dp564
g73
(dp565
sg82
g551
sg75
(lp566
g68
(g69
g70
NtRp567
(dp568
g73
(dp569
g81
I3
ssg82
g563
sg75
(lp570
S''
asbasbasbag68
(g84
g70
NtRp571
(dp572
g73
(dp573
sg82
g487
sg75
(lp574
g68
(g89
g70
NtRp575
(dp576
g73
(dp577
g93
g94
ssg82
g571
sg75
(lp578
g389
asbag68
(g89
g70
NtRp579
(dp580
g73
(dp581
g100
g101
ssg82
g571
sg75
(lp582
S':'
asbag68
(g89
g70
NtRp583
(dp584
g73
(dp585
sg82
g571
sg75
(lp586
g68
(g69
g70
NtRp587
(dp588
g73
(dp589
g81
I3
ssg82
g583
sg75
(lp590
S''
asbasbasbag68
(g84
g70
NtRp591
(dp592
g73
(dp593
sg82
g487
sg75
(lp594
g68
(g89
g70
NtRp595
(dp596
g73
(dp597
g93
g94
ssg82
g591
sg75
(lp598
g410
asbag68
(g89
g70
NtRp599
(dp600
g73
(dp601
g100
g101
ssg82
g591
sg75
(lp602
S':'
asbag68
(g89
g70
NtRp603
(dp604
g73
(dp605
sg82
g591
sg75
(lp606
g68
(g69
g70
NtRp607
(dp608
g73
(dp609
g81
I3
ssg82
g603
sg75
(lp610
S''
asbasbasbag68
(g84
g70
NtRp611
(dp612
g73
(dp613
sg82
g487
sg75
(lp614
g68
(g89
g70
NtRp615
(dp616
g73
(dp617
g93
g94
ssg82
g611
sg75
(lp618
g431
asbag68
(g89
g70
NtRp619
(dp620
g73
(dp621
g100
g101
ssg82
g611
sg75
(lp622
S':'
asbag68
(g89
g70
NtRp623
(dp624
g73
(dp625
sg82
g611
sg75
(lp626
g68
(g69
g70
NtRp627
(dp628
g73
(dp629
g81
I3
ssg82
g623
sg75
(lp630
S''
asbasbasbag68
(g84
g70
NtRp631
(dp632
g73
(dp633
sg82
g487
sg75
(lp634
g68
(g89
g70
NtRp635
(dp636
g73
(dp637
g93
g94
ssg82
g631
sg75
(lp638
g452
asbag68
(g89
g70
NtRp639
(dp640
g73
(dp641
g100
g101
ssg82
g631
sg75
(lp642
S':'
asbag68
(g89
g70
NtRp643
(dp644
g73
(dp645
sg82
g631
sg75
(lp646
g68
(g69
g70
NtRp647
(dp648
g73
(dp649
g81
I3
ssg82
g643
sg75
(lp650
S''
asbasbasbasbasbasbasbag68
(g84
g70
NtRp651
(dp652
g73
(dp653
sg82
g267
sg75
(lp654
g68
(g89
g70
NtRp655
(dp656
g73
(dp657
g93
g94
ssg82
g651
sg75
(lp658
S'session_id_welcome'
p659
asbag68
(g89
g70
NtRp660
(dp661
g73
(dp662
g100
g101
ssg82
g651
sg75
(lp663
S':'
asbag68
(g89
g70
NtRp664
(dp665
g73
(dp666
sg82
g651
sg75
(lp667
g68
(g69
g70
NtRp668
(dp669
g73
(dp670
g81
I4
ssg82
g664
sg75
(lp671
S'127.0.0.1-8f90e8a3-eddc-453c-854f-2f5c6c04811a'
p672
ag68
(g77
g70
NtRp673
(dp674
g73
(dp675
g81
I3
ssg82
Nsg75
(lp676
g68
(g84
g70
NtRp677
(dp678
g73
(dp679
sg82
g673
sg75
(lp680
g68
(g89
g70
NtRp681
(dp682
g73
(dp683
g93
g94
ssg82
g677
sg75
(lp684
g305
asbag68
(g89
g70
NtRp685
(dp686
g73
(dp687
g100
g101
ssg82
g677
sg75
(lp688
S':'
asbag68
(g89
g70
NtRp689
(dp690
g73
(dp691
sg82
g677
sg75
(lp692
g68
(g69
g70
NtRp693
(dp694
g73
(dp695
g81
I3
ssg82
g689
sg75
(lp696
S''
asbasbasbag68
(g84
g70
NtRp697
(dp698
g73
(dp699
sg82
g673
sg75
(lp700
g68
(g89
g70
NtRp701
(dp702
g73
(dp703
g93
g94
ssg82
g697
sg75
(lp704
g326
asbag68
(g89
g70
NtRp705
(dp706
g73
(dp707
g100
g101
ssg82
g697
sg75
(lp708
S':'
asbag68
(g89
g70
NtRp709
(dp710
g73
(dp711
sg82
g697
sg75
(lp712
g68
(g69
g70
NtRp713
(dp714
g73
(dp715
g81
I3
ssg82
g709
sg75
(lp716
S''
asbasbasbag68
(g84
g70
NtRp717
(dp718
g73
(dp719
sg82
g673
sg75
(lp720
g68
(g89
g70
NtRp721
(dp722
g73
(dp723
g93
g94
ssg82
g717
sg75
(lp724
g347
asbag68
(g89
g70
NtRp725
(dp726
g73
(dp727
g100
g101
ssg82
g717
sg75
(lp728
S':'
asbag68
(g89
g70
NtRp729
(dp730
g73
(dp731
sg82
g717
sg75
(lp732
g68
(g69
g70
NtRp733
(dp734
g73
(dp735
g81
I3
ssg82
g729
sg75
(lp736
S''
asbasbasbag68
(g84
g70
NtRp737
(dp738
g73
(dp739
sg82
g673
sg75
(lp740
g68
(g89
g70
NtRp741
(dp742
g73
(dp743
g93
g94
ssg82
g737
sg75
(lp744
g368
asbag68
(g89
g70
NtRp745
(dp746
g73
(dp747
g100
g101
ssg82
g737
sg75
(lp748
S':'
asbag68
(g89
g70
NtRp749
(dp750
g73
(dp751
sg82
g737
sg75
(lp752
g68
(g69
g70
NtRp753
(dp754
g73
(dp755
g81
I3
ssg82
g749
sg75
(lp756
S''
asbasbasbag68
(g84
g70
NtRp757
(dp758
g73
(dp759
sg82
g673
sg75
(lp760
g68
(g89
g70
NtRp761
(dp762
g73
(dp763
g93
g94
ssg82
g757
sg75
(lp764
g389
asbag68
(g89
g70
NtRp765
(dp766
g73
(dp767
g100
g101
ssg82
g757
sg75
(lp768
S':'
asbag68
(g89
g70
NtRp769
(dp770
g73
(dp771
sg82
g757
sg75
(lp772
g68
(g69
g70
NtRp773
(dp774
g73
(dp775
g81
I3
ssg82
g769
sg75
(lp776
S''
asbasbasbag68
(g84
g70
NtRp777
(dp778
g73
(dp779
sg82
g673
sg75
(lp780
g68
(g89
g70
NtRp781
(dp782
g73
(dp783
g93
g94
ssg82
g777
sg75
(lp784
g410
asbag68
(g89
g70
NtRp785
(dp786
g73
(dp787
g100
g101
ssg82
g777
sg75
(lp788
S':'
asbag68
(g89
g70
NtRp789
(dp790
g73
(dp791
sg82
g777
sg75
(lp792
g68
(g69
g70
NtRp793
(dp794
g73
(dp795
g81
I3
ssg82
g789
sg75
(lp796
S''
asbasbasbag68
(g84
g70
NtRp797
(dp798
g73
(dp799
sg82
g673
sg75
(lp800
g68
(g89
g70
NtRp801
(dp802
g73
(dp803
g93
g94
ssg82
g797
sg75
(lp804
g431
asbag68
(g89
g70
NtRp805
(dp806
g73
(dp807
g100
g101
ssg82
g797
sg75
(lp808
S':'
asbag68
(g89
g70
NtRp809
(dp810
g73
(dp811
sg82
g797
sg75
(lp812
g68
(g69
g70
NtRp813
(dp814
g73
(dp815
g81
I3
ssg82
g809
sg75
(lp816
S''
asbasbasbag68
(g84
g70
NtRp817
(dp818
g73
(dp819
sg82
g673
sg75
(lp820
g68
(g89
g70
NtRp821
(dp822
g73
(dp823
g93
g94
ssg82
g817
sg75
(lp824
g452
asbag68
(g89
g70
NtRp825
(dp826
g73
(dp827
g100
g101
ssg82
g817
sg75
(lp828
S':'
asbag68
(g89
g70
NtRp829
(dp830
g73
(dp831
sg82
g817
sg75
(lp832
g68
(g69
g70
NtRp833
(dp834
g73
(dp835
g81
I3
ssg82
g829
sg75
(lp836
S''
asbasbasbasbasbasbasbasbasbasbasbag68
(g84
g70
NtRp837
(dp838
g73
(dp839
sg82
g78
sg75
(lp840
g68
(g89
g70
NtRp841
(dp842
g73
(dp843
g93
g94
ssg82
g837
sg75
(lp844
S'env'
p845
asbag68
(g89
g70
NtRp846
(dp847
g73
(dp848
g100
g101
ssg82
g837
sg75
(lp849
S':'
asbag68
(g89
g70
NtRp850
(dp851
g73
(dp852
sg82
g837
sg75
(lp853
g68
(g69
g70
NtRp854
(dp855
g73
(dp856
g81
I5
ssg82
g850
sg75
(lp857
g68
(g77
g70
NtRp858
(dp859
g73
(dp860
g81
I4
ssg82
Nsg75
(lp861
g68
(g84
g70
NtRp862
(dp863
g73
(dp864
sg82
g858
sg75
(lp865
g68
(g89
g70
NtRp866
(dp867
g73
(dp868
g93
g94
ssg82
g862
sg75
(lp869
S'app_folders'
p870
asbag68
(g89
g70
NtRp871
(dp872
g73
(dp873
g100
g101
ssg82
g862
sg75
(lp874
S':'
asbag68
(g89
g70
NtRp875
(dp876
g73
(dp877
sg82
g862
sg75
(lp878
g68
(g69
g70
NtRp879
(dp880
g73
(dp881
g81
I4
ssg82
g875
sg75
(lp882
S"set(['/Users/Truki/web2py/applications/welcome/', '/Users/Truki/web2py/applications/admin/', '/Users/Truki/web2py/applications/rosan/'])"
p883
asbasbasbag68
(g84
g70
NtRp884
(dp885
g73
(dp886
sg82
g858
sg75
(lp887
g68
(g89
g70
NtRp888
(dp889
g73
(dp890
g93
g94
ssg82
g884
sg75
(lp891
S'applications_parent'
p892
asbag68
(g89
g70
NtRp893
(dp894
g73
(dp895
g100
g101
ssg82
g884
sg75
(lp896
S':'
asbag68
(g89
g70
NtRp897
(dp898
g73
(dp899
sg82
g884
sg75
(lp900
g68
(g69
g70
NtRp901
(dp902
g73
(dp903
g81
I4
ssg82
g897
sg75
(lp904
S'/Users/Truki/web2py'
p905
asbasbasbag68
(g84
g70
NtRp906
(dp907
g73
(dp908
sg82
g858
sg75
(lp909
g68
(g89
g70
NtRp910
(dp911
g73
(dp912
g93
g94
ssg82
g906
sg75
(lp913
S'cmd_args'
p914
asbag68
(g89
g70
NtRp915
(dp916
g73
(dp917
g100
g101
ssg82
g906
sg75
(lp918
S':'
asbag68
(g89
g70
NtRp919
(dp920
g73
(dp921
sg82
g906
sg75
(lp922
g68
(g69
g70
NtRp923
(dp924
g73
(dp925
g81
I4
ssg82
g919
sg75
(lp926
g68
(g77
g70
NtRp927
(dp928
g73
(dp929
g81
I3
ssg82
Nsg75
(lp930
sbasbasbasbag68
(g84
g70
NtRp931
(dp932
g73
(dp933
sg82
g858
sg75
(lp934
g68
(g89
g70
NtRp935
(dp936
g73
(dp937
g93
g94
ssg82
g931
sg75
(lp938
S'cmd_options'
p939
asbag68
(g89
g70
NtRp940
(dp941
g73
(dp942
g100
g101
ssg82
g931
sg75
(lp943
S':'
asbag68
(g89
g70
NtRp944
(dp945
g73
(dp946
sg82
g931
sg75
(lp947
g68
(g69
g70
NtRp948
(dp949
g73
(dp950
g81
I4
ssg82
g944
sg75
(lp951
S"<Values at 0x19b2418: {'verbose': False, 'ip': '127.0.0.1', 'with_scheduler': False, 'ips': ['192.168.1.33'], 'shutdown_timeout': 5, 'taskbar': False, 'port': 8000, 'maxthreads': None, 'softcron': False, 'server_name': 'MBT.local', 'bpython': False, 'nogui': False, 'pid_filename': 'httpserver.pid', 'extcron': False, 'runcron': False, 'run_system_tests': False, 'test': None, 'folder': '/Users/Truki/web2py', 'config': '', 'import_models': False, 'winservice': '', 'shell': None, 'run': '', 'log_filename': 'httpserver.log', 'debuglevel': 30, 'args': [''], 'socket_timeout': 5, 'ssl_ca_certificate': None, 'scheduler': None, 'profiler_filename': None, 'ssl_private_key': '', 'scheduler_groups': None, 'password': '<ask>', 'request_queue_size': 5, 'ssl_certificate': '', 'cronjob': False, 'numthreads': None, 'quiet': False, 'interfaces': None, 'minthreads': None, 'timeout': 10, 'plain': False, 'nobanner': False}>"
p952
asbasbasbag68
(g84
g70
NtRp953
(dp954
g73
(dp955
sg82
g858
sg75
(lp956
g68
(g89
g70
NtRp957
(dp958
g73
(dp959
g93
g94
ssg82
g953
sg75
(lp960
S'db_sessions'
p961
asbag68
(g89
g70
NtRp962
(dp963
g73
(dp964
g100
g101
ssg82
g953
sg75
(lp965
S':'
asbag68
(g89
g70
NtRp966
(dp967
g73
(dp968
sg82
g953
sg75
(lp969
g68
(g69
g70
NtRp970
(dp971
g73
(dp972
g81
I4
ssg82
g966
sg75
(lp973
S'set([])'
p974
asbasbasbag68
(g84
g70
NtRp975
(dp976
g73
(dp977
sg82
g858
sg75
(lp978
g68
(g89
g70
NtRp979
(dp980
g73
(dp981
g93
g94
ssg82
g975
sg75
(lp982
S'debugging'
p983
asbag68
(g89
g70
NtRp984
(dp985
g73
(dp986
g100
g101
ssg82
g975
sg75
(lp987
S':'
asbag68
(g89
g70
NtRp988
(dp989
g73
(dp990
sg82
g975
sg75
(lp991
g68
(g69
g70
NtRp992
(dp993
g73
(dp994
g81
I4
ssg82
g988
sg75
(lp995
g111
asbasbasbag68
(g84
g70
NtRp996
(dp997
g73
(dp998
sg82
g858
sg75
(lp999
g68
(g89
g70
NtRp1000
(dp1001
g73
(dp1002
g93
g94
ssg82
g996
sg75
(lp1003
S'gluon_parent'
p1004
asbag68
(g89
g70
NtRp1005
(dp1006
g73
(dp1007
g100
g101
ssg82
g996
sg75
(lp1008
S':'
asbag68
(g89
g70
NtRp1009
(dp1010
g73
(dp1011
sg82
g996
sg75
(lp1012
g68
(g69
g70
NtRp1013
(dp1014
g73
(dp1015
g81
I4
ssg82
g1009
sg75
(lp1016
S'/Users/Truki/web2py'
p1017
asbasbasbag68
(g84
g70
NtRp1018
(dp1019
g73
(dp1020
sg82
g858
sg75
(lp1021
g68
(g89
g70
NtRp1022
(dp1023
g73
(dp1024
g93
g94
ssg82
g1018
sg75
(lp1025
S'http_accept'
p1026
asbag68
(g89
g70
NtRp1027
(dp1028
g73
(dp1029
g100
g101
ssg82
g1018
sg75
(lp1030
S':'
asbag68
(g89
g70
NtRp1031
(dp1032
g73
(dp1033
sg82
g1018
sg75
(lp1034
g68
(g69
g70
NtRp1035
(dp1036
g73
(dp1037
g81
I4
ssg82
g1031
sg75
(lp1038
S'text/html,application/xhtml+xml,application/xml;q=0.9,*/*;q=0.8'
p1039
asbasbasbag68
(g84
g70
NtRp1040
(dp1041
g73
(dp1042
sg82
g858
sg75
(lp1043
g68
(g89
g70
NtRp1044
(dp1045
g73
(dp1046
g93
g94
ssg82
g1040
sg75
(lp1047
S'http_accept_charset'
p1048
asbag68
(g89
g70
NtRp1049
(dp1050
g73
(dp1051
g100
g101
ssg82
g1040
sg75
(lp1052
S':'
asbag68
(g89
g70
NtRp1053
(dp1054
g73
(dp1055
sg82
g1040
sg75
(lp1056
g68
(g69
g70
NtRp1057
(dp1058
g73
(dp1059
g81
I4
ssg82
g1053
sg75
(lp1060
S'ISO-8859-1,utf-8;q=0.7,*;q=0.3'
p1061
asbasbasbag68
(g84
g70
NtRp1062
(dp1063
g73
(dp1064
sg82
g858
sg75
(lp1065
g68
(g89
g70
NtRp1066
(dp1067
g73
(dp1068
g93
g94
ssg82
g1062
sg75
(lp1069
S'http_accept_encoding'
p1070
asbag68
(g89
g70
NtRp1071
(dp1072
g73
(dp1073
g100
g101
ssg82
g1062
sg75
(lp1074
S':'
asbag68
(g89
g70
NtRp1075
(dp1076
g73
(dp1077
sg82
g1062
sg75
(lp1078
g68
(g69
g70
NtRp1079
(dp1080
g73
(dp1081
g81
I4
ssg82
g1075
sg75
(lp1082
S'gzip,deflate,sdch'
p1083
asbasbasbag68
(g84
g70
NtRp1084
(dp1085
g73
(dp1086
sg82
g858
sg75
(lp1087
g68
(g89
g70
NtRp1088
(dp1089
g73
(dp1090
g93
g94
ssg82
g1084
sg75
(lp1091
S'http_accept_language'
p1092
asbag68
(g89
g70
NtRp1093
(dp1094
g73
(dp1095
g100
g101
ssg82
g1084
sg75
(lp1096
S':'
asbag68
(g89
g70
NtRp1097
(dp1098
g73
(dp1099
sg82
g1084
sg75
(lp1100
g68
(g69
g70
NtRp1101
(dp1102
g73
(dp1103
g81
I4
ssg82
g1097
sg75
(lp1104
S'es-ES,es;q=0.8'
p1105
asbasbasbag68
(g84
g70
NtRp1106
(dp1107
g73
(dp1108
sg82
g858
sg75
(lp1109
g68
(g89
g70
NtRp1110
(dp1111
g73
(dp1112
g93
g94
ssg82
g1106
sg75
(lp1113
S'http_connection'
p1114
asbag68
(g89
g70
NtRp1115
(dp1116
g73
(dp1117
g100
g101
ssg82
g1106
sg75
(lp1118
S':'
asbag68
(g89
g70
NtRp1119
(dp1120
g73
(dp1121
sg82
g1106
sg75
(lp1122
g68
(g69
g70
NtRp1123
(dp1124
g73
(dp1125
g81
I4
ssg82
g1119
sg75
(lp1126
S'keep-alive'
p1127
asbasbasbag68
(g84
g70
NtRp1128
(dp1129
g73
(dp1130
sg82
g858
sg75
(lp1131
g68
(g89
g70
NtRp1132
(dp1133
g73
(dp1134
g93
g94
ssg82
g1128
sg75
(lp1135
S'http_cookie'
p1136
asbag68
(g89
g70
NtRp1137
(dp1138
g73
(dp1139
g100
g101
ssg82
g1128
sg75
(lp1140
S':'
asbag68
(g89
g70
NtRp1141
(dp1142
g73
(dp1143
sg82
g1128
sg75
(lp1144
g68
(g69
g70
NtRp1145
(dp1146
g73
(dp1147
g81
I4
ssg82
g1141
sg75
(lp1148
S'session_id_welcome=127.0.0.1-8f90e8a3-eddc-453c-854f-2f5c6c04811a; session_id_admin=127.0.0.1-6e934a6a-b7eb-4d02-8ce3-00c38085d6eb; session_id_rosan=127.0.0.1-7f26bdf4-3ca9-4fdc-87e8-ce55bec35287'
p1149
asbasbasbag68
(g84
g70
NtRp1150
(dp1151
g73
(dp1152
sg82
g858
sg75
(lp1153
g68
(g89
g70
NtRp1154
(dp1155
g73
(dp1156
g93
g94
ssg82
g1150
sg75
(lp1157
S'http_host'
p1158
asbag68
(g89
g70
NtRp1159
(dp1160
g73
(dp1161
g100
g101
ssg82
g1150
sg75
(lp1162
S':'
asbag68
(g89
g70
NtRp1163
(dp1164
g73
(dp1165
sg82
g1150
sg75
(lp1166
g68
(g69
g70
NtRp1167
(dp1168
g73
(dp1169
g81
I4
ssg82
g1163
sg75
(lp1170
S'127.0.0.1:8000'
p1171
asbasbasbag68
(g84
g70
NtRp1172
(dp1173
g73
(dp1174
sg82
g858
sg75
(lp1175
g68
(g89
g70
NtRp1176
(dp1177
g73
(dp1178
g93
g94
ssg82
g1172
sg75
(lp1179
S'http_referer'
p1180
asbag68
(g89
g70
NtRp1181
(dp1182
g73
(dp1183
g100
g101
ssg82
g1172
sg75
(lp1184
S':'
asbag68
(g89
g70
NtRp1185
(dp1186
g73
(dp1187
sg82
g1172
sg75
(lp1188
g68
(g69
g70
NtRp1189
(dp1190
g73
(dp1191
g81
I4
ssg82
g1185
sg75
(lp1192
S'http://127.0.0.1:8000/rosan/clientes/index'
p1193
asbasbasbag68
(g84
g70
NtRp1194
(dp1195
g73
(dp1196
sg82
g858
sg75
(lp1197
g68
(g89
g70
NtRp1198
(dp1199
g73
(dp1200
g93
g94
ssg82
g1194
sg75
(lp1201
S'http_user_agent'
p1202
asbag68
(g89
g70
NtRp1203
(dp1204
g73
(dp1205
g100
g101
ssg82
g1194
sg75
(lp1206
S':'
asbag68
(g89
g70
NtRp1207
(dp1208
g73
(dp1209
sg82
g1194
sg75
(lp1210
g68
(g69
g70
NtRp1211
(dp1212
g73
(dp1213
g81
I4
ssg82
g1207
sg75
(lp1214
S'Mozilla/5.0 (Macintosh; Intel Mac OS X 10_6_6) AppleWebKit/537.17 (KHTML, like Gecko) Chrome/24.0.1312.52 Safari/537.17'
p1215
asbasbasbag68
(g84
g70
NtRp1216
(dp1217
g73
(dp1218
sg82
g858
sg75
(lp1219
g68
(g89
g70
NtRp1220
(dp1221
g73
(dp1222
g93
g94
ssg82
g1216
sg75
(lp1223
S'is_jython'
p1224
asbag68
(g89
g70
NtRp1225
(dp1226
g73
(dp1227
g100
g101
ssg82
g1216
sg75
(lp1228
S':'
asbag68
(g89
g70
NtRp1229
(dp1230
g73
(dp1231
sg82
g1216
sg75
(lp1232
g68
(g69
g70
NtRp1233
(dp1234
g73
(dp1235
g81
I4
ssg82
g1229
sg75
(lp1236
g111
asbasbasbag68
(g84
g70
NtRp1237
(dp1238
g73
(dp1239
sg82
g858
sg75
(lp1240
g68
(g89
g70
NtRp1241
(dp1242
g73
(dp1243
g93
g94
ssg82
g1237
sg75
(lp1244
S'is_pypy'
p1245
asbag68
(g89
g70
NtRp1246
(dp1247
g73
(dp1248
g100
g101
ssg82
g1237
sg75
(lp1249
S':'
asbag68
(g89
g70
NtRp1250
(dp1251
g73
(dp1252
sg82
g1237
sg75
(lp1253
g68
(g69
g70
NtRp1254
(dp1255
g73
(dp1256
g81
I4
ssg82
g1250
sg75
(lp1257
g111
asbasbasbag68
(g84
g70
NtRp1258
(dp1259
g73
(dp1260
sg82
g858
sg75
(lp1261
g68
(g89
g70
NtRp1262
(dp1263
g73
(dp1264
g93
g94
ssg82
g1258
sg75
(lp1265
S'local_hosts'
p1266
asbag68
(g89
g70
NtRp1267
(dp1268
g73
(dp1269
g100
g101
ssg82
g1258
sg75
(lp1270
S':'
asbag68
(g89
g70
NtRp1271
(dp1272
g73
(dp1273
sg82
g1258
sg75
(lp1274
g68
(g69
g70
NtRp1275
(dp1276
g73
(dp1277
g81
I4
ssg82
g1271
sg75
(lp1278
g68
(g77
g70
NtRp1279
(dp1280
g73
(dp1281
g81
I3
ssg82
Nsg75
(lp1282
g68
(g84
g70
NtRp1283
(dp1284
g73
(dp1285
sg82
g1279
sg75
(lp1286
g68
(g89
g70
NtRp1287
(dp1288
g73
(dp1289
sg82
g1283
sg75
(lp1290
g68
(g69
g70
NtRp1291
(dp1292
g73
(dp1293
g81
I3
ssg82
g1287
sg75
(lp1294
S'127.0.0.1'
p1295
asbasbasbag68
(g84
g70
NtRp1296
(dp1297
g73
(dp1298
sg82
g1279
sg75
(lp1299
g68
(g89
g70
NtRp1300
(dp1301
g73
(dp1302
sg82
g1296
sg75
(lp1303
g68
(g69
g70
NtRp1304
(dp1305
g73
(dp1306
g81
I3
ssg82
g1300
sg75
(lp1307
S'::ffff:127.0.0.1'
p1308
asbasbasbag68
(g84
g70
NtRp1309
(dp1310
g73
(dp1311
sg82
g1279
sg75
(lp1312
g68
(g89
g70
NtRp1313
(dp1314
g73
(dp1315
sg82
g1309
sg75
(lp1316
g68
(g69
g70
NtRp1317
(dp1318
g73
(dp1319
g81
I3
ssg82
g1313
sg75
(lp1320
S'MBT.local'
p1321
asbasbasbag68
(g84
g70
NtRp1322
(dp1323
g73
(dp1324
sg82
g1279
sg75
(lp1325
g68
(g89
g70
NtRp1326
(dp1327
g73
(dp1328
sg82
g1322
sg75
(lp1329
g68
(g69
g70
NtRp1330
(dp1331
g73
(dp1332
g81
I3
ssg82
g1326
sg75
(lp1333
S'MBT.local'
p1334
asbasbasbag68
(g84
g70
NtRp1335
(dp1336
g73
(dp1337
sg82
g1279
sg75
(lp1338
g68
(g89
g70
NtRp1339
(dp1340
g73
(dp1341
sg82
g1335
sg75
(lp1342
g68
(g69
g70
NtRp1343
(dp1344
g73
(dp1345
g81
I3
ssg82
g1339
sg75
(lp1346
S'192.168.1.33'
p1347
asbasbasbasbasbasbasbag68
(g84
g70
NtRp1348
(dp1349
g73
(dp1350
sg82
g858
sg75
(lp1351
g68
(g89
g70
NtRp1352
(dp1353
g73
(dp1354
g93
g94
ssg82
g1348
sg75
(lp1355
S'path_info'
p1356
asbag68
(g89
g70
NtRp1357
(dp1358
g73
(dp1359
g100
g101
ssg82
g1348
sg75
(lp1360
S':'
asbag68
(g89
g70
NtRp1361
(dp1362
g73
(dp1363
sg82
g1348
sg75
(lp1364
g68
(g69
g70
NtRp1365
(dp1366
g73
(dp1367
g81
I4
ssg82
g1361
sg75
(lp1368
S'/rosan/clientes/nuevoCliente'
p1369
asbasbasbag68
(g84
g70
NtRp1370
(dp1371
g73
(dp1372
sg82
g858
sg75
(lp1373
g68
(g89
g70
NtRp1374
(dp1375
g73
(dp1376
g93
g94
ssg82
g1370
sg75
(lp1377
S'query_string'
p1378
asbag68
(g89
g70
NtRp1379
(dp1380
g73
(dp1381
g100
g101
ssg82
g1370
sg75
(lp1382
S':'
asbag68
(g89
g70
NtRp1383
(dp1384
g73
(dp1385
sg82
g1370
sg75
(lp1386
g68
(g69
g70
NtRp1387
(dp1388
g73
(dp1389
g81
I4
ssg82
g1383
sg75
(lp1390
S''
asbasbasbag68
(g84
g70
NtRp1391
(dp1392
g73
(dp1393
sg82
g858
sg75
(lp1394
g68
(g89
g70
NtRp1395
(dp1396
g73
(dp1397
g93
g94
ssg82
g1391
sg75
(lp1398
S'remote_addr'
p1399
asbag68
(g89
g70
NtRp1400
(dp1401
g73
(dp1402
g100
g101
ssg82
g1391
sg75
(lp1403
S':'
asbag68
(g89
g70
NtRp1404
(dp1405
g73
(dp1406
sg82
g1391
sg75
(lp1407
g68
(g69
g70
NtRp1408
(dp1409
g73
(dp1410
g81
I4
ssg82
g1404
sg75
(lp1411
g223
asbasbasbag68
(g84
g70
NtRp1412
(dp1413
g73
(dp1414
sg82
g858
sg75
(lp1415
g68
(g89
g70
NtRp1416
(dp1417
g73
(dp1418
g93
g94
ssg82
g1412
sg75
(lp1419
S'remote_port'
p1420
asbag68
(g89
g70
NtRp1421
(dp1422
g73
(dp1423
g100
g101
ssg82
g1412
sg75
(lp1424
S':'
asbag68
(g89
g70
NtRp1425
(dp1426
g73
(dp1427
sg82
g1412
sg75
(lp1428
g68
(g69
g70
NtRp1429
(dp1430
g73
(dp1431
g81
I4
ssg82
g1425
sg75
(lp1432
S'50900'
p1433
asbasbasbag68
(g84
g70
NtRp1434
(dp1435
g73
(dp1436
sg82
g858
sg75
(lp1437
g68
(g89
g70
NtRp1438
(dp1439
g73
(dp1440
g93
g94
ssg82
g1434
sg75
(lp1441
S'request_method'
p1442
asbag68
(g89
g70
NtRp1443
(dp1444
g73
(dp1445
g100
g101
ssg82
g1434
sg75
(lp1446
S':'
asbag68
(g89
g70
NtRp1447
(dp1448
g73
(dp1449
sg82
g1434
sg75
(lp1450
g68
(g69
g70
NtRp1451
(dp1452
g73
(dp1453
g81
I4
ssg82
g1447
sg75
(lp1454
S'GET'
p1455
asbasbasbag68
(g84
g70
NtRp1456
(dp1457
g73
(dp1458
sg82
g858
sg75
(lp1459
g68
(g89
g70
NtRp1460
(dp1461
g73
(dp1462
g93
g94
ssg82
g1456
sg75
(lp1463
S'request_uri'
p1464
asbag68
(g89
g70
NtRp1465
(dp1466
g73
(dp1467
g100
g101
ssg82
g1456
sg75
(lp1468
S':'
asbag68
(g89
g70
NtRp1469
(dp1470
g73
(dp1471
sg82
g1456
sg75
(lp1472
g68
(g69
g70
NtRp1473
(dp1474
g73
(dp1475
g81
I4
ssg82
g1469
sg75
(lp1476
g1369
asbasbasbag68
(g84
g70
NtRp1477
(dp1478
g73
(dp1479
sg82
g858
sg75
(lp1480
g68
(g89
g70
NtRp1481
(dp1482
g73
(dp1483
g93
g94
ssg82
g1477
sg75
(lp1484
S'script_name'
p1485
asbag68
(g89
g70
NtRp1486
(dp1487
g73
(dp1488
g100
g101
ssg82
g1477
sg75
(lp1489
S':'
asbag68
(g89
g70
NtRp1490
(dp1491
g73
(dp1492
sg82
g1477
sg75
(lp1493
g68
(g69
g70
NtRp1494
(dp1495
g73
(dp1496
g81
I4
ssg82
g1490
sg75
(lp1497
S''
asbasbasbag68
(g84
g70
NtRp1498
(dp1499
g73
(dp1500
sg82
g858
sg75
(lp1501
g68
(g89
g70
NtRp1502
(dp1503
g73
(dp1504
g93
g94
ssg82
g1498
sg75
(lp1505
S'server_name'
p1506
asbag68
(g89
g70
NtRp1507
(dp1508
g73
(dp1509
g100
g101
ssg82
g1498
sg75
(lp1510
S':'
asbag68
(g89
g70
NtRp1511
(dp1512
g73
(dp1513
sg82
g1498
sg75
(lp1514
g68
(g69
g70
NtRp1515
(dp1516
g73
(dp1517
g81
I4
ssg82
g1511
sg75
(lp1518
g1334
asbasbasbag68
(g84
g70
NtRp1519
(dp1520
g73
(dp1521
sg82
g858
sg75
(lp1522
g68
(g89
g70
NtRp1523
(dp1524
g73
(dp1525
g93
g94
ssg82
g1519
sg75
(lp1526
S'server_port'
p1527
asbag68
(g89
g70
NtRp1528
(dp1529
g73
(dp1530
g100
g101
ssg82
g1519
sg75
(lp1531
S':'
asbag68
(g89
g70
NtRp1532
(dp1533
g73
(dp1534
sg82
g1519
sg75
(lp1535
g68
(g69
g70
NtRp1536
(dp1537
g73
(dp1538
g81
I4
ssg82
g1532
sg75
(lp1539
S'8000'
p1540
asbasbasbag68
(g84
g70
NtRp1541
(dp1542
g73
(dp1543
sg82
g858
sg75
(lp1544
g68
(g89
g70
NtRp1545
(dp1546
g73
(dp1547
g93
g94
ssg82
g1541
sg75
(lp1548
S'server_protocol'
p1549
asbag68
(g89
g70
NtRp1550
(dp1551
g73
(dp1552
g100
g101
ssg82
g1541
sg75
(lp1553
S':'
asbag68
(g89
g70
NtRp1554
(dp1555
g73
(dp1556
sg82
g1541
sg75
(lp1557
g68
(g69
g70
NtRp1558
(dp1559
g73
(dp1560
g81
I4
ssg82
g1554
sg75
(lp1561
S'HTTP/1.1'
p1562
asbasbasbag68
(g84
g70
NtRp1563
(dp1564
g73
(dp1565
sg82
g858
sg75
(lp1566
g68
(g89
g70
NtRp1567
(dp1568
g73
(dp1569
g93
g94
ssg82
g1563
sg75
(lp1570
S'server_software'
p1571
asbag68
(g89
g70
NtRp1572
(dp1573
g73
(dp1574
g100
g101
ssg82
g1563
sg75
(lp1575
S':'
asbag68
(g89
g70
NtRp1576
(dp1577
g73
(dp1578
sg82
g1563
sg75
(lp1579
g68
(g69
g70
NtRp1580
(dp1581
g73
(dp1582
g81
I4
ssg82
g1576
sg75
(lp1583
S'Rocket 1.2.5'
p1584
asbasbasbag68
(g84
g70
NtRp1585
(dp1586
g73
(dp1587
sg82
g858
sg75
(lp1588
g68
(g89
g70
NtRp1589
(dp1590
g73
(dp1591
g93
g94
ssg82
g1585
sg75
(lp1592
S'web2py_path'
p1593
asbag68
(g89
g70
NtRp1594
(dp1595
g73
(dp1596
g100
g101
ssg82
g1585
sg75
(lp1597
S':'
asbag68
(g89
g70
NtRp1598
(dp1599
g73
(dp1600
sg82
g1585
sg75
(lp1601
g68
(g69
g70
NtRp1602
(dp1603
g73
(dp1604
g81
I4
ssg82
g1598
sg75
(lp1605
g905
asbasbasbag68
(g84
g70
NtRp1606
(dp1607
g73
(dp1608
sg82
g858
sg75
(lp1609
g68
(g89
g70
NtRp1610
(dp1611
g73
(dp1612
g93
g94
ssg82
g1606
sg75
(lp1613
S'web2py_version'
p1614
asbag68
(g89
g70
NtRp1615
(dp1616
g73
(dp1617
g100
g101
ssg82
g1606
sg75
(lp1618
S':'
asbag68
(g89
g70
NtRp1619
(dp1620
g73
(dp1621
sg82
g1606
sg75
(lp1622
g68
(g69
g70
NtRp1623
(dp1624
g73
(dp1625
g81
I4
ssg82
g1619
sg75
(lp1626
g68
(g77
g70
NtRp1627
(dp1628
g73
(dp1629
g81
I3
ssg82
Nsg75
(lp1630
g68
(g84
g70
NtRp1631
(dp1632
g73
(dp1633
sg82
g1627
sg75
(lp1634
g68
(g89
g70
NtRp1635
(dp1636
g73
(dp1637
sg82
g1631
sg75
(lp1638
g68
(g69
g70
NtRp1639
(dp1640
g73
(dp1641
g81
I3
ssg82
g1635
sg75
(lp1642
S'2'
asbasbasbag68
(g84
g70
NtRp1643
(dp1644
g73
(dp1645
sg82
g1627
sg75
(lp1646
g68
(g89
g70
NtRp1647
(dp1648
g73
(dp1649
sg82
g1643
sg75
(lp1650
g68
(g69
g70
NtRp1651
(dp1652
g73
(dp1653
g81
I3
ssg82
g1647
sg75
(lp1654
S'2'
asbasbasbag68
(g84
g70
NtRp1655
(dp1656
g73
(dp1657
sg82
g1627
sg75
(lp1658
g68
(g89
g70
NtRp1659
(dp1660
g73
(dp1661
sg82
g1655
sg75
(lp1662
g68
(g69
g70
NtRp1663
(dp1664
g73
(dp1665
g81
I3
ssg82
g1659
sg75
(lp1666
S'1'
asbasbasbag68
(g84
g70
NtRp1667
(dp1668
g73
(dp1669
sg82
g1627
sg75
(lp1670
g68
(g89
g70
NtRp1671
(dp1672
g73
(dp1673
sg82
g1667
sg75
(lp1674
g68
(g69
g70
NtRp1675
(dp1676
g73
(dp1677
g81
I3
ssg82
g1671
sg75
(lp1678
S'datetime.datetime(2012, 10, 21, 16, 57, 4)'
p1679
asbasbasbag68
(g84
g70
NtRp1680
(dp1681
g73
(dp1682
sg82
g1627
sg75
(lp1683
g68
(g89
g70
NtRp1684
(dp1685
g73
(dp1686
sg82
g1680
sg75
(lp1687
g68
(g69
g70
NtRp1688
(dp1689
g73
(dp1690
g81
I3
ssg82
g1684
sg75
(lp1691
S'stable'
p1692
asbasbasbasbasbasbasbag68
(g84
g70
NtRp1693
(dp1694
g73
(dp1695
sg82
g858
sg75
(lp1696
g68
(g89
g70
NtRp1697
(dp1698
g73
(dp1699
g93
g94
ssg82
g1693
sg75
(lp1700
S'wsgi_errors'
p1701
asbag68
(g89
g70
NtRp1702
(dp1703
g73
(dp1704
g100
g101
ssg82
g1693
sg75
(lp1705
S':'
asbag68
(g89
g70
NtRp1706
(dp1707
g73
(dp1708
sg82
g1693
sg75
(lp1709
g68
(g69
g70
NtRp1710
(dp1711
g73
(dp1712
g81
I4
ssg82
g1706
sg75
(lp1713
S"<open file '<stderr>', mode 'w' at 0x25a0d0>"
p1714
asbasbasbag68
(g84
g70
NtRp1715
(dp1716
g73
(dp1717
sg82
g858
sg75
(lp1718
g68
(g89
g70
NtRp1719
(dp1720
g73
(dp1721
g93
g94
ssg82
g1715
sg75
(lp1722
S'wsgi_file_wrapper'
p1723
asbag68
(g89
g70
NtRp1724
(dp1725
g73
(dp1726
g100
g101
ssg82
g1715
sg75
(lp1727
S':'
asbag68
(g89
g70
NtRp1728
(dp1729
g73
(dp1730
sg82
g1715
sg75
(lp1731
g68
(g69
g70
NtRp1732
(dp1733
g73
(dp1734
g81
I4
ssg82
g1728
sg75
(lp1735
S'<class wsgiref.util.FileWrapper at 0x1968d50>'
p1736
asbasbasbag68
(g84
g70
NtRp1737
(dp1738
g73
(dp1739
sg82
g858
sg75
(lp1740
g68
(g89
g70
NtRp1741
(dp1742
g73
(dp1743
g93
g94
ssg82
g1737
sg75
(lp1744
S'wsgi_input'
p1745
asbag68
(g89
g70
NtRp1746
(dp1747
g73
(dp1748
g100
g101
ssg82
g1737
sg75
(lp1749
S':'
asbag68
(g89
g70
NtRp1750
(dp1751
g73
(dp1752
sg82
g1737
sg75
(lp1753
g68
(g69
g70
NtRp1754
(dp1755
g73
(dp1756
g81
I4
ssg82
g1750
sg75
(lp1757
S'<socket._fileobject object at 0x78e4f0>'
p1758
asbasbasbag68
(g84
g70
NtRp1759
(dp1760
g73
(dp1761
sg82
g858
sg75
(lp1762
g68
(g89
g70
NtRp1763
(dp1764
g73
(dp1765
g93
g94
ssg82
g1759
sg75
(lp1766
S'wsgi_multiprocess'
p1767
asbag68
(g89
g70
NtRp1768
(dp1769
g73
(dp1770
g100
g101
ssg82
g1759
sg75
(lp1771
S':'
asbag68
(g89
g70
NtRp1772
(dp1773
g73
(dp1774
sg82
g1759
sg75
(lp1775
g68
(g69
g70
NtRp1776
(dp1777
g73
(dp1778
g81
I4
ssg82
g1772
sg75
(lp1779
g111
asbasbasbag68
(g84
g70
NtRp1780
(dp1781
g73
(dp1782
sg82
g858
sg75
(lp1783
g68
(g89
g70
NtRp1784
(dp1785
g73
(dp1786
g93
g94
ssg82
g1780
sg75
(lp1787
S'wsgi_multithread'
p1788
asbag68
(g89
g70
NtRp1789
(dp1790
g73
(dp1791
g100
g101
ssg82
g1780
sg75
(lp1792
S':'
asbag68
(g89
g70
NtRp1793
(dp1794
g73
(dp1795
sg82
g1780
sg75
(lp1796
g68
(g69
g70
NtRp1797
(dp1798
g73
(dp1799
g81
I4
ssg82
g1793
sg75
(lp1800
S'True'
p1801
asbasbasbag68
(g84
g70
NtRp1802
(dp1803
g73
(dp1804
sg82
g858
sg75
(lp1805
g68
(g89
g70
NtRp1806
(dp1807
g73
(dp1808
g93
g94
ssg82
g1802
sg75
(lp1809
S'wsgi_run_once'
p1810
asbag68
(g89
g70
NtRp1811
(dp1812
g73
(dp1813
g100
g101
ssg82
g1802
sg75
(lp1814
S':'
asbag68
(g89
g70
NtRp1815
(dp1816
g73
(dp1817
sg82
g1802
sg75
(lp1818
g68
(g69
g70
NtRp1819
(dp1820
g73
(dp1821
g81
I4
ssg82
g1815
sg75
(lp1822
g111
asbasbasbag68
(g84
g70
NtRp1823
(dp1824
g73
(dp1825
sg82
g858
sg75
(lp1826
g68
(g89
g70
NtRp1827
(dp1828
g73
(dp1829
g93
g94
ssg82
g1823
sg75
(lp1830
S'wsgi_url_scheme'
p1831
asbag68
(g89
g70
NtRp1832
(dp1833
g73
(dp1834
g100
g101
ssg82
g1823
sg75
(lp1835
S':'
asbag68
(g89
g70
NtRp1836
(dp1837
g73
(dp1838
sg82
g1823
sg75
(lp1839
g68
(g69
g70
NtRp1840
(dp1841
g73
(dp1842
g81
I4
ssg82
g1836
sg75
(lp1843
S'http'
p1844
asbasbasbag68
(g84
g70
NtRp1845
(dp1846
g73
(dp1847
sg82
g858
sg75
(lp1848
g68
(g89
g70
NtRp1849
(dp1850
g73
(dp1851
g93
g94
ssg82
g1845
sg75
(lp1852
S'wsgi_version'
p1853
asbag68
(g89
g70
NtRp1854
(dp1855
g73
(dp1856
g100
g101
ssg82
g1845
sg75
(lp1857
S':'
asbag68
(g89
g70
NtRp1858
(dp1859
g73
(dp1860
sg82
g1845
sg75
(lp1861
g68
(g69
g70
NtRp1862
(dp1863
g73
(dp1864
g81
I4
ssg82
g1858
sg75
(lp1865
g68
(g77
g70
NtRp1866
(dp1867
g73
(dp1868
g81
I3
ssg82
Nsg75
(lp1869
g68
(g84
g70
NtRp1870
(dp1871
g73
(dp1872
sg82
g1866
sg75
(lp1873
g68
(g89
g70
NtRp1874
(dp1875
g73
(dp1876
sg82
g1870
sg75
(lp1877
g68
(g69
g70
NtRp1878
(dp1879
g73
(dp1880
g81
I3
ssg82
g1874
sg75
(lp1881
S'1'
asbasbasbag68
(g84
g70
NtRp1882
(dp1883
g73
(dp1884
sg82
g1866
sg75
(lp1885
g68
(g89
g70
NtRp1886
(dp1887
g73
(dp1888
sg82
g1882
sg75
(lp1889
g68
(g69
g70
NtRp1890
(dp1891
g73
(dp1892
g81
I3
ssg82
g1886
sg75
(lp1893
S'0'
asbasbasbasbasbasbasbasbasbasbasbag68
(g84
g70
NtRp1894
(dp1895
g73
(dp1896
sg82
g78
sg75
(lp1897
g68
(g89
g70
NtRp1898
(dp1899
g73
(dp1900
g93
g94
ssg82
g1894
sg75
(lp1901
S'extension'
p1902
asbag68
(g89
g70
NtRp1903
(dp1904
g73
(dp1905
g100
g101
ssg82
g1894
sg75
(lp1906
S':'
asbag68
(g89
g70
NtRp1907
(dp1908
g73
(dp1909
sg82
g1894
sg75
(lp1910
g68
(g69
g70
NtRp1911
(dp1912
g73
(dp1913
g81
I5
ssg82
g1907
sg75
(lp1914
S'html'
p1915
asbasbasbag68
(g84
g70
NtRp1916
(dp1917
g73
(dp1918
sg82
g78
sg75
(lp1919
g68
(g89
g70
NtRp1920
(dp1921
g73
(dp1922
g93
g94
ssg82
g1916
sg75
(lp1923
S'folder'
p1924
asbag68
(g89
g70
NtRp1925
(dp1926
g73
(dp1927
g100
g101
ssg82
g1916
sg75
(lp1928
S':'
asbag68
(g89
g70
NtRp1929
(dp1930
g73
(dp1931
sg82
g1916
sg75
(lp1932
g68
(g69
g70
NtRp1933
(dp1934
g73
(dp1935
g81
I5
ssg82
g1929
sg75
(lp1936
S'/Users/Truki/web2py/applications/rosan/'
p1937
asbasbasbag68
(g84
g70
NtRp1938
(dp1939
g73
(dp1940
sg82
g78
sg75
(lp1941
g68
(g89
g70
NtRp1942
(dp1943
g73
(dp1944
g93
g94
ssg82
g1938
sg75
(lp1945
S'function'
p1946
asbag68
(g89
g70
NtRp1947
(dp1948
g73
(dp1949
g100
g101
ssg82
g1938
sg75
(lp1950
S':'
asbag68
(g89
g70
NtRp1951
(dp1952
g73
(dp1953
sg82
g1938
sg75
(lp1954
g68
(g69
g70
NtRp1955
(dp1956
g73
(dp1957
g81
I5
ssg82
g1951
sg75
(lp1958
S'nuevoCliente'
p1959
asbasbasbag68
(g84
g70
NtRp1960
(dp1961
g73
(dp1962
sg82
g78
sg75
(lp1963
g68
(g89
g70
NtRp1964
(dp1965
g73
(dp1966
g93
g94
ssg82
g1960
sg75
(lp1967
S'get_vars'
p1968
asbag68
(g89
g70
NtRp1969
(dp1970
g73
(dp1971
g100
g101
ssg82
g1960
sg75
(lp1972
S':'
asbag68
(g89
g70
NtRp1973
(dp1974
g73
(dp1975
sg82
g1960
sg75
(lp1976
g68
(g69
g70
NtRp1977
(dp1978
g73
(dp1979
g81
I5
ssg82
g1973
sg75
(lp1980
g68
(g77
g70
NtRp1981
(dp1982
g73
(dp1983
g81
I4
ssg82
Nsg75
(lp1984
sbasbasbasbag68
(g84
g70
NtRp1985
(dp1986
g73
(dp1987
sg82
g78
sg75
(lp1988
g68
(g89
g70
NtRp1989
(dp1990
g73
(dp1991
g93
g94
ssg82
g1985
sg75
(lp1992
S'global_settings'
p1993
asbag68
(g89
g70
NtRp1994
(dp1995
g73
(dp1996
g100
g101
ssg82
g1985
sg75
(lp1997
S':'
asbag68
(g89
g70
NtRp1998
(dp1999
g73
(dp2000
sg82
g1985
sg75
(lp2001
g68
(g69
g70
NtRp2002
(dp2003
g73
(dp2004
g81
I5
ssg82
g1998
sg75
(lp2005
g68
(g77
g70
NtRp2006
(dp2007
g73
(dp2008
g81
I4
ssg82
Nsg75
(lp2009
g68
(g84
g70
NtRp2010
(dp2011
g73
(dp2012
sg82
g2006
sg75
(lp2013
g68
(g89
g70
NtRp2014
(dp2015
g73
(dp2016
g93
g94
ssg82
g2010
sg75
(lp2017
g870
asbag68
(g89
g70
NtRp2018
(dp2019
g73
(dp2020
g100
g101
ssg82
g2010
sg75
(lp2021
S':'
asbag68
(g89
g70
NtRp2022
(dp2023
g73
(dp2024
sg82
g2010
sg75
(lp2025
g68
(g69
g70
NtRp2026
(dp2027
g73
(dp2028
g81
I4
ssg82
g2022
sg75
(lp2029
S"set(['/Users/Truki/web2py/applications/welcome/', '/Users/Truki/web2py/applications/admin/', '/Users/Truki/web2py/applications/rosan/'])"
p2030
asbasbasbag68
(g84
g70
NtRp2031
(dp2032
g73
(dp2033
sg82
g2006
sg75
(lp2034
g68
(g89
g70
NtRp2035
(dp2036
g73
(dp2037
g93
g94
ssg82
g2031
sg75
(lp2038
g892
asbag68
(g89
g70
NtRp2039
(dp2040
g73
(dp2041
g100
g101
ssg82
g2031
sg75
(lp2042
S':'
asbag68
(g89
g70
NtRp2043
(dp2044
g73
(dp2045
sg82
g2031
sg75
(lp2046
g68
(g69
g70
NtRp2047
(dp2048
g73
(dp2049
g81
I4
ssg82
g2043
sg75
(lp2050
g905
asbasbasbag68
(g84
g70
NtRp2051
(dp2052
g73
(dp2053
sg82
g2006
sg75
(lp2054
g68
(g89
g70
NtRp2055
(dp2056
g73
(dp2057
g93
g94
ssg82
g2051
sg75
(lp2058
g914
asbag68
(g89
g70
NtRp2059
(dp2060
g73
(dp2061
g100
g101
ssg82
g2051
sg75
(lp2062
S':'
asbag68
(g89
g70
NtRp2063
(dp2064
g73
(dp2065
sg82
g2051
sg75
(lp2066
g68
(g69
g70
NtRp2067
(dp2068
g73
(dp2069
g81
I4
ssg82
g2063
sg75
(lp2070
g68
(g77
g70
NtRp2071
(dp2072
g73
(dp2073
g81
I3
ssg82
Nsg75
(lp2074
sbasbasbasbag68
(g84
g70
NtRp2075
(dp2076
g73
(dp2077
sg82
g2006
sg75
(lp2078
g68
(g89
g70
NtRp2079
(dp2080
g73
(dp2081
g93
g94
ssg82
g2075
sg75
(lp2082
g939
asbag68
(g89
g70
NtRp2083
(dp2084
g73
(dp2085
g100
g101
ssg82
g2075
sg75
(lp2086
S':'
asbag68
(g89
g70
NtRp2087
(dp2088
g73
(dp2089
sg82
g2075
sg75
(lp2090
g68
(g69
g70
NtRp2091
(dp2092
g73
(dp2093
g81
I4
ssg82
g2087
sg75
(lp2094
S"<Values at 0x19b2418: {'verbose': False, 'ip': '127.0.0.1', 'with_scheduler': False, 'ips': ['192.168.1.33'], 'shutdown_timeout': 5, 'taskbar': False, 'port': 8000, 'maxthreads': None, 'softcron': False, 'server_name': 'MBT.local', 'bpython': False, 'nogui': False, 'pid_filename': 'httpserver.pid', 'extcron': False, 'runcron': False, 'run_system_tests': False, 'test': None, 'folder': '/Users/Truki/web2py', 'config': '', 'import_models': False, 'winservice': '', 'shell': None, 'run': '', 'log_filename': 'httpserver.log', 'debuglevel': 30, 'args': [''], 'socket_timeout': 5, 'ssl_ca_certificate': None, 'scheduler': None, 'profiler_filename': None, 'ssl_private_key': '', 'scheduler_groups': None, 'password': '<ask>', 'request_queue_size': 5, 'ssl_certificate': '', 'cronjob': False, 'numthreads': None, 'quiet': False, 'interfaces': None, 'minthreads': None, 'timeout': 10, 'plain': False, 'nobanner': False}>"
p2095
asbasbasbag68
(g84
g70
NtRp2096
(dp2097
g73
(dp2098
sg82
g2006
sg75
(lp2099
g68
(g89
g70
NtRp2100
(dp2101
g73
(dp2102
g93
g94
ssg82
g2096
sg75
(lp2103
g961
asbag68
(g89
g70
NtRp2104
(dp2105
g73
(dp2106
g100
g101
ssg82
g2096
sg75
(lp2107
S':'
asbag68
(g89
g70
NtRp2108
(dp2109
g73
(dp2110
sg82
g2096
sg75
(lp2111
g68
(g69
g70
NtRp2112
(dp2113
g73
(dp2114
g81
I4
ssg82
g2108
sg75
(lp2115
S'set([])'
p2116
asbasbasbag68
(g84
g70
NtRp2117
(dp2118
g73
(dp2119
sg82
g2006
sg75
(lp2120
g68
(g89
g70
NtRp2121
(dp2122
g73
(dp2123
g93
g94
ssg82
g2117
sg75
(lp2124
g983
asbag68
(g89
g70
NtRp2125
(dp2126
g73
(dp2127
g100
g101
ssg82
g2117
sg75
(lp2128
S':'
asbag68
(g89
g70
NtRp2129
(dp2130
g73
(dp2131
sg82
g2117
sg75
(lp2132
g68
(g69
g70
NtRp2133
(dp2134
g73
(dp2135
g81
I4
ssg82
g2129
sg75
(lp2136
g111
asbasbasbag68
(g84
g70
NtRp2137
(dp2138
g73
(dp2139
sg82
g2006
sg75
(lp2140
g68
(g89
g70
NtRp2141
(dp2142
g73
(dp2143
g93
g94
ssg82
g2137
sg75
(lp2144
g1004
asbag68
(g89
g70
NtRp2145
(dp2146
g73
(dp2147
g100
g101
ssg82
g2137
sg75
(lp2148
S':'
asbag68
(g89
g70
NtRp2149
(dp2150
g73
(dp2151
sg82
g2137
sg75
(lp2152
g68
(g69
g70
NtRp2153
(dp2154
g73
(dp2155
g81
I4
ssg82
g2149
sg75
(lp2156
g1017
asbasbasbag68
(g84
g70
NtRp2157
(dp2158
g73
(dp2159
sg82
g2006
sg75
(lp2160
g68
(g89
g70
NtRp2161
(dp2162
g73
(dp2163
g93
g94
ssg82
g2157
sg75
(lp2164
g1224
asbag68
(g89
g70
NtRp2165
(dp2166
g73
(dp2167
g100
g101
ssg82
g2157
sg75
(lp2168
S':'
asbag68
(g89
g70
NtRp2169
(dp2170
g73
(dp2171
sg82
g2157
sg75
(lp2172
g68
(g69
g70
NtRp2173
(dp2174
g73
(dp2175
g81
I4
ssg82
g2169
sg75
(lp2176
g111
asbasbasbag68
(g84
g70
NtRp2177
(dp2178
g73
(dp2179
sg82
g2006
sg75
(lp2180
g68
(g89
g70
NtRp2181
(dp2182
g73
(dp2183
g93
g94
ssg82
g2177
sg75
(lp2184
g1245
asbag68
(g89
g70
NtRp2185
(dp2186
g73
(dp2187
g100
g101
ssg82
g2177
sg75
(lp2188
S':'
asbag68
(g89
g70
NtRp2189
(dp2190
g73
(dp2191
sg82
g2177
sg75
(lp2192
g68
(g69
g70
NtRp2193
(dp2194
g73
(dp2195
g81
I4
ssg82
g2189
sg75
(lp2196
g111
asbasbasbag68
(g84
g70
NtRp2197
(dp2198
g73
(dp2199
sg82
g2006
sg75
(lp2200
g68
(g89
g70
NtRp2201
(dp2202
g73
(dp2203
g93
g94
ssg82
g2197
sg75
(lp2204
g1266
asbag68
(g89
g70
NtRp2205
(dp2206
g73
(dp2207
g100
g101
ssg82
g2197
sg75
(lp2208
S':'
asbag68
(g89
g70
NtRp2209
(dp2210
g73
(dp2211
sg82
g2197
sg75
(lp2212
g68
(g69
g70
NtRp2213
(dp2214
g73
(dp2215
g81
I4
ssg82
g2209
sg75
(lp2216
g68
(g77
g70
NtRp2217
(dp2218
g73
(dp2219
g81
I3
ssg82
Nsg75
(lp2220
g68
(g84
g70
NtRp2221
(dp2222
g73
(dp2223
sg82
g2217
sg75
(lp2224
g68
(g89
g70
NtRp2225
(dp2226
g73
(dp2227
sg82
g2221
sg75
(lp2228
g68
(g69
g70
NtRp2229
(dp2230
g73
(dp2231
g81
I3
ssg82
g2225
sg75
(lp2232
g1295
asbasbasbag68
(g84
g70
NtRp2233
(dp2234
g73
(dp2235
sg82
g2217
sg75
(lp2236
g68
(g89
g70
NtRp2237
(dp2238
g73
(dp2239
sg82
g2233
sg75
(lp2240
g68
(g69
g70
NtRp2241
(dp2242
g73
(dp2243
g81
I3
ssg82
g2237
sg75
(lp2244
g1308
asbasbasbag68
(g84
g70
NtRp2245
(dp2246
g73
(dp2247
sg82
g2217
sg75
(lp2248
g68
(g89
g70
NtRp2249
(dp2250
g73
(dp2251
sg82
g2245
sg75
(lp2252
g68
(g69
g70
NtRp2253
(dp2254
g73
(dp2255
g81
I3
ssg82
g2249
sg75
(lp2256
g1321
asbasbasbag68
(g84
g70
NtRp2257
(dp2258
g73
(dp2259
sg82
g2217
sg75
(lp2260
g68
(g89
g70
NtRp2261
(dp2262
g73
(dp2263
sg82
g2257
sg75
(lp2264
g68
(g69
g70
NtRp2265
(dp2266
g73
(dp2267
g81
I3
ssg82
g2261
sg75
(lp2268
g1334
asbasbasbag68
(g84
g70
NtRp2269
(dp2270
g73
(dp2271
sg82
g2217
sg75
(lp2272
g68
(g89
g70
NtRp2273
(dp2274
g73
(dp2275
sg82
g2269
sg75
(lp2276
g68
(g69
g70
NtRp2277
(dp2278
g73
(dp2279
g81
I3
ssg82
g2273
sg75
(lp2280
g1347
asbasbasbasbasbasbasbag68
(g84
g70
NtRp2281
(dp2282
g73
(dp2283
sg82
g2006
sg75
(lp2284
g68
(g89
g70
NtRp2285
(dp2286
g73
(dp2287
g93
g94
ssg82
g2281
sg75
(lp2288
g1614
asbag68
(g89
g70
NtRp2289
(dp2290
g73
(dp2291
g100
g101
ssg82
g2281
sg75
(lp2292
S':'
asbag68
(g89
g70
NtRp2293
(dp2294
g73
(dp2295
sg82
g2281
sg75
(lp2296
g68
(g69
g70
NtRp2297
(dp2298
g73
(dp2299
g81
I4
ssg82
g2293
sg75
(lp2300
g68
(g77
g70
NtRp2301
(dp2302
g73
(dp2303
g81
I3
ssg82
Nsg75
(lp2304
g68
(g84
g70
NtRp2305
(dp2306
g73
(dp2307
sg82
g2301
sg75
(lp2308
g68
(g89
g70
NtRp2309
(dp2310
g73
(dp2311
sg82
g2305
sg75
(lp2312
g68
(g69
g70
NtRp2313
(dp2314
g73
(dp2315
g81
I3
ssg82
g2309
sg75
(lp2316
S'2'
asbasbasbag68
(g84
g70
NtRp2317
(dp2318
g73
(dp2319
sg82
g2301
sg75
(lp2320
g68
(g89
g70
NtRp2321
(dp2322
g73
(dp2323
sg82
g2317
sg75
(lp2324
g68
(g69
g70
NtRp2325
(dp2326
g73
(dp2327
g81
I3
ssg82
g2321
sg75
(lp2328
S'2'
asbasbasbag68
(g84
g70
NtRp2329
(dp2330
g73
(dp2331
sg82
g2301
sg75
(lp2332
g68
(g89
g70
NtRp2333
(dp2334
g73
(dp2335
sg82
g2329
sg75
(lp2336
g68
(g69
g70
NtRp2337
(dp2338
g73
(dp2339
g81
I3
ssg82
g2333
sg75
(lp2340
S'1'
asbasbasbag68
(g84
g70
NtRp2341
(dp2342
g73
(dp2343
sg82
g2301
sg75
(lp2344
g68
(g89
g70
NtRp2345
(dp2346
g73
(dp2347
sg82
g2341
sg75
(lp2348
g68
(g69
g70
NtRp2349
(dp2350
g73
(dp2351
g81
I3
ssg82
g2345
sg75
(lp2352
S'datetime.datetime(2012, 10, 21, 16, 57, 4)'
p2353
asbasbasbag68
(g84
g70
NtRp2354
(dp2355
g73
(dp2356
sg82
g2301
sg75
(lp2357
g68
(g89
g70
NtRp2358
(dp2359
g73
(dp2360
sg82
g2354
sg75
(lp2361
g68
(g69
g70
NtRp2362
(dp2363
g73
(dp2364
g81
I3
ssg82
g2358
sg75
(lp2365
g1692
asbasbasbasbasbasbasbasbasbasbasbag68
(g84
g70
NtRp2366
(dp2367
g73
(dp2368
sg82
g78
sg75
(lp2369
g68
(g89
g70
NtRp2370
(dp2371
g73
(dp2372
g93
g94
ssg82
g2366
sg75
(lp2373
S'is_https'
p2374
asbag68
(g89
g70
NtRp2375
(dp2376
g73
(dp2377
g100
g101
ssg82
g2366
sg75
(lp2378
S':'
asbag68
(g89
g70
NtRp2379
(dp2380
g73
(dp2381
sg82
g2366
sg75
(lp2382
g68
(g69
g70
NtRp2383
(dp2384
g73
(dp2385
g81
I5
ssg82
g2379
sg75
(lp2386
g111
asbasbasbag68
(g84
g70
NtRp2387
(dp2388
g73
(dp2389
sg82
g78
sg75
(lp2390
g68
(g89
g70
NtRp2391
(dp2392
g73
(dp2393
g93
g94
ssg82
g2387
sg75
(lp2394
S'is_local'
p2395
asbag68
(g89
g70
NtRp2396
(dp2397
g73
(dp2398
g100
g101
ssg82
g2387
sg75
(lp2399
S':'
asbag68
(g89
g70
NtRp2400
(dp2401
g73
(dp2402
sg82
g2387
sg75
(lp2403
g68
(g69
g70
NtRp2404
(dp2405
g73
(dp2406
g81
I5
ssg82
g2400
sg75
(lp2407
g1801
asbasbasbag68
(g84
g70
NtRp2408
(dp2409
g73
(dp2410
sg82
g78
sg75
(lp2411
g68
(g89
g70
NtRp2412
(dp2413
g73
(dp2414
g93
g94
ssg82
g2408
sg75
(lp2415
S'is_restful'
p2416
asbag68
(g89
g70
NtRp2417
(dp2418
g73
(dp2419
g100
g101
ssg82
g2408
sg75
(lp2420
S':'
asbag68
(g89
g70
NtRp2421
(dp2422
g73
(dp2423
sg82
g2408
sg75
(lp2424
g68
(g69
g70
NtRp2425
(dp2426
g73
(dp2427
g81
I5
ssg82
g2421
sg75
(lp2428
g111
asbasbasbag68
(g84
g70
NtRp2429
(dp2430
g73
(dp2431
sg82
g78
sg75
(lp2432
g68
(g89
g70
NtRp2433
(dp2434
g73
(dp2435
g93
g94
ssg82
g2429
sg75
(lp2436
S'now'
p2437
asbag68
(g89
g70
NtRp2438
(dp2439
g73
(dp2440
g100
g101
ssg82
g2429
sg75
(lp2441
S':'
asbag68
(g89
g70
NtRp2442
(dp2443
g73
(dp2444
sg82
g2429
sg75
(lp2445
g68
(g69
g70
NtRp2446
(dp2447
g73
(dp2448
g81
I5
ssg82
g2442
sg75
(lp2449
S'datetime.datetime(2013, 1, 20, 19, 9, 36, 497588)'
p2450
asbasbasbag68
(g84
g70
NtRp2451
(dp2452
g73
(dp2453
sg82
g78
sg75
(lp2454
g68
(g89
g70
NtRp2455
(dp2456
g73
(dp2457
g93
g94
ssg82
g2451
sg75
(lp2458
S'post_vars'
p2459
asbag68
(g89
g70
NtRp2460
(dp2461
g73
(dp2462
g100
g101
ssg82
g2451
sg75
(lp2463
S':'
asbag68
(g89
g70
NtRp2464
(dp2465
g73
(dp2466
sg82
g2451
sg75
(lp2467
g68
(g69
g70
NtRp2468
(dp2469
g73
(dp2470
g81
I5
ssg82
g2464
sg75
(lp2471
g68
(g77
g70
NtRp2472
(dp2473
g73
(dp2474
g81
I4
ssg82
Nsg75
(lp2475
sbasbasbasbag68
(g84
g70
NtRp2476
(dp2477
g73
(dp2478
sg82
g78
sg75
(lp2479
g68
(g89
g70
NtRp2480
(dp2481
g73
(dp2482
g93
g94
ssg82
g2476
sg75
(lp2483
S'raw_args'
p2484
asbag68
(g89
g70
NtRp2485
(dp2486
g73
(dp2487
g100
g101
ssg82
g2476
sg75
(lp2488
S':'
asbag68
(g89
g70
NtRp2489
(dp2490
g73
(dp2491
sg82
g2476
sg75
(lp2492
g68
(g69
g70
NtRp2493
(dp2494
g73
(dp2495
g81
I5
ssg82
g2489
sg75
(lp2496
S''
asbasbasbag68
(g84
g70
NtRp2497
(dp2498
g73
(dp2499
sg82
g78
sg75
(lp2500
g68
(g89
g70
NtRp2501
(dp2502
g73
(dp2503
g93
g94
ssg82
g2497
sg75
(lp2504
S'raw_extension'
p2505
asbag68
(g89
g70
NtRp2506
(dp2507
g73
(dp2508
g100
g101
ssg82
g2497
sg75
(lp2509
S':'
asbag68
(g89
g70
NtRp2510
(dp2511
g73
(dp2512
sg82
g2497
sg75
(lp2513
g68
(g69
g70
NtRp2514
(dp2515
g73
(dp2516
g81
I5
ssg82
g2510
sg75
(lp2517
S'None'
p2518
asbasbasbag68
(g84
g70
NtRp2519
(dp2520
g73
(dp2521
sg82
g78
sg75
(lp2522
g68
(g89
g70
NtRp2523
(dp2524
g73
(dp2525
g93
g94
ssg82
g2519
sg75
(lp2526
S'url'
p2527
asbag68
(g89
g70
NtRp2528
(dp2529
g73
(dp2530
g100
g101
ssg82
g2519
sg75
(lp2531
S':'
asbag68
(g89
g70
NtRp2532
(dp2533
g73
(dp2534
sg82
g2519
sg75
(lp2535
g68
(g69
g70
NtRp2536
(dp2537
g73
(dp2538
g81
I5
ssg82
g2532
sg75
(lp2539
g1369
asbasbasbag68
(g84
g70
NtRp2540
(dp2541
g73
(dp2542
sg82
g78
sg75
(lp2543
g68
(g89
g70
NtRp2544
(dp2545
g73
(dp2546
g93
g94
ssg82
g2540
sg75
(lp2547
S'utcnow'
p2548
asbag68
(g89
g70
NtRp2549
(dp2550
g73
(dp2551
g100
g101
ssg82
g2540
sg75
(lp2552
S':'
asbag68
(g89
g70
NtRp2553
(dp2554
g73
(dp2555
sg82
g2540
sg75
(lp2556
g68
(g69
g70
NtRp2557
(dp2558
g73
(dp2559
g81
I5
ssg82
g2553
sg75
(lp2560
S'datetime.datetime(2013, 1, 20, 18, 9, 36, 497598)'
p2561
asbasbasbag68
(g84
g70
NtRp2562
(dp2563
g73
(dp2564
sg82
g78
sg75
(lp2565
g68
(g89
g70
NtRp2566
(dp2567
g73
(dp2568
g93
g94
ssg82
g2562
sg75
(lp2569
S'uuid'
p2570
asbag68
(g89
g70
NtRp2571
(dp2572
g73
(dp2573
g100
g101
ssg82
g2562
sg75
(lp2574
S':'
asbag68
(g89
g70
NtRp2575
(dp2576
g73
(dp2577
sg82
g2562
sg75
(lp2578
g68
(g69
g70
NtRp2579
(dp2580
g73
(dp2581
g81
I5
ssg82
g2575
sg75
(lp2582
S'rosan/127.0.0.1.2013-01-20.19-09-36.38e61ac1-78c6-4cbe-92ed-690ec5c8e1be'
p2583
asbasbasbag68
(g84
g70
NtRp2584
(dp2585
g73
(dp2586
sg82
g78
sg75
(lp2587
g68
(g89
g70
NtRp2588
(dp2589
g73
(dp2590
g93
g94
ssg82
g2584
sg75
(lp2591
S'vars'
p2592
asbag68
(g89
g70
NtRp2593
(dp2594
g73
(dp2595
g100
g101
ssg82
g2584
sg75
(lp2596
S':'
asbag68
(g89
g70
NtRp2597
(dp2598
g73
(dp2599
sg82
g2584
sg75
(lp2600
g68
(g69
g70
NtRp2601
(dp2602
g73
(dp2603
g81
I5
ssg82
g2597
sg75
(lp2604
g68
(g77
g70
NtRp2605
(dp2606
g73
(dp2607
g81
I4
ssg82
Nsg75
(lp2608
sbasbasbasbag68
(g84
g70
NtRp2609
(dp2610
g73
(dp2611
sg82
g78
sg75
(lp2612
g68
(g89
g70
NtRp2613
(dp2614
g73
(dp2615
g93
g94
ssg82
g2609
sg75
(lp2616
S'wsgi'
p2617
asbag68
(g89
g70
NtRp2618
(dp2619
g73
(dp2620
g100
g101
ssg82
g2609
sg75
(lp2621
S':'
asbag68
(g89
g70
NtRp2622
(dp2623
g73
(dp2624
sg82
g2609
sg75
(lp2625
g68
(g69
g70
NtRp2626
(dp2627
g73
(dp2628
g81
I5
ssg82
g2622
sg75
(lp2629
g68
(g77
g70
NtRp2630
(dp2631
g73
(dp2632
g81
I4
ssg82
Nsg75
(lp2633
g68
(g84
g70
NtRp2634
(dp2635
g73
(dp2636
sg82
g2630
sg75
(lp2637
g68
(g89
g70
NtRp2638
(dp2639
g73
(dp2640
g93
g94
ssg82
g2634
sg75
(lp2641
S'environ'
p2642
asbag68
(g89
g70
NtRp2643
(dp2644
g73
(dp2645
g100
g101
ssg82
g2634
sg75
(lp2646
S':'
asbag68
(g89
g70
NtRp2647
(dp2648
g73
(dp2649
sg82
g2634
sg75
(lp2650
g68
(g69
g70
NtRp2651
(dp2652
g73
(dp2653
g81
I4
ssg82
g2647
sg75
(lp2654
g68
(g77
g70
NtRp2655
(dp2656
g73
(dp2657
g81
I3
ssg82
Nsg75
(lp2658
g68
(g84
g70
NtRp2659
(dp2660
g73
(dp2661
sg82
g2655
sg75
(lp2662
g68
(g89
g70
NtRp2663
(dp2664
g73
(dp2665
g93
g94
ssg82
g2659
sg75
(lp2666
S'HTTP_ACCEPT'
p2667
asbag68
(g89
g70
NtRp2668
(dp2669
g73
(dp2670
g100
g101
ssg82
g2659
sg75
(lp2671
S':'
asbag68
(g89
g70
NtRp2672
(dp2673
g73
(dp2674
sg82
g2659
sg75
(lp2675
g68
(g69
g70
NtRp2676
(dp2677
g73
(dp2678
g81
I3
ssg82
g2672
sg75
(lp2679
g1039
asbasbasbag68
(g84
g70
NtRp2680
(dp2681
g73
(dp2682
sg82
g2655
sg75
(lp2683
g68
(g89
g70
NtRp2684
(dp2685
g73
(dp2686
g93
g94
ssg82
g2680
sg75
(lp2687
S'HTTP_ACCEPT_CHARSET'
p2688
asbag68
(g89
g70
NtRp2689
(dp2690
g73
(dp2691
g100
g101
ssg82
g2680
sg75
(lp2692
S':'
asbag68
(g89
g70
NtRp2693
(dp2694
g73
(dp2695
sg82
g2680
sg75
(lp2696
g68
(g69
g70
NtRp2697
(dp2698
g73
(dp2699
g81
I3
ssg82
g2693
sg75
(lp2700
g1061
asbasbasbag68
(g84
g70
NtRp2701
(dp2702
g73
(dp2703
sg82
g2655
sg75
(lp2704
g68
(g89
g70
NtRp2705
(dp2706
g73
(dp2707
g93
g94
ssg82
g2701
sg75
(lp2708
S'HTTP_ACCEPT_ENCODING'
p2709
asbag68
(g89
g70
NtRp2710
(dp2711
g73
(dp2712
g100
g101
ssg82
g2701
sg75
(lp2713
S':'
asbag68
(g89
g70
NtRp2714
(dp2715
g73
(dp2716
sg82
g2701
sg75
(lp2717
g68
(g69
g70
NtRp2718
(dp2719
g73
(dp2720
g81
I3
ssg82
g2714
sg75
(lp2721
g1083
asbasbasbag68
(g84
g70
NtRp2722
(dp2723
g73
(dp2724
sg82
g2655
sg75
(lp2725
g68
(g89
g70
NtRp2726
(dp2727
g73
(dp2728
g93
g94
ssg82
g2722
sg75
(lp2729
S'HTTP_ACCEPT_LANGUAGE'
p2730
asbag68
(g89
g70
NtRp2731
(dp2732
g73
(dp2733
g100
g101
ssg82
g2722
sg75
(lp2734
S':'
asbag68
(g89
g70
NtRp2735
(dp2736
g73
(dp2737
sg82
g2722
sg75
(lp2738
g68
(g69
g70
NtRp2739
(dp2740
g73
(dp2741
g81
I3
ssg82
g2735
sg75
(lp2742
g1105
asbasbasbag68
(g84
g70
NtRp2743
(dp2744
g73
(dp2745
sg82
g2655
sg75
(lp2746
g68
(g89
g70
NtRp2747
(dp2748
g73
(dp2749
g93
g94
ssg82
g2743
sg75
(lp2750
S'HTTP_CONNECTION'
p2751
asbag68
(g89
g70
NtRp2752
(dp2753
g73
(dp2754
g100
g101
ssg82
g2743
sg75
(lp2755
S':'
asbag68
(g89
g70
NtRp2756
(dp2757
g73
(dp2758
sg82
g2743
sg75
(lp2759
g68
(g69
g70
NtRp2760
(dp2761
g73
(dp2762
g81
I3
ssg82
g2756
sg75
(lp2763
g1127
asbasbasbag68
(g84
g70
NtRp2764
(dp2765
g73
(dp2766
sg82
g2655
sg75
(lp2767
g68
(g89
g70
NtRp2768
(dp2769
g73
(dp2770
g93
g94
ssg82
g2764
sg75
(lp2771
S'HTTP_COOKIE'
p2772
asbag68
(g89
g70
NtRp2773
(dp2774
g73
(dp2775
g100
g101
ssg82
g2764
sg75
(lp2776
S':'
asbag68
(g89
g70
NtRp2777
(dp2778
g73
(dp2779
sg82
g2764
sg75
(lp2780
g68
(g69
g70
NtRp2781
(dp2782
g73
(dp2783
g81
I3
ssg82
g2777
sg75
(lp2784
g1149
asbasbasbag68
(g84
g70
NtRp2785
(dp2786
g73
(dp2787
sg82
g2655
sg75
(lp2788
g68
(g89
g70
NtRp2789
(dp2790
g73
(dp2791
g93
g94
ssg82
g2785
sg75
(lp2792
S'HTTP_HOST'
p2793
asbag68
(g89
g70
NtRp2794
(dp2795
g73
(dp2796
g100
g101
ssg82
g2785
sg75
(lp2797
S':'
asbag68
(g89
g70
NtRp2798
(dp2799
g73
(dp2800
sg82
g2785
sg75
(lp2801
g68
(g69
g70
NtRp2802
(dp2803
g73
(dp2804
g81
I3
ssg82
g2798
sg75
(lp2805
g1171
asbasbasbag68
(g84
g70
NtRp2806
(dp2807
g73
(dp2808
sg82
g2655
sg75
(lp2809
g68
(g89
g70
NtRp2810
(dp2811
g73
(dp2812
g93
g94
ssg82
g2806
sg75
(lp2813
S'HTTP_REFERER'
p2814
asbag68
(g89
g70
NtRp2815
(dp2816
g73
(dp2817
g100
g101
ssg82
g2806
sg75
(lp2818
S':'
asbag68
(g89
g70
NtRp2819
(dp2820
g73
(dp2821
sg82
g2806
sg75
(lp2822
g68
(g69
g70
NtRp2823
(dp2824
g73
(dp2825
g81
I3
ssg82
g2819
sg75
(lp2826
g1193
asbasbasbag68
(g84
g70
NtRp2827
(dp2828
g73
(dp2829
sg82
g2655
sg75
(lp2830
g68
(g89
g70
NtRp2831
(dp2832
g73
(dp2833
g93
g94
ssg82
g2827
sg75
(lp2834
S'HTTP_USER_AGENT'
p2835
asbag68
(g89
g70
NtRp2836
(dp2837
g73
(dp2838
g100
g101
ssg82
g2827
sg75
(lp2839
S':'
asbag68
(g89
g70
NtRp2840
(dp2841
g73
(dp2842
sg82
g2827
sg75
(lp2843
g68
(g69
g70
NtRp2844
(dp2845
g73
(dp2846
g81
I3
ssg82
g2840
sg75
(lp2847
g1215
asbasbasbag68
(g84
g70
NtRp2848
(dp2849
g73
(dp2850
sg82
g2655
sg75
(lp2851
g68
(g89
g70
NtRp2852
(dp2853
g73
(dp2854
g93
g94
ssg82
g2848
sg75
(lp2855
S'PATH_INFO'
p2856
asbag68
(g89
g70
NtRp2857
(dp2858
g73
(dp2859
g100
g101
ssg82
g2848
sg75
(lp2860
S':'
asbag68
(g89
g70
NtRp2861
(dp2862
g73
(dp2863
sg82
g2848
sg75
(lp2864
g68
(g69
g70
NtRp2865
(dp2866
g73
(dp2867
g81
I3
ssg82
g2861
sg75
(lp2868
g1369
asbasbasbag68
(g84
g70
NtRp2869
(dp2870
g73
(dp2871
sg82
g2655
sg75
(lp2872
g68
(g89
g70
NtRp2873
(dp2874
g73
(dp2875
g93
g94
ssg82
g2869
sg75
(lp2876
S'QUERY_STRING'
p2877
asbag68
(g89
g70
NtRp2878
(dp2879
g73
(dp2880
g100
g101
ssg82
g2869
sg75
(lp2881
S':'
asbag68
(g89
g70
NtRp2882
(dp2883
g73
(dp2884
sg82
g2869
sg75
(lp2885
g68
(g69
g70
NtRp2886
(dp2887
g73
(dp2888
g81
I3
ssg82
g2882
sg75
(lp2889
S''
asbasbasbag68
(g84
g70
NtRp2890
(dp2891
g73
(dp2892
sg82
g2655
sg75
(lp2893
g68
(g89
g70
NtRp2894
(dp2895
g73
(dp2896
g93
g94
ssg82
g2890
sg75
(lp2897
S'REMOTE_ADDR'
p2898
asbag68
(g89
g70
NtRp2899
(dp2900
g73
(dp2901
g100
g101
ssg82
g2890
sg75
(lp2902
S':'
asbag68
(g89
g70
NtRp2903
(dp2904
g73
(dp2905
sg82
g2890
sg75
(lp2906
g68
(g69
g70
NtRp2907
(dp2908
g73
(dp2909
g81
I3
ssg82
g2903
sg75
(lp2910
g223
asbasbasbag68
(g84
g70
NtRp2911
(dp2912
g73
(dp2913
sg82
g2655
sg75
(lp2914
g68
(g89
g70
NtRp2915
(dp2916
g73
(dp2917
g93
g94
ssg82
g2911
sg75
(lp2918
S'REMOTE_PORT'
p2919
asbag68
(g89
g70
NtRp2920
(dp2921
g73
(dp2922
g100
g101
ssg82
g2911
sg75
(lp2923
S':'
asbag68
(g89
g70
NtRp2924
(dp2925
g73
(dp2926
sg82
g2911
sg75
(lp2927
g68
(g69
g70
NtRp2928
(dp2929
g73
(dp2930
g81
I3
ssg82
g2924
sg75
(lp2931
g1433
asbasbasbag68
(g84
g70
NtRp2932
(dp2933
g73
(dp2934
sg82
g2655
sg75
(lp2935
g68
(g89
g70
NtRp2936
(dp2937
g73
(dp2938
g93
g94
ssg82
g2932
sg75
(lp2939
S'REQUEST_METHOD'
p2940
asbag68
(g89
g70
NtRp2941
(dp2942
g73
(dp2943
g100
g101
ssg82
g2932
sg75
(lp2944
S':'
asbag68
(g89
g70
NtRp2945
(dp2946
g73
(dp2947
sg82
g2932
sg75
(lp2948
g68
(g69
g70
NtRp2949
(dp2950
g73
(dp2951
g81
I3
ssg82
g2945
sg75
(lp2952
g1455
asbasbasbag68
(g84
g70
NtRp2953
(dp2954
g73
(dp2955
sg82
g2655
sg75
(lp2956
g68
(g89
g70
NtRp2957
(dp2958
g73
(dp2959
g93
g94
ssg82
g2953
sg75
(lp2960
S'REQUEST_URI'
p2961
asbag68
(g89
g70
NtRp2962
(dp2963
g73
(dp2964
g100
g101
ssg82
g2953
sg75
(lp2965
S':'
asbag68
(g89
g70
NtRp2966
(dp2967
g73
(dp2968
sg82
g2953
sg75
(lp2969
g68
(g69
g70
NtRp2970
(dp2971
g73
(dp2972
g81
I3
ssg82
g2966
sg75
(lp2973
g1369
asbasbasbag68
(g84
g70
NtRp2974
(dp2975
g73
(dp2976
sg82
g2655
sg75
(lp2977
g68
(g89
g70
NtRp2978
(dp2979
g73
(dp2980
g93
g94
ssg82
g2974
sg75
(lp2981
S'SCRIPT_NAME'
p2982
asbag68
(g89
g70
NtRp2983
(dp2984
g73
(dp2985
g100
g101
ssg82
g2974
sg75
(lp2986
S':'
asbag68
(g89
g70
NtRp2987
(dp2988
g73
(dp2989
sg82
g2974
sg75
(lp2990
g68
(g69
g70
NtRp2991
(dp2992
g73
(dp2993
g81
I3
ssg82
g2987
sg75
(lp2994
S''
asbasbasbag68
(g84
g70
NtRp2995
(dp2996
g73
(dp2997
sg82
g2655
sg75
(lp2998
g68
(g89
g70
NtRp2999
(dp3000
g73
(dp3001
g93
g94
ssg82
g2995
sg75
(lp3002
S'SERVER_NAME'
p3003
asbag68
(g89
g70
NtRp3004
(dp3005
g73
(dp3006
g100
g101
ssg82
g2995
sg75
(lp3007
S':'
asbag68
(g89
g70
NtRp3008
(dp3009
g73
(dp3010
sg82
g2995
sg75
(lp3011
g68
(g69
g70
NtRp3012
(dp3013
g73
(dp3014
g81
I3
ssg82
g3008
sg75
(lp3015
g1334
asbasbasbag68
(g84
g70
NtRp3016
(dp3017
g73
(dp3018
sg82
g2655
sg75
(lp3019
g68
(g89
g70
NtRp3020
(dp3021
g73
(dp3022
g93
g94
ssg82
g3016
sg75
(lp3023
S'SERVER_PORT'
p3024
asbag68
(g89
g70
NtRp3025
(dp3026
g73
(dp3027
g100
g101
ssg82
g3016
sg75
(lp3028
S':'
asbag68
(g89
g70
NtRp3029
(dp3030
g73
(dp3031
sg82
g3016
sg75
(lp3032
g68
(g69
g70
NtRp3033
(dp3034
g73
(dp3035
g81
I3
ssg82
g3029
sg75
(lp3036
g1540
asbasbasbag68
(g84
g70
NtRp3037
(dp3038
g73
(dp3039
sg82
g2655
sg75
(lp3040
g68
(g89
g70
NtRp3041
(dp3042
g73
(dp3043
g93
g94
ssg82
g3037
sg75
(lp3044
S'SERVER_PROTOCOL'
p3045
asbag68
(g89
g70
NtRp3046
(dp3047
g73
(dp3048
g100
g101
ssg82
g3037
sg75
(lp3049
S':'
asbag68
(g89
g70
NtRp3050
(dp3051
g73
(dp3052
sg82
g3037
sg75
(lp3053
g68
(g69
g70
NtRp3054
(dp3055
g73
(dp3056
g81
I3
ssg82
g3050
sg75
(lp3057
g1562
asbasbasbag68
(g84
g70
NtRp3058
(dp3059
g73
(dp3060
sg82
g2655
sg75
(lp3061
g68
(g89
g70
NtRp3062
(dp3063
g73
(dp3064
g93
g94
ssg82
g3058
sg75
(lp3065
S'SERVER_SOFTWARE'
p3066
asbag68
(g89
g70
NtRp3067
(dp3068
g73
(dp3069
g100
g101
ssg82
g3058
sg75
(lp3070
S':'
asbag68
(g89
g70
NtRp3071
(dp3072
g73
(dp3073
sg82
g3058
sg75
(lp3074
g68
(g69
g70
NtRp3075
(dp3076
g73
(dp3077
g81
I3
ssg82
g3071
sg75
(lp3078
g1584
asbasbasbag68
(g84
g70
NtRp3079
(dp3080
g73
(dp3081
sg82
g2655
sg75
(lp3082
g68
(g89
g70
NtRp3083
(dp3084
g73
(dp3085
g93
g94
ssg82
g3079
sg75
(lp3086
S'wsgi.errors'
p3087
asbag68
(g89
g70
NtRp3088
(dp3089
g73
(dp3090
g100
g101
ssg82
g3079
sg75
(lp3091
S':'
asbag68
(g89
g70
NtRp3092
(dp3093
g73
(dp3094
sg82
g3079
sg75
(lp3095
g68
(g69
g70
NtRp3096
(dp3097
g73
(dp3098
g81
I3
ssg82
g3092
sg75
(lp3099
S"<open file '<stderr>', mode 'w' at 0x25a0d0>"
p3100
asbasbasbag68
(g84
g70
NtRp3101
(dp3102
g73
(dp3103
sg82
g2655
sg75
(lp3104
g68
(g89
g70
NtRp3105
(dp3106
g73
(dp3107
g93
g94
ssg82
g3101
sg75
(lp3108
S'wsgi.file_wrapper'
p3109
asbag68
(g89
g70
NtRp3110
(dp3111
g73
(dp3112
g100
g101
ssg82
g3101
sg75
(lp3113
S':'
asbag68
(g89
g70
NtRp3114
(dp3115
g73
(dp3116
sg82
g3101
sg75
(lp3117
g68
(g69
g70
NtRp3118
(dp3119
g73
(dp3120
g81
I3
ssg82
g3114
sg75
(lp3121
S'<class wsgiref.util.FileWrapper at 0x1968d50>'
p3122
asbasbasbag68
(g84
g70
NtRp3123
(dp3124
g73
(dp3125
sg82
g2655
sg75
(lp3126
g68
(g89
g70
NtRp3127
(dp3128
g73
(dp3129
g93
g94
ssg82
g3123
sg75
(lp3130
S'wsgi.input'
p3131
asbag68
(g89
g70
NtRp3132
(dp3133
g73
(dp3134
g100
g101
ssg82
g3123
sg75
(lp3135
S':'
asbag68
(g89
g70
NtRp3136
(dp3137
g73
(dp3138
sg82
g3123
sg75
(lp3139
g68
(g69
g70
NtRp3140
(dp3141
g73
(dp3142
g81
I3
ssg82
g3136
sg75
(lp3143
S'<cStringIO.StringO object at 0x189e1a40>'
p3144
asbasbasbag68
(g84
g70
NtRp3145
(dp3146
g73
(dp3147
sg82
g2655
sg75
(lp3148
g68
(g89
g70
NtRp3149
(dp3150
g73
(dp3151
g93
g94
ssg82
g3145
sg75
(lp3152
S'wsgi.multiprocess'
p3153
asbag68
(g89
g70
NtRp3154
(dp3155
g73
(dp3156
g100
g101
ssg82
g3145
sg75
(lp3157
S':'
asbag68
(g89
g70
NtRp3158
(dp3159
g73
(dp3160
sg82
g3145
sg75
(lp3161
g68
(g69
g70
NtRp3162
(dp3163
g73
(dp3164
g81
I3
ssg82
g3158
sg75
(lp3165
g111
asbasbasbag68
(g84
g70
NtRp3166
(dp3167
g73
(dp3168
sg82
g2655
sg75
(lp3169
g68
(g89
g70
NtRp3170
(dp3171
g73
(dp3172
g93
g94
ssg82
g3166
sg75
(lp3173
S'wsgi.multithread'
p3174
asbag68
(g89
g70
NtRp3175
(dp3176
g73
(dp3177
g100
g101
ssg82
g3166
sg75
(lp3178
S':'
asbag68
(g89
g70
NtRp3179
(dp3180
g73
(dp3181
sg82
g3166
sg75
(lp3182
g68
(g69
g70
NtRp3183
(dp3184
g73
(dp3185
g81
I3
ssg82
g3179
sg75
(lp3186
g1801
asbasbasbag68
(g84
g70
NtRp3187
(dp3188
g73
(dp3189
sg82
g2655
sg75
(lp3190
g68
(g89
g70
NtRp3191
(dp3192
g73
(dp3193
g93
g94
ssg82
g3187
sg75
(lp3194
S'wsgi.run_once'
p3195
asbag68
(g89
g70
NtRp3196
(dp3197
g73
(dp3198
g100
g101
ssg82
g3187
sg75
(lp3199
S':'
asbag68
(g89
g70
NtRp3200
(dp3201
g73
(dp3202
sg82
g3187
sg75
(lp3203
g68
(g69
g70
NtRp3204
(dp3205
g73
(dp3206
g81
I3
ssg82
g3200
sg75
(lp3207
g111
asbasbasbag68
(g84
g70
NtRp3208
(dp3209
g73
(dp3210
sg82
g2655
sg75
(lp3211
g68
(g89
g70
NtRp3212
(dp3213
g73
(dp3214
g93
g94
ssg82
g3208
sg75
(lp3215
S'wsgi.url_scheme'
p3216
asbag68
(g89
g70
NtRp3217
(dp3218
g73
(dp3219
g100
g101
ssg82
g3208
sg75
(lp3220
S':'
asbag68
(g89
g70
NtRp3221
(dp3222
g73
(dp3223
sg82
g3208
sg75
(lp3224
g68
(g69
g70
NtRp3225
(dp3226
g73
(dp3227
g81
I3
ssg82
g3221
sg75
(lp3228
g1844
asbasbasbag68
(g84
g70
NtRp3229
(dp3230
g73
(dp3231
sg82
g2655
sg75
(lp3232
g68
(g89
g70
NtRp3233
(dp3234
g73
(dp3235
g93
g94
ssg82
g3229
sg75
(lp3236
S'wsgi.version'
p3237
asbag68
(g89
g70
NtRp3238
(dp3239
g73
(dp3240
g100
g101
ssg82
g3229
sg75
(lp3241
S':'
asbag68
(g89
g70
NtRp3242
(dp3243
g73
(dp3244
sg82
g3229
sg75
(lp3245
g68
(g69
g70
NtRp3246
(dp3247
g73
(dp3248
g81
I3
ssg82
g3242
sg75
(lp3249
S'1'
asbasbasbasbasbasbasbasbasbasbasbasbasbsS'frames'
p3250
(lp3251
(dp3252
S'file'
p3253
S'/Users/Truki/web2py/gluon/restricted.py'
p3254
sS'dump'
p3255
(dp3256
S'code'
p3257
S'r"response.write(\'<!DOCTYPE html>\\n<!-- paulirish....ponse.write(\'\\n</body>\\n</html>\\n\', escape=False)"'
p3258
sS'layer'
p3259
S"'/Users/Truki/web2py/applications/rosan/views/clientes/nuevoCliente.html'"
p3260
sS'global compile2'
p3261
S'<function compile2>'
p3262
sS'ccode'
p3263
S'undefined'
p3264
ssS'lnum'
p3265
I211
sS'lines'
p3266
(dp3267
I206
S"    environment['__name__'] = '__restricted__'"
p3268
sI207
S'    try:'
p3269
sI208
S'        if isinstance(code, types.CodeType):'
p3270
sI209
S'            ccode = code'
p3271
sI210
S'        else:'
p3272
sI211
S'            ccode = compile2(code, layer)'
p3273
sI212
S'        exec ccode in environment'
p3274
sI213
S'    except HTTP:'
p3275
sI214
S'        raise'
p3276
sI215
S'    except RestrictedError:'
p3277
ssS'call'
p3278
S'(code=r"response.write(\'<!DOCTYPE html>\\n<!-- paulirish....ponse.write(\'\\n</body>\\n</html>\\n\', escape=False)", environment={\'A\': <class \'gluon.html.A\'>, \'Auth\': <class \'gluon.tools.Auth\'>, \'B\': <class \'gluon.html.B\'>, \'BEAUTIFY\': <class \'gluon.html.BEAUTIFY\'>, \'BODY\': <class \'gluon.html.BODY\'>, \'BR\': <class \'gluon.html.BR\'>, \'BUTTON\': <class \'gluon.html.BUTTON\'>, \'CAT\': <class \'gluon.html.CAT\'>, \'CENTER\': <class \'gluon.html.CENTER\'>, \'CLEANUP\': <class \'gluon.validators.CLEANUP\'>, ...}, layer=\'/Users/Truki/web2py/applications/rosan/views/clientes/nuevoCliente.html\')'
p3279
sS'func'
p3280
S'restricted'
p3281
sa(dp3282
g3253
S'/Users/Truki/web2py/gluon/restricted.py'
p3283
sg3255
(dp3284
S'builtincompile'
p3285
S'<built-in function compile>'
p3286
sS'code'
p3287
S'r"response.write(\'<!DOCTYPE html>\\n<!-- paulirish....ponse.write(\'\\n</body>\\n</html>\\n\', escape=False)"'
p3288
sS'code.rstrip'
p3289
S'<built-in method rstrip of str object>'
p3290
sS').replace'
p3291
g3264
sS'layer'
p3292
S"'/Users/Truki/web2py/applications/rosan/views/clientes/nuevoCliente.html'"
p3293
ssg3265
I194
sg3266
(dp3294
I192
S"    The +'\\n' is necessary else compile fails when code ends in a comment."
p3295
sI193
S'    """'
p3296
sI194
S"    return compile(code.rstrip().replace('\\r\\n', '\\n') + '\\n', layer, 'exec')"
p3297
sI195
S''
sI196
S''
sI197
S"def restricted(code, environment=None, layer='Unknown'):"
p3298
sI198
S'    """'
p3299
sI189
S''
sI190
S'def compile2(code, layer):'
p3300
sI191
S'    """'
p3301
ssg3278
S'(code=r"response.write(\'<!DOCTYPE html>\\n<!-- paulirish....ponse.write(\'\\n</body>\\n</html>\\n\', escape=False)", layer=\'/Users/Truki/web2py/applications/rosan/views/clientes/nuevoCliente.html\')'
p3302
sg3280
S'compile2'
p3303
sasS'pyver'
p3304
S'Python 2.7.3: /Library/Frameworks/Python.framework/Versions/2.7/Resources/Python.app/Contents/MacOS/Python'
p3305
sS'session'
p3306
g68
(g69
g70
NtRp3307
(dp3308
g73
(dp3309
sg75
(lp3310
g68
(g77
g70
NtRp3311
(dp3312
g73
(dp3313
g81
I5
ssg82
Nsg75
(lp3314
g68
(g84
g70
NtRp3315
(dp3316
g73
(dp3317
sg82
g3311
sg75
(lp3318
g68
(g89
g70
NtRp3319
(dp3320
g73
(dp3321
g93
g94
ssg82
g3315
sg75
(lp3322
S'last_orderby'
p3323
asbag68
(g89
g70
NtRp3324
(dp3325
g73
(dp3326
g100
g101
ssg82
g3315
sg75
(lp3327
S':'
asbag68
(g89
g70
NtRp3328
(dp3329
g73
(dp3330
sg82
g3315
sg75
(lp3331
g68
(g69
g70
NtRp3332
(dp3333
g73
(dp3334
g81
I5
ssg82
g3328
sg75
(lp3335
S'None'
p3336
asbasbasbag68
(g84
g70
NtRp3337
(dp3338
g73
(dp3339
sg82
g3311
sg75
(lp3340
g68
(g89
g70
NtRp3341
(dp3342
g73
(dp3343
g93
g94
ssg82
g3337
sg75
(lp3344
S'last_query'
p3345
asbag68
(g89
g70
NtRp3346
(dp3347
g73
(dp3348
g100
g101
ssg82
g3337
sg75
(lp3349
S':'
asbag68
(g89
g70
NtRp3350
(dp3351
g73
(dp3352
sg82
g3337
sg75
(lp3353
g68
(g69
g70
NtRp3354
(dp3355
g73
(dp3356
g81
I5
ssg82
g3350
sg75
(lp3357
S'dbRosan.cliente.id>0'
p3358
asbasbasbasbasbsS'etype'
p3359
S"<type 'exceptions.SyntaxError'>"
p3360
sS'date'
p3361
S'Sun Jan 20 19:09:36 2013'
p3362
sS'response'
p3363
g68
(g69
g70
NtRp3364
(dp3365
g73
(dp3366
sg75
(lp3367
g68
(g77
g70
NtRp3368
(dp3369
g73
(dp3370
g81
I5
ssg82
Nsg75
(lp3371
g68
(g84
g70
NtRp3372
(dp3373
g73
(dp3374
sg82
g3368
sg75
(lp3375
g68
(g89
g70
NtRp3376
(dp3377
g73
(dp3378
g93
g94
ssg82
g3372
sg75
(lp3379
g166
asbag68
(g89
g70
NtRp3380
(dp3381
g73
(dp3382
g100
g101
ssg82
g3372
sg75
(lp3383
S':'
asbag68
(g89
g70
NtRp3384
(dp3385
g73
(dp3386
sg82
g3372
sg75
(lp3387
g68
(g69
g70
NtRp3388
(dp3389
g73
(dp3390
g81
I5
ssg82
g3384
sg75
(lp3391
S'<cStringIO.StringO object at 0x171966a0>'
p3392
asbasbasbag68
(g84
g70
NtRp3393
(dp3394
g73
(dp3395
sg82
g3368
sg75
(lp3396
g68
(g89
g70
NtRp3397
(dp3398
g73
(dp3399
g93
g94
ssg82
g3393
sg75
(lp3400
g254
asbag68
(g89
g70
NtRp3401
(dp3402
g73
(dp3403
g100
g101
ssg82
g3393
sg75
(lp3404
S':'
asbag68
(g89
g70
NtRp3405
(dp3406
g73
(dp3407
sg82
g3393
sg75
(lp3408
g68
(g69
g70
NtRp3409
(dp3410
g73
(dp3411
g81
I5
ssg82
g3405
sg75
(lp3412
g68
(g77
g70
NtRp3413
(dp3414
g73
(dp3415
g81
I4
ssg82
Nsg75
(lp3416
g68
(g84
g70
NtRp3417
(dp3418
g73
(dp3419
sg82
g3413
sg75
(lp3420
g68
(g89
g70
NtRp3421
(dp3422
g73
(dp3423
g93
g94
ssg82
g3417
sg75
(lp3424
S'session_id_rosan'
p3425
asbag68
(g89
g70
NtRp3426
(dp3427
g73
(dp3428
g100
g101
ssg82
g3417
sg75
(lp3429
S':'
asbag68
(g89
g70
NtRp3430
(dp3431
g73
(dp3432
sg82
g3417
sg75
(lp3433
g68
(g69
g70
NtRp3434
(dp3435
g73
(dp3436
g81
I4
ssg82
g3430
sg75
(lp3437
g486
ag68
(g77
g70
NtRp3438
(dp3439
g73
(dp3440
g81
I3
ssg82
Nsg75
(lp3441
g68
(g84
g70
NtRp3442
(dp3443
g73
(dp3444
sg82
g3438
sg75
(lp3445
g68
(g89
g70
NtRp3446
(dp3447
g73
(dp3448
g93
g94
ssg82
g3442
sg75
(lp3449
g305
asbag68
(g89
g70
NtRp3450
(dp3451
g73
(dp3452
g100
g101
ssg82
g3442
sg75
(lp3453
S':'
asbag68
(g89
g70
NtRp3454
(dp3455
g73
(dp3456
sg82
g3442
sg75
(lp3457
g68
(g69
g70
NtRp3458
(dp3459
g73
(dp3460
g81
I3
ssg82
g3454
sg75
(lp3461
S''
asbasbasbag68
(g84
g70
NtRp3462
(dp3463
g73
(dp3464
sg82
g3438
sg75
(lp3465
g68
(g89
g70
NtRp3466
(dp3467
g73
(dp3468
g93
g94
ssg82
g3462
sg75
(lp3469
g326
asbag68
(g89
g70
NtRp3470
(dp3471
g73
(dp3472
g100
g101
ssg82
g3462
sg75
(lp3473
S':'
asbag68
(g89
g70
NtRp3474
(dp3475
g73
(dp3476
sg82
g3462
sg75
(lp3477
g68
(g69
g70
NtRp3478
(dp3479
g73
(dp3480
g81
I3
ssg82
g3474
sg75
(lp3481
S''
asbasbasbag68
(g84
g70
NtRp3482
(dp3483
g73
(dp3484
sg82
g3438
sg75
(lp3485
g68
(g89
g70
NtRp3486
(dp3487
g73
(dp3488
g93
g94
ssg82
g3482
sg75
(lp3489
g347
asbag68
(g89
g70
NtRp3490
(dp3491
g73
(dp3492
g100
g101
ssg82
g3482
sg75
(lp3493
S':'
asbag68
(g89
g70
NtRp3494
(dp3495
g73
(dp3496
sg82
g3482
sg75
(lp3497
g68
(g69
g70
NtRp3498
(dp3499
g73
(dp3500
g81
I3
ssg82
g3494
sg75
(lp3501
S''
asbasbasbag68
(g84
g70
NtRp3502
(dp3503
g73
(dp3504
sg82
g3438
sg75
(lp3505
g68
(g89
g70
NtRp3506
(dp3507
g73
(dp3508
g93
g94
ssg82
g3502
sg75
(lp3509
g368
asbag68
(g89
g70
NtRp3510
(dp3511
g73
(dp3512
g100
g101
ssg82
g3502
sg75
(lp3513
S':'
asbag68
(g89
g70
NtRp3514
(dp3515
g73
(dp3516
sg82
g3502
sg75
(lp3517
g68
(g69
g70
NtRp3518
(dp3519
g73
(dp3520
g81
I3
ssg82
g3514
sg75
(lp3521
S''
asbasbasbag68
(g84
g70
NtRp3522
(dp3523
g73
(dp3524
sg82
g3438
sg75
(lp3525
g68
(g89
g70
NtRp3526
(dp3527
g73
(dp3528
g93
g94
ssg82
g3522
sg75
(lp3529
g389
asbag68
(g89
g70
NtRp3530
(dp3531
g73
(dp3532
g100
g101
ssg82
g3522
sg75
(lp3533
S':'
asbag68
(g89
g70
NtRp3534
(dp3535
g73
(dp3536
sg82
g3522
sg75
(lp3537
g68
(g69
g70
NtRp3538
(dp3539
g73
(dp3540
g81
I3
ssg82
g3534
sg75
(lp3541
S''
asbasbasbag68
(g84
g70
NtRp3542
(dp3543
g73
(dp3544
sg82
g3438
sg75
(lp3545
g68
(g89
g70
NtRp3546
(dp3547
g73
(dp3548
g93
g94
ssg82
g3542
sg75
(lp3549
g410
asbag68
(g89
g70
NtRp3550
(dp3551
g73
(dp3552
g100
g101
ssg82
g3542
sg75
(lp3553
S':'
asbag68
(g89
g70
NtRp3554
(dp3555
g73
(dp3556
sg82
g3542
sg75
(lp3557
g68
(g69
g70
NtRp3558
(dp3559
g73
(dp3560
g81
I3
ssg82
g3554
sg75
(lp3561
S'/'
asbasbasbag68
(g84
g70
NtRp3562
(dp3563
g73
(dp3564
sg82
g3438
sg75
(lp3565
g68
(g89
g70
NtRp3566
(dp3567
g73
(dp3568
g93
g94
ssg82
g3562
sg75
(lp3569
g431
asbag68
(g89
g70
NtRp3570
(dp3571
g73
(dp3572
g100
g101
ssg82
g3562
sg75
(lp3573
S':'
asbag68
(g89
g70
NtRp3574
(dp3575
g73
(dp3576
sg82
g3562
sg75
(lp3577
g68
(g69
g70
NtRp3578
(dp3579
g73
(dp3580
g81
I3
ssg82
g3574
sg75
(lp3581
S''
asbasbasbag68
(g84
g70
NtRp3582
(dp3583
g73
(dp3584
sg82
g3438
sg75
(lp3585
g68
(g89
g70
NtRp3586
(dp3587
g73
(dp3588
g93
g94
ssg82
g3582
sg75
(lp3589
g452
asbag68
(g89
g70
NtRp3590
(dp3591
g73
(dp3592
g100
g101
ssg82
g3582
sg75
(lp3593
S':'
asbag68
(g89
g70
NtRp3594
(dp3595
g73
(dp3596
sg82
g3582
sg75
(lp3597
g68
(g69
g70
NtRp3598
(dp3599
g73
(dp3600
g81
I3
ssg82
g3594
sg75
(lp3601
S''
asbasbasbasbasbasbasbasbasbasbasbag68
(g84
g70
NtRp3602
(dp3603
g73
(dp3604
sg82
g3368
sg75
(lp3605
g68
(g89
g70
NtRp3606
(dp3607
g73
(dp3608
g93
g94
ssg82
g3602
sg75
(lp3609
S'delimiters'
p3610
asbag68
(g89
g70
NtRp3611
(dp3612
g73
(dp3613
g100
g101
ssg82
g3602
sg75
(lp3614
S':'
asbag68
(g89
g70
NtRp3615
(dp3616
g73
(dp3617
sg82
g3602
sg75
(lp3618
g68
(g69
g70
NtRp3619
(dp3620
g73
(dp3621
g81
I5
ssg82
g3615
sg75
(lp3622
g68
(g77
g70
NtRp3623
(dp3624
g73
(dp3625
g81
I4
ssg82
Nsg75
(lp3626
g68
(g84
g70
NtRp3627
(dp3628
g73
(dp3629
sg82
g3623
sg75
(lp3630
g68
(g89
g70
NtRp3631
(dp3632
g73
(dp3633
sg82
g3627
sg75
(lp3634
g68
(g69
g70
NtRp3635
(dp3636
g73
(dp3637
g81
I4
ssg82
g3631
sg75
(lp3638
S'{{'
p3639
asbasbasbag68
(g84
g70
NtRp3640
(dp3641
g73
(dp3642
sg82
g3623
sg75
(lp3643
g68
(g89
g70
NtRp3644
(dp3645
g73
(dp3646
sg82
g3640
sg75
(lp3647
g68
(g69
g70
NtRp3648
(dp3649
g73
(dp3650
g81
I4
ssg82
g3644
sg75
(lp3651
S'}}'
p3652
asbasbasbasbasbasbasbag68
(g84
g70
NtRp3653
(dp3654
g73
(dp3655
sg82
g3368
sg75
(lp3656
g68
(g89
g70
NtRp3657
(dp3658
g73
(dp3659
g93
g94
ssg82
g3653
sg75
(lp3660
S'files'
p3661
asbag68
(g89
g70
NtRp3662
(dp3663
g73
(dp3664
g100
g101
ssg82
g3653
sg75
(lp3665
S':'
asbag68
(g89
g70
NtRp3666
(dp3667
g73
(dp3668
sg82
g3653
sg75
(lp3669
g68
(g69
g70
NtRp3670
(dp3671
g73
(dp3672
g81
I5
ssg82
g3666
sg75
(lp3673
g68
(g77
g70
NtRp3674
(dp3675
g73
(dp3676
g81
I4
ssg82
Nsg75
(lp3677
sbasbasbasbag68
(g84
g70
NtRp3678
(dp3679
g73
(dp3680
sg82
g3368
sg75
(lp3681
g68
(g89
g70
NtRp3682
(dp3683
g73
(dp3684
g93
g94
ssg82
g3678
sg75
(lp3685
S'flash'
p3686
asbag68
(g89
g70
NtRp3687
(dp3688
g73
(dp3689
g100
g101
ssg82
g3678
sg75
(lp3690
S':'
asbag68
(g89
g70
NtRp3691
(dp3692
g73
(dp3693
sg82
g3678
sg75
(lp3694
g68
(g69
g70
NtRp3695
(dp3696
g73
(dp3697
g81
I5
ssg82
g3691
sg75
(lp3698
S''
asbasbasbag68
(g84
g70
NtRp3699
(dp3700
g73
(dp3701
sg82
g3368
sg75
(lp3702
g68
(g89
g70
NtRp3703
(dp3704
g73
(dp3705
g93
g94
ssg82
g3699
sg75
(lp3706
S'generic_patterns'
p3707
asbag68
(g89
g70
NtRp3708
(dp3709
g73
(dp3710
g100
g101
ssg82
g3699
sg75
(lp3711
S':'
asbag68
(g89
g70
NtRp3712
(dp3713
g73
(dp3714
sg82
g3699
sg75
(lp3715
g68
(g69
g70
NtRp3716
(dp3717
g73
(dp3718
g81
I5
ssg82
g3712
sg75
(lp3719
g68
(g77
g70
NtRp3720
(dp3721
g73
(dp3722
g81
I4
ssg82
Nsg75
(lp3723
g68
(g84
g70
NtRp3724
(dp3725
g73
(dp3726
sg82
g3720
sg75
(lp3727
g68
(g89
g70
NtRp3728
(dp3729
g73
(dp3730
sg82
g3724
sg75
(lp3731
g68
(g69
g70
NtRp3732
(dp3733
g73
(dp3734
g81
I4
ssg82
g3728
sg75
(lp3735
S'*'
asbasbasbasbasbasbasbag68
(g84
g70
NtRp3736
(dp3737
g73
(dp3738
sg82
g3368
sg75
(lp3739
g68
(g89
g70
NtRp3740
(dp3741
g73
(dp3742
g93
g94
ssg82
g3736
sg75
(lp3743
S'headers'
p3744
asbag68
(g89
g70
NtRp3745
(dp3746
g73
(dp3747
g100
g101
ssg82
g3736
sg75
(lp3748
S':'
asbag68
(g89
g70
NtRp3749
(dp3750
g73
(dp3751
sg82
g3736
sg75
(lp3752
g68
(g69
g70
NtRp3753
(dp3754
g73
(dp3755
g81
I5
ssg82
g3749
sg75
(lp3756
g68
(g77
g70
NtRp3757
(dp3758
g73
(dp3759
g81
I4
ssg82
Nsg75
(lp3760
g68
(g84
g70
NtRp3761
(dp3762
g73
(dp3763
sg82
g3757
sg75
(lp3764
g68
(g89
g70
NtRp3765
(dp3766
g73
(dp3767
g93
g94
ssg82
g3761
sg75
(lp3768
S'X-Powered-By'
p3769
asbag68
(g89
g70
NtRp3770
(dp3771
g73
(dp3772
g100
g101
ssg82
g3761
sg75
(lp3773
S':'
asbag68
(g89
g70
NtRp3774
(dp3775
g73
(dp3776
sg82
g3761
sg75
(lp3777
g68
(g69
g70
NtRp3778
(dp3779
g73
(dp3780
g81
I4
ssg82
g3774
sg75
(lp3781
S'web2py'
p3782
asbasbasbasbasbasbasbag68
(g84
g70
NtRp3783
(dp3784
g73
(dp3785
sg82
g3368
sg75
(lp3786
g68
(g89
g70
NtRp3787
(dp3788
g73
(dp3789
g93
g94
ssg82
g3783
sg75
(lp3790
S'menu'
p3791
asbag68
(g89
g70
NtRp3792
(dp3793
g73
(dp3794
g100
g101
ssg82
g3783
sg75
(lp3795
S':'
asbag68
(g89
g70
NtRp3796
(dp3797
g73
(dp3798
sg82
g3783
sg75
(lp3799
g68
(g69
g70
NtRp3800
(dp3801
g73
(dp3802
g81
I5
ssg82
g3796
sg75
(lp3803
g68
(g77
g70
NtRp3804
(dp3805
g73
(dp3806
g81
I4
ssg82
Nsg75
(lp3807
g68
(g84
g70
NtRp3808
(dp3809
g73
(dp3810
sg82
g3804
sg75
(lp3811
g68
(g89
g70
NtRp3812
(dp3813
g73
(dp3814
sg82
g3808
sg75
(lp3815
g68
(g69
g70
NtRp3816
(dp3817
g73
(dp3818
g81
I4
ssg82
g3812
sg75
(lp3819
g68
(g77
g70
NtRp3820
(dp3821
g73
(dp3822
g81
I3
ssg82
Nsg75
(lp3823
g68
(g84
g70
NtRp3824
(dp3825
g73
(dp3826
sg82
g3820
sg75
(lp3827
g68
(g89
g70
NtRp3828
(dp3829
g73
(dp3830
sg82
g3824
sg75
(lp3831
g68
(g69
g70
NtRp3832
(dp3833
g73
(dp3834
g81
I3
ssg82
g3828
sg75
(lp3835
cgluon.languages
lazyT_unpickle
p3836
(S's\x06\x00\x00\x00Indice'
tRp3837
asbasbasbag68
(g84
g70
NtRp3838
(dp3839
g73
(dp3840
sg82
g3820
sg75
(lp3841
g68
(g89
g70
NtRp3842
(dp3843
g73
(dp3844
sg82
g3838
sg75
(lp3845
g68
(g69
g70
NtRp3846
(dp3847
g73
(dp3848
g81
I3
ssg82
g3842
sg75
(lp3849
g111
asbasbasbag68
(g84
g70
NtRp3850
(dp3851
g73
(dp3852
sg82
g3820
sg75
(lp3853
g68
(g89
g70
NtRp3854
(dp3855
g73
(dp3856
sg82
g3850
sg75
(lp3857
g68
(g69
g70
NtRp3858
(dp3859
g73
(dp3860
g81
I3
ssg82
g3854
sg75
(lp3861
S'/rosan/default/index'
p3862
asbasbasbag68
(g84
g70
NtRp3863
(dp3864
g73
(dp3865
sg82
g3820
sg75
(lp3866
g68
(g89
g70
NtRp3867
(dp3868
g73
(dp3869
sg82
g3863
sg75
(lp3870
g68
(g69
g70
NtRp3871
(dp3872
g73
(dp3873
g81
I3
ssg82
g3867
sg75
(lp3874
g68
(g77
g70
NtRp3875
(dp3876
g73
(dp3877
g81
I2
ssg82
Nsg75
(lp3878
sbasbasbasbasbasbasbasbag68
(g84
g70
NtRp3879
(dp3880
g73
(dp3881
sg82
g3804
sg75
(lp3882
g68
(g89
g70
NtRp3883
(dp3884
g73
(dp3885
sg82
g3879
sg75
(lp3886
g68
(g69
g70
NtRp3887
(dp3888
g73
(dp3889
g81
I4
ssg82
g3883
sg75
(lp3890
g68
(g77
g70
NtRp3891
(dp3892
g73
(dp3893
g81
I3
ssg82
Nsg75
(lp3894
g68
(g84
g70
NtRp3895
(dp3896
g73
(dp3897
sg82
g3891
sg75
(lp3898
g68
(g89
g70
NtRp3899
(dp3900
g73
(dp3901
sg82
g3895
sg75
(lp3902
g68
(g69
g70
NtRp3903
(dp3904
g73
(dp3905
g81
I3
ssg82
g3899
sg75
(lp3906
g3836
(S's\x08\x00\x00\x00Clientes'
tRp3907
asbasbasbag68
(g84
g70
NtRp3908
(dp3909
g73
(dp3910
sg82
g3891
sg75
(lp3911
g68
(g89
g70
NtRp3912
(dp3913
g73
(dp3914
sg82
g3908
sg75
(lp3915
g68
(g69
g70
NtRp3916
(dp3917
g73
(dp3918
g81
I3
ssg82
g3912
sg75
(lp3919
g111
asbasbasbag68
(g84
g70
NtRp3920
(dp3921
g73
(dp3922
sg82
g3891
sg75
(lp3923
g68
(g89
g70
NtRp3924
(dp3925
g73
(dp3926
sg82
g3920
sg75
(lp3927
g68
(g69
g70
NtRp3928
(dp3929
g73
(dp3930
g81
I3
ssg82
g3924
sg75
(lp3931
S'/rosan/default/nuevoCliente'
p3932
asbasbasbag68
(g84
g70
NtRp3933
(dp3934
g73
(dp3935
sg82
g3891
sg75
(lp3936
g68
(g89
g70
NtRp3937
(dp3938
g73
(dp3939
sg82
g3933
sg75
(lp3940
g68
(g69
g70
NtRp3941
(dp3942
g73
(dp3943
g81
I3
ssg82
g3937
sg75
(lp3944
g68
(g77
g70
NtRp3945
(dp3946
g73
(dp3947
g81
I2
ssg82
Nsg75
(lp3948
sbasbasbasbasbasbasbasbag68
(g84
g70
NtRp3949
(dp3950
g73
(dp3951
sg82
g3804
sg75
(lp3952
g68
(g89
g70
NtRp3953
(dp3954
g73
(dp3955
sg82
g3949
sg75
(lp3956
g68
(g69
g70
NtRp3957
(dp3958
g73
(dp3959
g81
I4
ssg82
g3953
sg75
(lp3960
g68
(g77
g70
NtRp3961
(dp3962
g73
(dp3963
g81
I3
ssg82
Nsg75
(lp3964
g68
(g84
g70
NtRp3965
(dp3966
g73
(dp3967
sg82
g3961
sg75
(lp3968
g68
(g89
g70
NtRp3969
(dp3970
g73
(dp3971
sg82
g3965
sg75
(lp3972
g68
(g69
g70
NtRp3973
(dp3974
g73
(dp3975
g81
I3
ssg82
g3969
sg75
(lp3976
g3836
(S's\x08\x00\x00\x00Facturas'
tRp3977
asbasbasbag68
(g84
g70
NtRp3978
(dp3979
g73
(dp3980
sg82
g3961
sg75
(lp3981
g68
(g89
g70
NtRp3982
(dp3983
g73
(dp3984
sg82
g3978
sg75
(lp3985
g68
(g69
g70
NtRp3986
(dp3987
g73
(dp3988
g81
I3
ssg82
g3982
sg75
(lp3989
g111
asbasbasbag68
(g84
g70
NtRp3990
(dp3991
g73
(dp3992
sg82
g3961
sg75
(lp3993
g68
(g89
g70
NtRp3994
(dp3995
g73
(dp3996
sg82
g3990
sg75
(lp3997
g68
(g69
g70
NtRp3998
(dp3999
g73
(dp4000
g81
I3
ssg82
g3994
sg75
(lp4001
S'/rosan/default/nuevaFactura'
p4002
asbasbasbag68
(g84
g70
NtRp4003
(dp4004
g73
(dp4005
sg82
g3961
sg75
(lp4006
g68
(g89
g70
NtRp4007
(dp4008
g73
(dp4009
sg82
g4003
sg75
(lp4010
g68
(g69
g70
NtRp4011
(dp4012
g73
(dp4013
g81
I3
ssg82
g4007
sg75
(lp4014
g68
(g77
g70
NtRp4015
(dp4016
g73
(dp4017
g81
I2
ssg82
Nsg75
(lp4018
sbasbasbasbasbasbasbasbag68
(g84
g70
NtRp4019
(dp4020
g73
(dp4021
sg82
g3804
sg75
(lp4022
g68
(g89
g70
NtRp4023
(dp4024
g73
(dp4025
sg82
g4019
sg75
(lp4026
g68
(g69
g70
NtRp4027
(dp4028
g73
(dp4029
g81
I4
ssg82
g4023
sg75
(lp4030
g68
(g77
g70
NtRp4031
(dp4032
g73
(dp4033
g81
I3
ssg82
Nsg75
(lp4034
g68
(g84
g70
NtRp4035
(dp4036
g73
(dp4037
sg82
g4031
sg75
(lp4038
g68
(g89
g70
NtRp4039
(dp4040
g73
(dp4041
sg82
g4035
sg75
(lp4042
g68
(g69
g70
NtRp4043
(dp4044
g73
(dp4045
g81
I3
ssg82
g4039
sg75
(lp4046
g3836
(S's\x0c\x00\x00\x00Presupuestos'
tRp4047
asbasbasbag68
(g84
g70
NtRp4048
(dp4049
g73
(dp4050
sg82
g4031
sg75
(lp4051
g68
(g89
g70
NtRp4052
(dp4053
g73
(dp4054
sg82
g4048
sg75
(lp4055
g68
(g69
g70
NtRp4056
(dp4057
g73
(dp4058
g81
I3
ssg82
g4052
sg75
(lp4059
g111
asbasbasbag68
(g84
g70
NtRp4060
(dp4061
g73
(dp4062
sg82
g4031
sg75
(lp4063
g68
(g89
g70
NtRp4064
(dp4065
g73
(dp4066
sg82
g4060
sg75
(lp4067
g68
(g69
g70
NtRp4068
(dp4069
g73
(dp4070
g81
I3
ssg82
g4064
sg75
(lp4071
S'/rosan/default/nuevoPresupuesto'
p4072
asbasbasbag68
(g84
g70
NtRp4073
(dp4074
g73
(dp4075
sg82
g4031
sg75
(lp4076
g68
(g89
g70
NtRp4077
(dp4078
g73
(dp4079
sg82
g4073
sg75
(lp4080
g68
(g69
g70
NtRp4081
(dp4082
g73
(dp4083
g81
I3
ssg82
g4077
sg75
(lp4084
g68
(g77
g70
NtRp4085
(dp4086
g73
(dp4087
g81
I2
ssg82
Nsg75
(lp4088
sbasbasbasbasbasbasbasbasbasbasbasbag68
(g84
g70
NtRp4089
(dp4090
g73
(dp4091
sg82
g3368
sg75
(lp4092
g68
(g89
g70
NtRp4093
(dp4094
g73
(dp4095
g93
g94
ssg82
g4089
sg75
(lp4096
S'meta'
p4097
asbag68
(g89
g70
NtRp4098
(dp4099
g73
(dp4100
g100
g101
ssg82
g4089
sg75
(lp4101
S':'
asbag68
(g89
g70
NtRp4102
(dp4103
g73
(dp4104
sg82
g4089
sg75
(lp4105
g68
(g69
g70
NtRp4106
(dp4107
g73
(dp4108
g81
I5
ssg82
g4102
sg75
(lp4109
g68
(g77
g70
NtRp4110
(dp4111
g73
(dp4112
g81
I4
ssg82
Nsg75
(lp4113
g68
(g84
g70
NtRp4114
(dp4115
g73
(dp4116
sg82
g4110
sg75
(lp4117
g68
(g89
g70
NtRp4118
(dp4119
g73
(dp4120
g93
g94
ssg82
g4114
sg75
(lp4121
S'author'
p4122
asbag68
(g89
g70
NtRp4123
(dp4124
g73
(dp4125
g100
g101
ssg82
g4114
sg75
(lp4126
S':'
asbag68
(g89
g70
NtRp4127
(dp4128
g73
(dp4129
sg82
g4114
sg75
(lp4130
g68
(g69
g70
NtRp4131
(dp4132
g73
(dp4133
g81
I4
ssg82
g4127
sg75
(lp4134
S'@trukise <trukise@gmail.com>'
p4135
asbasbasbag68
(g84
g70
NtRp4136
(dp4137
g73
(dp4138
sg82
g4110
sg75
(lp4139
g68
(g89
g70
NtRp4140
(dp4141
g73
(dp4142
g93
g94
ssg82
g4136
sg75
(lp4143
S'description'
p4144
asbag68
(g89
g70
NtRp4145
(dp4146
g73
(dp4147
g100
g101
ssg82
g4136
sg75
(lp4148
S':'
asbag68
(g89
g70
NtRp4149
(dp4150
g73
(dp4151
sg82
g4136
sg75
(lp4152
g68
(g69
g70
NtRp4153
(dp4154
g73
(dp4155
g81
I4
ssg82
g4149
sg75
(lp4156
S'Gesti\xc3\xb3n intengral de Fontaner\xc3\xada Rosa y S\xc3\xa1nchez'
p4157
asbasbasbag68
(g84
g70
NtRp4158
(dp4159
g73
(dp4160
sg82
g4110
sg75
(lp4161
g68
(g89
g70
NtRp4162
(dp4163
g73
(dp4164
g93
g94
ssg82
g4158
sg75
(lp4165
S'keywords'
p4166
asbag68
(g89
g70
NtRp4167
(dp4168
g73
(dp4169
g100
g101
ssg82
g4158
sg75
(lp4170
S':'
asbag68
(g89
g70
NtRp4171
(dp4172
g73
(dp4173
sg82
g4158
sg75
(lp4174
g68
(g69
g70
NtRp4175
(dp4176
g73
(dp4177
g81
I4
ssg82
g4171
sg75
(lp4178
S'Rosan, facturacion'
p4179
asbasbasbasbasbasbasbag68
(g84
g70
NtRp4180
(dp4181
g73
(dp4182
sg82
g3368
sg75
(lp4183
g68
(g89
g70
NtRp4184
(dp4185
g73
(dp4186
g93
g94
ssg82
g4180
sg75
(lp4187
S'models_to_run'
p4188
asbag68
(g89
g70
NtRp4189
(dp4190
g73
(dp4191
g100
g101
ssg82
g4180
sg75
(lp4192
S':'
asbag68
(g89
g70
NtRp4193
(dp4194
g73
(dp4195
sg82
g4180
sg75
(lp4196
g68
(g69
g70
NtRp4197
(dp4198
g73
(dp4199
g81
I5
ssg82
g4193
sg75
(lp4200
g68
(g77
g70
NtRp4201
(dp4202
g73
(dp4203
g81
I4
ssg82
Nsg75
(lp4204
g68
(g84
g70
NtRp4205
(dp4206
g73
(dp4207
sg82
g4201
sg75
(lp4208
g68
(g89
g70
NtRp4209
(dp4210
g73
(dp4211
sg82
g4205
sg75
(lp4212
g68
(g69
g70
NtRp4213
(dp4214
g73
(dp4215
g81
I4
ssg82
g4209
sg75
(lp4216
S'^\\w+\\.py$'
p4217
asbasbasbag68
(g84
g70
NtRp4218
(dp4219
g73
(dp4220
sg82
g4201
sg75
(lp4221
g68
(g89
g70
NtRp4222
(dp4223
g73
(dp4224
sg82
g4218
sg75
(lp4225
g68
(g69
g70
NtRp4226
(dp4227
g73
(dp4228
g81
I4
ssg82
g4222
sg75
(lp4229
S'^clientes/\\w+\\.py$'
p4230
asbasbasbag68
(g84
g70
NtRp4231
(dp4232
g73
(dp4233
sg82
g4201
sg75
(lp4234
g68
(g89
g70
NtRp4235
(dp4236
g73
(dp4237
sg82
g4231
sg75
(lp4238
g68
(g69
g70
NtRp4239
(dp4240
g73
(dp4241
g81
I4
ssg82
g4235
sg75
(lp4242
S'^clientes/nuevoCliente/\\w+\\.py$'
p4243
asbasbasbasbasbasbasbag68
(g84
g70
NtRp4244
(dp4245
g73
(dp4246
sg82
g3368
sg75
(lp4247
g68
(g89
g70
NtRp4248
(dp4249
g73
(dp4250
g93
g94
ssg82
g4244
sg75
(lp4251
S'postprocessing'
p4252
asbag68
(g89
g70
NtRp4253
(dp4254
g73
(dp4255
g100
g101
ssg82
g4244
sg75
(lp4256
S':'
asbag68
(g89
g70
NtRp4257
(dp4258
g73
(dp4259
sg82
g4244
sg75
(lp4260
g68
(g69
g70
NtRp4261
(dp4262
g73
(dp4263
g81
I5
ssg82
g4257
sg75
(lp4264
g68
(g77
g70
NtRp4265
(dp4266
g73
(dp4267
g81
I4
ssg82
Nsg75
(lp4268
sbasbasbasbag68
(g84
g70
NtRp4269
(dp4270
g73
(dp4271
sg82
g3368
sg75
(lp4272
g68
(g89
g70
NtRp4273
(dp4274
g73
(dp4275
g93
g94
ssg82
g4269
sg75
(lp4276
S'session_cookie_expires'
p4277
asbag68
(g89
g70
NtRp4278
(dp4279
g73
(dp4280
g100
g101
ssg82
g4269
sg75
(lp4281
S':'
asbag68
(g89
g70
NtRp4282
(dp4283
g73
(dp4284
sg82
g4269
sg75
(lp4285
g68
(g69
g70
NtRp4286
(dp4287
g73
(dp4288
g81
I5
ssg82
g4282
sg75
(lp4289
S'None'
p4290
asbasbasbag68
(g84
g70
NtRp4291
(dp4292
g73
(dp4293
sg82
g3368
sg75
(lp4294
g68
(g89
g70
NtRp4295
(dp4296
g73
(dp4297
g93
g94
ssg82
g4291
sg75
(lp4298
S'session_data_name'
p4299
asbag68
(g89
g70
NtRp4300
(dp4301
g73
(dp4302
g100
g101
ssg82
g4291
sg75
(lp4303
S':'
asbag68
(g89
g70
NtRp4304
(dp4305
g73
(dp4306
sg82
g4291
sg75
(lp4307
g68
(g69
g70
NtRp4308
(dp4309
g73
(dp4310
g81
I5
ssg82
g4304
sg75
(lp4311
S'session_data_rosan'
p4312
asbasbasbag68
(g84
g70
NtRp4313
(dp4314
g73
(dp4315
sg82
g3368
sg75
(lp4316
g68
(g89
g70
NtRp4317
(dp4318
g73
(dp4319
g93
g94
ssg82
g4313
sg75
(lp4320
S'session_file'
p4321
asbag68
(g89
g70
NtRp4322
(dp4323
g73
(dp4324
g100
g101
ssg82
g4313
sg75
(lp4325
S':'
asbag68
(g89
g70
NtRp4326
(dp4327
g73
(dp4328
sg82
g4313
sg75
(lp4329
g68
(g69
g70
NtRp4330
(dp4331
g73
(dp4332
g81
I5
ssg82
g4326
sg75
(lp4333
S"<open file '/Users/Truki/web2py/applications/rosan/sessions/127.0.0.1-7f26bdf4-3ca9-4fdc-87e8-ce55bec35287', mode 'rb+' at 0x187025f8>"
p4334
asbasbasbag68
(g84
g70
NtRp4335
(dp4336
g73
(dp4337
sg82
g3368
sg75
(lp4338
g68
(g89
g70
NtRp4339
(dp4340
g73
(dp4341
g93
g94
ssg82
g4335
sg75
(lp4342
S'session_filename'
p4343
asbag68
(g89
g70
NtRp4344
(dp4345
g73
(dp4346
g100
g101
ssg82
g4335
sg75
(lp4347
S':'
asbag68
(g89
g70
NtRp4348
(dp4349
g73
(dp4350
sg82
g4335
sg75
(lp4351
g68
(g69
g70
NtRp4352
(dp4353
g73
(dp4354
g81
I5
ssg82
g4348
sg75
(lp4355
S'/Users/Truki/web2py/applications/rosan/sessions/127.0.0.1-7f26bdf4-3ca9-4fdc-87e8-ce55bec35287'
p4356
asbasbasbag68
(g84
g70
NtRp4357
(dp4358
g73
(dp4359
sg82
g3368
sg75
(lp4360
g68
(g89
g70
NtRp4361
(dp4362
g73
(dp4363
g93
g94
ssg82
g4357
sg75
(lp4364
S'session_id'
p4365
asbag68
(g89
g70
NtRp4366
(dp4367
g73
(dp4368
g100
g101
ssg82
g4357
sg75
(lp4369
S':'
asbag68
(g89
g70
NtRp4370
(dp4371
g73
(dp4372
sg82
g4357
sg75
(lp4373
g68
(g69
g70
NtRp4374
(dp4375
g73
(dp4376
g81
I5
ssg82
g4370
sg75
(lp4377
g486
asbasbasbag68
(g84
g70
NtRp4378
(dp4379
g73
(dp4380
sg82
g3368
sg75
(lp4381
g68
(g89
g70
NtRp4382
(dp4383
g73
(dp4384
g93
g94
ssg82
g4378
sg75
(lp4385
S'session_id_name'
p4386
asbag68
(g89
g70
NtRp4387
(dp4388
g73
(dp4389
g100
g101
ssg82
g4378
sg75
(lp4390
S':'
asbag68
(g89
g70
NtRp4391
(dp4392
g73
(dp4393
sg82
g4378
sg75
(lp4394
g68
(g69
g70
NtRp4395
(dp4396
g73
(dp4397
g81
I5
ssg82
g4391
sg75
(lp4398
g3425
asbasbasbag68
(g84
g70
NtRp4399
(dp4400
g73
(dp4401
sg82
g3368
sg75
(lp4402
g68
(g89
g70
NtRp4403
(dp4404
g73
(dp4405
g93
g94
ssg82
g4399
sg75
(lp4406
S'session_locked'
p4407
asbag68
(g89
g70
NtRp4408
(dp4409
g73
(dp4410
g100
g101
ssg82
g4399
sg75
(lp4411
S':'
asbag68
(g89
g70
NtRp4412
(dp4413
g73
(dp4414
sg82
g4399
sg75
(lp4415
g68
(g69
g70
NtRp4416
(dp4417
g73
(dp4418
g81
I5
ssg82
g4412
sg75
(lp4419
g1801
asbasbasbag68
(g84
g70
NtRp4420
(dp4421
g73
(dp4422
sg82
g3368
sg75
(lp4423
g68
(g89
g70
NtRp4424
(dp4425
g73
(dp4426
g93
g94
ssg82
g4420
sg75
(lp4427
S'session_new'
p4428
asbag68
(g89
g70
NtRp4429
(dp4430
g73
(dp4431
g100
g101
ssg82
g4420
sg75
(lp4432
S':'
asbag68
(g89
g70
NtRp4433
(dp4434
g73
(dp4435
sg82
g4420
sg75
(lp4436
g68
(g69
g70
NtRp4437
(dp4438
g73
(dp4439
g81
I5
ssg82
g4433
sg75
(lp4440
g111
asbasbasbag68
(g84
g70
NtRp4441
(dp4442
g73
(dp4443
sg82
g3368
sg75
(lp4444
g68
(g89
g70
NtRp4445
(dp4446
g73
(dp4447
g93
g94
ssg82
g4441
sg75
(lp4448
S'session_storage_type'
p4449
asbag68
(g89
g70
NtRp4450
(dp4451
g73
(dp4452
g100
g101
ssg82
g4441
sg75
(lp4453
S':'
asbag68
(g89
g70
NtRp4454
(dp4455
g73
(dp4456
sg82
g4441
sg75
(lp4457
g68
(g69
g70
NtRp4458
(dp4459
g73
(dp4460
g81
I5
ssg82
g4454
sg75
(lp4461
g3253
asbasbasbag68
(g84
g70
NtRp4462
(dp4463
g73
(dp4464
sg82
g3368
sg75
(lp4465
g68
(g89
g70
NtRp4466
(dp4467
g73
(dp4468
g93
g94
ssg82
g4462
sg75
(lp4469
S'status'
p4470
asbag68
(g89
g70
NtRp4471
(dp4472
g73
(dp4473
g100
g101
ssg82
g4462
sg75
(lp4474
S':'
asbag68
(g89
g70
NtRp4475
(dp4476
g73
(dp4477
sg82
g4462
sg75
(lp4478
g68
(g69
g70
NtRp4479
(dp4480
g73
(dp4481
g81
I5
ssg82
g4475
sg75
(lp4482
S'200'
p4483
asbasbasbag68
(g84
g70
NtRp4484
(dp4485
g73
(dp4486
sg82
g3368
sg75
(lp4487
g68
(g89
g70
NtRp4488
(dp4489
g73
(dp4490
g93
g94
ssg82
g4484
sg75
(lp4491
S'subtitle'
p4492
asbag68
(g89
g70
NtRp4493
(dp4494
g73
(dp4495
g100
g101
ssg82
g4484
sg75
(lp4496
S':'
asbag68
(g89
g70
NtRp4497
(dp4498
g73
(dp4499
sg82
g4484
sg75
(lp4500
g68
(g69
g70
NtRp4501
(dp4502
g73
(dp4503
g81
I5
ssg82
g4497
sg75
(lp4504
S'by @trukise'
p4505
asbasbasbag68
(g84
g70
NtRp4506
(dp4507
g73
(dp4508
sg82
g3368
sg75
(lp4509
g68
(g89
g70
NtRp4510
(dp4511
g73
(dp4512
g93
g94
ssg82
g4506
sg75
(lp4513
S'title'
p4514
asbag68
(g89
g70
NtRp4515
(dp4516
g73
(dp4517
g100
g101
ssg82
g4506
sg75
(lp4518
S':'
asbag68
(g89
g70
NtRp4519
(dp4520
g73
(dp4521
sg82
g4506
sg75
(lp4522
g68
(g69
g70
NtRp4523
(dp4524
g73
(dp4525
g81
I5
ssg82
g4519
sg75
(lp4526
S'Rosan'
p4527
asbasbasbag68
(g84
g70
NtRp4528
(dp4529
g73
(dp4530
sg82
g3368
sg75
(lp4531
g68
(g89
g70
NtRp4532
(dp4533
g73
(dp4534
g93
g94
ssg82
g4528
sg75
(lp4535
S'view'
p4536
asbag68
(g89
g70
NtRp4537
(dp4538
g73
(dp4539
g100
g101
ssg82
g4528
sg75
(lp4540
S':'
asbag68
(g89
g70
NtRp4541
(dp4542
g73
(dp4543
sg82
g4528
sg75
(lp4544
g68
(g69
g70
NtRp4545
(dp4546
g73
(dp4547
g81
I5
ssg82
g4541
sg75
(lp4548
S'clientes/nuevoCliente.html'
p4549
asbasbasbasbasbsS'locals'
p4550
(dp4551
g4
S"'/Users/Truki/web2py/applications/rosan/views/clientes/nuevoCliente.html'"
p4552
sg6
S'r"response.write(\'<!DOCTYPE html>\\n<!-- paulirish....ponse.write(\'\\n</body>\\n</html>\\n\', escape=False)"'
p4553
sssS'traceback'
p4554
S'Traceback (most recent call last):\n  File "/Users/Truki/web2py/gluon/restricted.py", line 211, in restricted\n    ccode = compile2(code, layer)\n  File "/Users/Truki/web2py/gluon/restricted.py", line 194, in compile2\n    return compile(code.rstrip().replace(\'\\r\\n\', \'\\n\') + \'\\n\', layer, \'exec\')\n  File "/Users/Truki/web2py/applications/rosan/views/clientes/nuevoCliente.html", line 42\n    if =error != \'\':\n       ^\nSyntaxError: invalid syntax\n'
p4555
s.