(dp1
S'output'
p2
S"<type 'exceptions.SyntaxError'> invalid syntax (facturas.py, line 53)"
p3
sS'layer'
p4
S'/Users/Truki/Desarrollo/web2py/applications/rosan/controllers/facturas.py'
p5
sS'code'
p6
S'# coding: utf8\n# intente algo como\ndef index(): \n\tfacturas = dbRosan().select(dbRosan.factura.ALL, orderby=dbRosan.factura.fecha)\n\treturn dict(facturas=facturas)\n\n\n# Funcion nuevaFactura: INicio del creaci\xc3\xb3n de nueva factura.\ndef nuevaFactura():\n\t#buscamos el ultimo id de fcatura_temp\n\n\t#creamos la variable sesi\xc3\xb3n\n\tsession.facturaId = 1\n\treturn dict()\n\n# Funcion detalleFactura: donde se insertan las lineas de cada factura\ndef detalleFactura():\n\tinfo=""\n\t\n\t#recuperamos los datos de la factura temporal a partir de la variable de sesion que hemos pasado\n\tdatosFacturaTemp = dbRosan.factura_temp(session.facturaId)\n\tneto = datosFacturaTemp.neto \t\t\t\t\t\t\t\t\t#neto de la factura (sin IVA)\n\tdescuento = datosFacturaTemp.descuento\t\t\t\t\t\t\t#descuento de la factura (cantidad descontada)\n\tretencion = datosFacturaTemp.retencion \t\t\t\t\t\t\t#cantidad retenida deppendiendo del tipo_retencion\n\ttotalIVA = datosFacturaTemp.total_iva        \t\t\t\t\t#suma del IVA dependiendo del tipo_iva\n\ttotalBruto = datosFacturaTemp.total_bruto\t\t\t\t\t\t#suma de todo\n\n\tformConcepto = FORM((FIELDSET(DIV(LABEL("Descripci\xc3\xb3n", _class="control-label"), \n\t\t\t\t\t\t\t\t\t  DIV(TEXTAREA(_class="span7", _rows="5", _placeholder="Introduce la descripci\xc3\xb3n", _name="descripcion", requires=IS_NOT_EMPTY(error_message="Introduce una descripci\xc3\xb3n en el concepto")), _class="controls"), \n\t\t\t\t\t\t\t\t   _class="control-group")),\n\t\t\t\t\t\t\t\t  DIV(LABEL("Cantidad", _class="control-label"), \n\t\t\t\t\t\t\t\t\t  DIV(INPUT(_name="cantidad", _type="text", _class="input-large", _id="cantidad", _value="1", requires=IS_INT_IN_RANGE(1,999999, error_message="Introduce un valor entre 1 y 999999")), _class="controls"), \n\t\t\t\t\t\t\t\t   _class="control-group"),\n\t\t\t\t\t\t\t\t  DIV(LABEL("Precio", _class="control-label"),\n\t\t\t\t\t\t\t\t  \t  DIV(INPUT(_name="precio", _type="text", _class="input-large", _id="precio", requires=IS_FLOAT_IN_RANGE(0,9999999, dot=".", error_message="Introduce un valor entre 0 y 9999999, el signo de los decimales es el .")), _class="controls"),\n\t\t\t\t\t\t\t\t   _class="control-group"),\n\t\t\t\t\t\t\t\t  DIV(DIV(INPUT(_name="insertarConcepto", _type="submit", _class="btn btn-primary", _id="insertarConcepto", _value="Insertar"), _class="controls"), \n\t\t\t\t\t\t\t\t   _class="control-group")), \n\t\t\t\t\t\t_class="form-horizontal", _name="nuevoConcepto", _action=URL(\'/detalleFactura\'))\n\tif formConcepto.accepts(request, session):\n\t\tinfo="Concepto insertado"\n\t\t#Se inserta la lineaa en factura_detalle_temp\n\t\tdbRosan.factura_detalle_temp.insert(id_factura=1, id_articulo=0, \n\t\t\t\t\t\t\t\t\t\t\tarticulo=formConcepto.vars.descripcion, precio=formConcepto.vars.precio, cantidad=formConcepto.vars.cantidad, \n\t\t\t\t\t\t\t\t\t\t\ttotal_articulo=formConcepto.vars.precio * formConcepto.vars.cantidad)\n\t\t#se actualizan los totales en factura_temp\n\t\ttotalArticulo = formConcepto.vars.precio * formConcepto.vars.cantidad\n\t\tneto = (dbRosan.factura_temp.neto + totalArticulo)\n\t\tretencion = (dbRosan.factura_temp.tipo_retencion/100) * neto\n\t\ttotalIVA = ((dbRosan.factura_temp.tipo_iva/100) * neto)\n\t\ttotalBruto = ((neto - retencio + totalIVA)\n\n\t\tdbRosan(dbRosan.factura_temp.id == session.facturaId).update(neto = neto, descuento=0, retencion = retencion, total_iva = totalIVA, total_bruto = totalBruto)\n\n\telif formConcepto.errors:\n\t\tinfo="Concepto err\xc3\xb3neo"\n\telse:\n\t\tinfo="Rellena el formulario"\n\n\tformArticulo = FORM()\n\n\tlineas = dbRosan().select(dbRosan.factura_detalle_temp.ALL)\t\n\treturn dict(info=info, formConcepto=formConcepto, lineas=lineas, formArticulo=formArticulo, neto=neto, descuento=descuento, retencion=retencion, totalIVA = totalIVA, totalBruto = totalBruto)\n\n#eliminaci\xc3\xb3n de la linea del detalle de la factura desde bot\xc3\xb3n elimanar de la tabla con el detalle temporal.\ndef eliminarLineaTemp():\n    #query para encontrar la linea se pasa como argumento el idLinea\n    lineaEliminada = dbRosan.factura_detalle_temp(request.args[0]) or redirect(URL(\'error\'))\n    \n    #borramos la linea\n    dbRosan(dbRosan.fcatura_detalle_temp.id==lineaEliminada.id).delete()\n    \n    #Actualizamos los valores Neto, Retenci\xc3\xb3n,...\n\nresponse._vars=response._caller(detalleFactura)\n'
p7
sS'snapshot'
p8
(dp9
S'exception'
p10
(dp11
S'__getslice__'
p12
S"<method-wrapper '__getslice__' of exceptions.SyntaxError object>"
p13
sS'text'
p14
S"'\\t\\tdbRosan(dbRosan.factura_temp.id == session.fac... total_iva = totalIVA, total_bruto = totalBruto)\\n'"
p15
sS'__str__'
p16
S"<method-wrapper '__str__' of exceptions.SyntaxError object>"
p17
sS'__reduce__'
p18
S'<built-in method __reduce__ of exceptions.SyntaxError object>'
p19
sS'__dict__'
p20
S'{}'
p21
sS'__sizeof__'
p22
S'<built-in method __sizeof__ of exceptions.SyntaxError object>'
p23
sS'__init__'
p24
S"<method-wrapper '__init__' of exceptions.SyntaxError object>"
p25
sS'__setattr__'
p26
S"<method-wrapper '__setattr__' of exceptions.SyntaxError object>"
p27
sS'__reduce_ex__'
p28
S'<built-in method __reduce_ex__ of exceptions.SyntaxError object>'
p29
sS'__new__'
p30
S'<built-in method __new__ of type object>'
p31
sS'__format__'
p32
S'<built-in method __format__ of exceptions.SyntaxError object>'
p33
sS'__class__'
p34
S"<type 'exceptions.SyntaxError'>"
p35
sS'filename'
p36
S"'/Users/Truki/Desarrollo/web2py/applications/rosan/controllers/facturas.py'"
p37
sS'lineno'
p38
S'53'
p39
sS'msg'
p40
S"'invalid syntax'"
p41
sS'__doc__'
p42
S"'Invalid syntax.'"
p43
sS'__getitem__'
p44
S"<method-wrapper '__getitem__' of exceptions.SyntaxError object>"
p45
sS'__setstate__'
p46
S'<built-in method __setstate__ of exceptions.SyntaxError object>'
p47
sS'__getattribute__'
p48
S"<method-wrapper '__getattribute__' of exceptions.SyntaxError object>"
p49
sS'print_file_and_line'
p50
S'None'
p51
sS'args'
p52
S"('invalid syntax', ('/Users/Truki/Desarrollo/web2py/applications/rosan/controllers/facturas.py', 53, 9, '\\t\\tdbRosan(dbRosan.factura_temp.id == session.fac... total_iva = totalIVA, total_bruto = totalBruto)\\n'))"
p53
sS'__subclasshook__'
p54
S'<built-in method __subclasshook__ of type object>'
p55
sS'offset'
p56
S'9'
sS'__unicode__'
p57
S'<built-in method __unicode__ of exceptions.SyntaxError object>'
p58
sS'__delattr__'
p59
S"<method-wrapper '__delattr__' of exceptions.SyntaxError object>"
p60
sS'__repr__'
p61
S"<method-wrapper '__repr__' of exceptions.SyntaxError object>"
p62
sS'__hash__'
p63
S"<method-wrapper '__hash__' of exceptions.SyntaxError object>"
p64
ssS'evalue'
p65
S'invalid syntax (facturas.py, line 53)'
p66
sS'request'
p67
ccopy_reg
_reconstructor
p68
(cgluon.html
BEAUTIFY
p69
c__builtin__
object
p70
NtRp71
(dp72
S'attributes'
p73
(dp74
sS'components'
p75
(lp76
g68
(cgluon.html
TABLE
p77
g70
NtRp78
(dp79
g73
(dp80
S'level'
p81
I5
ssS'parent'
p82
Nsg75
(lp83
g68
(cgluon.html
TR
p84
g70
NtRp85
(dp86
g73
(dp87
sg82
g78
sg75
(lp88
g68
(cgluon.html
TD
p89
g70
NtRp90
(dp91
g73
(dp92
S'_style'
p93
S'font-weight:bold;vertical-align:top'
p94
ssg82
g85
sg75
(lp95
S'ajax'
p96
asbag68
(g89
g70
NtRp97
(dp98
g73
(dp99
S'_valign'
p100
S'top'
p101
ssg82
g85
sg75
(lp102
S':'
asbag68
(g89
g70
NtRp103
(dp104
g73
(dp105
sg82
g85
sg75
(lp106
g68
(g69
g70
NtRp107
(dp108
g73
(dp109
g81
I5
ssg82
g103
sg75
(lp110
S'False'
p111
asbasbasbag68
(g84
g70
NtRp112
(dp113
g73
(dp114
sg82
g78
sg75
(lp115
g68
(g89
g70
NtRp116
(dp117
g73
(dp118
g93
g94
ssg82
g112
sg75
(lp119
S'application'
p120
asbag68
(g89
g70
NtRp121
(dp122
g73
(dp123
g100
g101
ssg82
g112
sg75
(lp124
S':'
asbag68
(g89
g70
NtRp125
(dp126
g73
(dp127
sg82
g112
sg75
(lp128
g68
(g69
g70
NtRp129
(dp130
g73
(dp131
g81
I5
ssg82
g125
sg75
(lp132
S'rosan'
p133
asbasbasbag68
(g84
g70
NtRp134
(dp135
g73
(dp136
sg82
g78
sg75
(lp137
g68
(g89
g70
NtRp138
(dp139
g73
(dp140
g93
g94
ssg82
g134
sg75
(lp141
g52
asbag68
(g89
g70
NtRp142
(dp143
g73
(dp144
g100
g101
ssg82
g134
sg75
(lp145
S':'
asbag68
(g89
g70
NtRp146
(dp147
g73
(dp148
sg82
g134
sg75
(lp149
g68
(g69
g70
NtRp150
(dp151
g73
(dp152
g81
I5
ssg82
g146
sg75
(lp153
g68
(g77
g70
NtRp154
(dp155
g73
(dp156
g81
I4
ssg82
Nsg75
(lp157
sbasbasbasbag68
(g84
g70
NtRp158
(dp159
g73
(dp160
sg82
g78
sg75
(lp161
g68
(g89
g70
NtRp162
(dp163
g73
(dp164
g93
g94
ssg82
g158
sg75
(lp165
S'body'
p166
asbag68
(g89
g70
NtRp167
(dp168
g73
(dp169
g100
g101
ssg82
g158
sg75
(lp170
S':'
asbag68
(g89
g70
NtRp171
(dp172
g73
(dp173
sg82
g158
sg75
(lp174
g68
(g69
g70
NtRp175
(dp176
g73
(dp177
g81
I5
ssg82
g171
sg75
(lp178
S"<open file '<fdopen>', mode 'w+b' at 0x10ec32f60>"
p179
asbasbasbag68
(g84
g70
NtRp180
(dp181
g73
(dp182
sg82
g78
sg75
(lp183
g68
(g89
g70
NtRp184
(dp185
g73
(dp186
g93
g94
ssg82
g180
sg75
(lp187
S'cid'
p188
asbag68
(g89
g70
NtRp189
(dp190
g73
(dp191
g100
g101
ssg82
g180
sg75
(lp192
S':'
asbag68
(g89
g70
NtRp193
(dp194
g73
(dp195
sg82
g180
sg75
(lp196
g68
(g69
g70
NtRp197
(dp198
g73
(dp199
g81
I5
ssg82
g193
sg75
(lp200
S'None'
p201
asbasbasbag68
(g84
g70
NtRp202
(dp203
g73
(dp204
sg82
g78
sg75
(lp205
g68
(g89
g70
NtRp206
(dp207
g73
(dp208
g93
g94
ssg82
g202
sg75
(lp209
S'client'
p210
asbag68
(g89
g70
NtRp211
(dp212
g73
(dp213
g100
g101
ssg82
g202
sg75
(lp214
S':'
asbag68
(g89
g70
NtRp215
(dp216
g73
(dp217
sg82
g202
sg75
(lp218
g68
(g69
g70
NtRp219
(dp220
g73
(dp221
g81
I5
ssg82
g215
sg75
(lp222
S'127.0.0.1'
p223
asbasbasbag68
(g84
g70
NtRp224
(dp225
g73
(dp226
sg82
g78
sg75
(lp227
g68
(g89
g70
NtRp228
(dp229
g73
(dp230
g93
g94
ssg82
g224
sg75
(lp231
S'controller'
p232
asbag68
(g89
g70
NtRp233
(dp234
g73
(dp235
g100
g101
ssg82
g224
sg75
(lp236
S':'
asbag68
(g89
g70
NtRp237
(dp238
g73
(dp239
sg82
g224
sg75
(lp240
g68
(g69
g70
NtRp241
(dp242
g73
(dp243
g81
I5
ssg82
g237
sg75
(lp244
S'facturas'
p245
asbasbasbag68
(g84
g70
NtRp246
(dp247
g73
(dp248
sg82
g78
sg75
(lp249
g68
(g89
g70
NtRp250
(dp251
g73
(dp252
g93
g94
ssg82
g246
sg75
(lp253
S'cookies'
p254
asbag68
(g89
g70
NtRp255
(dp256
g73
(dp257
g100
g101
ssg82
g246
sg75
(lp258
S':'
asbag68
(g89
g70
NtRp259
(dp260
g73
(dp261
sg82
g246
sg75
(lp262
g68
(g69
g70
NtRp263
(dp264
g73
(dp265
g81
I5
ssg82
g259
sg75
(lp266
g68
(g77
g70
NtRp267
(dp268
g73
(dp269
g81
I4
ssg82
Nsg75
(lp270
g68
(g84
g70
NtRp271
(dp272
g73
(dp273
sg82
g267
sg75
(lp274
g68
(g89
g70
NtRp275
(dp276
g73
(dp277
g93
g94
ssg82
g271
sg75
(lp278
S'session_id_admin'
p279
asbag68
(g89
g70
NtRp280
(dp281
g73
(dp282
g100
g101
ssg82
g271
sg75
(lp283
S':'
asbag68
(g89
g70
NtRp284
(dp285
g73
(dp286
sg82
g271
sg75
(lp287
g68
(g69
g70
NtRp288
(dp289
g73
(dp290
g81
I4
ssg82
g284
sg75
(lp291
S'127.0.0.1-f0bf2f80-d47a-4c63-a82e-44a845bfe7e3'
p292
ag68
(g77
g70
NtRp293
(dp294
g73
(dp295
g81
I3
ssg82
Nsg75
(lp296
g68
(g84
g70
NtRp297
(dp298
g73
(dp299
sg82
g293
sg75
(lp300
g68
(g89
g70
NtRp301
(dp302
g73
(dp303
g93
g94
ssg82
g297
sg75
(lp304
S'comment'
p305
asbag68
(g89
g70
NtRp306
(dp307
g73
(dp308
g100
g101
ssg82
g297
sg75
(lp309
S':'
asbag68
(g89
g70
NtRp310
(dp311
g73
(dp312
sg82
g297
sg75
(lp313
g68
(g69
g70
NtRp314
(dp315
g73
(dp316
g81
I3
ssg82
g310
sg75
(lp317
S''
asbasbasbag68
(g84
g70
NtRp318
(dp319
g73
(dp320
sg82
g293
sg75
(lp321
g68
(g89
g70
NtRp322
(dp323
g73
(dp324
g93
g94
ssg82
g318
sg75
(lp325
S'domain'
p326
asbag68
(g89
g70
NtRp327
(dp328
g73
(dp329
g100
g101
ssg82
g318
sg75
(lp330
S':'
asbag68
(g89
g70
NtRp331
(dp332
g73
(dp333
sg82
g318
sg75
(lp334
g68
(g69
g70
NtRp335
(dp336
g73
(dp337
g81
I3
ssg82
g331
sg75
(lp338
S''
asbasbasbag68
(g84
g70
NtRp339
(dp340
g73
(dp341
sg82
g293
sg75
(lp342
g68
(g89
g70
NtRp343
(dp344
g73
(dp345
g93
g94
ssg82
g339
sg75
(lp346
S'expires'
p347
asbag68
(g89
g70
NtRp348
(dp349
g73
(dp350
g100
g101
ssg82
g339
sg75
(lp351
S':'
asbag68
(g89
g70
NtRp352
(dp353
g73
(dp354
sg82
g339
sg75
(lp355
g68
(g69
g70
NtRp356
(dp357
g73
(dp358
g81
I3
ssg82
g352
sg75
(lp359
S''
asbasbasbag68
(g84
g70
NtRp360
(dp361
g73
(dp362
sg82
g293
sg75
(lp363
g68
(g89
g70
NtRp364
(dp365
g73
(dp366
g93
g94
ssg82
g360
sg75
(lp367
S'httponly'
p368
asbag68
(g89
g70
NtRp369
(dp370
g73
(dp371
g100
g101
ssg82
g360
sg75
(lp372
S':'
asbag68
(g89
g70
NtRp373
(dp374
g73
(dp375
sg82
g360
sg75
(lp376
g68
(g69
g70
NtRp377
(dp378
g73
(dp379
g81
I3
ssg82
g373
sg75
(lp380
S''
asbasbasbag68
(g84
g70
NtRp381
(dp382
g73
(dp383
sg82
g293
sg75
(lp384
g68
(g89
g70
NtRp385
(dp386
g73
(dp387
g93
g94
ssg82
g381
sg75
(lp388
S'max-age'
p389
asbag68
(g89
g70
NtRp390
(dp391
g73
(dp392
g100
g101
ssg82
g381
sg75
(lp393
S':'
asbag68
(g89
g70
NtRp394
(dp395
g73
(dp396
sg82
g381
sg75
(lp397
g68
(g69
g70
NtRp398
(dp399
g73
(dp400
g81
I3
ssg82
g394
sg75
(lp401
S''
asbasbasbag68
(g84
g70
NtRp402
(dp403
g73
(dp404
sg82
g293
sg75
(lp405
g68
(g89
g70
NtRp406
(dp407
g73
(dp408
g93
g94
ssg82
g402
sg75
(lp409
S'path'
p410
asbag68
(g89
g70
NtRp411
(dp412
g73
(dp413
g100
g101
ssg82
g402
sg75
(lp414
S':'
asbag68
(g89
g70
NtRp415
(dp416
g73
(dp417
sg82
g402
sg75
(lp418
g68
(g69
g70
NtRp419
(dp420
g73
(dp421
g81
I3
ssg82
g415
sg75
(lp422
S''
asbasbasbag68
(g84
g70
NtRp423
(dp424
g73
(dp425
sg82
g293
sg75
(lp426
g68
(g89
g70
NtRp427
(dp428
g73
(dp429
g93
g94
ssg82
g423
sg75
(lp430
S'secure'
p431
asbag68
(g89
g70
NtRp432
(dp433
g73
(dp434
g100
g101
ssg82
g423
sg75
(lp435
S':'
asbag68
(g89
g70
NtRp436
(dp437
g73
(dp438
sg82
g423
sg75
(lp439
g68
(g69
g70
NtRp440
(dp441
g73
(dp442
g81
I3
ssg82
g436
sg75
(lp443
S''
asbasbasbag68
(g84
g70
NtRp444
(dp445
g73
(dp446
sg82
g293
sg75
(lp447
g68
(g89
g70
NtRp448
(dp449
g73
(dp450
g93
g94
ssg82
g444
sg75
(lp451
S'version'
p452
asbag68
(g89
g70
NtRp453
(dp454
g73
(dp455
g100
g101
ssg82
g444
sg75
(lp456
S':'
asbag68
(g89
g70
NtRp457
(dp458
g73
(dp459
sg82
g444
sg75
(lp460
g68
(g69
g70
NtRp461
(dp462
g73
(dp463
g81
I3
ssg82
g457
sg75
(lp464
S''
asbasbasbasbasbasbasbag68
(g84
g70
NtRp465
(dp466
g73
(dp467
sg82
g267
sg75
(lp468
g68
(g89
g70
NtRp469
(dp470
g73
(dp471
g93
g94
ssg82
g465
sg75
(lp472
S'session_id_rosan'
p473
asbag68
(g89
g70
NtRp474
(dp475
g73
(dp476
g100
g101
ssg82
g465
sg75
(lp477
S':'
asbag68
(g89
g70
NtRp478
(dp479
g73
(dp480
sg82
g465
sg75
(lp481
g68
(g69
g70
NtRp482
(dp483
g73
(dp484
g81
I4
ssg82
g478
sg75
(lp485
S'127.0.0.1-e44cb93f-049c-40c0-ade5-b5e99985895d'
p486
ag68
(g77
g70
NtRp487
(dp488
g73
(dp489
g81
I3
ssg82
Nsg75
(lp490
g68
(g84
g70
NtRp491
(dp492
g73
(dp493
sg82
g487
sg75
(lp494
g68
(g89
g70
NtRp495
(dp496
g73
(dp497
g93
g94
ssg82
g491
sg75
(lp498
g305
asbag68
(g89
g70
NtRp499
(dp500
g73
(dp501
g100
g101
ssg82
g491
sg75
(lp502
S':'
asbag68
(g89
g70
NtRp503
(dp504
g73
(dp505
sg82
g491
sg75
(lp506
g68
(g69
g70
NtRp507
(dp508
g73
(dp509
g81
I3
ssg82
g503
sg75
(lp510
S''
asbasbasbag68
(g84
g70
NtRp511
(dp512
g73
(dp513
sg82
g487
sg75
(lp514
g68
(g89
g70
NtRp515
(dp516
g73
(dp517
g93
g94
ssg82
g511
sg75
(lp518
g326
asbag68
(g89
g70
NtRp519
(dp520
g73
(dp521
g100
g101
ssg82
g511
sg75
(lp522
S':'
asbag68
(g89
g70
NtRp523
(dp524
g73
(dp525
sg82
g511
sg75
(lp526
g68
(g69
g70
NtRp527
(dp528
g73
(dp529
g81
I3
ssg82
g523
sg75
(lp530
S''
asbasbasbag68
(g84
g70
NtRp531
(dp532
g73
(dp533
sg82
g487
sg75
(lp534
g68
(g89
g70
NtRp535
(dp536
g73
(dp537
g93
g94
ssg82
g531
sg75
(lp538
g347
asbag68
(g89
g70
NtRp539
(dp540
g73
(dp541
g100
g101
ssg82
g531
sg75
(lp542
S':'
asbag68
(g89
g70
NtRp543
(dp544
g73
(dp545
sg82
g531
sg75
(lp546
g68
(g69
g70
NtRp547
(dp548
g73
(dp549
g81
I3
ssg82
g543
sg75
(lp550
S''
asbasbasbag68
(g84
g70
NtRp551
(dp552
g73
(dp553
sg82
g487
sg75
(lp554
g68
(g89
g70
NtRp555
(dp556
g73
(dp557
g93
g94
ssg82
g551
sg75
(lp558
g368
asbag68
(g89
g70
NtRp559
(dp560
g73
(dp561
g100
g101
ssg82
g551
sg75
(lp562
S':'
asbag68
(g89
g70
NtRp563
(dp564
g73
(dp565
sg82
g551
sg75
(lp566
g68
(g69
g70
NtRp567
(dp568
g73
(dp569
g81
I3
ssg82
g563
sg75
(lp570
S''
asbasbasbag68
(g84
g70
NtRp571
(dp572
g73
(dp573
sg82
g487
sg75
(lp574
g68
(g89
g70
NtRp575
(dp576
g73
(dp577
g93
g94
ssg82
g571
sg75
(lp578
g389
asbag68
(g89
g70
NtRp579
(dp580
g73
(dp581
g100
g101
ssg82
g571
sg75
(lp582
S':'
asbag68
(g89
g70
NtRp583
(dp584
g73
(dp585
sg82
g571
sg75
(lp586
g68
(g69
g70
NtRp587
(dp588
g73
(dp589
g81
I3
ssg82
g583
sg75
(lp590
S''
asbasbasbag68
(g84
g70
NtRp591
(dp592
g73
(dp593
sg82
g487
sg75
(lp594
g68
(g89
g70
NtRp595
(dp596
g73
(dp597
g93
g94
ssg82
g591
sg75
(lp598
g410
asbag68
(g89
g70
NtRp599
(dp600
g73
(dp601
g100
g101
ssg82
g591
sg75
(lp602
S':'
asbag68
(g89
g70
NtRp603
(dp604
g73
(dp605
sg82
g591
sg75
(lp606
g68
(g69
g70
NtRp607
(dp608
g73
(dp609
g81
I3
ssg82
g603
sg75
(lp610
S''
asbasbasbag68
(g84
g70
NtRp611
(dp612
g73
(dp613
sg82
g487
sg75
(lp614
g68
(g89
g70
NtRp615
(dp616
g73
(dp617
g93
g94
ssg82
g611
sg75
(lp618
g431
asbag68
(g89
g70
NtRp619
(dp620
g73
(dp621
g100
g101
ssg82
g611
sg75
(lp622
S':'
asbag68
(g89
g70
NtRp623
(dp624
g73
(dp625
sg82
g611
sg75
(lp626
g68
(g69
g70
NtRp627
(dp628
g73
(dp629
g81
I3
ssg82
g623
sg75
(lp630
S''
asbasbasbag68
(g84
g70
NtRp631
(dp632
g73
(dp633
sg82
g487
sg75
(lp634
g68
(g89
g70
NtRp635
(dp636
g73
(dp637
g93
g94
ssg82
g631
sg75
(lp638
g452
asbag68
(g89
g70
NtRp639
(dp640
g73
(dp641
g100
g101
ssg82
g631
sg75
(lp642
S':'
asbag68
(g89
g70
NtRp643
(dp644
g73
(dp645
sg82
g631
sg75
(lp646
g68
(g69
g70
NtRp647
(dp648
g73
(dp649
g81
I3
ssg82
g643
sg75
(lp650
S''
asbasbasbasbasbasbasbag68
(g84
g70
NtRp651
(dp652
g73
(dp653
sg82
g267
sg75
(lp654
g68
(g89
g70
NtRp655
(dp656
g73
(dp657
g93
g94
ssg82
g651
sg75
(lp658
S'session_id_welcome'
p659
asbag68
(g89
g70
NtRp660
(dp661
g73
(dp662
g100
g101
ssg82
g651
sg75
(lp663
S':'
asbag68
(g89
g70
NtRp664
(dp665
g73
(dp666
sg82
g651
sg75
(lp667
g68
(g69
g70
NtRp668
(dp669
g73
(dp670
g81
I4
ssg82
g664
sg75
(lp671
S'127.0.0.1-70fac521-7f5c-422f-a856-bf00b2216810'
p672
ag68
(g77
g70
NtRp673
(dp674
g73
(dp675
g81
I3
ssg82
Nsg75
(lp676
g68
(g84
g70
NtRp677
(dp678
g73
(dp679
sg82
g673
sg75
(lp680
g68
(g89
g70
NtRp681
(dp682
g73
(dp683
g93
g94
ssg82
g677
sg75
(lp684
g305
asbag68
(g89
g70
NtRp685
(dp686
g73
(dp687
g100
g101
ssg82
g677
sg75
(lp688
S':'
asbag68
(g89
g70
NtRp689
(dp690
g73
(dp691
sg82
g677
sg75
(lp692
g68
(g69
g70
NtRp693
(dp694
g73
(dp695
g81
I3
ssg82
g689
sg75
(lp696
S''
asbasbasbag68
(g84
g70
NtRp697
(dp698
g73
(dp699
sg82
g673
sg75
(lp700
g68
(g89
g70
NtRp701
(dp702
g73
(dp703
g93
g94
ssg82
g697
sg75
(lp704
g326
asbag68
(g89
g70
NtRp705
(dp706
g73
(dp707
g100
g101
ssg82
g697
sg75
(lp708
S':'
asbag68
(g89
g70
NtRp709
(dp710
g73
(dp711
sg82
g697
sg75
(lp712
g68
(g69
g70
NtRp713
(dp714
g73
(dp715
g81
I3
ssg82
g709
sg75
(lp716
S''
asbasbasbag68
(g84
g70
NtRp717
(dp718
g73
(dp719
sg82
g673
sg75
(lp720
g68
(g89
g70
NtRp721
(dp722
g73
(dp723
g93
g94
ssg82
g717
sg75
(lp724
g347
asbag68
(g89
g70
NtRp725
(dp726
g73
(dp727
g100
g101
ssg82
g717
sg75
(lp728
S':'
asbag68
(g89
g70
NtRp729
(dp730
g73
(dp731
sg82
g717
sg75
(lp732
g68
(g69
g70
NtRp733
(dp734
g73
(dp735
g81
I3
ssg82
g729
sg75
(lp736
S''
asbasbasbag68
(g84
g70
NtRp737
(dp738
g73
(dp739
sg82
g673
sg75
(lp740
g68
(g89
g70
NtRp741
(dp742
g73
(dp743
g93
g94
ssg82
g737
sg75
(lp744
g368
asbag68
(g89
g70
NtRp745
(dp746
g73
(dp747
g100
g101
ssg82
g737
sg75
(lp748
S':'
asbag68
(g89
g70
NtRp749
(dp750
g73
(dp751
sg82
g737
sg75
(lp752
g68
(g69
g70
NtRp753
(dp754
g73
(dp755
g81
I3
ssg82
g749
sg75
(lp756
S''
asbasbasbag68
(g84
g70
NtRp757
(dp758
g73
(dp759
sg82
g673
sg75
(lp760
g68
(g89
g70
NtRp761
(dp762
g73
(dp763
g93
g94
ssg82
g757
sg75
(lp764
g389
asbag68
(g89
g70
NtRp765
(dp766
g73
(dp767
g100
g101
ssg82
g757
sg75
(lp768
S':'
asbag68
(g89
g70
NtRp769
(dp770
g73
(dp771
sg82
g757
sg75
(lp772
g68
(g69
g70
NtRp773
(dp774
g73
(dp775
g81
I3
ssg82
g769
sg75
(lp776
S''
asbasbasbag68
(g84
g70
NtRp777
(dp778
g73
(dp779
sg82
g673
sg75
(lp780
g68
(g89
g70
NtRp781
(dp782
g73
(dp783
g93
g94
ssg82
g777
sg75
(lp784
g410
asbag68
(g89
g70
NtRp785
(dp786
g73
(dp787
g100
g101
ssg82
g777
sg75
(lp788
S':'
asbag68
(g89
g70
NtRp789
(dp790
g73
(dp791
sg82
g777
sg75
(lp792
g68
(g69
g70
NtRp793
(dp794
g73
(dp795
g81
I3
ssg82
g789
sg75
(lp796
S''
asbasbasbag68
(g84
g70
NtRp797
(dp798
g73
(dp799
sg82
g673
sg75
(lp800
g68
(g89
g70
NtRp801
(dp802
g73
(dp803
g93
g94
ssg82
g797
sg75
(lp804
g431
asbag68
(g89
g70
NtRp805
(dp806
g73
(dp807
g100
g101
ssg82
g797
sg75
(lp808
S':'
asbag68
(g89
g70
NtRp809
(dp810
g73
(dp811
sg82
g797
sg75
(lp812
g68
(g69
g70
NtRp813
(dp814
g73
(dp815
g81
I3
ssg82
g809
sg75
(lp816
S''
asbasbasbag68
(g84
g70
NtRp817
(dp818
g73
(dp819
sg82
g673
sg75
(lp820
g68
(g89
g70
NtRp821
(dp822
g73
(dp823
g93
g94
ssg82
g817
sg75
(lp824
g452
asbag68
(g89
g70
NtRp825
(dp826
g73
(dp827
g100
g101
ssg82
g817
sg75
(lp828
S':'
asbag68
(g89
g70
NtRp829
(dp830
g73
(dp831
sg82
g817
sg75
(lp832
g68
(g69
g70
NtRp833
(dp834
g73
(dp835
g81
I3
ssg82
g829
sg75
(lp836
S''
asbasbasbasbasbasbasbasbasbasbasbag68
(g84
g70
NtRp837
(dp838
g73
(dp839
sg82
g78
sg75
(lp840
g68
(g89
g70
NtRp841
(dp842
g73
(dp843
g93
g94
ssg82
g837
sg75
(lp844
S'env'
p845
asbag68
(g89
g70
NtRp846
(dp847
g73
(dp848
g100
g101
ssg82
g837
sg75
(lp849
S':'
asbag68
(g89
g70
NtRp850
(dp851
g73
(dp852
sg82
g837
sg75
(lp853
g68
(g69
g70
NtRp854
(dp855
g73
(dp856
g81
I5
ssg82
g850
sg75
(lp857
g68
(g77
g70
NtRp858
(dp859
g73
(dp860
g81
I4
ssg82
Nsg75
(lp861
g68
(g84
g70
NtRp862
(dp863
g73
(dp864
sg82
g858
sg75
(lp865
g68
(g89
g70
NtRp866
(dp867
g73
(dp868
g93
g94
ssg82
g862
sg75
(lp869
S'app_folders'
p870
asbag68
(g89
g70
NtRp871
(dp872
g73
(dp873
g100
g101
ssg82
g862
sg75
(lp874
S':'
asbag68
(g89
g70
NtRp875
(dp876
g73
(dp877
sg82
g862
sg75
(lp878
g68
(g69
g70
NtRp879
(dp880
g73
(dp881
g81
I4
ssg82
g875
sg75
(lp882
S"set(['/Users/Truki/Desarrollo/web2py/applications/welcome/', '/Users/Truki/Desarrollo/web2py/applications/rosan/', '/Users/Truki/Desarrollo/web2py/applications/admin/'])"
p883
asbasbasbag68
(g84
g70
NtRp884
(dp885
g73
(dp886
sg82
g858
sg75
(lp887
g68
(g89
g70
NtRp888
(dp889
g73
(dp890
g93
g94
ssg82
g884
sg75
(lp891
S'applications_parent'
p892
asbag68
(g89
g70
NtRp893
(dp894
g73
(dp895
g100
g101
ssg82
g884
sg75
(lp896
S':'
asbag68
(g89
g70
NtRp897
(dp898
g73
(dp899
sg82
g884
sg75
(lp900
g68
(g69
g70
NtRp901
(dp902
g73
(dp903
g81
I4
ssg82
g897
sg75
(lp904
S'/Users/Truki/Desarrollo/web2py'
p905
asbasbasbag68
(g84
g70
NtRp906
(dp907
g73
(dp908
sg82
g858
sg75
(lp909
g68
(g89
g70
NtRp910
(dp911
g73
(dp912
g93
g94
ssg82
g906
sg75
(lp913
S'cmd_args'
p914
asbag68
(g89
g70
NtRp915
(dp916
g73
(dp917
g100
g101
ssg82
g906
sg75
(lp918
S':'
asbag68
(g89
g70
NtRp919
(dp920
g73
(dp921
sg82
g906
sg75
(lp922
g68
(g69
g70
NtRp923
(dp924
g73
(dp925
g81
I4
ssg82
g919
sg75
(lp926
g68
(g77
g70
NtRp927
(dp928
g73
(dp929
g81
I3
ssg82
Nsg75
(lp930
sbasbasbasbag68
(g84
g70
NtRp931
(dp932
g73
(dp933
sg82
g858
sg75
(lp934
g68
(g89
g70
NtRp935
(dp936
g73
(dp937
g93
g94
ssg82
g931
sg75
(lp938
S'cmd_options'
p939
asbag68
(g89
g70
NtRp940
(dp941
g73
(dp942
g100
g101
ssg82
g931
sg75
(lp943
S':'
asbag68
(g89
g70
NtRp944
(dp945
g73
(dp946
sg82
g931
sg75
(lp947
g68
(g69
g70
NtRp948
(dp949
g73
(dp950
g81
I4
ssg82
g944
sg75
(lp951
S"<Values at 0x10aa51128: {'verbose': False, 'ip': '127.0.0.1', 'with_scheduler': False, 'ips': ['fe80::8e2d:aaff:fe4a:3d35%en1', '192.168.1.35'], 'shutdown_timeout': 5, 'taskbar': False, 'port': 8000, 'maxthreads': None, 'softcron': False, 'server_name': 'PeritoMascao.local', 'bpython': False, 'nogui': False, 'pid_filename': 'httpserver.pid', 'extcron': False, 'runcron': False, 'run_system_tests': False, 'test': None, 'folder': '/Users/Truki/Desarrollo/web2py', 'config': '', 'minthreads': None, 'winservice': '', 'shell': None, 'run': '', 'log_filename': 'httpserver.log', 'debuglevel': 30, 'args': [''], 'socket_timeout': 5, 'ssl_ca_certificate': None, 'scheduler': None, 'profiler_filename': None, 'ssl_private_key': '', 'scheduler_groups': None, 'password': '<ask>', 'request_queue_size': 5, 'ssl_certificate': '', 'cronjob': False, 'numthreads': None, 'quiet': False, 'interfaces': None, 'import_models': False, 'timeout': 10, 'plain': False, 'nobanner': False}>"
p952
asbasbasbag68
(g84
g70
NtRp953
(dp954
g73
(dp955
sg82
g858
sg75
(lp956
g68
(g89
g70
NtRp957
(dp958
g73
(dp959
g93
g94
ssg82
g953
sg75
(lp960
S'content_length'
p961
asbag68
(g89
g70
NtRp962
(dp963
g73
(dp964
g100
g101
ssg82
g953
sg75
(lp965
S':'
asbag68
(g89
g70
NtRp966
(dp967
g73
(dp968
sg82
g953
sg75
(lp969
g68
(g69
g70
NtRp970
(dp971
g73
(dp972
g81
I4
ssg82
g966
sg75
(lp973
S'687'
p974
asbasbasbag68
(g84
g70
NtRp975
(dp976
g73
(dp977
sg82
g858
sg75
(lp978
g68
(g89
g70
NtRp979
(dp980
g73
(dp981
g93
g94
ssg82
g975
sg75
(lp982
S'content_type'
p983
asbag68
(g89
g70
NtRp984
(dp985
g73
(dp986
g100
g101
ssg82
g975
sg75
(lp987
S':'
asbag68
(g89
g70
NtRp988
(dp989
g73
(dp990
sg82
g975
sg75
(lp991
g68
(g69
g70
NtRp992
(dp993
g73
(dp994
g81
I4
ssg82
g988
sg75
(lp995
S'multipart/form-data; boundary=----WebKitFormBoundaryysENozUSV10D0r79'
p996
asbasbasbag68
(g84
g70
NtRp997
(dp998
g73
(dp999
sg82
g858
sg75
(lp1000
g68
(g89
g70
NtRp1001
(dp1002
g73
(dp1003
g93
g94
ssg82
g997
sg75
(lp1004
S'db_sessions'
p1005
asbag68
(g89
g70
NtRp1006
(dp1007
g73
(dp1008
g100
g101
ssg82
g997
sg75
(lp1009
S':'
asbag68
(g89
g70
NtRp1010
(dp1011
g73
(dp1012
sg82
g997
sg75
(lp1013
g68
(g69
g70
NtRp1014
(dp1015
g73
(dp1016
g81
I4
ssg82
g1010
sg75
(lp1017
S'set([])'
p1018
asbasbasbag68
(g84
g70
NtRp1019
(dp1020
g73
(dp1021
sg82
g858
sg75
(lp1022
g68
(g89
g70
NtRp1023
(dp1024
g73
(dp1025
g93
g94
ssg82
g1019
sg75
(lp1026
S'debugging'
p1027
asbag68
(g89
g70
NtRp1028
(dp1029
g73
(dp1030
g100
g101
ssg82
g1019
sg75
(lp1031
S':'
asbag68
(g89
g70
NtRp1032
(dp1033
g73
(dp1034
sg82
g1019
sg75
(lp1035
g68
(g69
g70
NtRp1036
(dp1037
g73
(dp1038
g81
I4
ssg82
g1032
sg75
(lp1039
g111
asbasbasbag68
(g84
g70
NtRp1040
(dp1041
g73
(dp1042
sg82
g858
sg75
(lp1043
g68
(g89
g70
NtRp1044
(dp1045
g73
(dp1046
g93
g94
ssg82
g1040
sg75
(lp1047
S'gluon_parent'
p1048
asbag68
(g89
g70
NtRp1049
(dp1050
g73
(dp1051
g100
g101
ssg82
g1040
sg75
(lp1052
S':'
asbag68
(g89
g70
NtRp1053
(dp1054
g73
(dp1055
sg82
g1040
sg75
(lp1056
g68
(g69
g70
NtRp1057
(dp1058
g73
(dp1059
g81
I4
ssg82
g1053
sg75
(lp1060
S'/Users/Truki/Desarrollo/web2py'
p1061
asbasbasbag68
(g84
g70
NtRp1062
(dp1063
g73
(dp1064
sg82
g858
sg75
(lp1065
g68
(g89
g70
NtRp1066
(dp1067
g73
(dp1068
g93
g94
ssg82
g1062
sg75
(lp1069
S'http_accept'
p1070
asbag68
(g89
g70
NtRp1071
(dp1072
g73
(dp1073
g100
g101
ssg82
g1062
sg75
(lp1074
S':'
asbag68
(g89
g70
NtRp1075
(dp1076
g73
(dp1077
sg82
g1062
sg75
(lp1078
g68
(g69
g70
NtRp1079
(dp1080
g73
(dp1081
g81
I4
ssg82
g1075
sg75
(lp1082
S'text/html,application/xhtml+xml,application/xml;q=0.9,*/*;q=0.8'
p1083
asbasbasbag68
(g84
g70
NtRp1084
(dp1085
g73
(dp1086
sg82
g858
sg75
(lp1087
g68
(g89
g70
NtRp1088
(dp1089
g73
(dp1090
g93
g94
ssg82
g1084
sg75
(lp1091
S'http_accept_charset'
p1092
asbag68
(g89
g70
NtRp1093
(dp1094
g73
(dp1095
g100
g101
ssg82
g1084
sg75
(lp1096
S':'
asbag68
(g89
g70
NtRp1097
(dp1098
g73
(dp1099
sg82
g1084
sg75
(lp1100
g68
(g69
g70
NtRp1101
(dp1102
g73
(dp1103
g81
I4
ssg82
g1097
sg75
(lp1104
S'ISO-8859-1,utf-8;q=0.7,*;q=0.3'
p1105
asbasbasbag68
(g84
g70
NtRp1106
(dp1107
g73
(dp1108
sg82
g858
sg75
(lp1109
g68
(g89
g70
NtRp1110
(dp1111
g73
(dp1112
g93
g94
ssg82
g1106
sg75
(lp1113
S'http_accept_encoding'
p1114
asbag68
(g89
g70
NtRp1115
(dp1116
g73
(dp1117
g100
g101
ssg82
g1106
sg75
(lp1118
S':'
asbag68
(g89
g70
NtRp1119
(dp1120
g73
(dp1121
sg82
g1106
sg75
(lp1122
g68
(g69
g70
NtRp1123
(dp1124
g73
(dp1125
g81
I4
ssg82
g1119
sg75
(lp1126
S'gzip,deflate,sdch'
p1127
asbasbasbag68
(g84
g70
NtRp1128
(dp1129
g73
(dp1130
sg82
g858
sg75
(lp1131
g68
(g89
g70
NtRp1132
(dp1133
g73
(dp1134
g93
g94
ssg82
g1128
sg75
(lp1135
S'http_accept_language'
p1136
asbag68
(g89
g70
NtRp1137
(dp1138
g73
(dp1139
g100
g101
ssg82
g1128
sg75
(lp1140
S':'
asbag68
(g89
g70
NtRp1141
(dp1142
g73
(dp1143
sg82
g1128
sg75
(lp1144
g68
(g69
g70
NtRp1145
(dp1146
g73
(dp1147
g81
I4
ssg82
g1141
sg75
(lp1148
S'es-ES,es;q=0.8'
p1149
asbasbasbag68
(g84
g70
NtRp1150
(dp1151
g73
(dp1152
sg82
g858
sg75
(lp1153
g68
(g89
g70
NtRp1154
(dp1155
g73
(dp1156
g93
g94
ssg82
g1150
sg75
(lp1157
S'http_cache_control'
p1158
asbag68
(g89
g70
NtRp1159
(dp1160
g73
(dp1161
g100
g101
ssg82
g1150
sg75
(lp1162
S':'
asbag68
(g89
g70
NtRp1163
(dp1164
g73
(dp1165
sg82
g1150
sg75
(lp1166
g68
(g69
g70
NtRp1167
(dp1168
g73
(dp1169
g81
I4
ssg82
g1163
sg75
(lp1170
S'max-age=0'
p1171
asbasbasbag68
(g84
g70
NtRp1172
(dp1173
g73
(dp1174
sg82
g858
sg75
(lp1175
g68
(g89
g70
NtRp1176
(dp1177
g73
(dp1178
g93
g94
ssg82
g1172
sg75
(lp1179
S'http_connection'
p1180
asbag68
(g89
g70
NtRp1181
(dp1182
g73
(dp1183
g100
g101
ssg82
g1172
sg75
(lp1184
S':'
asbag68
(g89
g70
NtRp1185
(dp1186
g73
(dp1187
sg82
g1172
sg75
(lp1188
g68
(g69
g70
NtRp1189
(dp1190
g73
(dp1191
g81
I4
ssg82
g1185
sg75
(lp1192
S'keep-alive'
p1193
asbasbasbag68
(g84
g70
NtRp1194
(dp1195
g73
(dp1196
sg82
g858
sg75
(lp1197
g68
(g89
g70
NtRp1198
(dp1199
g73
(dp1200
g93
g94
ssg82
g1194
sg75
(lp1201
S'http_content_length'
p1202
asbag68
(g89
g70
NtRp1203
(dp1204
g73
(dp1205
g100
g101
ssg82
g1194
sg75
(lp1206
S':'
asbag68
(g89
g70
NtRp1207
(dp1208
g73
(dp1209
sg82
g1194
sg75
(lp1210
g68
(g69
g70
NtRp1211
(dp1212
g73
(dp1213
g81
I4
ssg82
g1207
sg75
(lp1214
g974
asbasbasbag68
(g84
g70
NtRp1215
(dp1216
g73
(dp1217
sg82
g858
sg75
(lp1218
g68
(g89
g70
NtRp1219
(dp1220
g73
(dp1221
g93
g94
ssg82
g1215
sg75
(lp1222
S'http_content_type'
p1223
asbag68
(g89
g70
NtRp1224
(dp1225
g73
(dp1226
g100
g101
ssg82
g1215
sg75
(lp1227
S':'
asbag68
(g89
g70
NtRp1228
(dp1229
g73
(dp1230
sg82
g1215
sg75
(lp1231
g68
(g69
g70
NtRp1232
(dp1233
g73
(dp1234
g81
I4
ssg82
g1228
sg75
(lp1235
g996
asbasbasbag68
(g84
g70
NtRp1236
(dp1237
g73
(dp1238
sg82
g858
sg75
(lp1239
g68
(g89
g70
NtRp1240
(dp1241
g73
(dp1242
g93
g94
ssg82
g1236
sg75
(lp1243
S'http_cookie'
p1244
asbag68
(g89
g70
NtRp1245
(dp1246
g73
(dp1247
g100
g101
ssg82
g1236
sg75
(lp1248
S':'
asbag68
(g89
g70
NtRp1249
(dp1250
g73
(dp1251
sg82
g1236
sg75
(lp1252
g68
(g69
g70
NtRp1253
(dp1254
g73
(dp1255
g81
I4
ssg82
g1249
sg75
(lp1256
S'session_id_welcome=127.0.0.1-70fac521-7f5c-422f-a856-bf00b2216810; session_id_admin=127.0.0.1-f0bf2f80-d47a-4c63-a82e-44a845bfe7e3; session_id_rosan=127.0.0.1-e44cb93f-049c-40c0-ade5-b5e99985895d'
p1257
asbasbasbag68
(g84
g70
NtRp1258
(dp1259
g73
(dp1260
sg82
g858
sg75
(lp1261
g68
(g89
g70
NtRp1262
(dp1263
g73
(dp1264
g93
g94
ssg82
g1258
sg75
(lp1265
S'http_host'
p1266
asbag68
(g89
g70
NtRp1267
(dp1268
g73
(dp1269
g100
g101
ssg82
g1258
sg75
(lp1270
S':'
asbag68
(g89
g70
NtRp1271
(dp1272
g73
(dp1273
sg82
g1258
sg75
(lp1274
g68
(g69
g70
NtRp1275
(dp1276
g73
(dp1277
g81
I4
ssg82
g1271
sg75
(lp1278
S'127.0.0.1:8000'
p1279
asbasbasbag68
(g84
g70
NtRp1280
(dp1281
g73
(dp1282
sg82
g858
sg75
(lp1283
g68
(g89
g70
NtRp1284
(dp1285
g73
(dp1286
g93
g94
ssg82
g1280
sg75
(lp1287
S'http_origin'
p1288
asbag68
(g89
g70
NtRp1289
(dp1290
g73
(dp1291
g100
g101
ssg82
g1280
sg75
(lp1292
S':'
asbag68
(g89
g70
NtRp1293
(dp1294
g73
(dp1295
sg82
g1280
sg75
(lp1296
g68
(g69
g70
NtRp1297
(dp1298
g73
(dp1299
g81
I4
ssg82
g1293
sg75
(lp1300
S'http://127.0.0.1:8000'
p1301
asbasbasbag68
(g84
g70
NtRp1302
(dp1303
g73
(dp1304
sg82
g858
sg75
(lp1305
g68
(g89
g70
NtRp1306
(dp1307
g73
(dp1308
g93
g94
ssg82
g1302
sg75
(lp1309
S'http_referer'
p1310
asbag68
(g89
g70
NtRp1311
(dp1312
g73
(dp1313
g100
g101
ssg82
g1302
sg75
(lp1314
S':'
asbag68
(g89
g70
NtRp1315
(dp1316
g73
(dp1317
sg82
g1302
sg75
(lp1318
g68
(g69
g70
NtRp1319
(dp1320
g73
(dp1321
g81
I4
ssg82
g1315
sg75
(lp1322
S'http://127.0.0.1:8000/rosan/facturas/detalleFactura'
p1323
asbasbasbag68
(g84
g70
NtRp1324
(dp1325
g73
(dp1326
sg82
g858
sg75
(lp1327
g68
(g89
g70
NtRp1328
(dp1329
g73
(dp1330
g93
g94
ssg82
g1324
sg75
(lp1331
S'http_user_agent'
p1332
asbag68
(g89
g70
NtRp1333
(dp1334
g73
(dp1335
g100
g101
ssg82
g1324
sg75
(lp1336
S':'
asbag68
(g89
g70
NtRp1337
(dp1338
g73
(dp1339
sg82
g1324
sg75
(lp1340
g68
(g69
g70
NtRp1341
(dp1342
g73
(dp1343
g81
I4
ssg82
g1337
sg75
(lp1344
S'Mozilla/5.0 (Macintosh; Intel Mac OS X 10_8_2) AppleWebKit/537.17 (KHTML, like Gecko) Chrome/24.0.1312.57 Safari/537.17'
p1345
asbasbasbag68
(g84
g70
NtRp1346
(dp1347
g73
(dp1348
sg82
g858
sg75
(lp1349
g68
(g89
g70
NtRp1350
(dp1351
g73
(dp1352
g93
g94
ssg82
g1346
sg75
(lp1353
S'is_jython'
p1354
asbag68
(g89
g70
NtRp1355
(dp1356
g73
(dp1357
g100
g101
ssg82
g1346
sg75
(lp1358
S':'
asbag68
(g89
g70
NtRp1359
(dp1360
g73
(dp1361
sg82
g1346
sg75
(lp1362
g68
(g69
g70
NtRp1363
(dp1364
g73
(dp1365
g81
I4
ssg82
g1359
sg75
(lp1366
g111
asbasbasbag68
(g84
g70
NtRp1367
(dp1368
g73
(dp1369
sg82
g858
sg75
(lp1370
g68
(g89
g70
NtRp1371
(dp1372
g73
(dp1373
g93
g94
ssg82
g1367
sg75
(lp1374
S'is_pypy'
p1375
asbag68
(g89
g70
NtRp1376
(dp1377
g73
(dp1378
g100
g101
ssg82
g1367
sg75
(lp1379
S':'
asbag68
(g89
g70
NtRp1380
(dp1381
g73
(dp1382
sg82
g1367
sg75
(lp1383
g68
(g69
g70
NtRp1384
(dp1385
g73
(dp1386
g81
I4
ssg82
g1380
sg75
(lp1387
g111
asbasbasbag68
(g84
g70
NtRp1388
(dp1389
g73
(dp1390
sg82
g858
sg75
(lp1391
g68
(g89
g70
NtRp1392
(dp1393
g73
(dp1394
g93
g94
ssg82
g1388
sg75
(lp1395
S'local_hosts'
p1396
asbag68
(g89
g70
NtRp1397
(dp1398
g73
(dp1399
g100
g101
ssg82
g1388
sg75
(lp1400
S':'
asbag68
(g89
g70
NtRp1401
(dp1402
g73
(dp1403
sg82
g1388
sg75
(lp1404
g68
(g69
g70
NtRp1405
(dp1406
g73
(dp1407
g81
I4
ssg82
g1401
sg75
(lp1408
g68
(g77
g70
NtRp1409
(dp1410
g73
(dp1411
g81
I3
ssg82
Nsg75
(lp1412
g68
(g84
g70
NtRp1413
(dp1414
g73
(dp1415
sg82
g1409
sg75
(lp1416
g68
(g89
g70
NtRp1417
(dp1418
g73
(dp1419
sg82
g1413
sg75
(lp1420
g68
(g69
g70
NtRp1421
(dp1422
g73
(dp1423
g81
I3
ssg82
g1417
sg75
(lp1424
S'fe80::8e2d:aaff:fe4a:3d35%en1'
p1425
asbasbasbag68
(g84
g70
NtRp1426
(dp1427
g73
(dp1428
sg82
g1409
sg75
(lp1429
g68
(g89
g70
NtRp1430
(dp1431
g73
(dp1432
sg82
g1426
sg75
(lp1433
g68
(g69
g70
NtRp1434
(dp1435
g73
(dp1436
g81
I3
ssg82
g1430
sg75
(lp1437
S'192.168.1.35'
p1438
asbasbasbag68
(g84
g70
NtRp1439
(dp1440
g73
(dp1441
sg82
g1409
sg75
(lp1442
g68
(g89
g70
NtRp1443
(dp1444
g73
(dp1445
sg82
g1439
sg75
(lp1446
g68
(g69
g70
NtRp1447
(dp1448
g73
(dp1449
g81
I3
ssg82
g1443
sg75
(lp1450
S'::ffff:127.0.0.1'
p1451
asbasbasbag68
(g84
g70
NtRp1452
(dp1453
g73
(dp1454
sg82
g1409
sg75
(lp1455
g68
(g89
g70
NtRp1456
(dp1457
g73
(dp1458
sg82
g1452
sg75
(lp1459
g68
(g69
g70
NtRp1460
(dp1461
g73
(dp1462
g81
I3
ssg82
g1456
sg75
(lp1463
S'::1'
p1464
asbasbasbag68
(g84
g70
NtRp1465
(dp1466
g73
(dp1467
sg82
g1409
sg75
(lp1468
g68
(g89
g70
NtRp1469
(dp1470
g73
(dp1471
sg82
g1465
sg75
(lp1472
g68
(g69
g70
NtRp1473
(dp1474
g73
(dp1475
g81
I3
ssg82
g1469
sg75
(lp1476
S'PeritoMascao.local'
p1477
asbasbasbag68
(g84
g70
NtRp1478
(dp1479
g73
(dp1480
sg82
g1409
sg75
(lp1481
g68
(g89
g70
NtRp1482
(dp1483
g73
(dp1484
sg82
g1478
sg75
(lp1485
g68
(g69
g70
NtRp1486
(dp1487
g73
(dp1488
g81
I3
ssg82
g1482
sg75
(lp1489
S'127.0.0.1'
p1490
asbasbasbasbasbasbasbag68
(g84
g70
NtRp1491
(dp1492
g73
(dp1493
sg82
g858
sg75
(lp1494
g68
(g89
g70
NtRp1495
(dp1496
g73
(dp1497
g93
g94
ssg82
g1491
sg75
(lp1498
S'path_info'
p1499
asbag68
(g89
g70
NtRp1500
(dp1501
g73
(dp1502
g100
g101
ssg82
g1491
sg75
(lp1503
S':'
asbag68
(g89
g70
NtRp1504
(dp1505
g73
(dp1506
sg82
g1491
sg75
(lp1507
g68
(g69
g70
NtRp1508
(dp1509
g73
(dp1510
g81
I4
ssg82
g1504
sg75
(lp1511
S'/rosan/facturas/detalleFactura'
p1512
asbasbasbag68
(g84
g70
NtRp1513
(dp1514
g73
(dp1515
sg82
g858
sg75
(lp1516
g68
(g89
g70
NtRp1517
(dp1518
g73
(dp1519
g93
g94
ssg82
g1513
sg75
(lp1520
S'query_string'
p1521
asbag68
(g89
g70
NtRp1522
(dp1523
g73
(dp1524
g100
g101
ssg82
g1513
sg75
(lp1525
S':'
asbag68
(g89
g70
NtRp1526
(dp1527
g73
(dp1528
sg82
g1513
sg75
(lp1529
g68
(g69
g70
NtRp1530
(dp1531
g73
(dp1532
g81
I4
ssg82
g1526
sg75
(lp1533
S''
asbasbasbag68
(g84
g70
NtRp1534
(dp1535
g73
(dp1536
sg82
g858
sg75
(lp1537
g68
(g89
g70
NtRp1538
(dp1539
g73
(dp1540
g93
g94
ssg82
g1534
sg75
(lp1541
S'remote_addr'
p1542
asbag68
(g89
g70
NtRp1543
(dp1544
g73
(dp1545
g100
g101
ssg82
g1534
sg75
(lp1546
S':'
asbag68
(g89
g70
NtRp1547
(dp1548
g73
(dp1549
sg82
g1534
sg75
(lp1550
g68
(g69
g70
NtRp1551
(dp1552
g73
(dp1553
g81
I4
ssg82
g1547
sg75
(lp1554
g223
asbasbasbag68
(g84
g70
NtRp1555
(dp1556
g73
(dp1557
sg82
g858
sg75
(lp1558
g68
(g89
g70
NtRp1559
(dp1560
g73
(dp1561
g93
g94
ssg82
g1555
sg75
(lp1562
S'remote_port'
p1563
asbag68
(g89
g70
NtRp1564
(dp1565
g73
(dp1566
g100
g101
ssg82
g1555
sg75
(lp1567
S':'
asbag68
(g89
g70
NtRp1568
(dp1569
g73
(dp1570
sg82
g1555
sg75
(lp1571
g68
(g69
g70
NtRp1572
(dp1573
g73
(dp1574
g81
I4
ssg82
g1568
sg75
(lp1575
S'54409'
p1576
asbasbasbag68
(g84
g70
NtRp1577
(dp1578
g73
(dp1579
sg82
g858
sg75
(lp1580
g68
(g89
g70
NtRp1581
(dp1582
g73
(dp1583
g93
g94
ssg82
g1577
sg75
(lp1584
S'request_method'
p1585
asbag68
(g89
g70
NtRp1586
(dp1587
g73
(dp1588
g100
g101
ssg82
g1577
sg75
(lp1589
S':'
asbag68
(g89
g70
NtRp1590
(dp1591
g73
(dp1592
sg82
g1577
sg75
(lp1593
g68
(g69
g70
NtRp1594
(dp1595
g73
(dp1596
g81
I4
ssg82
g1590
sg75
(lp1597
S'POST'
p1598
asbasbasbag68
(g84
g70
NtRp1599
(dp1600
g73
(dp1601
sg82
g858
sg75
(lp1602
g68
(g89
g70
NtRp1603
(dp1604
g73
(dp1605
g93
g94
ssg82
g1599
sg75
(lp1606
S'request_uri'
p1607
asbag68
(g89
g70
NtRp1608
(dp1609
g73
(dp1610
g100
g101
ssg82
g1599
sg75
(lp1611
S':'
asbag68
(g89
g70
NtRp1612
(dp1613
g73
(dp1614
sg82
g1599
sg75
(lp1615
g68
(g69
g70
NtRp1616
(dp1617
g73
(dp1618
g81
I4
ssg82
g1612
sg75
(lp1619
g1512
asbasbasbag68
(g84
g70
NtRp1620
(dp1621
g73
(dp1622
sg82
g858
sg75
(lp1623
g68
(g89
g70
NtRp1624
(dp1625
g73
(dp1626
g93
g94
ssg82
g1620
sg75
(lp1627
S'script_name'
p1628
asbag68
(g89
g70
NtRp1629
(dp1630
g73
(dp1631
g100
g101
ssg82
g1620
sg75
(lp1632
S':'
asbag68
(g89
g70
NtRp1633
(dp1634
g73
(dp1635
sg82
g1620
sg75
(lp1636
g68
(g69
g70
NtRp1637
(dp1638
g73
(dp1639
g81
I4
ssg82
g1633
sg75
(lp1640
S''
asbasbasbag68
(g84
g70
NtRp1641
(dp1642
g73
(dp1643
sg82
g858
sg75
(lp1644
g68
(g89
g70
NtRp1645
(dp1646
g73
(dp1647
g93
g94
ssg82
g1641
sg75
(lp1648
S'server_name'
p1649
asbag68
(g89
g70
NtRp1650
(dp1651
g73
(dp1652
g100
g101
ssg82
g1641
sg75
(lp1653
S':'
asbag68
(g89
g70
NtRp1654
(dp1655
g73
(dp1656
sg82
g1641
sg75
(lp1657
g68
(g69
g70
NtRp1658
(dp1659
g73
(dp1660
g81
I4
ssg82
g1654
sg75
(lp1661
S'PeritoMascao.local'
p1662
asbasbasbag68
(g84
g70
NtRp1663
(dp1664
g73
(dp1665
sg82
g858
sg75
(lp1666
g68
(g89
g70
NtRp1667
(dp1668
g73
(dp1669
g93
g94
ssg82
g1663
sg75
(lp1670
S'server_port'
p1671
asbag68
(g89
g70
NtRp1672
(dp1673
g73
(dp1674
g100
g101
ssg82
g1663
sg75
(lp1675
S':'
asbag68
(g89
g70
NtRp1676
(dp1677
g73
(dp1678
sg82
g1663
sg75
(lp1679
g68
(g69
g70
NtRp1680
(dp1681
g73
(dp1682
g81
I4
ssg82
g1676
sg75
(lp1683
S'8000'
p1684
asbasbasbag68
(g84
g70
NtRp1685
(dp1686
g73
(dp1687
sg82
g858
sg75
(lp1688
g68
(g89
g70
NtRp1689
(dp1690
g73
(dp1691
g93
g94
ssg82
g1685
sg75
(lp1692
S'server_protocol'
p1693
asbag68
(g89
g70
NtRp1694
(dp1695
g73
(dp1696
g100
g101
ssg82
g1685
sg75
(lp1697
S':'
asbag68
(g89
g70
NtRp1698
(dp1699
g73
(dp1700
sg82
g1685
sg75
(lp1701
g68
(g69
g70
NtRp1702
(dp1703
g73
(dp1704
g81
I4
ssg82
g1698
sg75
(lp1705
S'HTTP/1.1'
p1706
asbasbasbag68
(g84
g70
NtRp1707
(dp1708
g73
(dp1709
sg82
g858
sg75
(lp1710
g68
(g89
g70
NtRp1711
(dp1712
g73
(dp1713
g93
g94
ssg82
g1707
sg75
(lp1714
S'server_software'
p1715
asbag68
(g89
g70
NtRp1716
(dp1717
g73
(dp1718
g100
g101
ssg82
g1707
sg75
(lp1719
S':'
asbag68
(g89
g70
NtRp1720
(dp1721
g73
(dp1722
sg82
g1707
sg75
(lp1723
g68
(g69
g70
NtRp1724
(dp1725
g73
(dp1726
g81
I4
ssg82
g1720
sg75
(lp1727
S'Rocket 1.2.6'
p1728
asbasbasbag68
(g84
g70
NtRp1729
(dp1730
g73
(dp1731
sg82
g858
sg75
(lp1732
g68
(g89
g70
NtRp1733
(dp1734
g73
(dp1735
g93
g94
ssg82
g1729
sg75
(lp1736
S'web2py_path'
p1737
asbag68
(g89
g70
NtRp1738
(dp1739
g73
(dp1740
g100
g101
ssg82
g1729
sg75
(lp1741
S':'
asbag68
(g89
g70
NtRp1742
(dp1743
g73
(dp1744
sg82
g1729
sg75
(lp1745
g68
(g69
g70
NtRp1746
(dp1747
g73
(dp1748
g81
I4
ssg82
g1742
sg75
(lp1749
g905
asbasbasbag68
(g84
g70
NtRp1750
(dp1751
g73
(dp1752
sg82
g858
sg75
(lp1753
g68
(g89
g70
NtRp1754
(dp1755
g73
(dp1756
g93
g94
ssg82
g1750
sg75
(lp1757
S'web2py_version'
p1758
asbag68
(g89
g70
NtRp1759
(dp1760
g73
(dp1761
g100
g101
ssg82
g1750
sg75
(lp1762
S':'
asbag68
(g89
g70
NtRp1763
(dp1764
g73
(dp1765
sg82
g1750
sg75
(lp1766
g68
(g69
g70
NtRp1767
(dp1768
g73
(dp1769
g81
I4
ssg82
g1763
sg75
(lp1770
g68
(g77
g70
NtRp1771
(dp1772
g73
(dp1773
g81
I3
ssg82
Nsg75
(lp1774
g68
(g84
g70
NtRp1775
(dp1776
g73
(dp1777
sg82
g1771
sg75
(lp1778
g68
(g89
g70
NtRp1779
(dp1780
g73
(dp1781
sg82
g1775
sg75
(lp1782
g68
(g69
g70
NtRp1783
(dp1784
g73
(dp1785
g81
I3
ssg82
g1779
sg75
(lp1786
S'2'
asbasbasbag68
(g84
g70
NtRp1787
(dp1788
g73
(dp1789
sg82
g1771
sg75
(lp1790
g68
(g89
g70
NtRp1791
(dp1792
g73
(dp1793
sg82
g1787
sg75
(lp1794
g68
(g69
g70
NtRp1795
(dp1796
g73
(dp1797
g81
I3
ssg82
g1791
sg75
(lp1798
S'3'
asbasbasbag68
(g84
g70
NtRp1799
(dp1800
g73
(dp1801
sg82
g1771
sg75
(lp1802
g68
(g89
g70
NtRp1803
(dp1804
g73
(dp1805
sg82
g1799
sg75
(lp1806
g68
(g69
g70
NtRp1807
(dp1808
g73
(dp1809
g81
I3
ssg82
g1803
sg75
(lp1810
S'2'
asbasbasbag68
(g84
g70
NtRp1811
(dp1812
g73
(dp1813
sg82
g1771
sg75
(lp1814
g68
(g89
g70
NtRp1815
(dp1816
g73
(dp1817
sg82
g1811
sg75
(lp1818
g68
(g69
g70
NtRp1819
(dp1820
g73
(dp1821
g81
I3
ssg82
g1815
sg75
(lp1822
S'datetime.datetime(2012, 12, 17, 15, 3, 30)'
p1823
asbasbasbag68
(g84
g70
NtRp1824
(dp1825
g73
(dp1826
sg82
g1771
sg75
(lp1827
g68
(g89
g70
NtRp1828
(dp1829
g73
(dp1830
sg82
g1824
sg75
(lp1831
g68
(g69
g70
NtRp1832
(dp1833
g73
(dp1834
g81
I3
ssg82
g1828
sg75
(lp1835
S'stable'
p1836
asbasbasbasbasbasbasbag68
(g84
g70
NtRp1837
(dp1838
g73
(dp1839
sg82
g858
sg75
(lp1840
g68
(g89
g70
NtRp1841
(dp1842
g73
(dp1843
g93
g94
ssg82
g1837
sg75
(lp1844
S'wsgi_errors'
p1845
asbag68
(g89
g70
NtRp1846
(dp1847
g73
(dp1848
g100
g101
ssg82
g1837
sg75
(lp1849
S':'
asbag68
(g89
g70
NtRp1850
(dp1851
g73
(dp1852
sg82
g1837
sg75
(lp1853
g68
(g69
g70
NtRp1854
(dp1855
g73
(dp1856
g81
I4
ssg82
g1850
sg75
(lp1857
S"<open file '<stderr>', mode 'w' at 0x109baf270>"
p1858
asbasbasbag68
(g84
g70
NtRp1859
(dp1860
g73
(dp1861
sg82
g858
sg75
(lp1862
g68
(g89
g70
NtRp1863
(dp1864
g73
(dp1865
g93
g94
ssg82
g1859
sg75
(lp1866
S'wsgi_file_wrapper'
p1867
asbag68
(g89
g70
NtRp1868
(dp1869
g73
(dp1870
g100
g101
ssg82
g1859
sg75
(lp1871
S':'
asbag68
(g89
g70
NtRp1872
(dp1873
g73
(dp1874
sg82
g1859
sg75
(lp1875
g68
(g69
g70
NtRp1876
(dp1877
g73
(dp1878
g81
I4
ssg82
g1872
sg75
(lp1879
S'<class wsgiref.util.FileWrapper at 0x10a7b1ef0>'
p1880
asbasbasbag68
(g84
g70
NtRp1881
(dp1882
g73
(dp1883
sg82
g858
sg75
(lp1884
g68
(g89
g70
NtRp1885
(dp1886
g73
(dp1887
g93
g94
ssg82
g1881
sg75
(lp1888
S'wsgi_input'
p1889
asbag68
(g89
g70
NtRp1890
(dp1891
g73
(dp1892
g100
g101
ssg82
g1881
sg75
(lp1893
S':'
asbag68
(g89
g70
NtRp1894
(dp1895
g73
(dp1896
sg82
g1881
sg75
(lp1897
g68
(g69
g70
NtRp1898
(dp1899
g73
(dp1900
g81
I4
ssg82
g1894
sg75
(lp1901
S'<socket._fileobject object at 0x10ec691d0>'
p1902
asbasbasbag68
(g84
g70
NtRp1903
(dp1904
g73
(dp1905
sg82
g858
sg75
(lp1906
g68
(g89
g70
NtRp1907
(dp1908
g73
(dp1909
g93
g94
ssg82
g1903
sg75
(lp1910
S'wsgi_multiprocess'
p1911
asbag68
(g89
g70
NtRp1912
(dp1913
g73
(dp1914
g100
g101
ssg82
g1903
sg75
(lp1915
S':'
asbag68
(g89
g70
NtRp1916
(dp1917
g73
(dp1918
sg82
g1903
sg75
(lp1919
g68
(g69
g70
NtRp1920
(dp1921
g73
(dp1922
g81
I4
ssg82
g1916
sg75
(lp1923
g111
asbasbasbag68
(g84
g70
NtRp1924
(dp1925
g73
(dp1926
sg82
g858
sg75
(lp1927
g68
(g89
g70
NtRp1928
(dp1929
g73
(dp1930
g93
g94
ssg82
g1924
sg75
(lp1931
S'wsgi_multithread'
p1932
asbag68
(g89
g70
NtRp1933
(dp1934
g73
(dp1935
g100
g101
ssg82
g1924
sg75
(lp1936
S':'
asbag68
(g89
g70
NtRp1937
(dp1938
g73
(dp1939
sg82
g1924
sg75
(lp1940
g68
(g69
g70
NtRp1941
(dp1942
g73
(dp1943
g81
I4
ssg82
g1937
sg75
(lp1944
S'True'
p1945
asbasbasbag68
(g84
g70
NtRp1946
(dp1947
g73
(dp1948
sg82
g858
sg75
(lp1949
g68
(g89
g70
NtRp1950
(dp1951
g73
(dp1952
g93
g94
ssg82
g1946
sg75
(lp1953
S'wsgi_run_once'
p1954
asbag68
(g89
g70
NtRp1955
(dp1956
g73
(dp1957
g100
g101
ssg82
g1946
sg75
(lp1958
S':'
asbag68
(g89
g70
NtRp1959
(dp1960
g73
(dp1961
sg82
g1946
sg75
(lp1962
g68
(g69
g70
NtRp1963
(dp1964
g73
(dp1965
g81
I4
ssg82
g1959
sg75
(lp1966
g111
asbasbasbag68
(g84
g70
NtRp1967
(dp1968
g73
(dp1969
sg82
g858
sg75
(lp1970
g68
(g89
g70
NtRp1971
(dp1972
g73
(dp1973
g93
g94
ssg82
g1967
sg75
(lp1974
S'wsgi_url_scheme'
p1975
asbag68
(g89
g70
NtRp1976
(dp1977
g73
(dp1978
g100
g101
ssg82
g1967
sg75
(lp1979
S':'
asbag68
(g89
g70
NtRp1980
(dp1981
g73
(dp1982
sg82
g1967
sg75
(lp1983
g68
(g69
g70
NtRp1984
(dp1985
g73
(dp1986
g81
I4
ssg82
g1980
sg75
(lp1987
S'http'
p1988
asbasbasbag68
(g84
g70
NtRp1989
(dp1990
g73
(dp1991
sg82
g858
sg75
(lp1992
g68
(g89
g70
NtRp1993
(dp1994
g73
(dp1995
g93
g94
ssg82
g1989
sg75
(lp1996
S'wsgi_version'
p1997
asbag68
(g89
g70
NtRp1998
(dp1999
g73
(dp2000
g100
g101
ssg82
g1989
sg75
(lp2001
S':'
asbag68
(g89
g70
NtRp2002
(dp2003
g73
(dp2004
sg82
g1989
sg75
(lp2005
g68
(g69
g70
NtRp2006
(dp2007
g73
(dp2008
g81
I4
ssg82
g2002
sg75
(lp2009
g68
(g77
g70
NtRp2010
(dp2011
g73
(dp2012
g81
I3
ssg82
Nsg75
(lp2013
g68
(g84
g70
NtRp2014
(dp2015
g73
(dp2016
sg82
g2010
sg75
(lp2017
g68
(g89
g70
NtRp2018
(dp2019
g73
(dp2020
sg82
g2014
sg75
(lp2021
g68
(g69
g70
NtRp2022
(dp2023
g73
(dp2024
g81
I3
ssg82
g2018
sg75
(lp2025
S'1'
asbasbasbag68
(g84
g70
NtRp2026
(dp2027
g73
(dp2028
sg82
g2010
sg75
(lp2029
g68
(g89
g70
NtRp2030
(dp2031
g73
(dp2032
sg82
g2026
sg75
(lp2033
g68
(g69
g70
NtRp2034
(dp2035
g73
(dp2036
g81
I3
ssg82
g2030
sg75
(lp2037
S'0'
asbasbasbasbasbasbasbasbasbasbasbag68
(g84
g70
NtRp2038
(dp2039
g73
(dp2040
sg82
g78
sg75
(lp2041
g68
(g89
g70
NtRp2042
(dp2043
g73
(dp2044
g93
g94
ssg82
g2038
sg75
(lp2045
S'extension'
p2046
asbag68
(g89
g70
NtRp2047
(dp2048
g73
(dp2049
g100
g101
ssg82
g2038
sg75
(lp2050
S':'
asbag68
(g89
g70
NtRp2051
(dp2052
g73
(dp2053
sg82
g2038
sg75
(lp2054
g68
(g69
g70
NtRp2055
(dp2056
g73
(dp2057
g81
I5
ssg82
g2051
sg75
(lp2058
S'html'
p2059
asbasbasbag68
(g84
g70
NtRp2060
(dp2061
g73
(dp2062
sg82
g78
sg75
(lp2063
g68
(g89
g70
NtRp2064
(dp2065
g73
(dp2066
g93
g94
ssg82
g2060
sg75
(lp2067
S'folder'
p2068
asbag68
(g89
g70
NtRp2069
(dp2070
g73
(dp2071
g100
g101
ssg82
g2060
sg75
(lp2072
S':'
asbag68
(g89
g70
NtRp2073
(dp2074
g73
(dp2075
sg82
g2060
sg75
(lp2076
g68
(g69
g70
NtRp2077
(dp2078
g73
(dp2079
g81
I5
ssg82
g2073
sg75
(lp2080
S'/Users/Truki/Desarrollo/web2py/applications/rosan/'
p2081
asbasbasbag68
(g84
g70
NtRp2082
(dp2083
g73
(dp2084
sg82
g78
sg75
(lp2085
g68
(g89
g70
NtRp2086
(dp2087
g73
(dp2088
g93
g94
ssg82
g2082
sg75
(lp2089
S'function'
p2090
asbag68
(g89
g70
NtRp2091
(dp2092
g73
(dp2093
g100
g101
ssg82
g2082
sg75
(lp2094
S':'
asbag68
(g89
g70
NtRp2095
(dp2096
g73
(dp2097
sg82
g2082
sg75
(lp2098
g68
(g69
g70
NtRp2099
(dp2100
g73
(dp2101
g81
I5
ssg82
g2095
sg75
(lp2102
S'detalleFactura'
p2103
asbasbasbag68
(g84
g70
NtRp2104
(dp2105
g73
(dp2106
sg82
g78
sg75
(lp2107
g68
(g89
g70
NtRp2108
(dp2109
g73
(dp2110
g93
g94
ssg82
g2104
sg75
(lp2111
S'get_vars'
p2112
asbag68
(g89
g70
NtRp2113
(dp2114
g73
(dp2115
g100
g101
ssg82
g2104
sg75
(lp2116
S':'
asbag68
(g89
g70
NtRp2117
(dp2118
g73
(dp2119
sg82
g2104
sg75
(lp2120
g68
(g69
g70
NtRp2121
(dp2122
g73
(dp2123
g81
I5
ssg82
g2117
sg75
(lp2124
g68
(g77
g70
NtRp2125
(dp2126
g73
(dp2127
g81
I4
ssg82
Nsg75
(lp2128
sbasbasbasbag68
(g84
g70
NtRp2129
(dp2130
g73
(dp2131
sg82
g78
sg75
(lp2132
g68
(g89
g70
NtRp2133
(dp2134
g73
(dp2135
g93
g94
ssg82
g2129
sg75
(lp2136
S'global_settings'
p2137
asbag68
(g89
g70
NtRp2138
(dp2139
g73
(dp2140
g100
g101
ssg82
g2129
sg75
(lp2141
S':'
asbag68
(g89
g70
NtRp2142
(dp2143
g73
(dp2144
sg82
g2129
sg75
(lp2145
g68
(g69
g70
NtRp2146
(dp2147
g73
(dp2148
g81
I5
ssg82
g2142
sg75
(lp2149
g68
(g77
g70
NtRp2150
(dp2151
g73
(dp2152
g81
I4
ssg82
Nsg75
(lp2153
g68
(g84
g70
NtRp2154
(dp2155
g73
(dp2156
sg82
g2150
sg75
(lp2157
g68
(g89
g70
NtRp2158
(dp2159
g73
(dp2160
g93
g94
ssg82
g2154
sg75
(lp2161
g870
asbag68
(g89
g70
NtRp2162
(dp2163
g73
(dp2164
g100
g101
ssg82
g2154
sg75
(lp2165
S':'
asbag68
(g89
g70
NtRp2166
(dp2167
g73
(dp2168
sg82
g2154
sg75
(lp2169
g68
(g69
g70
NtRp2170
(dp2171
g73
(dp2172
g81
I4
ssg82
g2166
sg75
(lp2173
S"set(['/Users/Truki/Desarrollo/web2py/applications/welcome/', '/Users/Truki/Desarrollo/web2py/applications/rosan/', '/Users/Truki/Desarrollo/web2py/applications/admin/'])"
p2174
asbasbasbag68
(g84
g70
NtRp2175
(dp2176
g73
(dp2177
sg82
g2150
sg75
(lp2178
g68
(g89
g70
NtRp2179
(dp2180
g73
(dp2181
g93
g94
ssg82
g2175
sg75
(lp2182
g892
asbag68
(g89
g70
NtRp2183
(dp2184
g73
(dp2185
g100
g101
ssg82
g2175
sg75
(lp2186
S':'
asbag68
(g89
g70
NtRp2187
(dp2188
g73
(dp2189
sg82
g2175
sg75
(lp2190
g68
(g69
g70
NtRp2191
(dp2192
g73
(dp2193
g81
I4
ssg82
g2187
sg75
(lp2194
g905
asbasbasbag68
(g84
g70
NtRp2195
(dp2196
g73
(dp2197
sg82
g2150
sg75
(lp2198
g68
(g89
g70
NtRp2199
(dp2200
g73
(dp2201
g93
g94
ssg82
g2195
sg75
(lp2202
g914
asbag68
(g89
g70
NtRp2203
(dp2204
g73
(dp2205
g100
g101
ssg82
g2195
sg75
(lp2206
S':'
asbag68
(g89
g70
NtRp2207
(dp2208
g73
(dp2209
sg82
g2195
sg75
(lp2210
g68
(g69
g70
NtRp2211
(dp2212
g73
(dp2213
g81
I4
ssg82
g2207
sg75
(lp2214
g68
(g77
g70
NtRp2215
(dp2216
g73
(dp2217
g81
I3
ssg82
Nsg75
(lp2218
sbasbasbasbag68
(g84
g70
NtRp2219
(dp2220
g73
(dp2221
sg82
g2150
sg75
(lp2222
g68
(g89
g70
NtRp2223
(dp2224
g73
(dp2225
g93
g94
ssg82
g2219
sg75
(lp2226
g939
asbag68
(g89
g70
NtRp2227
(dp2228
g73
(dp2229
g100
g101
ssg82
g2219
sg75
(lp2230
S':'
asbag68
(g89
g70
NtRp2231
(dp2232
g73
(dp2233
sg82
g2219
sg75
(lp2234
g68
(g69
g70
NtRp2235
(dp2236
g73
(dp2237
g81
I4
ssg82
g2231
sg75
(lp2238
S"<Values at 0x10aa51128: {'verbose': False, 'ip': '127.0.0.1', 'with_scheduler': False, 'ips': ['fe80::8e2d:aaff:fe4a:3d35%en1', '192.168.1.35'], 'shutdown_timeout': 5, 'taskbar': False, 'port': 8000, 'maxthreads': None, 'softcron': False, 'server_name': 'PeritoMascao.local', 'bpython': False, 'nogui': False, 'pid_filename': 'httpserver.pid', 'extcron': False, 'runcron': False, 'run_system_tests': False, 'test': None, 'folder': '/Users/Truki/Desarrollo/web2py', 'config': '', 'minthreads': None, 'winservice': '', 'shell': None, 'run': '', 'log_filename': 'httpserver.log', 'debuglevel': 30, 'args': [''], 'socket_timeout': 5, 'ssl_ca_certificate': None, 'scheduler': None, 'profiler_filename': None, 'ssl_private_key': '', 'scheduler_groups': None, 'password': '<ask>', 'request_queue_size': 5, 'ssl_certificate': '', 'cronjob': False, 'numthreads': None, 'quiet': False, 'interfaces': None, 'import_models': False, 'timeout': 10, 'plain': False, 'nobanner': False}>"
p2239
asbasbasbag68
(g84
g70
NtRp2240
(dp2241
g73
(dp2242
sg82
g2150
sg75
(lp2243
g68
(g89
g70
NtRp2244
(dp2245
g73
(dp2246
g93
g94
ssg82
g2240
sg75
(lp2247
g1005
asbag68
(g89
g70
NtRp2248
(dp2249
g73
(dp2250
g100
g101
ssg82
g2240
sg75
(lp2251
S':'
asbag68
(g89
g70
NtRp2252
(dp2253
g73
(dp2254
sg82
g2240
sg75
(lp2255
g68
(g69
g70
NtRp2256
(dp2257
g73
(dp2258
g81
I4
ssg82
g2252
sg75
(lp2259
S'set([])'
p2260
asbasbasbag68
(g84
g70
NtRp2261
(dp2262
g73
(dp2263
sg82
g2150
sg75
(lp2264
g68
(g89
g70
NtRp2265
(dp2266
g73
(dp2267
g93
g94
ssg82
g2261
sg75
(lp2268
g1027
asbag68
(g89
g70
NtRp2269
(dp2270
g73
(dp2271
g100
g101
ssg82
g2261
sg75
(lp2272
S':'
asbag68
(g89
g70
NtRp2273
(dp2274
g73
(dp2275
sg82
g2261
sg75
(lp2276
g68
(g69
g70
NtRp2277
(dp2278
g73
(dp2279
g81
I4
ssg82
g2273
sg75
(lp2280
g111
asbasbasbag68
(g84
g70
NtRp2281
(dp2282
g73
(dp2283
sg82
g2150
sg75
(lp2284
g68
(g89
g70
NtRp2285
(dp2286
g73
(dp2287
g93
g94
ssg82
g2281
sg75
(lp2288
g1048
asbag68
(g89
g70
NtRp2289
(dp2290
g73
(dp2291
g100
g101
ssg82
g2281
sg75
(lp2292
S':'
asbag68
(g89
g70
NtRp2293
(dp2294
g73
(dp2295
sg82
g2281
sg75
(lp2296
g68
(g69
g70
NtRp2297
(dp2298
g73
(dp2299
g81
I4
ssg82
g2293
sg75
(lp2300
g1061
asbasbasbag68
(g84
g70
NtRp2301
(dp2302
g73
(dp2303
sg82
g2150
sg75
(lp2304
g68
(g89
g70
NtRp2305
(dp2306
g73
(dp2307
g93
g94
ssg82
g2301
sg75
(lp2308
g1354
asbag68
(g89
g70
NtRp2309
(dp2310
g73
(dp2311
g100
g101
ssg82
g2301
sg75
(lp2312
S':'
asbag68
(g89
g70
NtRp2313
(dp2314
g73
(dp2315
sg82
g2301
sg75
(lp2316
g68
(g69
g70
NtRp2317
(dp2318
g73
(dp2319
g81
I4
ssg82
g2313
sg75
(lp2320
g111
asbasbasbag68
(g84
g70
NtRp2321
(dp2322
g73
(dp2323
sg82
g2150
sg75
(lp2324
g68
(g89
g70
NtRp2325
(dp2326
g73
(dp2327
g93
g94
ssg82
g2321
sg75
(lp2328
g1375
asbag68
(g89
g70
NtRp2329
(dp2330
g73
(dp2331
g100
g101
ssg82
g2321
sg75
(lp2332
S':'
asbag68
(g89
g70
NtRp2333
(dp2334
g73
(dp2335
sg82
g2321
sg75
(lp2336
g68
(g69
g70
NtRp2337
(dp2338
g73
(dp2339
g81
I4
ssg82
g2333
sg75
(lp2340
g111
asbasbasbag68
(g84
g70
NtRp2341
(dp2342
g73
(dp2343
sg82
g2150
sg75
(lp2344
g68
(g89
g70
NtRp2345
(dp2346
g73
(dp2347
g93
g94
ssg82
g2341
sg75
(lp2348
g1396
asbag68
(g89
g70
NtRp2349
(dp2350
g73
(dp2351
g100
g101
ssg82
g2341
sg75
(lp2352
S':'
asbag68
(g89
g70
NtRp2353
(dp2354
g73
(dp2355
sg82
g2341
sg75
(lp2356
g68
(g69
g70
NtRp2357
(dp2358
g73
(dp2359
g81
I4
ssg82
g2353
sg75
(lp2360
g68
(g77
g70
NtRp2361
(dp2362
g73
(dp2363
g81
I3
ssg82
Nsg75
(lp2364
g68
(g84
g70
NtRp2365
(dp2366
g73
(dp2367
sg82
g2361
sg75
(lp2368
g68
(g89
g70
NtRp2369
(dp2370
g73
(dp2371
sg82
g2365
sg75
(lp2372
g68
(g69
g70
NtRp2373
(dp2374
g73
(dp2375
g81
I3
ssg82
g2369
sg75
(lp2376
g1425
asbasbasbag68
(g84
g70
NtRp2377
(dp2378
g73
(dp2379
sg82
g2361
sg75
(lp2380
g68
(g89
g70
NtRp2381
(dp2382
g73
(dp2383
sg82
g2377
sg75
(lp2384
g68
(g69
g70
NtRp2385
(dp2386
g73
(dp2387
g81
I3
ssg82
g2381
sg75
(lp2388
g1438
asbasbasbag68
(g84
g70
NtRp2389
(dp2390
g73
(dp2391
sg82
g2361
sg75
(lp2392
g68
(g89
g70
NtRp2393
(dp2394
g73
(dp2395
sg82
g2389
sg75
(lp2396
g68
(g69
g70
NtRp2397
(dp2398
g73
(dp2399
g81
I3
ssg82
g2393
sg75
(lp2400
g1451
asbasbasbag68
(g84
g70
NtRp2401
(dp2402
g73
(dp2403
sg82
g2361
sg75
(lp2404
g68
(g89
g70
NtRp2405
(dp2406
g73
(dp2407
sg82
g2401
sg75
(lp2408
g68
(g69
g70
NtRp2409
(dp2410
g73
(dp2411
g81
I3
ssg82
g2405
sg75
(lp2412
g1464
asbasbasbag68
(g84
g70
NtRp2413
(dp2414
g73
(dp2415
sg82
g2361
sg75
(lp2416
g68
(g89
g70
NtRp2417
(dp2418
g73
(dp2419
sg82
g2413
sg75
(lp2420
g68
(g69
g70
NtRp2421
(dp2422
g73
(dp2423
g81
I3
ssg82
g2417
sg75
(lp2424
g1477
asbasbasbag68
(g84
g70
NtRp2425
(dp2426
g73
(dp2427
sg82
g2361
sg75
(lp2428
g68
(g89
g70
NtRp2429
(dp2430
g73
(dp2431
sg82
g2425
sg75
(lp2432
g68
(g69
g70
NtRp2433
(dp2434
g73
(dp2435
g81
I3
ssg82
g2429
sg75
(lp2436
g1490
asbasbasbasbasbasbasbag68
(g84
g70
NtRp2437
(dp2438
g73
(dp2439
sg82
g2150
sg75
(lp2440
g68
(g89
g70
NtRp2441
(dp2442
g73
(dp2443
g93
g94
ssg82
g2437
sg75
(lp2444
g1758
asbag68
(g89
g70
NtRp2445
(dp2446
g73
(dp2447
g100
g101
ssg82
g2437
sg75
(lp2448
S':'
asbag68
(g89
g70
NtRp2449
(dp2450
g73
(dp2451
sg82
g2437
sg75
(lp2452
g68
(g69
g70
NtRp2453
(dp2454
g73
(dp2455
g81
I4
ssg82
g2449
sg75
(lp2456
g68
(g77
g70
NtRp2457
(dp2458
g73
(dp2459
g81
I3
ssg82
Nsg75
(lp2460
g68
(g84
g70
NtRp2461
(dp2462
g73
(dp2463
sg82
g2457
sg75
(lp2464
g68
(g89
g70
NtRp2465
(dp2466
g73
(dp2467
sg82
g2461
sg75
(lp2468
g68
(g69
g70
NtRp2469
(dp2470
g73
(dp2471
g81
I3
ssg82
g2465
sg75
(lp2472
S'2'
asbasbasbag68
(g84
g70
NtRp2473
(dp2474
g73
(dp2475
sg82
g2457
sg75
(lp2476
g68
(g89
g70
NtRp2477
(dp2478
g73
(dp2479
sg82
g2473
sg75
(lp2480
g68
(g69
g70
NtRp2481
(dp2482
g73
(dp2483
g81
I3
ssg82
g2477
sg75
(lp2484
S'3'
asbasbasbag68
(g84
g70
NtRp2485
(dp2486
g73
(dp2487
sg82
g2457
sg75
(lp2488
g68
(g89
g70
NtRp2489
(dp2490
g73
(dp2491
sg82
g2485
sg75
(lp2492
g68
(g69
g70
NtRp2493
(dp2494
g73
(dp2495
g81
I3
ssg82
g2489
sg75
(lp2496
S'2'
asbasbasbag68
(g84
g70
NtRp2497
(dp2498
g73
(dp2499
sg82
g2457
sg75
(lp2500
g68
(g89
g70
NtRp2501
(dp2502
g73
(dp2503
sg82
g2497
sg75
(lp2504
g68
(g69
g70
NtRp2505
(dp2506
g73
(dp2507
g81
I3
ssg82
g2501
sg75
(lp2508
S'datetime.datetime(2012, 12, 17, 15, 3, 30)'
p2509
asbasbasbag68
(g84
g70
NtRp2510
(dp2511
g73
(dp2512
sg82
g2457
sg75
(lp2513
g68
(g89
g70
NtRp2514
(dp2515
g73
(dp2516
sg82
g2510
sg75
(lp2517
g68
(g69
g70
NtRp2518
(dp2519
g73
(dp2520
g81
I3
ssg82
g2514
sg75
(lp2521
g1836
asbasbasbasbasbasbasbasbasbasbasbag68
(g84
g70
NtRp2522
(dp2523
g73
(dp2524
sg82
g78
sg75
(lp2525
g68
(g89
g70
NtRp2526
(dp2527
g73
(dp2528
g93
g94
ssg82
g2522
sg75
(lp2529
S'is_https'
p2530
asbag68
(g89
g70
NtRp2531
(dp2532
g73
(dp2533
g100
g101
ssg82
g2522
sg75
(lp2534
S':'
asbag68
(g89
g70
NtRp2535
(dp2536
g73
(dp2537
sg82
g2522
sg75
(lp2538
g68
(g69
g70
NtRp2539
(dp2540
g73
(dp2541
g81
I5
ssg82
g2535
sg75
(lp2542
g111
asbasbasbag68
(g84
g70
NtRp2543
(dp2544
g73
(dp2545
sg82
g78
sg75
(lp2546
g68
(g89
g70
NtRp2547
(dp2548
g73
(dp2549
g93
g94
ssg82
g2543
sg75
(lp2550
S'is_local'
p2551
asbag68
(g89
g70
NtRp2552
(dp2553
g73
(dp2554
g100
g101
ssg82
g2543
sg75
(lp2555
S':'
asbag68
(g89
g70
NtRp2556
(dp2557
g73
(dp2558
sg82
g2543
sg75
(lp2559
g68
(g69
g70
NtRp2560
(dp2561
g73
(dp2562
g81
I5
ssg82
g2556
sg75
(lp2563
g1945
asbasbasbag68
(g84
g70
NtRp2564
(dp2565
g73
(dp2566
sg82
g78
sg75
(lp2567
g68
(g89
g70
NtRp2568
(dp2569
g73
(dp2570
g93
g94
ssg82
g2564
sg75
(lp2571
S'is_restful'
p2572
asbag68
(g89
g70
NtRp2573
(dp2574
g73
(dp2575
g100
g101
ssg82
g2564
sg75
(lp2576
S':'
asbag68
(g89
g70
NtRp2577
(dp2578
g73
(dp2579
sg82
g2564
sg75
(lp2580
g68
(g69
g70
NtRp2581
(dp2582
g73
(dp2583
g81
I5
ssg82
g2577
sg75
(lp2584
g111
asbasbasbag68
(g84
g70
NtRp2585
(dp2586
g73
(dp2587
sg82
g78
sg75
(lp2588
g68
(g89
g70
NtRp2589
(dp2590
g73
(dp2591
g93
g94
ssg82
g2585
sg75
(lp2592
S'now'
p2593
asbag68
(g89
g70
NtRp2594
(dp2595
g73
(dp2596
g100
g101
ssg82
g2585
sg75
(lp2597
S':'
asbag68
(g89
g70
NtRp2598
(dp2599
g73
(dp2600
sg82
g2585
sg75
(lp2601
g68
(g69
g70
NtRp2602
(dp2603
g73
(dp2604
g81
I5
ssg82
g2598
sg75
(lp2605
S'datetime.datetime(2013, 2, 21, 22, 53, 49, 757227)'
p2606
asbasbasbag68
(g84
g70
NtRp2607
(dp2608
g73
(dp2609
sg82
g78
sg75
(lp2610
g68
(g89
g70
NtRp2611
(dp2612
g73
(dp2613
g93
g94
ssg82
g2607
sg75
(lp2614
S'post_vars'
p2615
asbag68
(g89
g70
NtRp2616
(dp2617
g73
(dp2618
g100
g101
ssg82
g2607
sg75
(lp2619
S':'
asbag68
(g89
g70
NtRp2620
(dp2621
g73
(dp2622
sg82
g2607
sg75
(lp2623
g68
(g69
g70
NtRp2624
(dp2625
g73
(dp2626
g81
I5
ssg82
g2620
sg75
(lp2627
g68
(g77
g70
NtRp2628
(dp2629
g73
(dp2630
g81
I4
ssg82
Nsg75
(lp2631
g68
(g84
g70
NtRp2632
(dp2633
g73
(dp2634
sg82
g2628
sg75
(lp2635
g68
(g89
g70
NtRp2636
(dp2637
g73
(dp2638
g93
g94
ssg82
g2632
sg75
(lp2639
S'cantidad'
p2640
asbag68
(g89
g70
NtRp2641
(dp2642
g73
(dp2643
g100
g101
ssg82
g2632
sg75
(lp2644
S':'
asbag68
(g89
g70
NtRp2645
(dp2646
g73
(dp2647
sg82
g2632
sg75
(lp2648
g68
(g69
g70
NtRp2649
(dp2650
g73
(dp2651
g81
I4
ssg82
g2645
sg75
(lp2652
S'5'
asbasbasbag68
(g84
g70
NtRp2653
(dp2654
g73
(dp2655
sg82
g2628
sg75
(lp2656
g68
(g89
g70
NtRp2657
(dp2658
g73
(dp2659
g93
g94
ssg82
g2653
sg75
(lp2660
S'descripcion'
p2661
asbag68
(g89
g70
NtRp2662
(dp2663
g73
(dp2664
g100
g101
ssg82
g2653
sg75
(lp2665
S':'
asbag68
(g89
g70
NtRp2666
(dp2667
g73
(dp2668
sg82
g2653
sg75
(lp2669
g68
(g69
g70
NtRp2670
(dp2671
g73
(dp2672
g81
I4
ssg82
g2666
sg75
(lp2673
S'concepto5'
p2674
asbasbasbag68
(g84
g70
NtRp2675
(dp2676
g73
(dp2677
sg82
g2628
sg75
(lp2678
g68
(g89
g70
NtRp2679
(dp2680
g73
(dp2681
g93
g94
ssg82
g2675
sg75
(lp2682
S'insertarConcepto'
p2683
asbag68
(g89
g70
NtRp2684
(dp2685
g73
(dp2686
g100
g101
ssg82
g2675
sg75
(lp2687
S':'
asbag68
(g89
g70
NtRp2688
(dp2689
g73
(dp2690
sg82
g2675
sg75
(lp2691
g68
(g69
g70
NtRp2692
(dp2693
g73
(dp2694
g81
I4
ssg82
g2688
sg75
(lp2695
S'Insertar'
p2696
asbasbasbag68
(g84
g70
NtRp2697
(dp2698
g73
(dp2699
sg82
g2628
sg75
(lp2700
g68
(g89
g70
NtRp2701
(dp2702
g73
(dp2703
g93
g94
ssg82
g2697
sg75
(lp2704
S'precio'
p2705
asbag68
(g89
g70
NtRp2706
(dp2707
g73
(dp2708
g100
g101
ssg82
g2697
sg75
(lp2709
S':'
asbag68
(g89
g70
NtRp2710
(dp2711
g73
(dp2712
sg82
g2697
sg75
(lp2713
g68
(g69
g70
NtRp2714
(dp2715
g73
(dp2716
g81
I4
ssg82
g2710
sg75
(lp2717
S'60'
p2718
asbasbasbasbasbasbasbag68
(g84
g70
NtRp2719
(dp2720
g73
(dp2721
sg82
g78
sg75
(lp2722
g68
(g89
g70
NtRp2723
(dp2724
g73
(dp2725
g93
g94
ssg82
g2719
sg75
(lp2726
S'raw_args'
p2727
asbag68
(g89
g70
NtRp2728
(dp2729
g73
(dp2730
g100
g101
ssg82
g2719
sg75
(lp2731
S':'
asbag68
(g89
g70
NtRp2732
(dp2733
g73
(dp2734
sg82
g2719
sg75
(lp2735
g68
(g69
g70
NtRp2736
(dp2737
g73
(dp2738
g81
I5
ssg82
g2732
sg75
(lp2739
S''
asbasbasbag68
(g84
g70
NtRp2740
(dp2741
g73
(dp2742
sg82
g78
sg75
(lp2743
g68
(g89
g70
NtRp2744
(dp2745
g73
(dp2746
g93
g94
ssg82
g2740
sg75
(lp2747
S'raw_extension'
p2748
asbag68
(g89
g70
NtRp2749
(dp2750
g73
(dp2751
g100
g101
ssg82
g2740
sg75
(lp2752
S':'
asbag68
(g89
g70
NtRp2753
(dp2754
g73
(dp2755
sg82
g2740
sg75
(lp2756
g68
(g69
g70
NtRp2757
(dp2758
g73
(dp2759
g81
I5
ssg82
g2753
sg75
(lp2760
S'None'
p2761
asbasbasbag68
(g84
g70
NtRp2762
(dp2763
g73
(dp2764
sg82
g78
sg75
(lp2765
g68
(g89
g70
NtRp2766
(dp2767
g73
(dp2768
g93
g94
ssg82
g2762
sg75
(lp2769
S'url'
p2770
asbag68
(g89
g70
NtRp2771
(dp2772
g73
(dp2773
g100
g101
ssg82
g2762
sg75
(lp2774
S':'
asbag68
(g89
g70
NtRp2775
(dp2776
g73
(dp2777
sg82
g2762
sg75
(lp2778
g68
(g69
g70
NtRp2779
(dp2780
g73
(dp2781
g81
I5
ssg82
g2775
sg75
(lp2782
g1512
asbasbasbag68
(g84
g70
NtRp2783
(dp2784
g73
(dp2785
sg82
g78
sg75
(lp2786
g68
(g89
g70
NtRp2787
(dp2788
g73
(dp2789
g93
g94
ssg82
g2783
sg75
(lp2790
S'utcnow'
p2791
asbag68
(g89
g70
NtRp2792
(dp2793
g73
(dp2794
g100
g101
ssg82
g2783
sg75
(lp2795
S':'
asbag68
(g89
g70
NtRp2796
(dp2797
g73
(dp2798
sg82
g2783
sg75
(lp2799
g68
(g69
g70
NtRp2800
(dp2801
g73
(dp2802
g81
I5
ssg82
g2796
sg75
(lp2803
S'datetime.datetime(2013, 2, 21, 21, 53, 49, 757235)'
p2804
asbasbasbag68
(g84
g70
NtRp2805
(dp2806
g73
(dp2807
sg82
g78
sg75
(lp2808
g68
(g89
g70
NtRp2809
(dp2810
g73
(dp2811
g93
g94
ssg82
g2805
sg75
(lp2812
S'uuid'
p2813
asbag68
(g89
g70
NtRp2814
(dp2815
g73
(dp2816
g100
g101
ssg82
g2805
sg75
(lp2817
S':'
asbag68
(g89
g70
NtRp2818
(dp2819
g73
(dp2820
sg82
g2805
sg75
(lp2821
g68
(g69
g70
NtRp2822
(dp2823
g73
(dp2824
g81
I5
ssg82
g2818
sg75
(lp2825
S'rosan/127.0.0.1.2013-02-21.22-53-49.031c9918-6672-4fc9-87b7-43b5f944fa0b'
p2826
asbasbasbag68
(g84
g70
NtRp2827
(dp2828
g73
(dp2829
sg82
g78
sg75
(lp2830
g68
(g89
g70
NtRp2831
(dp2832
g73
(dp2833
g93
g94
ssg82
g2827
sg75
(lp2834
S'vars'
p2835
asbag68
(g89
g70
NtRp2836
(dp2837
g73
(dp2838
g100
g101
ssg82
g2827
sg75
(lp2839
S':'
asbag68
(g89
g70
NtRp2840
(dp2841
g73
(dp2842
sg82
g2827
sg75
(lp2843
g68
(g69
g70
NtRp2844
(dp2845
g73
(dp2846
g81
I5
ssg82
g2840
sg75
(lp2847
g68
(g77
g70
NtRp2848
(dp2849
g73
(dp2850
g81
I4
ssg82
Nsg75
(lp2851
g68
(g84
g70
NtRp2852
(dp2853
g73
(dp2854
sg82
g2848
sg75
(lp2855
g68
(g89
g70
NtRp2856
(dp2857
g73
(dp2858
g93
g94
ssg82
g2852
sg75
(lp2859
g2640
asbag68
(g89
g70
NtRp2860
(dp2861
g73
(dp2862
g100
g101
ssg82
g2852
sg75
(lp2863
S':'
asbag68
(g89
g70
NtRp2864
(dp2865
g73
(dp2866
sg82
g2852
sg75
(lp2867
g68
(g69
g70
NtRp2868
(dp2869
g73
(dp2870
g81
I4
ssg82
g2864
sg75
(lp2871
S'5'
asbasbasbag68
(g84
g70
NtRp2872
(dp2873
g73
(dp2874
sg82
g2848
sg75
(lp2875
g68
(g89
g70
NtRp2876
(dp2877
g73
(dp2878
g93
g94
ssg82
g2872
sg75
(lp2879
g2661
asbag68
(g89
g70
NtRp2880
(dp2881
g73
(dp2882
g100
g101
ssg82
g2872
sg75
(lp2883
S':'
asbag68
(g89
g70
NtRp2884
(dp2885
g73
(dp2886
sg82
g2872
sg75
(lp2887
g68
(g69
g70
NtRp2888
(dp2889
g73
(dp2890
g81
I4
ssg82
g2884
sg75
(lp2891
g2674
asbasbasbag68
(g84
g70
NtRp2892
(dp2893
g73
(dp2894
sg82
g2848
sg75
(lp2895
g68
(g89
g70
NtRp2896
(dp2897
g73
(dp2898
g93
g94
ssg82
g2892
sg75
(lp2899
g2683
asbag68
(g89
g70
NtRp2900
(dp2901
g73
(dp2902
g100
g101
ssg82
g2892
sg75
(lp2903
S':'
asbag68
(g89
g70
NtRp2904
(dp2905
g73
(dp2906
sg82
g2892
sg75
(lp2907
g68
(g69
g70
NtRp2908
(dp2909
g73
(dp2910
g81
I4
ssg82
g2904
sg75
(lp2911
g2696
asbasbasbag68
(g84
g70
NtRp2912
(dp2913
g73
(dp2914
sg82
g2848
sg75
(lp2915
g68
(g89
g70
NtRp2916
(dp2917
g73
(dp2918
g93
g94
ssg82
g2912
sg75
(lp2919
g2705
asbag68
(g89
g70
NtRp2920
(dp2921
g73
(dp2922
g100
g101
ssg82
g2912
sg75
(lp2923
S':'
asbag68
(g89
g70
NtRp2924
(dp2925
g73
(dp2926
sg82
g2912
sg75
(lp2927
g68
(g69
g70
NtRp2928
(dp2929
g73
(dp2930
g81
I4
ssg82
g2924
sg75
(lp2931
g2718
asbasbasbasbasbasbasbag68
(g84
g70
NtRp2932
(dp2933
g73
(dp2934
sg82
g78
sg75
(lp2935
g68
(g89
g70
NtRp2936
(dp2937
g73
(dp2938
g93
g94
ssg82
g2932
sg75
(lp2939
S'wsgi'
p2940
asbag68
(g89
g70
NtRp2941
(dp2942
g73
(dp2943
g100
g101
ssg82
g2932
sg75
(lp2944
S':'
asbag68
(g89
g70
NtRp2945
(dp2946
g73
(dp2947
sg82
g2932
sg75
(lp2948
g68
(g69
g70
NtRp2949
(dp2950
g73
(dp2951
g81
I5
ssg82
g2945
sg75
(lp2952
g68
(g77
g70
NtRp2953
(dp2954
g73
(dp2955
g81
I4
ssg82
Nsg75
(lp2956
g68
(g84
g70
NtRp2957
(dp2958
g73
(dp2959
sg82
g2953
sg75
(lp2960
g68
(g89
g70
NtRp2961
(dp2962
g73
(dp2963
g93
g94
ssg82
g2957
sg75
(lp2964
S'environ'
p2965
asbag68
(g89
g70
NtRp2966
(dp2967
g73
(dp2968
g100
g101
ssg82
g2957
sg75
(lp2969
S':'
asbag68
(g89
g70
NtRp2970
(dp2971
g73
(dp2972
sg82
g2957
sg75
(lp2973
g68
(g69
g70
NtRp2974
(dp2975
g73
(dp2976
g81
I4
ssg82
g2970
sg75
(lp2977
g68
(g77
g70
NtRp2978
(dp2979
g73
(dp2980
g81
I3
ssg82
Nsg75
(lp2981
g68
(g84
g70
NtRp2982
(dp2983
g73
(dp2984
sg82
g2978
sg75
(lp2985
g68
(g89
g70
NtRp2986
(dp2987
g73
(dp2988
g93
g94
ssg82
g2982
sg75
(lp2989
S'CONTENT_LENGTH'
p2990
asbag68
(g89
g70
NtRp2991
(dp2992
g73
(dp2993
g100
g101
ssg82
g2982
sg75
(lp2994
S':'
asbag68
(g89
g70
NtRp2995
(dp2996
g73
(dp2997
sg82
g2982
sg75
(lp2998
g68
(g69
g70
NtRp2999
(dp3000
g73
(dp3001
g81
I3
ssg82
g2995
sg75
(lp3002
g974
asbasbasbag68
(g84
g70
NtRp3003
(dp3004
g73
(dp3005
sg82
g2978
sg75
(lp3006
g68
(g89
g70
NtRp3007
(dp3008
g73
(dp3009
g93
g94
ssg82
g3003
sg75
(lp3010
S'CONTENT_TYPE'
p3011
asbag68
(g89
g70
NtRp3012
(dp3013
g73
(dp3014
g100
g101
ssg82
g3003
sg75
(lp3015
S':'
asbag68
(g89
g70
NtRp3016
(dp3017
g73
(dp3018
sg82
g3003
sg75
(lp3019
g68
(g69
g70
NtRp3020
(dp3021
g73
(dp3022
g81
I3
ssg82
g3016
sg75
(lp3023
g996
asbasbasbag68
(g84
g70
NtRp3024
(dp3025
g73
(dp3026
sg82
g2978
sg75
(lp3027
g68
(g89
g70
NtRp3028
(dp3029
g73
(dp3030
g93
g94
ssg82
g3024
sg75
(lp3031
S'HTTP_ACCEPT'
p3032
asbag68
(g89
g70
NtRp3033
(dp3034
g73
(dp3035
g100
g101
ssg82
g3024
sg75
(lp3036
S':'
asbag68
(g89
g70
NtRp3037
(dp3038
g73
(dp3039
sg82
g3024
sg75
(lp3040
g68
(g69
g70
NtRp3041
(dp3042
g73
(dp3043
g81
I3
ssg82
g3037
sg75
(lp3044
g1083
asbasbasbag68
(g84
g70
NtRp3045
(dp3046
g73
(dp3047
sg82
g2978
sg75
(lp3048
g68
(g89
g70
NtRp3049
(dp3050
g73
(dp3051
g93
g94
ssg82
g3045
sg75
(lp3052
S'HTTP_ACCEPT_CHARSET'
p3053
asbag68
(g89
g70
NtRp3054
(dp3055
g73
(dp3056
g100
g101
ssg82
g3045
sg75
(lp3057
S':'
asbag68
(g89
g70
NtRp3058
(dp3059
g73
(dp3060
sg82
g3045
sg75
(lp3061
g68
(g69
g70
NtRp3062
(dp3063
g73
(dp3064
g81
I3
ssg82
g3058
sg75
(lp3065
g1105
asbasbasbag68
(g84
g70
NtRp3066
(dp3067
g73
(dp3068
sg82
g2978
sg75
(lp3069
g68
(g89
g70
NtRp3070
(dp3071
g73
(dp3072
g93
g94
ssg82
g3066
sg75
(lp3073
S'HTTP_ACCEPT_ENCODING'
p3074
asbag68
(g89
g70
NtRp3075
(dp3076
g73
(dp3077
g100
g101
ssg82
g3066
sg75
(lp3078
S':'
asbag68
(g89
g70
NtRp3079
(dp3080
g73
(dp3081
sg82
g3066
sg75
(lp3082
g68
(g69
g70
NtRp3083
(dp3084
g73
(dp3085
g81
I3
ssg82
g3079
sg75
(lp3086
g1127
asbasbasbag68
(g84
g70
NtRp3087
(dp3088
g73
(dp3089
sg82
g2978
sg75
(lp3090
g68
(g89
g70
NtRp3091
(dp3092
g73
(dp3093
g93
g94
ssg82
g3087
sg75
(lp3094
S'HTTP_ACCEPT_LANGUAGE'
p3095
asbag68
(g89
g70
NtRp3096
(dp3097
g73
(dp3098
g100
g101
ssg82
g3087
sg75
(lp3099
S':'
asbag68
(g89
g70
NtRp3100
(dp3101
g73
(dp3102
sg82
g3087
sg75
(lp3103
g68
(g69
g70
NtRp3104
(dp3105
g73
(dp3106
g81
I3
ssg82
g3100
sg75
(lp3107
g1149
asbasbasbag68
(g84
g70
NtRp3108
(dp3109
g73
(dp3110
sg82
g2978
sg75
(lp3111
g68
(g89
g70
NtRp3112
(dp3113
g73
(dp3114
g93
g94
ssg82
g3108
sg75
(lp3115
S'HTTP_CACHE_CONTROL'
p3116
asbag68
(g89
g70
NtRp3117
(dp3118
g73
(dp3119
g100
g101
ssg82
g3108
sg75
(lp3120
S':'
asbag68
(g89
g70
NtRp3121
(dp3122
g73
(dp3123
sg82
g3108
sg75
(lp3124
g68
(g69
g70
NtRp3125
(dp3126
g73
(dp3127
g81
I3
ssg82
g3121
sg75
(lp3128
g1171
asbasbasbag68
(g84
g70
NtRp3129
(dp3130
g73
(dp3131
sg82
g2978
sg75
(lp3132
g68
(g89
g70
NtRp3133
(dp3134
g73
(dp3135
g93
g94
ssg82
g3129
sg75
(lp3136
S'HTTP_CONNECTION'
p3137
asbag68
(g89
g70
NtRp3138
(dp3139
g73
(dp3140
g100
g101
ssg82
g3129
sg75
(lp3141
S':'
asbag68
(g89
g70
NtRp3142
(dp3143
g73
(dp3144
sg82
g3129
sg75
(lp3145
g68
(g69
g70
NtRp3146
(dp3147
g73
(dp3148
g81
I3
ssg82
g3142
sg75
(lp3149
g1193
asbasbasbag68
(g84
g70
NtRp3150
(dp3151
g73
(dp3152
sg82
g2978
sg75
(lp3153
g68
(g89
g70
NtRp3154
(dp3155
g73
(dp3156
g93
g94
ssg82
g3150
sg75
(lp3157
S'HTTP_CONTENT_LENGTH'
p3158
asbag68
(g89
g70
NtRp3159
(dp3160
g73
(dp3161
g100
g101
ssg82
g3150
sg75
(lp3162
S':'
asbag68
(g89
g70
NtRp3163
(dp3164
g73
(dp3165
sg82
g3150
sg75
(lp3166
g68
(g69
g70
NtRp3167
(dp3168
g73
(dp3169
g81
I3
ssg82
g3163
sg75
(lp3170
g974
asbasbasbag68
(g84
g70
NtRp3171
(dp3172
g73
(dp3173
sg82
g2978
sg75
(lp3174
g68
(g89
g70
NtRp3175
(dp3176
g73
(dp3177
g93
g94
ssg82
g3171
sg75
(lp3178
S'HTTP_CONTENT_TYPE'
p3179
asbag68
(g89
g70
NtRp3180
(dp3181
g73
(dp3182
g100
g101
ssg82
g3171
sg75
(lp3183
S':'
asbag68
(g89
g70
NtRp3184
(dp3185
g73
(dp3186
sg82
g3171
sg75
(lp3187
g68
(g69
g70
NtRp3188
(dp3189
g73
(dp3190
g81
I3
ssg82
g3184
sg75
(lp3191
g996
asbasbasbag68
(g84
g70
NtRp3192
(dp3193
g73
(dp3194
sg82
g2978
sg75
(lp3195
g68
(g89
g70
NtRp3196
(dp3197
g73
(dp3198
g93
g94
ssg82
g3192
sg75
(lp3199
S'HTTP_COOKIE'
p3200
asbag68
(g89
g70
NtRp3201
(dp3202
g73
(dp3203
g100
g101
ssg82
g3192
sg75
(lp3204
S':'
asbag68
(g89
g70
NtRp3205
(dp3206
g73
(dp3207
sg82
g3192
sg75
(lp3208
g68
(g69
g70
NtRp3209
(dp3210
g73
(dp3211
g81
I3
ssg82
g3205
sg75
(lp3212
g1257
asbasbasbag68
(g84
g70
NtRp3213
(dp3214
g73
(dp3215
sg82
g2978
sg75
(lp3216
g68
(g89
g70
NtRp3217
(dp3218
g73
(dp3219
g93
g94
ssg82
g3213
sg75
(lp3220
S'HTTP_HOST'
p3221
asbag68
(g89
g70
NtRp3222
(dp3223
g73
(dp3224
g100
g101
ssg82
g3213
sg75
(lp3225
S':'
asbag68
(g89
g70
NtRp3226
(dp3227
g73
(dp3228
sg82
g3213
sg75
(lp3229
g68
(g69
g70
NtRp3230
(dp3231
g73
(dp3232
g81
I3
ssg82
g3226
sg75
(lp3233
g1279
asbasbasbag68
(g84
g70
NtRp3234
(dp3235
g73
(dp3236
sg82
g2978
sg75
(lp3237
g68
(g89
g70
NtRp3238
(dp3239
g73
(dp3240
g93
g94
ssg82
g3234
sg75
(lp3241
S'HTTP_ORIGIN'
p3242
asbag68
(g89
g70
NtRp3243
(dp3244
g73
(dp3245
g100
g101
ssg82
g3234
sg75
(lp3246
S':'
asbag68
(g89
g70
NtRp3247
(dp3248
g73
(dp3249
sg82
g3234
sg75
(lp3250
g68
(g69
g70
NtRp3251
(dp3252
g73
(dp3253
g81
I3
ssg82
g3247
sg75
(lp3254
g1301
asbasbasbag68
(g84
g70
NtRp3255
(dp3256
g73
(dp3257
sg82
g2978
sg75
(lp3258
g68
(g89
g70
NtRp3259
(dp3260
g73
(dp3261
g93
g94
ssg82
g3255
sg75
(lp3262
S'HTTP_REFERER'
p3263
asbag68
(g89
g70
NtRp3264
(dp3265
g73
(dp3266
g100
g101
ssg82
g3255
sg75
(lp3267
S':'
asbag68
(g89
g70
NtRp3268
(dp3269
g73
(dp3270
sg82
g3255
sg75
(lp3271
g68
(g69
g70
NtRp3272
(dp3273
g73
(dp3274
g81
I3
ssg82
g3268
sg75
(lp3275
g1323
asbasbasbag68
(g84
g70
NtRp3276
(dp3277
g73
(dp3278
sg82
g2978
sg75
(lp3279
g68
(g89
g70
NtRp3280
(dp3281
g73
(dp3282
g93
g94
ssg82
g3276
sg75
(lp3283
S'HTTP_USER_AGENT'
p3284
asbag68
(g89
g70
NtRp3285
(dp3286
g73
(dp3287
g100
g101
ssg82
g3276
sg75
(lp3288
S':'
asbag68
(g89
g70
NtRp3289
(dp3290
g73
(dp3291
sg82
g3276
sg75
(lp3292
g68
(g69
g70
NtRp3293
(dp3294
g73
(dp3295
g81
I3
ssg82
g3289
sg75
(lp3296
g1345
asbasbasbag68
(g84
g70
NtRp3297
(dp3298
g73
(dp3299
sg82
g2978
sg75
(lp3300
g68
(g89
g70
NtRp3301
(dp3302
g73
(dp3303
g93
g94
ssg82
g3297
sg75
(lp3304
S'PATH_INFO'
p3305
asbag68
(g89
g70
NtRp3306
(dp3307
g73
(dp3308
g100
g101
ssg82
g3297
sg75
(lp3309
S':'
asbag68
(g89
g70
NtRp3310
(dp3311
g73
(dp3312
sg82
g3297
sg75
(lp3313
g68
(g69
g70
NtRp3314
(dp3315
g73
(dp3316
g81
I3
ssg82
g3310
sg75
(lp3317
g1512
asbasbasbag68
(g84
g70
NtRp3318
(dp3319
g73
(dp3320
sg82
g2978
sg75
(lp3321
g68
(g89
g70
NtRp3322
(dp3323
g73
(dp3324
g93
g94
ssg82
g3318
sg75
(lp3325
S'QUERY_STRING'
p3326
asbag68
(g89
g70
NtRp3327
(dp3328
g73
(dp3329
g100
g101
ssg82
g3318
sg75
(lp3330
S':'
asbag68
(g89
g70
NtRp3331
(dp3332
g73
(dp3333
sg82
g3318
sg75
(lp3334
g68
(g69
g70
NtRp3335
(dp3336
g73
(dp3337
g81
I3
ssg82
g3331
sg75
(lp3338
S''
asbasbasbag68
(g84
g70
NtRp3339
(dp3340
g73
(dp3341
sg82
g2978
sg75
(lp3342
g68
(g89
g70
NtRp3343
(dp3344
g73
(dp3345
g93
g94
ssg82
g3339
sg75
(lp3346
S'REMOTE_ADDR'
p3347
asbag68
(g89
g70
NtRp3348
(dp3349
g73
(dp3350
g100
g101
ssg82
g3339
sg75
(lp3351
S':'
asbag68
(g89
g70
NtRp3352
(dp3353
g73
(dp3354
sg82
g3339
sg75
(lp3355
g68
(g69
g70
NtRp3356
(dp3357
g73
(dp3358
g81
I3
ssg82
g3352
sg75
(lp3359
g223
asbasbasbag68
(g84
g70
NtRp3360
(dp3361
g73
(dp3362
sg82
g2978
sg75
(lp3363
g68
(g89
g70
NtRp3364
(dp3365
g73
(dp3366
g93
g94
ssg82
g3360
sg75
(lp3367
S'REMOTE_PORT'
p3368
asbag68
(g89
g70
NtRp3369
(dp3370
g73
(dp3371
g100
g101
ssg82
g3360
sg75
(lp3372
S':'
asbag68
(g89
g70
NtRp3373
(dp3374
g73
(dp3375
sg82
g3360
sg75
(lp3376
g68
(g69
g70
NtRp3377
(dp3378
g73
(dp3379
g81
I3
ssg82
g3373
sg75
(lp3380
g1576
asbasbasbag68
(g84
g70
NtRp3381
(dp3382
g73
(dp3383
sg82
g2978
sg75
(lp3384
g68
(g89
g70
NtRp3385
(dp3386
g73
(dp3387
g93
g94
ssg82
g3381
sg75
(lp3388
S'REQUEST_METHOD'
p3389
asbag68
(g89
g70
NtRp3390
(dp3391
g73
(dp3392
g100
g101
ssg82
g3381
sg75
(lp3393
S':'
asbag68
(g89
g70
NtRp3394
(dp3395
g73
(dp3396
sg82
g3381
sg75
(lp3397
g68
(g69
g70
NtRp3398
(dp3399
g73
(dp3400
g81
I3
ssg82
g3394
sg75
(lp3401
g1598
asbasbasbag68
(g84
g70
NtRp3402
(dp3403
g73
(dp3404
sg82
g2978
sg75
(lp3405
g68
(g89
g70
NtRp3406
(dp3407
g73
(dp3408
g93
g94
ssg82
g3402
sg75
(lp3409
S'REQUEST_URI'
p3410
asbag68
(g89
g70
NtRp3411
(dp3412
g73
(dp3413
g100
g101
ssg82
g3402
sg75
(lp3414
S':'
asbag68
(g89
g70
NtRp3415
(dp3416
g73
(dp3417
sg82
g3402
sg75
(lp3418
g68
(g69
g70
NtRp3419
(dp3420
g73
(dp3421
g81
I3
ssg82
g3415
sg75
(lp3422
g1512
asbasbasbag68
(g84
g70
NtRp3423
(dp3424
g73
(dp3425
sg82
g2978
sg75
(lp3426
g68
(g89
g70
NtRp3427
(dp3428
g73
(dp3429
g93
g94
ssg82
g3423
sg75
(lp3430
S'SCRIPT_NAME'
p3431
asbag68
(g89
g70
NtRp3432
(dp3433
g73
(dp3434
g100
g101
ssg82
g3423
sg75
(lp3435
S':'
asbag68
(g89
g70
NtRp3436
(dp3437
g73
(dp3438
sg82
g3423
sg75
(lp3439
g68
(g69
g70
NtRp3440
(dp3441
g73
(dp3442
g81
I3
ssg82
g3436
sg75
(lp3443
S''
asbasbasbag68
(g84
g70
NtRp3444
(dp3445
g73
(dp3446
sg82
g2978
sg75
(lp3447
g68
(g89
g70
NtRp3448
(dp3449
g73
(dp3450
g93
g94
ssg82
g3444
sg75
(lp3451
S'SERVER_NAME'
p3452
asbag68
(g89
g70
NtRp3453
(dp3454
g73
(dp3455
g100
g101
ssg82
g3444
sg75
(lp3456
S':'
asbag68
(g89
g70
NtRp3457
(dp3458
g73
(dp3459
sg82
g3444
sg75
(lp3460
g68
(g69
g70
NtRp3461
(dp3462
g73
(dp3463
g81
I3
ssg82
g3457
sg75
(lp3464
g1662
asbasbasbag68
(g84
g70
NtRp3465
(dp3466
g73
(dp3467
sg82
g2978
sg75
(lp3468
g68
(g89
g70
NtRp3469
(dp3470
g73
(dp3471
g93
g94
ssg82
g3465
sg75
(lp3472
S'SERVER_PORT'
p3473
asbag68
(g89
g70
NtRp3474
(dp3475
g73
(dp3476
g100
g101
ssg82
g3465
sg75
(lp3477
S':'
asbag68
(g89
g70
NtRp3478
(dp3479
g73
(dp3480
sg82
g3465
sg75
(lp3481
g68
(g69
g70
NtRp3482
(dp3483
g73
(dp3484
g81
I3
ssg82
g3478
sg75
(lp3485
g1684
asbasbasbag68
(g84
g70
NtRp3486
(dp3487
g73
(dp3488
sg82
g2978
sg75
(lp3489
g68
(g89
g70
NtRp3490
(dp3491
g73
(dp3492
g93
g94
ssg82
g3486
sg75
(lp3493
S'SERVER_PROTOCOL'
p3494
asbag68
(g89
g70
NtRp3495
(dp3496
g73
(dp3497
g100
g101
ssg82
g3486
sg75
(lp3498
S':'
asbag68
(g89
g70
NtRp3499
(dp3500
g73
(dp3501
sg82
g3486
sg75
(lp3502
g68
(g69
g70
NtRp3503
(dp3504
g73
(dp3505
g81
I3
ssg82
g3499
sg75
(lp3506
g1706
asbasbasbag68
(g84
g70
NtRp3507
(dp3508
g73
(dp3509
sg82
g2978
sg75
(lp3510
g68
(g89
g70
NtRp3511
(dp3512
g73
(dp3513
g93
g94
ssg82
g3507
sg75
(lp3514
S'SERVER_SOFTWARE'
p3515
asbag68
(g89
g70
NtRp3516
(dp3517
g73
(dp3518
g100
g101
ssg82
g3507
sg75
(lp3519
S':'
asbag68
(g89
g70
NtRp3520
(dp3521
g73
(dp3522
sg82
g3507
sg75
(lp3523
g68
(g69
g70
NtRp3524
(dp3525
g73
(dp3526
g81
I3
ssg82
g3520
sg75
(lp3527
g1728
asbasbasbag68
(g84
g70
NtRp3528
(dp3529
g73
(dp3530
sg82
g2978
sg75
(lp3531
g68
(g89
g70
NtRp3532
(dp3533
g73
(dp3534
g93
g94
ssg82
g3528
sg75
(lp3535
S'wsgi.errors'
p3536
asbag68
(g89
g70
NtRp3537
(dp3538
g73
(dp3539
g100
g101
ssg82
g3528
sg75
(lp3540
S':'
asbag68
(g89
g70
NtRp3541
(dp3542
g73
(dp3543
sg82
g3528
sg75
(lp3544
g68
(g69
g70
NtRp3545
(dp3546
g73
(dp3547
g81
I3
ssg82
g3541
sg75
(lp3548
S"<open file '<stderr>', mode 'w' at 0x109baf270>"
p3549
asbasbasbag68
(g84
g70
NtRp3550
(dp3551
g73
(dp3552
sg82
g2978
sg75
(lp3553
g68
(g89
g70
NtRp3554
(dp3555
g73
(dp3556
g93
g94
ssg82
g3550
sg75
(lp3557
S'wsgi.file_wrapper'
p3558
asbag68
(g89
g70
NtRp3559
(dp3560
g73
(dp3561
g100
g101
ssg82
g3550
sg75
(lp3562
S':'
asbag68
(g89
g70
NtRp3563
(dp3564
g73
(dp3565
sg82
g3550
sg75
(lp3566
g68
(g69
g70
NtRp3567
(dp3568
g73
(dp3569
g81
I3
ssg82
g3563
sg75
(lp3570
S'<class wsgiref.util.FileWrapper at 0x10a7b1ef0>'
p3571
asbasbasbag68
(g84
g70
NtRp3572
(dp3573
g73
(dp3574
sg82
g2978
sg75
(lp3575
g68
(g89
g70
NtRp3576
(dp3577
g73
(dp3578
g93
g94
ssg82
g3572
sg75
(lp3579
S'wsgi.input'
p3580
asbag68
(g89
g70
NtRp3581
(dp3582
g73
(dp3583
g100
g101
ssg82
g3572
sg75
(lp3584
S':'
asbag68
(g89
g70
NtRp3585
(dp3586
g73
(dp3587
sg82
g3572
sg75
(lp3588
g68
(g69
g70
NtRp3589
(dp3590
g73
(dp3591
g81
I3
ssg82
g3585
sg75
(lp3592
S"<open file '<fdopen>', mode 'w+b' at 0x10ec32f60>"
p3593
asbasbasbag68
(g84
g70
NtRp3594
(dp3595
g73
(dp3596
sg82
g2978
sg75
(lp3597
g68
(g89
g70
NtRp3598
(dp3599
g73
(dp3600
g93
g94
ssg82
g3594
sg75
(lp3601
S'wsgi.multiprocess'
p3602
asbag68
(g89
g70
NtRp3603
(dp3604
g73
(dp3605
g100
g101
ssg82
g3594
sg75
(lp3606
S':'
asbag68
(g89
g70
NtRp3607
(dp3608
g73
(dp3609
sg82
g3594
sg75
(lp3610
g68
(g69
g70
NtRp3611
(dp3612
g73
(dp3613
g81
I3
ssg82
g3607
sg75
(lp3614
g111
asbasbasbag68
(g84
g70
NtRp3615
(dp3616
g73
(dp3617
sg82
g2978
sg75
(lp3618
g68
(g89
g70
NtRp3619
(dp3620
g73
(dp3621
g93
g94
ssg82
g3615
sg75
(lp3622
S'wsgi.multithread'
p3623
asbag68
(g89
g70
NtRp3624
(dp3625
g73
(dp3626
g100
g101
ssg82
g3615
sg75
(lp3627
S':'
asbag68
(g89
g70
NtRp3628
(dp3629
g73
(dp3630
sg82
g3615
sg75
(lp3631
g68
(g69
g70
NtRp3632
(dp3633
g73
(dp3634
g81
I3
ssg82
g3628
sg75
(lp3635
g1945
asbasbasbag68
(g84
g70
NtRp3636
(dp3637
g73
(dp3638
sg82
g2978
sg75
(lp3639
g68
(g89
g70
NtRp3640
(dp3641
g73
(dp3642
g93
g94
ssg82
g3636
sg75
(lp3643
S'wsgi.run_once'
p3644
asbag68
(g89
g70
NtRp3645
(dp3646
g73
(dp3647
g100
g101
ssg82
g3636
sg75
(lp3648
S':'
asbag68
(g89
g70
NtRp3649
(dp3650
g73
(dp3651
sg82
g3636
sg75
(lp3652
g68
(g69
g70
NtRp3653
(dp3654
g73
(dp3655
g81
I3
ssg82
g3649
sg75
(lp3656
g111
asbasbasbag68
(g84
g70
NtRp3657
(dp3658
g73
(dp3659
sg82
g2978
sg75
(lp3660
g68
(g89
g70
NtRp3661
(dp3662
g73
(dp3663
g93
g94
ssg82
g3657
sg75
(lp3664
S'wsgi.url_scheme'
p3665
asbag68
(g89
g70
NtRp3666
(dp3667
g73
(dp3668
g100
g101
ssg82
g3657
sg75
(lp3669
S':'
asbag68
(g89
g70
NtRp3670
(dp3671
g73
(dp3672
sg82
g3657
sg75
(lp3673
g68
(g69
g70
NtRp3674
(dp3675
g73
(dp3676
g81
I3
ssg82
g3670
sg75
(lp3677
g1988
asbasbasbag68
(g84
g70
NtRp3678
(dp3679
g73
(dp3680
sg82
g2978
sg75
(lp3681
g68
(g89
g70
NtRp3682
(dp3683
g73
(dp3684
g93
g94
ssg82
g3678
sg75
(lp3685
S'wsgi.version'
p3686
asbag68
(g89
g70
NtRp3687
(dp3688
g73
(dp3689
g100
g101
ssg82
g3678
sg75
(lp3690
S':'
asbag68
(g89
g70
NtRp3691
(dp3692
g73
(dp3693
sg82
g3678
sg75
(lp3694
g68
(g69
g70
NtRp3695
(dp3696
g73
(dp3697
g81
I3
ssg82
g3691
sg75
(lp3698
S'1'
asbasbasbasbasbasbasbasbasbasbasbasbasbsS'frames'
p3699
(lp3700
(dp3701
S'file'
p3702
S'/Users/Truki/Desarrollo/web2py/gluon/restricted.py'
p3703
sS'dump'
p3704
(dp3705
S'code'
p3706
S"'# coding: utf8\\n# intente algo como\\ndef index(): ...\\nresponse._vars=response._caller(detalleFactura)\\n'"
p3707
sS'layer'
p3708
S"'/Users/Truki/Desarrollo/web2py/applications/rosan/controllers/facturas.py'"
p3709
sS'global compile2'
p3710
S'<function compile2>'
p3711
sS'ccode'
p3712
S'undefined'
p3713
ssS'lnum'
p3714
I211
sS'lines'
p3715
(dp3716
I206
S"    environment['__name__'] = '__restricted__'"
p3717
sI207
S'    try:'
p3718
sI208
S'        if isinstance(code, types.CodeType):'
p3719
sI209
S'            ccode = code'
p3720
sI210
S'        else:'
p3721
sI211
S'            ccode = compile2(code, layer)'
p3722
sI212
S'        exec ccode in environment'
p3723
sI213
S'    except HTTP:'
p3724
sI214
S'        raise'
p3725
sI215
S'    except RestrictedError:'
p3726
ssS'call'
p3727
S"(code='# coding: utf8\\n# intente algo como\\ndef index(): ...\\nresponse._vars=response._caller(detalleFactura)\\n', environment={'A': <class 'gluon.html.A'>, 'Auth': <class 'gluon.tools.Auth'>, 'B': <class 'gluon.html.B'>, 'BEAUTIFY': <class 'gluon.html.BEAUTIFY'>, 'BODY': <class 'gluon.html.BODY'>, 'BR': <class 'gluon.html.BR'>, 'BUTTON': <class 'gluon.html.BUTTON'>, 'CAT': <class 'gluon.html.CAT'>, 'CENTER': <class 'gluon.html.CENTER'>, 'CLEANUP': <class 'gluon.validators.CLEANUP'>, ...}, layer='/Users/Truki/Desarrollo/web2py/applications/rosan/controllers/facturas.py')"
p3728
sS'func'
p3729
S'restricted'
p3730
sa(dp3731
g3702
S'/Users/Truki/Desarrollo/web2py/gluon/restricted.py'
p3732
sg3704
(dp3733
S'builtincompile'
p3734
S'<built-in function compile>'
p3735
sS'code'
p3736
S"'# coding: utf8\\n# intente algo como\\ndef index(): ...\\nresponse._vars=response._caller(detalleFactura)\\n'"
p3737
sS'code.rstrip'
p3738
S'<built-in method rstrip of str object>'
p3739
sS').replace'
p3740
g3713
sS'layer'
p3741
S"'/Users/Truki/Desarrollo/web2py/applications/rosan/controllers/facturas.py'"
p3742
ssg3714
I194
sg3715
(dp3743
I192
S"    The +'\\n' is necessary else compile fails when code ends in a comment."
p3744
sI193
S'    """'
p3745
sI194
S"    return compile(code.rstrip().replace('\\r\\n', '\\n') + '\\n', layer, 'exec')"
p3746
sI195
S''
sI196
S''
sI197
S"def restricted(code, environment=None, layer='Unknown'):"
p3747
sI198
S'    """'
p3748
sI189
S''
sI190
S'def compile2(code, layer):'
p3749
sI191
S'    """'
p3750
ssg3727
S"(code='# coding: utf8\\n# intente algo como\\ndef index(): ...\\nresponse._vars=response._caller(detalleFactura)\\n', layer='/Users/Truki/Desarrollo/web2py/applications/rosan/controllers/facturas.py')"
p3751
sg3729
S'compile2'
p3752
sasS'pyver'
p3753
S'Python 2.7.2: /usr/bin/python'
p3754
sS'session'
p3755
g68
(g69
g70
NtRp3756
(dp3757
g73
(dp3758
sg75
(lp3759
g68
(g77
g70
NtRp3760
(dp3761
g73
(dp3762
g81
I5
ssg82
Nsg75
(lp3763
g68
(g84
g70
NtRp3764
(dp3765
g73
(dp3766
sg82
g3760
sg75
(lp3767
g68
(g89
g70
NtRp3768
(dp3769
g73
(dp3770
g93
g94
ssg82
g3764
sg75
(lp3771
S'facturaId'
p3772
asbag68
(g89
g70
NtRp3773
(dp3774
g73
(dp3775
g100
g101
ssg82
g3764
sg75
(lp3776
S':'
asbag68
(g89
g70
NtRp3777
(dp3778
g73
(dp3779
sg82
g3764
sg75
(lp3780
g68
(g69
g70
NtRp3781
(dp3782
g73
(dp3783
g81
I5
ssg82
g3777
sg75
(lp3784
S'1'
asbasbasbag68
(g84
g70
NtRp3785
(dp3786
g73
(dp3787
sg82
g3760
sg75
(lp3788
g68
(g89
g70
NtRp3789
(dp3790
g73
(dp3791
g93
g94
ssg82
g3785
sg75
(lp3792
S'last_orderby'
p3793
asbag68
(g89
g70
NtRp3794
(dp3795
g73
(dp3796
g100
g101
ssg82
g3785
sg75
(lp3797
S':'
asbag68
(g89
g70
NtRp3798
(dp3799
g73
(dp3800
sg82
g3785
sg75
(lp3801
g68
(g69
g70
NtRp3802
(dp3803
g73
(dp3804
g81
I5
ssg82
g3798
sg75
(lp3805
S'None'
p3806
asbasbasbag68
(g84
g70
NtRp3807
(dp3808
g73
(dp3809
sg82
g3760
sg75
(lp3810
g68
(g89
g70
NtRp3811
(dp3812
g73
(dp3813
g93
g94
ssg82
g3807
sg75
(lp3814
S'last_query'
p3815
asbag68
(g89
g70
NtRp3816
(dp3817
g73
(dp3818
g100
g101
ssg82
g3807
sg75
(lp3819
S':'
asbag68
(g89
g70
NtRp3820
(dp3821
g73
(dp3822
sg82
g3807
sg75
(lp3823
g68
(g69
g70
NtRp3824
(dp3825
g73
(dp3826
g81
I5
ssg82
g3820
sg75
(lp3827
S'dbRosan.factura_detalle_temp.id>0'
p3828
asbasbasbasbasbsS'etype'
p3829
S"<type 'exceptions.SyntaxError'>"
p3830
sS'date'
p3831
S'Thu Feb 21 22:53:49 2013'
p3832
sS'response'
p3833
g68
(g69
g70
NtRp3834
(dp3835
g73
(dp3836
sg75
(lp3837
g68
(g77
g70
NtRp3838
(dp3839
g73
(dp3840
g81
I5
ssg82
Nsg75
(lp3841
g68
(g84
g70
NtRp3842
(dp3843
g73
(dp3844
sg82
g3838
sg75
(lp3845
g68
(g89
g70
NtRp3846
(dp3847
g73
(dp3848
g93
g94
ssg82
g3842
sg75
(lp3849
g166
asbag68
(g89
g70
NtRp3850
(dp3851
g73
(dp3852
g100
g101
ssg82
g3842
sg75
(lp3853
S':'
asbag68
(g89
g70
NtRp3854
(dp3855
g73
(dp3856
sg82
g3842
sg75
(lp3857
g68
(g69
g70
NtRp3858
(dp3859
g73
(dp3860
g81
I5
ssg82
g3854
sg75
(lp3861
S'<cStringIO.StringO object at 0x10f2c2618>'
p3862
asbasbasbag68
(g84
g70
NtRp3863
(dp3864
g73
(dp3865
sg82
g3838
sg75
(lp3866
g68
(g89
g70
NtRp3867
(dp3868
g73
(dp3869
g93
g94
ssg82
g3863
sg75
(lp3870
g254
asbag68
(g89
g70
NtRp3871
(dp3872
g73
(dp3873
g100
g101
ssg82
g3863
sg75
(lp3874
S':'
asbag68
(g89
g70
NtRp3875
(dp3876
g73
(dp3877
sg82
g3863
sg75
(lp3878
g68
(g69
g70
NtRp3879
(dp3880
g73
(dp3881
g81
I5
ssg82
g3875
sg75
(lp3882
g68
(g77
g70
NtRp3883
(dp3884
g73
(dp3885
g81
I4
ssg82
Nsg75
(lp3886
g68
(g84
g70
NtRp3887
(dp3888
g73
(dp3889
sg82
g3883
sg75
(lp3890
g68
(g89
g70
NtRp3891
(dp3892
g73
(dp3893
g93
g94
ssg82
g3887
sg75
(lp3894
S'session_id_rosan'
p3895
asbag68
(g89
g70
NtRp3896
(dp3897
g73
(dp3898
g100
g101
ssg82
g3887
sg75
(lp3899
S':'
asbag68
(g89
g70
NtRp3900
(dp3901
g73
(dp3902
sg82
g3887
sg75
(lp3903
g68
(g69
g70
NtRp3904
(dp3905
g73
(dp3906
g81
I4
ssg82
g3900
sg75
(lp3907
g486
ag68
(g77
g70
NtRp3908
(dp3909
g73
(dp3910
g81
I3
ssg82
Nsg75
(lp3911
g68
(g84
g70
NtRp3912
(dp3913
g73
(dp3914
sg82
g3908
sg75
(lp3915
g68
(g89
g70
NtRp3916
(dp3917
g73
(dp3918
g93
g94
ssg82
g3912
sg75
(lp3919
g305
asbag68
(g89
g70
NtRp3920
(dp3921
g73
(dp3922
g100
g101
ssg82
g3912
sg75
(lp3923
S':'
asbag68
(g89
g70
NtRp3924
(dp3925
g73
(dp3926
sg82
g3912
sg75
(lp3927
g68
(g69
g70
NtRp3928
(dp3929
g73
(dp3930
g81
I3
ssg82
g3924
sg75
(lp3931
S''
asbasbasbag68
(g84
g70
NtRp3932
(dp3933
g73
(dp3934
sg82
g3908
sg75
(lp3935
g68
(g89
g70
NtRp3936
(dp3937
g73
(dp3938
g93
g94
ssg82
g3932
sg75
(lp3939
g326
asbag68
(g89
g70
NtRp3940
(dp3941
g73
(dp3942
g100
g101
ssg82
g3932
sg75
(lp3943
S':'
asbag68
(g89
g70
NtRp3944
(dp3945
g73
(dp3946
sg82
g3932
sg75
(lp3947
g68
(g69
g70
NtRp3948
(dp3949
g73
(dp3950
g81
I3
ssg82
g3944
sg75
(lp3951
S''
asbasbasbag68
(g84
g70
NtRp3952
(dp3953
g73
(dp3954
sg82
g3908
sg75
(lp3955
g68
(g89
g70
NtRp3956
(dp3957
g73
(dp3958
g93
g94
ssg82
g3952
sg75
(lp3959
g347
asbag68
(g89
g70
NtRp3960
(dp3961
g73
(dp3962
g100
g101
ssg82
g3952
sg75
(lp3963
S':'
asbag68
(g89
g70
NtRp3964
(dp3965
g73
(dp3966
sg82
g3952
sg75
(lp3967
g68
(g69
g70
NtRp3968
(dp3969
g73
(dp3970
g81
I3
ssg82
g3964
sg75
(lp3971
S''
asbasbasbag68
(g84
g70
NtRp3972
(dp3973
g73
(dp3974
sg82
g3908
sg75
(lp3975
g68
(g89
g70
NtRp3976
(dp3977
g73
(dp3978
g93
g94
ssg82
g3972
sg75
(lp3979
g368
asbag68
(g89
g70
NtRp3980
(dp3981
g73
(dp3982
g100
g101
ssg82
g3972
sg75
(lp3983
S':'
asbag68
(g89
g70
NtRp3984
(dp3985
g73
(dp3986
sg82
g3972
sg75
(lp3987
g68
(g69
g70
NtRp3988
(dp3989
g73
(dp3990
g81
I3
ssg82
g3984
sg75
(lp3991
S''
asbasbasbag68
(g84
g70
NtRp3992
(dp3993
g73
(dp3994
sg82
g3908
sg75
(lp3995
g68
(g89
g70
NtRp3996
(dp3997
g73
(dp3998
g93
g94
ssg82
g3992
sg75
(lp3999
g389
asbag68
(g89
g70
NtRp4000
(dp4001
g73
(dp4002
g100
g101
ssg82
g3992
sg75
(lp4003
S':'
asbag68
(g89
g70
NtRp4004
(dp4005
g73
(dp4006
sg82
g3992
sg75
(lp4007
g68
(g69
g70
NtRp4008
(dp4009
g73
(dp4010
g81
I3
ssg82
g4004
sg75
(lp4011
S''
asbasbasbag68
(g84
g70
NtRp4012
(dp4013
g73
(dp4014
sg82
g3908
sg75
(lp4015
g68
(g89
g70
NtRp4016
(dp4017
g73
(dp4018
g93
g94
ssg82
g4012
sg75
(lp4019
g410
asbag68
(g89
g70
NtRp4020
(dp4021
g73
(dp4022
g100
g101
ssg82
g4012
sg75
(lp4023
S':'
asbag68
(g89
g70
NtRp4024
(dp4025
g73
(dp4026
sg82
g4012
sg75
(lp4027
g68
(g69
g70
NtRp4028
(dp4029
g73
(dp4030
g81
I3
ssg82
g4024
sg75
(lp4031
S'/'
asbasbasbag68
(g84
g70
NtRp4032
(dp4033
g73
(dp4034
sg82
g3908
sg75
(lp4035
g68
(g89
g70
NtRp4036
(dp4037
g73
(dp4038
g93
g94
ssg82
g4032
sg75
(lp4039
g431
asbag68
(g89
g70
NtRp4040
(dp4041
g73
(dp4042
g100
g101
ssg82
g4032
sg75
(lp4043
S':'
asbag68
(g89
g70
NtRp4044
(dp4045
g73
(dp4046
sg82
g4032
sg75
(lp4047
g68
(g69
g70
NtRp4048
(dp4049
g73
(dp4050
g81
I3
ssg82
g4044
sg75
(lp4051
S''
asbasbasbag68
(g84
g70
NtRp4052
(dp4053
g73
(dp4054
sg82
g3908
sg75
(lp4055
g68
(g89
g70
NtRp4056
(dp4057
g73
(dp4058
g93
g94
ssg82
g4052
sg75
(lp4059
g452
asbag68
(g89
g70
NtRp4060
(dp4061
g73
(dp4062
g100
g101
ssg82
g4052
sg75
(lp4063
S':'
asbag68
(g89
g70
NtRp4064
(dp4065
g73
(dp4066
sg82
g4052
sg75
(lp4067
g68
(g69
g70
NtRp4068
(dp4069
g73
(dp4070
g81
I3
ssg82
g4064
sg75
(lp4071
S''
asbasbasbasbasbasbasbasbasbasbasbag68
(g84
g70
NtRp4072
(dp4073
g73
(dp4074
sg82
g3838
sg75
(lp4075
g68
(g89
g70
NtRp4076
(dp4077
g73
(dp4078
g93
g94
ssg82
g4072
sg75
(lp4079
S'delimiters'
p4080
asbag68
(g89
g70
NtRp4081
(dp4082
g73
(dp4083
g100
g101
ssg82
g4072
sg75
(lp4084
S':'
asbag68
(g89
g70
NtRp4085
(dp4086
g73
(dp4087
sg82
g4072
sg75
(lp4088
g68
(g69
g70
NtRp4089
(dp4090
g73
(dp4091
g81
I5
ssg82
g4085
sg75
(lp4092
g68
(g77
g70
NtRp4093
(dp4094
g73
(dp4095
g81
I4
ssg82
Nsg75
(lp4096
g68
(g84
g70
NtRp4097
(dp4098
g73
(dp4099
sg82
g4093
sg75
(lp4100
g68
(g89
g70
NtRp4101
(dp4102
g73
(dp4103
sg82
g4097
sg75
(lp4104
g68
(g69
g70
NtRp4105
(dp4106
g73
(dp4107
g81
I4
ssg82
g4101
sg75
(lp4108
S'{{'
p4109
asbasbasbag68
(g84
g70
NtRp4110
(dp4111
g73
(dp4112
sg82
g4093
sg75
(lp4113
g68
(g89
g70
NtRp4114
(dp4115
g73
(dp4116
sg82
g4110
sg75
(lp4117
g68
(g69
g70
NtRp4118
(dp4119
g73
(dp4120
g81
I4
ssg82
g4114
sg75
(lp4121
S'}}'
p4122
asbasbasbasbasbasbasbag68
(g84
g70
NtRp4123
(dp4124
g73
(dp4125
sg82
g3838
sg75
(lp4126
g68
(g89
g70
NtRp4127
(dp4128
g73
(dp4129
g93
g94
ssg82
g4123
sg75
(lp4130
S'files'
p4131
asbag68
(g89
g70
NtRp4132
(dp4133
g73
(dp4134
g100
g101
ssg82
g4123
sg75
(lp4135
S':'
asbag68
(g89
g70
NtRp4136
(dp4137
g73
(dp4138
sg82
g4123
sg75
(lp4139
g68
(g69
g70
NtRp4140
(dp4141
g73
(dp4142
g81
I5
ssg82
g4136
sg75
(lp4143
g68
(g77
g70
NtRp4144
(dp4145
g73
(dp4146
g81
I4
ssg82
Nsg75
(lp4147
sbasbasbasbag68
(g84
g70
NtRp4148
(dp4149
g73
(dp4150
sg82
g3838
sg75
(lp4151
g68
(g89
g70
NtRp4152
(dp4153
g73
(dp4154
g93
g94
ssg82
g4148
sg75
(lp4155
S'flash'
p4156
asbag68
(g89
g70
NtRp4157
(dp4158
g73
(dp4159
g100
g101
ssg82
g4148
sg75
(lp4160
S':'
asbag68
(g89
g70
NtRp4161
(dp4162
g73
(dp4163
sg82
g4148
sg75
(lp4164
g68
(g69
g70
NtRp4165
(dp4166
g73
(dp4167
g81
I5
ssg82
g4161
sg75
(lp4168
S''
asbasbasbag68
(g84
g70
NtRp4169
(dp4170
g73
(dp4171
sg82
g3838
sg75
(lp4172
g68
(g89
g70
NtRp4173
(dp4174
g73
(dp4175
g93
g94
ssg82
g4169
sg75
(lp4176
S'generic_patterns'
p4177
asbag68
(g89
g70
NtRp4178
(dp4179
g73
(dp4180
g100
g101
ssg82
g4169
sg75
(lp4181
S':'
asbag68
(g89
g70
NtRp4182
(dp4183
g73
(dp4184
sg82
g4169
sg75
(lp4185
g68
(g69
g70
NtRp4186
(dp4187
g73
(dp4188
g81
I5
ssg82
g4182
sg75
(lp4189
g68
(g77
g70
NtRp4190
(dp4191
g73
(dp4192
g81
I4
ssg82
Nsg75
(lp4193
g68
(g84
g70
NtRp4194
(dp4195
g73
(dp4196
sg82
g4190
sg75
(lp4197
g68
(g89
g70
NtRp4198
(dp4199
g73
(dp4200
sg82
g4194
sg75
(lp4201
g68
(g69
g70
NtRp4202
(dp4203
g73
(dp4204
g81
I4
ssg82
g4198
sg75
(lp4205
S'*'
asbasbasbasbasbasbasbag68
(g84
g70
NtRp4206
(dp4207
g73
(dp4208
sg82
g3838
sg75
(lp4209
g68
(g89
g70
NtRp4210
(dp4211
g73
(dp4212
g93
g94
ssg82
g4206
sg75
(lp4213
S'headers'
p4214
asbag68
(g89
g70
NtRp4215
(dp4216
g73
(dp4217
g100
g101
ssg82
g4206
sg75
(lp4218
S':'
asbag68
(g89
g70
NtRp4219
(dp4220
g73
(dp4221
sg82
g4206
sg75
(lp4222
g68
(g69
g70
NtRp4223
(dp4224
g73
(dp4225
g81
I5
ssg82
g4219
sg75
(lp4226
g68
(g77
g70
NtRp4227
(dp4228
g73
(dp4229
g81
I4
ssg82
Nsg75
(lp4230
g68
(g84
g70
NtRp4231
(dp4232
g73
(dp4233
sg82
g4227
sg75
(lp4234
g68
(g89
g70
NtRp4235
(dp4236
g73
(dp4237
g93
g94
ssg82
g4231
sg75
(lp4238
S'X-Powered-By'
p4239
asbag68
(g89
g70
NtRp4240
(dp4241
g73
(dp4242
g100
g101
ssg82
g4231
sg75
(lp4243
S':'
asbag68
(g89
g70
NtRp4244
(dp4245
g73
(dp4246
sg82
g4231
sg75
(lp4247
g68
(g69
g70
NtRp4248
(dp4249
g73
(dp4250
g81
I4
ssg82
g4244
sg75
(lp4251
S'web2py'
p4252
asbasbasbasbasbasbasbag68
(g84
g70
NtRp4253
(dp4254
g73
(dp4255
sg82
g3838
sg75
(lp4256
g68
(g89
g70
NtRp4257
(dp4258
g73
(dp4259
g93
g94
ssg82
g4253
sg75
(lp4260
S'menu'
p4261
asbag68
(g89
g70
NtRp4262
(dp4263
g73
(dp4264
g100
g101
ssg82
g4253
sg75
(lp4265
S':'
asbag68
(g89
g70
NtRp4266
(dp4267
g73
(dp4268
sg82
g4253
sg75
(lp4269
g68
(g69
g70
NtRp4270
(dp4271
g73
(dp4272
g81
I5
ssg82
g4266
sg75
(lp4273
g68
(g77
g70
NtRp4274
(dp4275
g73
(dp4276
g81
I4
ssg82
Nsg75
(lp4277
g68
(g84
g70
NtRp4278
(dp4279
g73
(dp4280
sg82
g4274
sg75
(lp4281
g68
(g89
g70
NtRp4282
(dp4283
g73
(dp4284
sg82
g4278
sg75
(lp4285
g68
(g69
g70
NtRp4286
(dp4287
g73
(dp4288
g81
I4
ssg82
g4282
sg75
(lp4289
g68
(g77
g70
NtRp4290
(dp4291
g73
(dp4292
g81
I3
ssg82
Nsg75
(lp4293
g68
(g84
g70
NtRp4294
(dp4295
g73
(dp4296
sg82
g4290
sg75
(lp4297
g68
(g89
g70
NtRp4298
(dp4299
g73
(dp4300
sg82
g4294
sg75
(lp4301
g68
(g69
g70
NtRp4302
(dp4303
g73
(dp4304
g81
I3
ssg82
g4298
sg75
(lp4305
cgluon.languages
lazyT_unpickle
p4306
(S's\x06\x00\x00\x00Indice'
tRp4307
asbasbasbag68
(g84
g70
NtRp4308
(dp4309
g73
(dp4310
sg82
g4290
sg75
(lp4311
g68
(g89
g70
NtRp4312
(dp4313
g73
(dp4314
sg82
g4308
sg75
(lp4315
g68
(g69
g70
NtRp4316
(dp4317
g73
(dp4318
g81
I3
ssg82
g4312
sg75
(lp4319
g111
asbasbasbag68
(g84
g70
NtRp4320
(dp4321
g73
(dp4322
sg82
g4290
sg75
(lp4323
g68
(g89
g70
NtRp4324
(dp4325
g73
(dp4326
sg82
g4320
sg75
(lp4327
g68
(g69
g70
NtRp4328
(dp4329
g73
(dp4330
g81
I3
ssg82
g4324
sg75
(lp4331
S'/rosan/default/index'
p4332
asbasbasbag68
(g84
g70
NtRp4333
(dp4334
g73
(dp4335
sg82
g4290
sg75
(lp4336
g68
(g89
g70
NtRp4337
(dp4338
g73
(dp4339
sg82
g4333
sg75
(lp4340
g68
(g69
g70
NtRp4341
(dp4342
g73
(dp4343
g81
I3
ssg82
g4337
sg75
(lp4344
g68
(g77
g70
NtRp4345
(dp4346
g73
(dp4347
g81
I2
ssg82
Nsg75
(lp4348
sbasbasbasbasbasbasbasbag68
(g84
g70
NtRp4349
(dp4350
g73
(dp4351
sg82
g4274
sg75
(lp4352
g68
(g89
g70
NtRp4353
(dp4354
g73
(dp4355
sg82
g4349
sg75
(lp4356
g68
(g69
g70
NtRp4357
(dp4358
g73
(dp4359
g81
I4
ssg82
g4353
sg75
(lp4360
g68
(g77
g70
NtRp4361
(dp4362
g73
(dp4363
g81
I3
ssg82
Nsg75
(lp4364
g68
(g84
g70
NtRp4365
(dp4366
g73
(dp4367
sg82
g4361
sg75
(lp4368
g68
(g89
g70
NtRp4369
(dp4370
g73
(dp4371
sg82
g4365
sg75
(lp4372
g68
(g69
g70
NtRp4373
(dp4374
g73
(dp4375
g81
I3
ssg82
g4369
sg75
(lp4376
g4306
(S's\x08\x00\x00\x00Clientes'
tRp4377
asbasbasbag68
(g84
g70
NtRp4378
(dp4379
g73
(dp4380
sg82
g4361
sg75
(lp4381
g68
(g89
g70
NtRp4382
(dp4383
g73
(dp4384
sg82
g4378
sg75
(lp4385
g68
(g69
g70
NtRp4386
(dp4387
g73
(dp4388
g81
I3
ssg82
g4382
sg75
(lp4389
g111
asbasbasbag68
(g84
g70
NtRp4390
(dp4391
g73
(dp4392
sg82
g4361
sg75
(lp4393
g68
(g89
g70
NtRp4394
(dp4395
g73
(dp4396
sg82
g4390
sg75
(lp4397
g68
(g69
g70
NtRp4398
(dp4399
g73
(dp4400
g81
I3
ssg82
g4394
sg75
(lp4401
S'/rosan/default/nuevoCliente'
p4402
asbasbasbag68
(g84
g70
NtRp4403
(dp4404
g73
(dp4405
sg82
g4361
sg75
(lp4406
g68
(g89
g70
NtRp4407
(dp4408
g73
(dp4409
sg82
g4403
sg75
(lp4410
g68
(g69
g70
NtRp4411
(dp4412
g73
(dp4413
g81
I3
ssg82
g4407
sg75
(lp4414
g68
(g77
g70
NtRp4415
(dp4416
g73
(dp4417
g81
I2
ssg82
Nsg75
(lp4418
sbasbasbasbasbasbasbasbag68
(g84
g70
NtRp4419
(dp4420
g73
(dp4421
sg82
g4274
sg75
(lp4422
g68
(g89
g70
NtRp4423
(dp4424
g73
(dp4425
sg82
g4419
sg75
(lp4426
g68
(g69
g70
NtRp4427
(dp4428
g73
(dp4429
g81
I4
ssg82
g4423
sg75
(lp4430
g68
(g77
g70
NtRp4431
(dp4432
g73
(dp4433
g81
I3
ssg82
Nsg75
(lp4434
g68
(g84
g70
NtRp4435
(dp4436
g73
(dp4437
sg82
g4431
sg75
(lp4438
g68
(g89
g70
NtRp4439
(dp4440
g73
(dp4441
sg82
g4435
sg75
(lp4442
g68
(g69
g70
NtRp4443
(dp4444
g73
(dp4445
g81
I3
ssg82
g4439
sg75
(lp4446
g4306
(S's\x08\x00\x00\x00Facturas'
tRp4447
asbasbasbag68
(g84
g70
NtRp4448
(dp4449
g73
(dp4450
sg82
g4431
sg75
(lp4451
g68
(g89
g70
NtRp4452
(dp4453
g73
(dp4454
sg82
g4448
sg75
(lp4455
g68
(g69
g70
NtRp4456
(dp4457
g73
(dp4458
g81
I3
ssg82
g4452
sg75
(lp4459
g111
asbasbasbag68
(g84
g70
NtRp4460
(dp4461
g73
(dp4462
sg82
g4431
sg75
(lp4463
g68
(g89
g70
NtRp4464
(dp4465
g73
(dp4466
sg82
g4460
sg75
(lp4467
g68
(g69
g70
NtRp4468
(dp4469
g73
(dp4470
g81
I3
ssg82
g4464
sg75
(lp4471
S'/rosan/default/nuevaFactura'
p4472
asbasbasbag68
(g84
g70
NtRp4473
(dp4474
g73
(dp4475
sg82
g4431
sg75
(lp4476
g68
(g89
g70
NtRp4477
(dp4478
g73
(dp4479
sg82
g4473
sg75
(lp4480
g68
(g69
g70
NtRp4481
(dp4482
g73
(dp4483
g81
I3
ssg82
g4477
sg75
(lp4484
g68
(g77
g70
NtRp4485
(dp4486
g73
(dp4487
g81
I2
ssg82
Nsg75
(lp4488
sbasbasbasbasbasbasbasbag68
(g84
g70
NtRp4489
(dp4490
g73
(dp4491
sg82
g4274
sg75
(lp4492
g68
(g89
g70
NtRp4493
(dp4494
g73
(dp4495
sg82
g4489
sg75
(lp4496
g68
(g69
g70
NtRp4497
(dp4498
g73
(dp4499
g81
I4
ssg82
g4493
sg75
(lp4500
g68
(g77
g70
NtRp4501
(dp4502
g73
(dp4503
g81
I3
ssg82
Nsg75
(lp4504
g68
(g84
g70
NtRp4505
(dp4506
g73
(dp4507
sg82
g4501
sg75
(lp4508
g68
(g89
g70
NtRp4509
(dp4510
g73
(dp4511
sg82
g4505
sg75
(lp4512
g68
(g69
g70
NtRp4513
(dp4514
g73
(dp4515
g81
I3
ssg82
g4509
sg75
(lp4516
g4306
(S's\x0c\x00\x00\x00Presupuestos'
tRp4517
asbasbasbag68
(g84
g70
NtRp4518
(dp4519
g73
(dp4520
sg82
g4501
sg75
(lp4521
g68
(g89
g70
NtRp4522
(dp4523
g73
(dp4524
sg82
g4518
sg75
(lp4525
g68
(g69
g70
NtRp4526
(dp4527
g73
(dp4528
g81
I3
ssg82
g4522
sg75
(lp4529
g111
asbasbasbag68
(g84
g70
NtRp4530
(dp4531
g73
(dp4532
sg82
g4501
sg75
(lp4533
g68
(g89
g70
NtRp4534
(dp4535
g73
(dp4536
sg82
g4530
sg75
(lp4537
g68
(g69
g70
NtRp4538
(dp4539
g73
(dp4540
g81
I3
ssg82
g4534
sg75
(lp4541
S'/rosan/default/nuevoPresupuesto'
p4542
asbasbasbag68
(g84
g70
NtRp4543
(dp4544
g73
(dp4545
sg82
g4501
sg75
(lp4546
g68
(g89
g70
NtRp4547
(dp4548
g73
(dp4549
sg82
g4543
sg75
(lp4550
g68
(g69
g70
NtRp4551
(dp4552
g73
(dp4553
g81
I3
ssg82
g4547
sg75
(lp4554
g68
(g77
g70
NtRp4555
(dp4556
g73
(dp4557
g81
I2
ssg82
Nsg75
(lp4558
sbasbasbasbasbasbasbasbasbasbasbasbag68
(g84
g70
NtRp4559
(dp4560
g73
(dp4561
sg82
g3838
sg75
(lp4562
g68
(g89
g70
NtRp4563
(dp4564
g73
(dp4565
g93
g94
ssg82
g4559
sg75
(lp4566
S'meta'
p4567
asbag68
(g89
g70
NtRp4568
(dp4569
g73
(dp4570
g100
g101
ssg82
g4559
sg75
(lp4571
S':'
asbag68
(g89
g70
NtRp4572
(dp4573
g73
(dp4574
sg82
g4559
sg75
(lp4575
g68
(g69
g70
NtRp4576
(dp4577
g73
(dp4578
g81
I5
ssg82
g4572
sg75
(lp4579
g68
(g77
g70
NtRp4580
(dp4581
g73
(dp4582
g81
I4
ssg82
Nsg75
(lp4583
g68
(g84
g70
NtRp4584
(dp4585
g73
(dp4586
sg82
g4580
sg75
(lp4587
g68
(g89
g70
NtRp4588
(dp4589
g73
(dp4590
g93
g94
ssg82
g4584
sg75
(lp4591
S'author'
p4592
asbag68
(g89
g70
NtRp4593
(dp4594
g73
(dp4595
g100
g101
ssg82
g4584
sg75
(lp4596
S':'
asbag68
(g89
g70
NtRp4597
(dp4598
g73
(dp4599
sg82
g4584
sg75
(lp4600
g68
(g69
g70
NtRp4601
(dp4602
g73
(dp4603
g81
I4
ssg82
g4597
sg75
(lp4604
S'@trukise <trukise@gmail.com>'
p4605
asbasbasbag68
(g84
g70
NtRp4606
(dp4607
g73
(dp4608
sg82
g4580
sg75
(lp4609
g68
(g89
g70
NtRp4610
(dp4611
g73
(dp4612
g93
g94
ssg82
g4606
sg75
(lp4613
S'description'
p4614
asbag68
(g89
g70
NtRp4615
(dp4616
g73
(dp4617
g100
g101
ssg82
g4606
sg75
(lp4618
S':'
asbag68
(g89
g70
NtRp4619
(dp4620
g73
(dp4621
sg82
g4606
sg75
(lp4622
g68
(g69
g70
NtRp4623
(dp4624
g73
(dp4625
g81
I4
ssg82
g4619
sg75
(lp4626
S'Gesti\xc3\xb3n intengral de Fontaner\xc3\xada Rosa y S\xc3\xa1nchez'
p4627
asbasbasbag68
(g84
g70
NtRp4628
(dp4629
g73
(dp4630
sg82
g4580
sg75
(lp4631
g68
(g89
g70
NtRp4632
(dp4633
g73
(dp4634
g93
g94
ssg82
g4628
sg75
(lp4635
S'keywords'
p4636
asbag68
(g89
g70
NtRp4637
(dp4638
g73
(dp4639
g100
g101
ssg82
g4628
sg75
(lp4640
S':'
asbag68
(g89
g70
NtRp4641
(dp4642
g73
(dp4643
sg82
g4628
sg75
(lp4644
g68
(g69
g70
NtRp4645
(dp4646
g73
(dp4647
g81
I4
ssg82
g4641
sg75
(lp4648
S'Rosan, facturacion'
p4649
asbasbasbasbasbasbasbag68
(g84
g70
NtRp4650
(dp4651
g73
(dp4652
sg82
g3838
sg75
(lp4653
g68
(g89
g70
NtRp4654
(dp4655
g73
(dp4656
g93
g94
ssg82
g4650
sg75
(lp4657
S'models_to_run'
p4658
asbag68
(g89
g70
NtRp4659
(dp4660
g73
(dp4661
g100
g101
ssg82
g4650
sg75
(lp4662
S':'
asbag68
(g89
g70
NtRp4663
(dp4664
g73
(dp4665
sg82
g4650
sg75
(lp4666
g68
(g69
g70
NtRp4667
(dp4668
g73
(dp4669
g81
I5
ssg82
g4663
sg75
(lp4670
g68
(g77
g70
NtRp4671
(dp4672
g73
(dp4673
g81
I4
ssg82
Nsg75
(lp4674
g68
(g84
g70
NtRp4675
(dp4676
g73
(dp4677
sg82
g4671
sg75
(lp4678
g68
(g89
g70
NtRp4679
(dp4680
g73
(dp4681
sg82
g4675
sg75
(lp4682
g68
(g69
g70
NtRp4683
(dp4684
g73
(dp4685
g81
I4
ssg82
g4679
sg75
(lp4686
S'^\\w+\\.py$'
p4687
asbasbasbag68
(g84
g70
NtRp4688
(dp4689
g73
(dp4690
sg82
g4671
sg75
(lp4691
g68
(g89
g70
NtRp4692
(dp4693
g73
(dp4694
sg82
g4688
sg75
(lp4695
g68
(g69
g70
NtRp4696
(dp4697
g73
(dp4698
g81
I4
ssg82
g4692
sg75
(lp4699
S'^facturas/\\w+\\.py$'
p4700
asbasbasbag68
(g84
g70
NtRp4701
(dp4702
g73
(dp4703
sg82
g4671
sg75
(lp4704
g68
(g89
g70
NtRp4705
(dp4706
g73
(dp4707
sg82
g4701
sg75
(lp4708
g68
(g69
g70
NtRp4709
(dp4710
g73
(dp4711
g81
I4
ssg82
g4705
sg75
(lp4712
S'^facturas/detalleFactura/\\w+\\.py$'
p4713
asbasbasbasbasbasbasbag68
(g84
g70
NtRp4714
(dp4715
g73
(dp4716
sg82
g3838
sg75
(lp4717
g68
(g89
g70
NtRp4718
(dp4719
g73
(dp4720
g93
g94
ssg82
g4714
sg75
(lp4721
S'postprocessing'
p4722
asbag68
(g89
g70
NtRp4723
(dp4724
g73
(dp4725
g100
g101
ssg82
g4714
sg75
(lp4726
S':'
asbag68
(g89
g70
NtRp4727
(dp4728
g73
(dp4729
sg82
g4714
sg75
(lp4730
g68
(g69
g70
NtRp4731
(dp4732
g73
(dp4733
g81
I5
ssg82
g4727
sg75
(lp4734
g68
(g77
g70
NtRp4735
(dp4736
g73
(dp4737
g81
I4
ssg82
Nsg75
(lp4738
sbasbasbasbag68
(g84
g70
NtRp4739
(dp4740
g73
(dp4741
sg82
g3838
sg75
(lp4742
g68
(g89
g70
NtRp4743
(dp4744
g73
(dp4745
g93
g94
ssg82
g4739
sg75
(lp4746
S'session_cookie_expires'
p4747
asbag68
(g89
g70
NtRp4748
(dp4749
g73
(dp4750
g100
g101
ssg82
g4739
sg75
(lp4751
S':'
asbag68
(g89
g70
NtRp4752
(dp4753
g73
(dp4754
sg82
g4739
sg75
(lp4755
g68
(g69
g70
NtRp4756
(dp4757
g73
(dp4758
g81
I5
ssg82
g4752
sg75
(lp4759
S'None'
p4760
asbasbasbag68
(g84
g70
NtRp4761
(dp4762
g73
(dp4763
sg82
g3838
sg75
(lp4764
g68
(g89
g70
NtRp4765
(dp4766
g73
(dp4767
g93
g94
ssg82
g4761
sg75
(lp4768
S'session_data_name'
p4769
asbag68
(g89
g70
NtRp4770
(dp4771
g73
(dp4772
g100
g101
ssg82
g4761
sg75
(lp4773
S':'
asbag68
(g89
g70
NtRp4774
(dp4775
g73
(dp4776
sg82
g4761
sg75
(lp4777
g68
(g69
g70
NtRp4778
(dp4779
g73
(dp4780
g81
I5
ssg82
g4774
sg75
(lp4781
S'session_data_rosan'
p4782
asbasbasbag68
(g84
g70
NtRp4783
(dp4784
g73
(dp4785
sg82
g3838
sg75
(lp4786
g68
(g89
g70
NtRp4787
(dp4788
g73
(dp4789
g93
g94
ssg82
g4783
sg75
(lp4790
S'session_file'
p4791
asbag68
(g89
g70
NtRp4792
(dp4793
g73
(dp4794
g100
g101
ssg82
g4783
sg75
(lp4795
S':'
asbag68
(g89
g70
NtRp4796
(dp4797
g73
(dp4798
sg82
g4783
sg75
(lp4799
g68
(g69
g70
NtRp4800
(dp4801
g73
(dp4802
g81
I5
ssg82
g4796
sg75
(lp4803
S"<open file '/Users/Truki/Desarrollo/web2py/applications/rosan/sessions/127.0.0.1-e44cb93f-049c-40c0-ade5-b5e99985895d', mode 'rb+' at 0x112beeae0>"
p4804
asbasbasbag68
(g84
g70
NtRp4805
(dp4806
g73
(dp4807
sg82
g3838
sg75
(lp4808
g68
(g89
g70
NtRp4809
(dp4810
g73
(dp4811
g93
g94
ssg82
g4805
sg75
(lp4812
S'session_filename'
p4813
asbag68
(g89
g70
NtRp4814
(dp4815
g73
(dp4816
g100
g101
ssg82
g4805
sg75
(lp4817
S':'
asbag68
(g89
g70
NtRp4818
(dp4819
g73
(dp4820
sg82
g4805
sg75
(lp4821
g68
(g69
g70
NtRp4822
(dp4823
g73
(dp4824
g81
I5
ssg82
g4818
sg75
(lp4825
S'/Users/Truki/Desarrollo/web2py/applications/rosan/sessions/127.0.0.1-e44cb93f-049c-40c0-ade5-b5e99985895d'
p4826
asbasbasbag68
(g84
g70
NtRp4827
(dp4828
g73
(dp4829
sg82
g3838
sg75
(lp4830
g68
(g89
g70
NtRp4831
(dp4832
g73
(dp4833
g93
g94
ssg82
g4827
sg75
(lp4834
S'session_id'
p4835
asbag68
(g89
g70
NtRp4836
(dp4837
g73
(dp4838
g100
g101
ssg82
g4827
sg75
(lp4839
S':'
asbag68
(g89
g70
NtRp4840
(dp4841
g73
(dp4842
sg82
g4827
sg75
(lp4843
g68
(g69
g70
NtRp4844
(dp4845
g73
(dp4846
g81
I5
ssg82
g4840
sg75
(lp4847
g486
asbasbasbag68
(g84
g70
NtRp4848
(dp4849
g73
(dp4850
sg82
g3838
sg75
(lp4851
g68
(g89
g70
NtRp4852
(dp4853
g73
(dp4854
g93
g94
ssg82
g4848
sg75
(lp4855
S'session_id_name'
p4856
asbag68
(g89
g70
NtRp4857
(dp4858
g73
(dp4859
g100
g101
ssg82
g4848
sg75
(lp4860
S':'
asbag68
(g89
g70
NtRp4861
(dp4862
g73
(dp4863
sg82
g4848
sg75
(lp4864
g68
(g69
g70
NtRp4865
(dp4866
g73
(dp4867
g81
I5
ssg82
g4861
sg75
(lp4868
g3895
asbasbasbag68
(g84
g70
NtRp4869
(dp4870
g73
(dp4871
sg82
g3838
sg75
(lp4872
g68
(g89
g70
NtRp4873
(dp4874
g73
(dp4875
g93
g94
ssg82
g4869
sg75
(lp4876
S'session_locked'
p4877
asbag68
(g89
g70
NtRp4878
(dp4879
g73
(dp4880
g100
g101
ssg82
g4869
sg75
(lp4881
S':'
asbag68
(g89
g70
NtRp4882
(dp4883
g73
(dp4884
sg82
g4869
sg75
(lp4885
g68
(g69
g70
NtRp4886
(dp4887
g73
(dp4888
g81
I5
ssg82
g4882
sg75
(lp4889
g1945
asbasbasbag68
(g84
g70
NtRp4890
(dp4891
g73
(dp4892
sg82
g3838
sg75
(lp4893
g68
(g89
g70
NtRp4894
(dp4895
g73
(dp4896
g93
g94
ssg82
g4890
sg75
(lp4897
S'session_new'
p4898
asbag68
(g89
g70
NtRp4899
(dp4900
g73
(dp4901
g100
g101
ssg82
g4890
sg75
(lp4902
S':'
asbag68
(g89
g70
NtRp4903
(dp4904
g73
(dp4905
sg82
g4890
sg75
(lp4906
g68
(g69
g70
NtRp4907
(dp4908
g73
(dp4909
g81
I5
ssg82
g4903
sg75
(lp4910
g111
asbasbasbag68
(g84
g70
NtRp4911
(dp4912
g73
(dp4913
sg82
g3838
sg75
(lp4914
g68
(g89
g70
NtRp4915
(dp4916
g73
(dp4917
g93
g94
ssg82
g4911
sg75
(lp4918
S'session_storage_type'
p4919
asbag68
(g89
g70
NtRp4920
(dp4921
g73
(dp4922
g100
g101
ssg82
g4911
sg75
(lp4923
S':'
asbag68
(g89
g70
NtRp4924
(dp4925
g73
(dp4926
sg82
g4911
sg75
(lp4927
g68
(g69
g70
NtRp4928
(dp4929
g73
(dp4930
g81
I5
ssg82
g4924
sg75
(lp4931
g3702
asbasbasbag68
(g84
g70
NtRp4932
(dp4933
g73
(dp4934
sg82
g3838
sg75
(lp4935
g68
(g89
g70
NtRp4936
(dp4937
g73
(dp4938
g93
g94
ssg82
g4932
sg75
(lp4939
S'status'
p4940
asbag68
(g89
g70
NtRp4941
(dp4942
g73
(dp4943
g100
g101
ssg82
g4932
sg75
(lp4944
S':'
asbag68
(g89
g70
NtRp4945
(dp4946
g73
(dp4947
sg82
g4932
sg75
(lp4948
g68
(g69
g70
NtRp4949
(dp4950
g73
(dp4951
g81
I5
ssg82
g4945
sg75
(lp4952
S'200'
p4953
asbasbasbag68
(g84
g70
NtRp4954
(dp4955
g73
(dp4956
sg82
g3838
sg75
(lp4957
g68
(g89
g70
NtRp4958
(dp4959
g73
(dp4960
g93
g94
ssg82
g4954
sg75
(lp4961
S'subtitle'
p4962
asbag68
(g89
g70
NtRp4963
(dp4964
g73
(dp4965
g100
g101
ssg82
g4954
sg75
(lp4966
S':'
asbag68
(g89
g70
NtRp4967
(dp4968
g73
(dp4969
sg82
g4954
sg75
(lp4970
g68
(g69
g70
NtRp4971
(dp4972
g73
(dp4973
g81
I5
ssg82
g4967
sg75
(lp4974
S'by @trukise'
p4975
asbasbasbag68
(g84
g70
NtRp4976
(dp4977
g73
(dp4978
sg82
g3838
sg75
(lp4979
g68
(g89
g70
NtRp4980
(dp4981
g73
(dp4982
g93
g94
ssg82
g4976
sg75
(lp4983
S'title'
p4984
asbag68
(g89
g70
NtRp4985
(dp4986
g73
(dp4987
g100
g101
ssg82
g4976
sg75
(lp4988
S':'
asbag68
(g89
g70
NtRp4989
(dp4990
g73
(dp4991
sg82
g4976
sg75
(lp4992
g68
(g69
g70
NtRp4993
(dp4994
g73
(dp4995
g81
I5
ssg82
g4989
sg75
(lp4996
S'Rosan'
p4997
asbasbasbag68
(g84
g70
NtRp4998
(dp4999
g73
(dp5000
sg82
g3838
sg75
(lp5001
g68
(g89
g70
NtRp5002
(dp5003
g73
(dp5004
g93
g94
ssg82
g4998
sg75
(lp5005
S'view'
p5006
asbag68
(g89
g70
NtRp5007
(dp5008
g73
(dp5009
g100
g101
ssg82
g4998
sg75
(lp5010
S':'
asbag68
(g89
g70
NtRp5011
(dp5012
g73
(dp5013
sg82
g4998
sg75
(lp5014
g68
(g69
g70
NtRp5015
(dp5016
g73
(dp5017
g81
I5
ssg82
g5011
sg75
(lp5018
S'facturas/detalleFactura.html'
p5019
asbasbasbasbasbsS'locals'
p5020
(dp5021
g4
S"'/Users/Truki/Desarrollo/web2py/applications/rosan/controllers/facturas.py'"
p5022
sg6
S"'# coding: utf8\\n# intente algo como\\ndef index(): ...\\nresponse._vars=response._caller(detalleFactura)\\n'"
p5023
sssS'traceback'
p5024
S'Traceback (most recent call last):\n  File "/Users/Truki/Desarrollo/web2py/gluon/restricted.py", line 211, in restricted\n    ccode = compile2(code, layer)\n  File "/Users/Truki/Desarrollo/web2py/gluon/restricted.py", line 194, in compile2\n    return compile(code.rstrip().replace(\'\\r\\n\', \'\\n\') + \'\\n\', layer, \'exec\')\n  File "/Users/Truki/Desarrollo/web2py/applications/rosan/controllers/facturas.py", line 53\n    dbRosan(dbRosan.factura_temp.id == session.facturaId).update(neto = neto, descuento=0, retencion = retencion, total_iva = totalIVA, total_bruto = totalBruto)\n          ^\nSyntaxError: invalid syntax\n'
p5025
s.