(dp1
S'output'
p2
S"<type 'exceptions.IndentationError'> unexpected indent (facturas.py, line 24)"
p3
sS'layer'
p4
S'/Users/Truki/Desarrollo/web2py/applications/rosan/controllers/facturas.py'
p5
sS'code'
p6
S'# coding: utf8\n# intente algo como\ndef index(): \n\tfacturas = dbRosan().select(dbRosan.factura.ALL, orderby=dbRosan.factura.fecha)\n\treturn dict(facturas=facturas)\n\n\n# Funcion nuevaFactura: INicio del creaci\xc3\xb3n de nueva factura.\ndef nuevaFactura():\n\treturn dict()\n\n# Funcion detalleFactura: donde se insertan las lineas de cada factura\ndef detalleFactura():\n\tinfo=""\n\tformConcepto = FORM((FIELDSET(DIV(LABEL("Descripci\xc3\xb3n", _class="control-label"), \n\t\t\t\t\t\t\t\t\t  DIV(TEXTAREA(_class="span7", _rows="5", _placeholder="Introduce la descripci\xc3\xb3n", _name="descripcion"), _class="controls"), \n\t\t\t\t\t\t\t\t   _class="control-group")),\n\t\t\t\t\t\t\t\t  DIV(LABEL("Cantidad", _class="control-label"), \n\t\t\t\t\t\t\t\t\t  DIV(INPUT(_name="cantidad", _type="text", _class="input-large", _id="cantidad", _value="1", requires=IS_INT_IN_RANGE(1,999999, error_message="Introduce un valor entre 1 y 999999")), _class="controls"), \n\t\t\t\t\t\t\t\t   _class="control-group")),\n\t\t\t\t\t\t\t\t  DIV(LABEL("Precio", _class="control-label"), \n\t\t\t\t\t\t\t\t\t  DIV(INPUT(_name=",precio", _type="text", _class="input-large", _id="precio", requires=IS_FLOAT_IN_RANGE(0,9999999, dot=".", error_message="Introduce un valor entre 0 y 9999999, el signo de los decimales es el \'.\'")), _class="controls"), \n\t\t\t\t\t\t\t\t   _class="control-group")),   \n\t\t\t\t    _class="form-horizontal", _action="/rosan/facturas/detalleFactura", _name="nuevoConcepto")\n\t\t\n\treturn dict(info=info, formConcepto=formConcepto)\n\n\nresponse._vars=response._caller(detalleFactura)\n'
p7
sS'snapshot'
p8
(dp9
S'exception'
p10
(dp11
S'__getslice__'
p12
S"<method-wrapper '__getslice__' of exceptions.IndentationError object>"
p13
sS'text'
p14
S'\'\\t\\t\\t\\t    _class="form-horizontal", _action="/rosan/facturas/detalleFactura", _name="nuevoConcepto")\\n\''
p15
sS'__str__'
p16
S"<method-wrapper '__str__' of exceptions.IndentationError object>"
p17
sS'__reduce__'
p18
S'<built-in method __reduce__ of exceptions.IndentationError object>'
p19
sS'__dict__'
p20
S'{}'
p21
sS'__sizeof__'
p22
S'<built-in method __sizeof__ of exceptions.IndentationError object>'
p23
sS'__init__'
p24
S"<method-wrapper '__init__' of exceptions.IndentationError object>"
p25
sS'__setattr__'
p26
S"<method-wrapper '__setattr__' of exceptions.IndentationError object>"
p27
sS'__reduce_ex__'
p28
S'<built-in method __reduce_ex__ of exceptions.IndentationError object>'
p29
sS'__new__'
p30
S'<built-in method __new__ of type object>'
p31
sS'__format__'
p32
S'<built-in method __format__ of exceptions.IndentationError object>'
p33
sS'__class__'
p34
S"<type 'exceptions.IndentationError'>"
p35
sS'filename'
p36
S"'/Users/Truki/Desarrollo/web2py/applications/rosan/controllers/facturas.py'"
p37
sS'lineno'
p38
S'24'
p39
sS'msg'
p40
S"'unexpected indent'"
p41
sS'__doc__'
p42
S"'Improper indentation.'"
p43
sS'__getitem__'
p44
S"<method-wrapper '__getitem__' of exceptions.IndentationError object>"
p45
sS'__setstate__'
p46
S'<built-in method __setstate__ of exceptions.IndentationError object>'
p47
sS'__getattribute__'
p48
S"<method-wrapper '__getattribute__' of exceptions.IndentationError object>"
p49
sS'print_file_and_line'
p50
S'None'
p51
sS'args'
p52
S'(\'unexpected indent\', (\'/Users/Truki/Desarrollo/web2py/applications/rosan/controllers/facturas.py\', 24, 8, \'\\t\\t\\t\\t    _class="form-horizontal", _action="/rosan/facturas/detalleFactura", _name="nuevoConcepto")\\n\'))'
p53
sS'__subclasshook__'
p54
S'<built-in method __subclasshook__ of type object>'
p55
sS'offset'
p56
S'8'
sS'__unicode__'
p57
S'<built-in method __unicode__ of exceptions.IndentationError object>'
p58
sS'__delattr__'
p59
S"<method-wrapper '__delattr__' of exceptions.IndentationError object>"
p60
sS'__repr__'
p61
S"<method-wrapper '__repr__' of exceptions.IndentationError object>"
p62
sS'__hash__'
p63
S"<method-wrapper '__hash__' of exceptions.IndentationError object>"
p64
ssS'evalue'
p65
S'unexpected indent (facturas.py, line 24)'
p66
sS'request'
p67
ccopy_reg
_reconstructor
p68
(cgluon.html
BEAUTIFY
p69
c__builtin__
object
p70
NtRp71
(dp72
S'attributes'
p73
(dp74
sS'components'
p75
(lp76
g68
(cgluon.html
TABLE
p77
g70
NtRp78
(dp79
g73
(dp80
S'level'
p81
I5
ssS'parent'
p82
Nsg75
(lp83
g68
(cgluon.html
TR
p84
g70
NtRp85
(dp86
g73
(dp87
sg82
g78
sg75
(lp88
g68
(cgluon.html
TD
p89
g70
NtRp90
(dp91
g73
(dp92
S'_style'
p93
S'font-weight:bold;vertical-align:top'
p94
ssg82
g85
sg75
(lp95
S'ajax'
p96
asbag68
(g89
g70
NtRp97
(dp98
g73
(dp99
S'_valign'
p100
S'top'
p101
ssg82
g85
sg75
(lp102
S':'
asbag68
(g89
g70
NtRp103
(dp104
g73
(dp105
sg82
g85
sg75
(lp106
g68
(g69
g70
NtRp107
(dp108
g73
(dp109
g81
I5
ssg82
g103
sg75
(lp110
S'False'
p111
asbasbasbag68
(g84
g70
NtRp112
(dp113
g73
(dp114
sg82
g78
sg75
(lp115
g68
(g89
g70
NtRp116
(dp117
g73
(dp118
g93
g94
ssg82
g112
sg75
(lp119
S'application'
p120
asbag68
(g89
g70
NtRp121
(dp122
g73
(dp123
g100
g101
ssg82
g112
sg75
(lp124
S':'
asbag68
(g89
g70
NtRp125
(dp126
g73
(dp127
sg82
g112
sg75
(lp128
g68
(g69
g70
NtRp129
(dp130
g73
(dp131
g81
I5
ssg82
g125
sg75
(lp132
S'rosan'
p133
asbasbasbag68
(g84
g70
NtRp134
(dp135
g73
(dp136
sg82
g78
sg75
(lp137
g68
(g89
g70
NtRp138
(dp139
g73
(dp140
g93
g94
ssg82
g134
sg75
(lp141
g52
asbag68
(g89
g70
NtRp142
(dp143
g73
(dp144
g100
g101
ssg82
g134
sg75
(lp145
S':'
asbag68
(g89
g70
NtRp146
(dp147
g73
(dp148
sg82
g134
sg75
(lp149
g68
(g69
g70
NtRp150
(dp151
g73
(dp152
g81
I5
ssg82
g146
sg75
(lp153
g68
(g77
g70
NtRp154
(dp155
g73
(dp156
g81
I4
ssg82
Nsg75
(lp157
sbasbasbasbag68
(g84
g70
NtRp158
(dp159
g73
(dp160
sg82
g78
sg75
(lp161
g68
(g89
g70
NtRp162
(dp163
g73
(dp164
g93
g94
ssg82
g158
sg75
(lp165
S'body'
p166
asbag68
(g89
g70
NtRp167
(dp168
g73
(dp169
g100
g101
ssg82
g158
sg75
(lp170
S':'
asbag68
(g89
g70
NtRp171
(dp172
g73
(dp173
sg82
g158
sg75
(lp174
g68
(g69
g70
NtRp175
(dp176
g73
(dp177
g81
I5
ssg82
g171
sg75
(lp178
S"<open file '<fdopen>', mode 'w+b' at 0x10f7f5150>"
p179
asbasbasbag68
(g84
g70
NtRp180
(dp181
g73
(dp182
sg82
g78
sg75
(lp183
g68
(g89
g70
NtRp184
(dp185
g73
(dp186
g93
g94
ssg82
g180
sg75
(lp187
S'cid'
p188
asbag68
(g89
g70
NtRp189
(dp190
g73
(dp191
g100
g101
ssg82
g180
sg75
(lp192
S':'
asbag68
(g89
g70
NtRp193
(dp194
g73
(dp195
sg82
g180
sg75
(lp196
g68
(g69
g70
NtRp197
(dp198
g73
(dp199
g81
I5
ssg82
g193
sg75
(lp200
S'None'
p201
asbasbasbag68
(g84
g70
NtRp202
(dp203
g73
(dp204
sg82
g78
sg75
(lp205
g68
(g89
g70
NtRp206
(dp207
g73
(dp208
g93
g94
ssg82
g202
sg75
(lp209
S'client'
p210
asbag68
(g89
g70
NtRp211
(dp212
g73
(dp213
g100
g101
ssg82
g202
sg75
(lp214
S':'
asbag68
(g89
g70
NtRp215
(dp216
g73
(dp217
sg82
g202
sg75
(lp218
g68
(g69
g70
NtRp219
(dp220
g73
(dp221
g81
I5
ssg82
g215
sg75
(lp222
S'127.0.0.1'
p223
asbasbasbag68
(g84
g70
NtRp224
(dp225
g73
(dp226
sg82
g78
sg75
(lp227
g68
(g89
g70
NtRp228
(dp229
g73
(dp230
g93
g94
ssg82
g224
sg75
(lp231
S'controller'
p232
asbag68
(g89
g70
NtRp233
(dp234
g73
(dp235
g100
g101
ssg82
g224
sg75
(lp236
S':'
asbag68
(g89
g70
NtRp237
(dp238
g73
(dp239
sg82
g224
sg75
(lp240
g68
(g69
g70
NtRp241
(dp242
g73
(dp243
g81
I5
ssg82
g237
sg75
(lp244
S'facturas'
p245
asbasbasbag68
(g84
g70
NtRp246
(dp247
g73
(dp248
sg82
g78
sg75
(lp249
g68
(g89
g70
NtRp250
(dp251
g73
(dp252
g93
g94
ssg82
g246
sg75
(lp253
S'cookies'
p254
asbag68
(g89
g70
NtRp255
(dp256
g73
(dp257
g100
g101
ssg82
g246
sg75
(lp258
S':'
asbag68
(g89
g70
NtRp259
(dp260
g73
(dp261
sg82
g246
sg75
(lp262
g68
(g69
g70
NtRp263
(dp264
g73
(dp265
g81
I5
ssg82
g259
sg75
(lp266
g68
(g77
g70
NtRp267
(dp268
g73
(dp269
g81
I4
ssg82
Nsg75
(lp270
g68
(g84
g70
NtRp271
(dp272
g73
(dp273
sg82
g267
sg75
(lp274
g68
(g89
g70
NtRp275
(dp276
g73
(dp277
g93
g94
ssg82
g271
sg75
(lp278
S'session_id_admin'
p279
asbag68
(g89
g70
NtRp280
(dp281
g73
(dp282
g100
g101
ssg82
g271
sg75
(lp283
S':'
asbag68
(g89
g70
NtRp284
(dp285
g73
(dp286
sg82
g271
sg75
(lp287
g68
(g69
g70
NtRp288
(dp289
g73
(dp290
g81
I4
ssg82
g284
sg75
(lp291
S'127.0.0.1-e7a319a9-9164-4933-a91f-a728a891e203'
p292
ag68
(g77
g70
NtRp293
(dp294
g73
(dp295
g81
I3
ssg82
Nsg75
(lp296
g68
(g84
g70
NtRp297
(dp298
g73
(dp299
sg82
g293
sg75
(lp300
g68
(g89
g70
NtRp301
(dp302
g73
(dp303
g93
g94
ssg82
g297
sg75
(lp304
S'comment'
p305
asbag68
(g89
g70
NtRp306
(dp307
g73
(dp308
g100
g101
ssg82
g297
sg75
(lp309
S':'
asbag68
(g89
g70
NtRp310
(dp311
g73
(dp312
sg82
g297
sg75
(lp313
g68
(g69
g70
NtRp314
(dp315
g73
(dp316
g81
I3
ssg82
g310
sg75
(lp317
S''
asbasbasbag68
(g84
g70
NtRp318
(dp319
g73
(dp320
sg82
g293
sg75
(lp321
g68
(g89
g70
NtRp322
(dp323
g73
(dp324
g93
g94
ssg82
g318
sg75
(lp325
S'domain'
p326
asbag68
(g89
g70
NtRp327
(dp328
g73
(dp329
g100
g101
ssg82
g318
sg75
(lp330
S':'
asbag68
(g89
g70
NtRp331
(dp332
g73
(dp333
sg82
g318
sg75
(lp334
g68
(g69
g70
NtRp335
(dp336
g73
(dp337
g81
I3
ssg82
g331
sg75
(lp338
S''
asbasbasbag68
(g84
g70
NtRp339
(dp340
g73
(dp341
sg82
g293
sg75
(lp342
g68
(g89
g70
NtRp343
(dp344
g73
(dp345
g93
g94
ssg82
g339
sg75
(lp346
S'expires'
p347
asbag68
(g89
g70
NtRp348
(dp349
g73
(dp350
g100
g101
ssg82
g339
sg75
(lp351
S':'
asbag68
(g89
g70
NtRp352
(dp353
g73
(dp354
sg82
g339
sg75
(lp355
g68
(g69
g70
NtRp356
(dp357
g73
(dp358
g81
I3
ssg82
g352
sg75
(lp359
S''
asbasbasbag68
(g84
g70
NtRp360
(dp361
g73
(dp362
sg82
g293
sg75
(lp363
g68
(g89
g70
NtRp364
(dp365
g73
(dp366
g93
g94
ssg82
g360
sg75
(lp367
S'httponly'
p368
asbag68
(g89
g70
NtRp369
(dp370
g73
(dp371
g100
g101
ssg82
g360
sg75
(lp372
S':'
asbag68
(g89
g70
NtRp373
(dp374
g73
(dp375
sg82
g360
sg75
(lp376
g68
(g69
g70
NtRp377
(dp378
g73
(dp379
g81
I3
ssg82
g373
sg75
(lp380
S''
asbasbasbag68
(g84
g70
NtRp381
(dp382
g73
(dp383
sg82
g293
sg75
(lp384
g68
(g89
g70
NtRp385
(dp386
g73
(dp387
g93
g94
ssg82
g381
sg75
(lp388
S'max-age'
p389
asbag68
(g89
g70
NtRp390
(dp391
g73
(dp392
g100
g101
ssg82
g381
sg75
(lp393
S':'
asbag68
(g89
g70
NtRp394
(dp395
g73
(dp396
sg82
g381
sg75
(lp397
g68
(g69
g70
NtRp398
(dp399
g73
(dp400
g81
I3
ssg82
g394
sg75
(lp401
S''
asbasbasbag68
(g84
g70
NtRp402
(dp403
g73
(dp404
sg82
g293
sg75
(lp405
g68
(g89
g70
NtRp406
(dp407
g73
(dp408
g93
g94
ssg82
g402
sg75
(lp409
S'path'
p410
asbag68
(g89
g70
NtRp411
(dp412
g73
(dp413
g100
g101
ssg82
g402
sg75
(lp414
S':'
asbag68
(g89
g70
NtRp415
(dp416
g73
(dp417
sg82
g402
sg75
(lp418
g68
(g69
g70
NtRp419
(dp420
g73
(dp421
g81
I3
ssg82
g415
sg75
(lp422
S''
asbasbasbag68
(g84
g70
NtRp423
(dp424
g73
(dp425
sg82
g293
sg75
(lp426
g68
(g89
g70
NtRp427
(dp428
g73
(dp429
g93
g94
ssg82
g423
sg75
(lp430
S'secure'
p431
asbag68
(g89
g70
NtRp432
(dp433
g73
(dp434
g100
g101
ssg82
g423
sg75
(lp435
S':'
asbag68
(g89
g70
NtRp436
(dp437
g73
(dp438
sg82
g423
sg75
(lp439
g68
(g69
g70
NtRp440
(dp441
g73
(dp442
g81
I3
ssg82
g436
sg75
(lp443
S''
asbasbasbag68
(g84
g70
NtRp444
(dp445
g73
(dp446
sg82
g293
sg75
(lp447
g68
(g89
g70
NtRp448
(dp449
g73
(dp450
g93
g94
ssg82
g444
sg75
(lp451
S'version'
p452
asbag68
(g89
g70
NtRp453
(dp454
g73
(dp455
g100
g101
ssg82
g444
sg75
(lp456
S':'
asbag68
(g89
g70
NtRp457
(dp458
g73
(dp459
sg82
g444
sg75
(lp460
g68
(g69
g70
NtRp461
(dp462
g73
(dp463
g81
I3
ssg82
g457
sg75
(lp464
S''
asbasbasbasbasbasbasbag68
(g84
g70
NtRp465
(dp466
g73
(dp467
sg82
g267
sg75
(lp468
g68
(g89
g70
NtRp469
(dp470
g73
(dp471
g93
g94
ssg82
g465
sg75
(lp472
S'session_id_rosan'
p473
asbag68
(g89
g70
NtRp474
(dp475
g73
(dp476
g100
g101
ssg82
g465
sg75
(lp477
S':'
asbag68
(g89
g70
NtRp478
(dp479
g73
(dp480
sg82
g465
sg75
(lp481
g68
(g69
g70
NtRp482
(dp483
g73
(dp484
g81
I4
ssg82
g478
sg75
(lp485
S'127.0.0.1-3f9bc004-8806-428c-8ebf-06d42e84bf4b'
p486
ag68
(g77
g70
NtRp487
(dp488
g73
(dp489
g81
I3
ssg82
Nsg75
(lp490
g68
(g84
g70
NtRp491
(dp492
g73
(dp493
sg82
g487
sg75
(lp494
g68
(g89
g70
NtRp495
(dp496
g73
(dp497
g93
g94
ssg82
g491
sg75
(lp498
g305
asbag68
(g89
g70
NtRp499
(dp500
g73
(dp501
g100
g101
ssg82
g491
sg75
(lp502
S':'
asbag68
(g89
g70
NtRp503
(dp504
g73
(dp505
sg82
g491
sg75
(lp506
g68
(g69
g70
NtRp507
(dp508
g73
(dp509
g81
I3
ssg82
g503
sg75
(lp510
S''
asbasbasbag68
(g84
g70
NtRp511
(dp512
g73
(dp513
sg82
g487
sg75
(lp514
g68
(g89
g70
NtRp515
(dp516
g73
(dp517
g93
g94
ssg82
g511
sg75
(lp518
g326
asbag68
(g89
g70
NtRp519
(dp520
g73
(dp521
g100
g101
ssg82
g511
sg75
(lp522
S':'
asbag68
(g89
g70
NtRp523
(dp524
g73
(dp525
sg82
g511
sg75
(lp526
g68
(g69
g70
NtRp527
(dp528
g73
(dp529
g81
I3
ssg82
g523
sg75
(lp530
S''
asbasbasbag68
(g84
g70
NtRp531
(dp532
g73
(dp533
sg82
g487
sg75
(lp534
g68
(g89
g70
NtRp535
(dp536
g73
(dp537
g93
g94
ssg82
g531
sg75
(lp538
g347
asbag68
(g89
g70
NtRp539
(dp540
g73
(dp541
g100
g101
ssg82
g531
sg75
(lp542
S':'
asbag68
(g89
g70
NtRp543
(dp544
g73
(dp545
sg82
g531
sg75
(lp546
g68
(g69
g70
NtRp547
(dp548
g73
(dp549
g81
I3
ssg82
g543
sg75
(lp550
S''
asbasbasbag68
(g84
g70
NtRp551
(dp552
g73
(dp553
sg82
g487
sg75
(lp554
g68
(g89
g70
NtRp555
(dp556
g73
(dp557
g93
g94
ssg82
g551
sg75
(lp558
g368
asbag68
(g89
g70
NtRp559
(dp560
g73
(dp561
g100
g101
ssg82
g551
sg75
(lp562
S':'
asbag68
(g89
g70
NtRp563
(dp564
g73
(dp565
sg82
g551
sg75
(lp566
g68
(g69
g70
NtRp567
(dp568
g73
(dp569
g81
I3
ssg82
g563
sg75
(lp570
S''
asbasbasbag68
(g84
g70
NtRp571
(dp572
g73
(dp573
sg82
g487
sg75
(lp574
g68
(g89
g70
NtRp575
(dp576
g73
(dp577
g93
g94
ssg82
g571
sg75
(lp578
g389
asbag68
(g89
g70
NtRp579
(dp580
g73
(dp581
g100
g101
ssg82
g571
sg75
(lp582
S':'
asbag68
(g89
g70
NtRp583
(dp584
g73
(dp585
sg82
g571
sg75
(lp586
g68
(g69
g70
NtRp587
(dp588
g73
(dp589
g81
I3
ssg82
g583
sg75
(lp590
S''
asbasbasbag68
(g84
g70
NtRp591
(dp592
g73
(dp593
sg82
g487
sg75
(lp594
g68
(g89
g70
NtRp595
(dp596
g73
(dp597
g93
g94
ssg82
g591
sg75
(lp598
g410
asbag68
(g89
g70
NtRp599
(dp600
g73
(dp601
g100
g101
ssg82
g591
sg75
(lp602
S':'
asbag68
(g89
g70
NtRp603
(dp604
g73
(dp605
sg82
g591
sg75
(lp606
g68
(g69
g70
NtRp607
(dp608
g73
(dp609
g81
I3
ssg82
g603
sg75
(lp610
S''
asbasbasbag68
(g84
g70
NtRp611
(dp612
g73
(dp613
sg82
g487
sg75
(lp614
g68
(g89
g70
NtRp615
(dp616
g73
(dp617
g93
g94
ssg82
g611
sg75
(lp618
g431
asbag68
(g89
g70
NtRp619
(dp620
g73
(dp621
g100
g101
ssg82
g611
sg75
(lp622
S':'
asbag68
(g89
g70
NtRp623
(dp624
g73
(dp625
sg82
g611
sg75
(lp626
g68
(g69
g70
NtRp627
(dp628
g73
(dp629
g81
I3
ssg82
g623
sg75
(lp630
S''
asbasbasbag68
(g84
g70
NtRp631
(dp632
g73
(dp633
sg82
g487
sg75
(lp634
g68
(g89
g70
NtRp635
(dp636
g73
(dp637
g93
g94
ssg82
g631
sg75
(lp638
g452
asbag68
(g89
g70
NtRp639
(dp640
g73
(dp641
g100
g101
ssg82
g631
sg75
(lp642
S':'
asbag68
(g89
g70
NtRp643
(dp644
g73
(dp645
sg82
g631
sg75
(lp646
g68
(g69
g70
NtRp647
(dp648
g73
(dp649
g81
I3
ssg82
g643
sg75
(lp650
S''
asbasbasbasbasbasbasbag68
(g84
g70
NtRp651
(dp652
g73
(dp653
sg82
g267
sg75
(lp654
g68
(g89
g70
NtRp655
(dp656
g73
(dp657
g93
g94
ssg82
g651
sg75
(lp658
S'session_id_welcome'
p659
asbag68
(g89
g70
NtRp660
(dp661
g73
(dp662
g100
g101
ssg82
g651
sg75
(lp663
S':'
asbag68
(g89
g70
NtRp664
(dp665
g73
(dp666
sg82
g651
sg75
(lp667
g68
(g69
g70
NtRp668
(dp669
g73
(dp670
g81
I4
ssg82
g664
sg75
(lp671
S'127.0.0.1-ace03bef-163e-42a5-bcf3-bdf26fa60b2c'
p672
ag68
(g77
g70
NtRp673
(dp674
g73
(dp675
g81
I3
ssg82
Nsg75
(lp676
g68
(g84
g70
NtRp677
(dp678
g73
(dp679
sg82
g673
sg75
(lp680
g68
(g89
g70
NtRp681
(dp682
g73
(dp683
g93
g94
ssg82
g677
sg75
(lp684
g305
asbag68
(g89
g70
NtRp685
(dp686
g73
(dp687
g100
g101
ssg82
g677
sg75
(lp688
S':'
asbag68
(g89
g70
NtRp689
(dp690
g73
(dp691
sg82
g677
sg75
(lp692
g68
(g69
g70
NtRp693
(dp694
g73
(dp695
g81
I3
ssg82
g689
sg75
(lp696
S''
asbasbasbag68
(g84
g70
NtRp697
(dp698
g73
(dp699
sg82
g673
sg75
(lp700
g68
(g89
g70
NtRp701
(dp702
g73
(dp703
g93
g94
ssg82
g697
sg75
(lp704
g326
asbag68
(g89
g70
NtRp705
(dp706
g73
(dp707
g100
g101
ssg82
g697
sg75
(lp708
S':'
asbag68
(g89
g70
NtRp709
(dp710
g73
(dp711
sg82
g697
sg75
(lp712
g68
(g69
g70
NtRp713
(dp714
g73
(dp715
g81
I3
ssg82
g709
sg75
(lp716
S''
asbasbasbag68
(g84
g70
NtRp717
(dp718
g73
(dp719
sg82
g673
sg75
(lp720
g68
(g89
g70
NtRp721
(dp722
g73
(dp723
g93
g94
ssg82
g717
sg75
(lp724
g347
asbag68
(g89
g70
NtRp725
(dp726
g73
(dp727
g100
g101
ssg82
g717
sg75
(lp728
S':'
asbag68
(g89
g70
NtRp729
(dp730
g73
(dp731
sg82
g717
sg75
(lp732
g68
(g69
g70
NtRp733
(dp734
g73
(dp735
g81
I3
ssg82
g729
sg75
(lp736
S''
asbasbasbag68
(g84
g70
NtRp737
(dp738
g73
(dp739
sg82
g673
sg75
(lp740
g68
(g89
g70
NtRp741
(dp742
g73
(dp743
g93
g94
ssg82
g737
sg75
(lp744
g368
asbag68
(g89
g70
NtRp745
(dp746
g73
(dp747
g100
g101
ssg82
g737
sg75
(lp748
S':'
asbag68
(g89
g70
NtRp749
(dp750
g73
(dp751
sg82
g737
sg75
(lp752
g68
(g69
g70
NtRp753
(dp754
g73
(dp755
g81
I3
ssg82
g749
sg75
(lp756
S''
asbasbasbag68
(g84
g70
NtRp757
(dp758
g73
(dp759
sg82
g673
sg75
(lp760
g68
(g89
g70
NtRp761
(dp762
g73
(dp763
g93
g94
ssg82
g757
sg75
(lp764
g389
asbag68
(g89
g70
NtRp765
(dp766
g73
(dp767
g100
g101
ssg82
g757
sg75
(lp768
S':'
asbag68
(g89
g70
NtRp769
(dp770
g73
(dp771
sg82
g757
sg75
(lp772
g68
(g69
g70
NtRp773
(dp774
g73
(dp775
g81
I3
ssg82
g769
sg75
(lp776
S''
asbasbasbag68
(g84
g70
NtRp777
(dp778
g73
(dp779
sg82
g673
sg75
(lp780
g68
(g89
g70
NtRp781
(dp782
g73
(dp783
g93
g94
ssg82
g777
sg75
(lp784
g410
asbag68
(g89
g70
NtRp785
(dp786
g73
(dp787
g100
g101
ssg82
g777
sg75
(lp788
S':'
asbag68
(g89
g70
NtRp789
(dp790
g73
(dp791
sg82
g777
sg75
(lp792
g68
(g69
g70
NtRp793
(dp794
g73
(dp795
g81
I3
ssg82
g789
sg75
(lp796
S''
asbasbasbag68
(g84
g70
NtRp797
(dp798
g73
(dp799
sg82
g673
sg75
(lp800
g68
(g89
g70
NtRp801
(dp802
g73
(dp803
g93
g94
ssg82
g797
sg75
(lp804
g431
asbag68
(g89
g70
NtRp805
(dp806
g73
(dp807
g100
g101
ssg82
g797
sg75
(lp808
S':'
asbag68
(g89
g70
NtRp809
(dp810
g73
(dp811
sg82
g797
sg75
(lp812
g68
(g69
g70
NtRp813
(dp814
g73
(dp815
g81
I3
ssg82
g809
sg75
(lp816
S''
asbasbasbag68
(g84
g70
NtRp817
(dp818
g73
(dp819
sg82
g673
sg75
(lp820
g68
(g89
g70
NtRp821
(dp822
g73
(dp823
g93
g94
ssg82
g817
sg75
(lp824
g452
asbag68
(g89
g70
NtRp825
(dp826
g73
(dp827
g100
g101
ssg82
g817
sg75
(lp828
S':'
asbag68
(g89
g70
NtRp829
(dp830
g73
(dp831
sg82
g817
sg75
(lp832
g68
(g69
g70
NtRp833
(dp834
g73
(dp835
g81
I3
ssg82
g829
sg75
(lp836
S''
asbasbasbasbasbasbasbasbasbasbasbag68
(g84
g70
NtRp837
(dp838
g73
(dp839
sg82
g78
sg75
(lp840
g68
(g89
g70
NtRp841
(dp842
g73
(dp843
g93
g94
ssg82
g837
sg75
(lp844
S'env'
p845
asbag68
(g89
g70
NtRp846
(dp847
g73
(dp848
g100
g101
ssg82
g837
sg75
(lp849
S':'
asbag68
(g89
g70
NtRp850
(dp851
g73
(dp852
sg82
g837
sg75
(lp853
g68
(g69
g70
NtRp854
(dp855
g73
(dp856
g81
I5
ssg82
g850
sg75
(lp857
g68
(g77
g70
NtRp858
(dp859
g73
(dp860
g81
I4
ssg82
Nsg75
(lp861
g68
(g84
g70
NtRp862
(dp863
g73
(dp864
sg82
g858
sg75
(lp865
g68
(g89
g70
NtRp866
(dp867
g73
(dp868
g93
g94
ssg82
g862
sg75
(lp869
S'app_folders'
p870
asbag68
(g89
g70
NtRp871
(dp872
g73
(dp873
g100
g101
ssg82
g862
sg75
(lp874
S':'
asbag68
(g89
g70
NtRp875
(dp876
g73
(dp877
sg82
g862
sg75
(lp878
g68
(g69
g70
NtRp879
(dp880
g73
(dp881
g81
I4
ssg82
g875
sg75
(lp882
S"set(['/Users/Truki/Desarrollo/web2py/applications/welcome/', '/Users/Truki/Desarrollo/web2py/applications/rosan/', '/Users/Truki/Desarrollo/web2py/applications/admin/'])"
p883
asbasbasbag68
(g84
g70
NtRp884
(dp885
g73
(dp886
sg82
g858
sg75
(lp887
g68
(g89
g70
NtRp888
(dp889
g73
(dp890
g93
g94
ssg82
g884
sg75
(lp891
S'applications_parent'
p892
asbag68
(g89
g70
NtRp893
(dp894
g73
(dp895
g100
g101
ssg82
g884
sg75
(lp896
S':'
asbag68
(g89
g70
NtRp897
(dp898
g73
(dp899
sg82
g884
sg75
(lp900
g68
(g69
g70
NtRp901
(dp902
g73
(dp903
g81
I4
ssg82
g897
sg75
(lp904
S'/Users/Truki/Desarrollo/web2py'
p905
asbasbasbag68
(g84
g70
NtRp906
(dp907
g73
(dp908
sg82
g858
sg75
(lp909
g68
(g89
g70
NtRp910
(dp911
g73
(dp912
g93
g94
ssg82
g906
sg75
(lp913
S'cmd_args'
p914
asbag68
(g89
g70
NtRp915
(dp916
g73
(dp917
g100
g101
ssg82
g906
sg75
(lp918
S':'
asbag68
(g89
g70
NtRp919
(dp920
g73
(dp921
sg82
g906
sg75
(lp922
g68
(g69
g70
NtRp923
(dp924
g73
(dp925
g81
I4
ssg82
g919
sg75
(lp926
g68
(g77
g70
NtRp927
(dp928
g73
(dp929
g81
I3
ssg82
Nsg75
(lp930
sbasbasbasbag68
(g84
g70
NtRp931
(dp932
g73
(dp933
sg82
g858
sg75
(lp934
g68
(g89
g70
NtRp935
(dp936
g73
(dp937
g93
g94
ssg82
g931
sg75
(lp938
S'cmd_options'
p939
asbag68
(g89
g70
NtRp940
(dp941
g73
(dp942
g100
g101
ssg82
g931
sg75
(lp943
S':'
asbag68
(g89
g70
NtRp944
(dp945
g73
(dp946
sg82
g931
sg75
(lp947
g68
(g69
g70
NtRp948
(dp949
g73
(dp950
g81
I4
ssg82
g944
sg75
(lp951
S"<Values at 0x10b621488: {'verbose': False, 'ip': '127.0.0.1', 'with_scheduler': False, 'ips': ['fe80::8e2d:aaff:fe4a:3d35%en1', '192.168.1.35'], 'shutdown_timeout': 5, 'taskbar': False, 'port': 8000, 'maxthreads': None, 'softcron': False, 'server_name': 'PeritoMascao.local', 'bpython': False, 'nogui': False, 'pid_filename': 'httpserver.pid', 'extcron': False, 'runcron': False, 'run_system_tests': False, 'test': None, 'folder': '/Users/Truki/Desarrollo/web2py', 'config': '', 'minthreads': None, 'winservice': '', 'shell': None, 'run': '', 'log_filename': 'httpserver.log', 'debuglevel': 30, 'args': [''], 'socket_timeout': 5, 'ssl_ca_certificate': None, 'scheduler': None, 'profiler_filename': None, 'ssl_private_key': '', 'scheduler_groups': None, 'password': '<ask>', 'request_queue_size': 5, 'ssl_certificate': '', 'cronjob': False, 'numthreads': None, 'quiet': False, 'interfaces': None, 'import_models': False, 'timeout': 10, 'plain': False, 'nobanner': False}>"
p952
asbasbasbag68
(g84
g70
NtRp953
(dp954
g73
(dp955
sg82
g858
sg75
(lp956
g68
(g89
g70
NtRp957
(dp958
g73
(dp959
g93
g94
ssg82
g953
sg75
(lp960
S'content_length'
p961
asbag68
(g89
g70
NtRp962
(dp963
g73
(dp964
g100
g101
ssg82
g953
sg75
(lp965
S':'
asbag68
(g89
g70
NtRp966
(dp967
g73
(dp968
sg82
g953
sg75
(lp969
g68
(g69
g70
NtRp970
(dp971
g73
(dp972
g81
I4
ssg82
g966
sg75
(lp973
S'243'
p974
asbasbasbag68
(g84
g70
NtRp975
(dp976
g73
(dp977
sg82
g858
sg75
(lp978
g68
(g89
g70
NtRp979
(dp980
g73
(dp981
g93
g94
ssg82
g975
sg75
(lp982
S'content_type'
p983
asbag68
(g89
g70
NtRp984
(dp985
g73
(dp986
g100
g101
ssg82
g975
sg75
(lp987
S':'
asbag68
(g89
g70
NtRp988
(dp989
g73
(dp990
sg82
g975
sg75
(lp991
g68
(g69
g70
NtRp992
(dp993
g73
(dp994
g81
I4
ssg82
g988
sg75
(lp995
S'multipart/form-data; boundary=----WebKitFormBoundarytAcSe96w6sidqu8u'
p996
asbasbasbag68
(g84
g70
NtRp997
(dp998
g73
(dp999
sg82
g858
sg75
(lp1000
g68
(g89
g70
NtRp1001
(dp1002
g73
(dp1003
g93
g94
ssg82
g997
sg75
(lp1004
S'db_sessions'
p1005
asbag68
(g89
g70
NtRp1006
(dp1007
g73
(dp1008
g100
g101
ssg82
g997
sg75
(lp1009
S':'
asbag68
(g89
g70
NtRp1010
(dp1011
g73
(dp1012
sg82
g997
sg75
(lp1013
g68
(g69
g70
NtRp1014
(dp1015
g73
(dp1016
g81
I4
ssg82
g1010
sg75
(lp1017
S'set([])'
p1018
asbasbasbag68
(g84
g70
NtRp1019
(dp1020
g73
(dp1021
sg82
g858
sg75
(lp1022
g68
(g89
g70
NtRp1023
(dp1024
g73
(dp1025
g93
g94
ssg82
g1019
sg75
(lp1026
S'debugging'
p1027
asbag68
(g89
g70
NtRp1028
(dp1029
g73
(dp1030
g100
g101
ssg82
g1019
sg75
(lp1031
S':'
asbag68
(g89
g70
NtRp1032
(dp1033
g73
(dp1034
sg82
g1019
sg75
(lp1035
g68
(g69
g70
NtRp1036
(dp1037
g73
(dp1038
g81
I4
ssg82
g1032
sg75
(lp1039
g111
asbasbasbag68
(g84
g70
NtRp1040
(dp1041
g73
(dp1042
sg82
g858
sg75
(lp1043
g68
(g89
g70
NtRp1044
(dp1045
g73
(dp1046
g93
g94
ssg82
g1040
sg75
(lp1047
S'gluon_parent'
p1048
asbag68
(g89
g70
NtRp1049
(dp1050
g73
(dp1051
g100
g101
ssg82
g1040
sg75
(lp1052
S':'
asbag68
(g89
g70
NtRp1053
(dp1054
g73
(dp1055
sg82
g1040
sg75
(lp1056
g68
(g69
g70
NtRp1057
(dp1058
g73
(dp1059
g81
I4
ssg82
g1053
sg75
(lp1060
S'/Users/Truki/Desarrollo/web2py'
p1061
asbasbasbag68
(g84
g70
NtRp1062
(dp1063
g73
(dp1064
sg82
g858
sg75
(lp1065
g68
(g89
g70
NtRp1066
(dp1067
g73
(dp1068
g93
g94
ssg82
g1062
sg75
(lp1069
S'http_accept'
p1070
asbag68
(g89
g70
NtRp1071
(dp1072
g73
(dp1073
g100
g101
ssg82
g1062
sg75
(lp1074
S':'
asbag68
(g89
g70
NtRp1075
(dp1076
g73
(dp1077
sg82
g1062
sg75
(lp1078
g68
(g69
g70
NtRp1079
(dp1080
g73
(dp1081
g81
I4
ssg82
g1075
sg75
(lp1082
S'text/html,application/xhtml+xml,application/xml;q=0.9,*/*;q=0.8'
p1083
asbasbasbag68
(g84
g70
NtRp1084
(dp1085
g73
(dp1086
sg82
g858
sg75
(lp1087
g68
(g89
g70
NtRp1088
(dp1089
g73
(dp1090
g93
g94
ssg82
g1084
sg75
(lp1091
S'http_accept_charset'
p1092
asbag68
(g89
g70
NtRp1093
(dp1094
g73
(dp1095
g100
g101
ssg82
g1084
sg75
(lp1096
S':'
asbag68
(g89
g70
NtRp1097
(dp1098
g73
(dp1099
sg82
g1084
sg75
(lp1100
g68
(g69
g70
NtRp1101
(dp1102
g73
(dp1103
g81
I4
ssg82
g1097
sg75
(lp1104
S'ISO-8859-1,utf-8;q=0.7,*;q=0.3'
p1105
asbasbasbag68
(g84
g70
NtRp1106
(dp1107
g73
(dp1108
sg82
g858
sg75
(lp1109
g68
(g89
g70
NtRp1110
(dp1111
g73
(dp1112
g93
g94
ssg82
g1106
sg75
(lp1113
S'http_accept_encoding'
p1114
asbag68
(g89
g70
NtRp1115
(dp1116
g73
(dp1117
g100
g101
ssg82
g1106
sg75
(lp1118
S':'
asbag68
(g89
g70
NtRp1119
(dp1120
g73
(dp1121
sg82
g1106
sg75
(lp1122
g68
(g69
g70
NtRp1123
(dp1124
g73
(dp1125
g81
I4
ssg82
g1119
sg75
(lp1126
S'gzip,deflate,sdch'
p1127
asbasbasbag68
(g84
g70
NtRp1128
(dp1129
g73
(dp1130
sg82
g858
sg75
(lp1131
g68
(g89
g70
NtRp1132
(dp1133
g73
(dp1134
g93
g94
ssg82
g1128
sg75
(lp1135
S'http_accept_language'
p1136
asbag68
(g89
g70
NtRp1137
(dp1138
g73
(dp1139
g100
g101
ssg82
g1128
sg75
(lp1140
S':'
asbag68
(g89
g70
NtRp1141
(dp1142
g73
(dp1143
sg82
g1128
sg75
(lp1144
g68
(g69
g70
NtRp1145
(dp1146
g73
(dp1147
g81
I4
ssg82
g1141
sg75
(lp1148
S'es-ES,es;q=0.8'
p1149
asbasbasbag68
(g84
g70
NtRp1150
(dp1151
g73
(dp1152
sg82
g858
sg75
(lp1153
g68
(g89
g70
NtRp1154
(dp1155
g73
(dp1156
g93
g94
ssg82
g1150
sg75
(lp1157
S'http_cache_control'
p1158
asbag68
(g89
g70
NtRp1159
(dp1160
g73
(dp1161
g100
g101
ssg82
g1150
sg75
(lp1162
S':'
asbag68
(g89
g70
NtRp1163
(dp1164
g73
(dp1165
sg82
g1150
sg75
(lp1166
g68
(g69
g70
NtRp1167
(dp1168
g73
(dp1169
g81
I4
ssg82
g1163
sg75
(lp1170
S'max-age=0'
p1171
asbasbasbag68
(g84
g70
NtRp1172
(dp1173
g73
(dp1174
sg82
g858
sg75
(lp1175
g68
(g89
g70
NtRp1176
(dp1177
g73
(dp1178
g93
g94
ssg82
g1172
sg75
(lp1179
S'http_connection'
p1180
asbag68
(g89
g70
NtRp1181
(dp1182
g73
(dp1183
g100
g101
ssg82
g1172
sg75
(lp1184
S':'
asbag68
(g89
g70
NtRp1185
(dp1186
g73
(dp1187
sg82
g1172
sg75
(lp1188
g68
(g69
g70
NtRp1189
(dp1190
g73
(dp1191
g81
I4
ssg82
g1185
sg75
(lp1192
S'keep-alive'
p1193
asbasbasbag68
(g84
g70
NtRp1194
(dp1195
g73
(dp1196
sg82
g858
sg75
(lp1197
g68
(g89
g70
NtRp1198
(dp1199
g73
(dp1200
g93
g94
ssg82
g1194
sg75
(lp1201
S'http_content_length'
p1202
asbag68
(g89
g70
NtRp1203
(dp1204
g73
(dp1205
g100
g101
ssg82
g1194
sg75
(lp1206
S':'
asbag68
(g89
g70
NtRp1207
(dp1208
g73
(dp1209
sg82
g1194
sg75
(lp1210
g68
(g69
g70
NtRp1211
(dp1212
g73
(dp1213
g81
I4
ssg82
g1207
sg75
(lp1214
g974
asbasbasbag68
(g84
g70
NtRp1215
(dp1216
g73
(dp1217
sg82
g858
sg75
(lp1218
g68
(g89
g70
NtRp1219
(dp1220
g73
(dp1221
g93
g94
ssg82
g1215
sg75
(lp1222
S'http_content_type'
p1223
asbag68
(g89
g70
NtRp1224
(dp1225
g73
(dp1226
g100
g101
ssg82
g1215
sg75
(lp1227
S':'
asbag68
(g89
g70
NtRp1228
(dp1229
g73
(dp1230
sg82
g1215
sg75
(lp1231
g68
(g69
g70
NtRp1232
(dp1233
g73
(dp1234
g81
I4
ssg82
g1228
sg75
(lp1235
g996
asbasbasbag68
(g84
g70
NtRp1236
(dp1237
g73
(dp1238
sg82
g858
sg75
(lp1239
g68
(g89
g70
NtRp1240
(dp1241
g73
(dp1242
g93
g94
ssg82
g1236
sg75
(lp1243
S'http_cookie'
p1244
asbag68
(g89
g70
NtRp1245
(dp1246
g73
(dp1247
g100
g101
ssg82
g1236
sg75
(lp1248
S':'
asbag68
(g89
g70
NtRp1249
(dp1250
g73
(dp1251
sg82
g1236
sg75
(lp1252
g68
(g69
g70
NtRp1253
(dp1254
g73
(dp1255
g81
I4
ssg82
g1249
sg75
(lp1256
S'session_id_welcome=127.0.0.1-ace03bef-163e-42a5-bcf3-bdf26fa60b2c; session_id_admin=127.0.0.1-e7a319a9-9164-4933-a91f-a728a891e203; session_id_rosan=127.0.0.1-3f9bc004-8806-428c-8ebf-06d42e84bf4b'
p1257
asbasbasbag68
(g84
g70
NtRp1258
(dp1259
g73
(dp1260
sg82
g858
sg75
(lp1261
g68
(g89
g70
NtRp1262
(dp1263
g73
(dp1264
g93
g94
ssg82
g1258
sg75
(lp1265
S'http_host'
p1266
asbag68
(g89
g70
NtRp1267
(dp1268
g73
(dp1269
g100
g101
ssg82
g1258
sg75
(lp1270
S':'
asbag68
(g89
g70
NtRp1271
(dp1272
g73
(dp1273
sg82
g1258
sg75
(lp1274
g68
(g69
g70
NtRp1275
(dp1276
g73
(dp1277
g81
I4
ssg82
g1271
sg75
(lp1278
S'127.0.0.1:8000'
p1279
asbasbasbag68
(g84
g70
NtRp1280
(dp1281
g73
(dp1282
sg82
g858
sg75
(lp1283
g68
(g89
g70
NtRp1284
(dp1285
g73
(dp1286
g93
g94
ssg82
g1280
sg75
(lp1287
S'http_origin'
p1288
asbag68
(g89
g70
NtRp1289
(dp1290
g73
(dp1291
g100
g101
ssg82
g1280
sg75
(lp1292
S':'
asbag68
(g89
g70
NtRp1293
(dp1294
g73
(dp1295
sg82
g1280
sg75
(lp1296
g68
(g69
g70
NtRp1297
(dp1298
g73
(dp1299
g81
I4
ssg82
g1293
sg75
(lp1300
S'http://127.0.0.1:8000'
p1301
asbasbasbag68
(g84
g70
NtRp1302
(dp1303
g73
(dp1304
sg82
g858
sg75
(lp1305
g68
(g89
g70
NtRp1306
(dp1307
g73
(dp1308
g93
g94
ssg82
g1302
sg75
(lp1309
S'http_referer'
p1310
asbag68
(g89
g70
NtRp1311
(dp1312
g73
(dp1313
g100
g101
ssg82
g1302
sg75
(lp1314
S':'
asbag68
(g89
g70
NtRp1315
(dp1316
g73
(dp1317
sg82
g1302
sg75
(lp1318
g68
(g69
g70
NtRp1319
(dp1320
g73
(dp1321
g81
I4
ssg82
g1315
sg75
(lp1322
S'http://127.0.0.1:8000/rosan/facturas/detalleFactura'
p1323
asbasbasbag68
(g84
g70
NtRp1324
(dp1325
g73
(dp1326
sg82
g858
sg75
(lp1327
g68
(g89
g70
NtRp1328
(dp1329
g73
(dp1330
g93
g94
ssg82
g1324
sg75
(lp1331
S'http_user_agent'
p1332
asbag68
(g89
g70
NtRp1333
(dp1334
g73
(dp1335
g100
g101
ssg82
g1324
sg75
(lp1336
S':'
asbag68
(g89
g70
NtRp1337
(dp1338
g73
(dp1339
sg82
g1324
sg75
(lp1340
g68
(g69
g70
NtRp1341
(dp1342
g73
(dp1343
g81
I4
ssg82
g1337
sg75
(lp1344
S'Mozilla/5.0 (Macintosh; Intel Mac OS X 10_8_2) AppleWebKit/537.17 (KHTML, like Gecko) Chrome/24.0.1312.57 Safari/537.17'
p1345
asbasbasbag68
(g84
g70
NtRp1346
(dp1347
g73
(dp1348
sg82
g858
sg75
(lp1349
g68
(g89
g70
NtRp1350
(dp1351
g73
(dp1352
g93
g94
ssg82
g1346
sg75
(lp1353
S'is_jython'
p1354
asbag68
(g89
g70
NtRp1355
(dp1356
g73
(dp1357
g100
g101
ssg82
g1346
sg75
(lp1358
S':'
asbag68
(g89
g70
NtRp1359
(dp1360
g73
(dp1361
sg82
g1346
sg75
(lp1362
g68
(g69
g70
NtRp1363
(dp1364
g73
(dp1365
g81
I4
ssg82
g1359
sg75
(lp1366
g111
asbasbasbag68
(g84
g70
NtRp1367
(dp1368
g73
(dp1369
sg82
g858
sg75
(lp1370
g68
(g89
g70
NtRp1371
(dp1372
g73
(dp1373
g93
g94
ssg82
g1367
sg75
(lp1374
S'is_pypy'
p1375
asbag68
(g89
g70
NtRp1376
(dp1377
g73
(dp1378
g100
g101
ssg82
g1367
sg75
(lp1379
S':'
asbag68
(g89
g70
NtRp1380
(dp1381
g73
(dp1382
sg82
g1367
sg75
(lp1383
g68
(g69
g70
NtRp1384
(dp1385
g73
(dp1386
g81
I4
ssg82
g1380
sg75
(lp1387
g111
asbasbasbag68
(g84
g70
NtRp1388
(dp1389
g73
(dp1390
sg82
g858
sg75
(lp1391
g68
(g89
g70
NtRp1392
(dp1393
g73
(dp1394
g93
g94
ssg82
g1388
sg75
(lp1395
S'local_hosts'
p1396
asbag68
(g89
g70
NtRp1397
(dp1398
g73
(dp1399
g100
g101
ssg82
g1388
sg75
(lp1400
S':'
asbag68
(g89
g70
NtRp1401
(dp1402
g73
(dp1403
sg82
g1388
sg75
(lp1404
g68
(g69
g70
NtRp1405
(dp1406
g73
(dp1407
g81
I4
ssg82
g1401
sg75
(lp1408
g68
(g77
g70
NtRp1409
(dp1410
g73
(dp1411
g81
I3
ssg82
Nsg75
(lp1412
g68
(g84
g70
NtRp1413
(dp1414
g73
(dp1415
sg82
g1409
sg75
(lp1416
g68
(g89
g70
NtRp1417
(dp1418
g73
(dp1419
sg82
g1413
sg75
(lp1420
g68
(g69
g70
NtRp1421
(dp1422
g73
(dp1423
g81
I3
ssg82
g1417
sg75
(lp1424
S'fe80::8e2d:aaff:fe4a:3d35%en1'
p1425
asbasbasbag68
(g84
g70
NtRp1426
(dp1427
g73
(dp1428
sg82
g1409
sg75
(lp1429
g68
(g89
g70
NtRp1430
(dp1431
g73
(dp1432
sg82
g1426
sg75
(lp1433
g68
(g69
g70
NtRp1434
(dp1435
g73
(dp1436
g81
I3
ssg82
g1430
sg75
(lp1437
S'192.168.1.35'
p1438
asbasbasbag68
(g84
g70
NtRp1439
(dp1440
g73
(dp1441
sg82
g1409
sg75
(lp1442
g68
(g89
g70
NtRp1443
(dp1444
g73
(dp1445
sg82
g1439
sg75
(lp1446
g68
(g69
g70
NtRp1447
(dp1448
g73
(dp1449
g81
I3
ssg82
g1443
sg75
(lp1450
S'::ffff:127.0.0.1'
p1451
asbasbasbag68
(g84
g70
NtRp1452
(dp1453
g73
(dp1454
sg82
g1409
sg75
(lp1455
g68
(g89
g70
NtRp1456
(dp1457
g73
(dp1458
sg82
g1452
sg75
(lp1459
g68
(g69
g70
NtRp1460
(dp1461
g73
(dp1462
g81
I3
ssg82
g1456
sg75
(lp1463
S'::1'
p1464
asbasbasbag68
(g84
g70
NtRp1465
(dp1466
g73
(dp1467
sg82
g1409
sg75
(lp1468
g68
(g89
g70
NtRp1469
(dp1470
g73
(dp1471
sg82
g1465
sg75
(lp1472
g68
(g69
g70
NtRp1473
(dp1474
g73
(dp1475
g81
I3
ssg82
g1469
sg75
(lp1476
S'PeritoMascao.local'
p1477
asbasbasbag68
(g84
g70
NtRp1478
(dp1479
g73
(dp1480
sg82
g1409
sg75
(lp1481
g68
(g89
g70
NtRp1482
(dp1483
g73
(dp1484
sg82
g1478
sg75
(lp1485
g68
(g69
g70
NtRp1486
(dp1487
g73
(dp1488
g81
I3
ssg82
g1482
sg75
(lp1489
S'127.0.0.1'
p1490
asbasbasbasbasbasbasbag68
(g84
g70
NtRp1491
(dp1492
g73
(dp1493
sg82
g858
sg75
(lp1494
g68
(g89
g70
NtRp1495
(dp1496
g73
(dp1497
g93
g94
ssg82
g1491
sg75
(lp1498
S'path_info'
p1499
asbag68
(g89
g70
NtRp1500
(dp1501
g73
(dp1502
g100
g101
ssg82
g1491
sg75
(lp1503
S':'
asbag68
(g89
g70
NtRp1504
(dp1505
g73
(dp1506
sg82
g1491
sg75
(lp1507
g68
(g69
g70
NtRp1508
(dp1509
g73
(dp1510
g81
I4
ssg82
g1504
sg75
(lp1511
S'/rosan/facturas/detalleFactura'
p1512
asbasbasbag68
(g84
g70
NtRp1513
(dp1514
g73
(dp1515
sg82
g858
sg75
(lp1516
g68
(g89
g70
NtRp1517
(dp1518
g73
(dp1519
g93
g94
ssg82
g1513
sg75
(lp1520
S'query_string'
p1521
asbag68
(g89
g70
NtRp1522
(dp1523
g73
(dp1524
g100
g101
ssg82
g1513
sg75
(lp1525
S':'
asbag68
(g89
g70
NtRp1526
(dp1527
g73
(dp1528
sg82
g1513
sg75
(lp1529
g68
(g69
g70
NtRp1530
(dp1531
g73
(dp1532
g81
I4
ssg82
g1526
sg75
(lp1533
S''
asbasbasbag68
(g84
g70
NtRp1534
(dp1535
g73
(dp1536
sg82
g858
sg75
(lp1537
g68
(g89
g70
NtRp1538
(dp1539
g73
(dp1540
g93
g94
ssg82
g1534
sg75
(lp1541
S'remote_addr'
p1542
asbag68
(g89
g70
NtRp1543
(dp1544
g73
(dp1545
g100
g101
ssg82
g1534
sg75
(lp1546
S':'
asbag68
(g89
g70
NtRp1547
(dp1548
g73
(dp1549
sg82
g1534
sg75
(lp1550
g68
(g69
g70
NtRp1551
(dp1552
g73
(dp1553
g81
I4
ssg82
g1547
sg75
(lp1554
g223
asbasbasbag68
(g84
g70
NtRp1555
(dp1556
g73
(dp1557
sg82
g858
sg75
(lp1558
g68
(g89
g70
NtRp1559
(dp1560
g73
(dp1561
g93
g94
ssg82
g1555
sg75
(lp1562
S'remote_port'
p1563
asbag68
(g89
g70
NtRp1564
(dp1565
g73
(dp1566
g100
g101
ssg82
g1555
sg75
(lp1567
S':'
asbag68
(g89
g70
NtRp1568
(dp1569
g73
(dp1570
sg82
g1555
sg75
(lp1571
g68
(g69
g70
NtRp1572
(dp1573
g73
(dp1574
g81
I4
ssg82
g1568
sg75
(lp1575
S'51016'
p1576
asbasbasbag68
(g84
g70
NtRp1577
(dp1578
g73
(dp1579
sg82
g858
sg75
(lp1580
g68
(g89
g70
NtRp1581
(dp1582
g73
(dp1583
g93
g94
ssg82
g1577
sg75
(lp1584
S'request_method'
p1585
asbag68
(g89
g70
NtRp1586
(dp1587
g73
(dp1588
g100
g101
ssg82
g1577
sg75
(lp1589
S':'
asbag68
(g89
g70
NtRp1590
(dp1591
g73
(dp1592
sg82
g1577
sg75
(lp1593
g68
(g69
g70
NtRp1594
(dp1595
g73
(dp1596
g81
I4
ssg82
g1590
sg75
(lp1597
S'POST'
p1598
asbasbasbag68
(g84
g70
NtRp1599
(dp1600
g73
(dp1601
sg82
g858
sg75
(lp1602
g68
(g89
g70
NtRp1603
(dp1604
g73
(dp1605
g93
g94
ssg82
g1599
sg75
(lp1606
S'request_uri'
p1607
asbag68
(g89
g70
NtRp1608
(dp1609
g73
(dp1610
g100
g101
ssg82
g1599
sg75
(lp1611
S':'
asbag68
(g89
g70
NtRp1612
(dp1613
g73
(dp1614
sg82
g1599
sg75
(lp1615
g68
(g69
g70
NtRp1616
(dp1617
g73
(dp1618
g81
I4
ssg82
g1612
sg75
(lp1619
g1512
asbasbasbag68
(g84
g70
NtRp1620
(dp1621
g73
(dp1622
sg82
g858
sg75
(lp1623
g68
(g89
g70
NtRp1624
(dp1625
g73
(dp1626
g93
g94
ssg82
g1620
sg75
(lp1627
S'script_name'
p1628
asbag68
(g89
g70
NtRp1629
(dp1630
g73
(dp1631
g100
g101
ssg82
g1620
sg75
(lp1632
S':'
asbag68
(g89
g70
NtRp1633
(dp1634
g73
(dp1635
sg82
g1620
sg75
(lp1636
g68
(g69
g70
NtRp1637
(dp1638
g73
(dp1639
g81
I4
ssg82
g1633
sg75
(lp1640
S''
asbasbasbag68
(g84
g70
NtRp1641
(dp1642
g73
(dp1643
sg82
g858
sg75
(lp1644
g68
(g89
g70
NtRp1645
(dp1646
g73
(dp1647
g93
g94
ssg82
g1641
sg75
(lp1648
S'server_name'
p1649
asbag68
(g89
g70
NtRp1650
(dp1651
g73
(dp1652
g100
g101
ssg82
g1641
sg75
(lp1653
S':'
asbag68
(g89
g70
NtRp1654
(dp1655
g73
(dp1656
sg82
g1641
sg75
(lp1657
g68
(g69
g70
NtRp1658
(dp1659
g73
(dp1660
g81
I4
ssg82
g1654
sg75
(lp1661
S'PeritoMascao.local'
p1662
asbasbasbag68
(g84
g70
NtRp1663
(dp1664
g73
(dp1665
sg82
g858
sg75
(lp1666
g68
(g89
g70
NtRp1667
(dp1668
g73
(dp1669
g93
g94
ssg82
g1663
sg75
(lp1670
S'server_port'
p1671
asbag68
(g89
g70
NtRp1672
(dp1673
g73
(dp1674
g100
g101
ssg82
g1663
sg75
(lp1675
S':'
asbag68
(g89
g70
NtRp1676
(dp1677
g73
(dp1678
sg82
g1663
sg75
(lp1679
g68
(g69
g70
NtRp1680
(dp1681
g73
(dp1682
g81
I4
ssg82
g1676
sg75
(lp1683
S'8000'
p1684
asbasbasbag68
(g84
g70
NtRp1685
(dp1686
g73
(dp1687
sg82
g858
sg75
(lp1688
g68
(g89
g70
NtRp1689
(dp1690
g73
(dp1691
g93
g94
ssg82
g1685
sg75
(lp1692
S'server_protocol'
p1693
asbag68
(g89
g70
NtRp1694
(dp1695
g73
(dp1696
g100
g101
ssg82
g1685
sg75
(lp1697
S':'
asbag68
(g89
g70
NtRp1698
(dp1699
g73
(dp1700
sg82
g1685
sg75
(lp1701
g68
(g69
g70
NtRp1702
(dp1703
g73
(dp1704
g81
I4
ssg82
g1698
sg75
(lp1705
S'HTTP/1.1'
p1706
asbasbasbag68
(g84
g70
NtRp1707
(dp1708
g73
(dp1709
sg82
g858
sg75
(lp1710
g68
(g89
g70
NtRp1711
(dp1712
g73
(dp1713
g93
g94
ssg82
g1707
sg75
(lp1714
S'server_software'
p1715
asbag68
(g89
g70
NtRp1716
(dp1717
g73
(dp1718
g100
g101
ssg82
g1707
sg75
(lp1719
S':'
asbag68
(g89
g70
NtRp1720
(dp1721
g73
(dp1722
sg82
g1707
sg75
(lp1723
g68
(g69
g70
NtRp1724
(dp1725
g73
(dp1726
g81
I4
ssg82
g1720
sg75
(lp1727
S'Rocket 1.2.6'
p1728
asbasbasbag68
(g84
g70
NtRp1729
(dp1730
g73
(dp1731
sg82
g858
sg75
(lp1732
g68
(g89
g70
NtRp1733
(dp1734
g73
(dp1735
g93
g94
ssg82
g1729
sg75
(lp1736
S'web2py_path'
p1737
asbag68
(g89
g70
NtRp1738
(dp1739
g73
(dp1740
g100
g101
ssg82
g1729
sg75
(lp1741
S':'
asbag68
(g89
g70
NtRp1742
(dp1743
g73
(dp1744
sg82
g1729
sg75
(lp1745
g68
(g69
g70
NtRp1746
(dp1747
g73
(dp1748
g81
I4
ssg82
g1742
sg75
(lp1749
g905
asbasbasbag68
(g84
g70
NtRp1750
(dp1751
g73
(dp1752
sg82
g858
sg75
(lp1753
g68
(g89
g70
NtRp1754
(dp1755
g73
(dp1756
g93
g94
ssg82
g1750
sg75
(lp1757
S'web2py_version'
p1758
asbag68
(g89
g70
NtRp1759
(dp1760
g73
(dp1761
g100
g101
ssg82
g1750
sg75
(lp1762
S':'
asbag68
(g89
g70
NtRp1763
(dp1764
g73
(dp1765
sg82
g1750
sg75
(lp1766
g68
(g69
g70
NtRp1767
(dp1768
g73
(dp1769
g81
I4
ssg82
g1763
sg75
(lp1770
g68
(g77
g70
NtRp1771
(dp1772
g73
(dp1773
g81
I3
ssg82
Nsg75
(lp1774
g68
(g84
g70
NtRp1775
(dp1776
g73
(dp1777
sg82
g1771
sg75
(lp1778
g68
(g89
g70
NtRp1779
(dp1780
g73
(dp1781
sg82
g1775
sg75
(lp1782
g68
(g69
g70
NtRp1783
(dp1784
g73
(dp1785
g81
I3
ssg82
g1779
sg75
(lp1786
S'2'
asbasbasbag68
(g84
g70
NtRp1787
(dp1788
g73
(dp1789
sg82
g1771
sg75
(lp1790
g68
(g89
g70
NtRp1791
(dp1792
g73
(dp1793
sg82
g1787
sg75
(lp1794
g68
(g69
g70
NtRp1795
(dp1796
g73
(dp1797
g81
I3
ssg82
g1791
sg75
(lp1798
S'3'
asbasbasbag68
(g84
g70
NtRp1799
(dp1800
g73
(dp1801
sg82
g1771
sg75
(lp1802
g68
(g89
g70
NtRp1803
(dp1804
g73
(dp1805
sg82
g1799
sg75
(lp1806
g68
(g69
g70
NtRp1807
(dp1808
g73
(dp1809
g81
I3
ssg82
g1803
sg75
(lp1810
S'2'
asbasbasbag68
(g84
g70
NtRp1811
(dp1812
g73
(dp1813
sg82
g1771
sg75
(lp1814
g68
(g89
g70
NtRp1815
(dp1816
g73
(dp1817
sg82
g1811
sg75
(lp1818
g68
(g69
g70
NtRp1819
(dp1820
g73
(dp1821
g81
I3
ssg82
g1815
sg75
(lp1822
S'datetime.datetime(2012, 12, 17, 15, 3, 30)'
p1823
asbasbasbag68
(g84
g70
NtRp1824
(dp1825
g73
(dp1826
sg82
g1771
sg75
(lp1827
g68
(g89
g70
NtRp1828
(dp1829
g73
(dp1830
sg82
g1824
sg75
(lp1831
g68
(g69
g70
NtRp1832
(dp1833
g73
(dp1834
g81
I3
ssg82
g1828
sg75
(lp1835
S'stable'
p1836
asbasbasbasbasbasbasbag68
(g84
g70
NtRp1837
(dp1838
g73
(dp1839
sg82
g858
sg75
(lp1840
g68
(g89
g70
NtRp1841
(dp1842
g73
(dp1843
g93
g94
ssg82
g1837
sg75
(lp1844
S'wsgi_errors'
p1845
asbag68
(g89
g70
NtRp1846
(dp1847
g73
(dp1848
g100
g101
ssg82
g1837
sg75
(lp1849
S':'
asbag68
(g89
g70
NtRp1850
(dp1851
g73
(dp1852
sg82
g1837
sg75
(lp1853
g68
(g69
g70
NtRp1854
(dp1855
g73
(dp1856
g81
I4
ssg82
g1850
sg75
(lp1857
S"<open file '<stderr>', mode 'w' at 0x10a853270>"
p1858
asbasbasbag68
(g84
g70
NtRp1859
(dp1860
g73
(dp1861
sg82
g858
sg75
(lp1862
g68
(g89
g70
NtRp1863
(dp1864
g73
(dp1865
g93
g94
ssg82
g1859
sg75
(lp1866
S'wsgi_file_wrapper'
p1867
asbag68
(g89
g70
NtRp1868
(dp1869
g73
(dp1870
g100
g101
ssg82
g1859
sg75
(lp1871
S':'
asbag68
(g89
g70
NtRp1872
(dp1873
g73
(dp1874
sg82
g1859
sg75
(lp1875
g68
(g69
g70
NtRp1876
(dp1877
g73
(dp1878
g81
I4
ssg82
g1872
sg75
(lp1879
S'<class wsgiref.util.FileWrapper at 0x10b5c0ae0>'
p1880
asbasbasbag68
(g84
g70
NtRp1881
(dp1882
g73
(dp1883
sg82
g858
sg75
(lp1884
g68
(g89
g70
NtRp1885
(dp1886
g73
(dp1887
g93
g94
ssg82
g1881
sg75
(lp1888
S'wsgi_input'
p1889
asbag68
(g89
g70
NtRp1890
(dp1891
g73
(dp1892
g100
g101
ssg82
g1881
sg75
(lp1893
S':'
asbag68
(g89
g70
NtRp1894
(dp1895
g73
(dp1896
sg82
g1881
sg75
(lp1897
g68
(g69
g70
NtRp1898
(dp1899
g73
(dp1900
g81
I4
ssg82
g1894
sg75
(lp1901
S'<socket._fileobject object at 0x10f7d14d0>'
p1902
asbasbasbag68
(g84
g70
NtRp1903
(dp1904
g73
(dp1905
sg82
g858
sg75
(lp1906
g68
(g89
g70
NtRp1907
(dp1908
g73
(dp1909
g93
g94
ssg82
g1903
sg75
(lp1910
S'wsgi_multiprocess'
p1911
asbag68
(g89
g70
NtRp1912
(dp1913
g73
(dp1914
g100
g101
ssg82
g1903
sg75
(lp1915
S':'
asbag68
(g89
g70
NtRp1916
(dp1917
g73
(dp1918
sg82
g1903
sg75
(lp1919
g68
(g69
g70
NtRp1920
(dp1921
g73
(dp1922
g81
I4
ssg82
g1916
sg75
(lp1923
g111
asbasbasbag68
(g84
g70
NtRp1924
(dp1925
g73
(dp1926
sg82
g858
sg75
(lp1927
g68
(g89
g70
NtRp1928
(dp1929
g73
(dp1930
g93
g94
ssg82
g1924
sg75
(lp1931
S'wsgi_multithread'
p1932
asbag68
(g89
g70
NtRp1933
(dp1934
g73
(dp1935
g100
g101
ssg82
g1924
sg75
(lp1936
S':'
asbag68
(g89
g70
NtRp1937
(dp1938
g73
(dp1939
sg82
g1924
sg75
(lp1940
g68
(g69
g70
NtRp1941
(dp1942
g73
(dp1943
g81
I4
ssg82
g1937
sg75
(lp1944
S'True'
p1945
asbasbasbag68
(g84
g70
NtRp1946
(dp1947
g73
(dp1948
sg82
g858
sg75
(lp1949
g68
(g89
g70
NtRp1950
(dp1951
g73
(dp1952
g93
g94
ssg82
g1946
sg75
(lp1953
S'wsgi_run_once'
p1954
asbag68
(g89
g70
NtRp1955
(dp1956
g73
(dp1957
g100
g101
ssg82
g1946
sg75
(lp1958
S':'
asbag68
(g89
g70
NtRp1959
(dp1960
g73
(dp1961
sg82
g1946
sg75
(lp1962
g68
(g69
g70
NtRp1963
(dp1964
g73
(dp1965
g81
I4
ssg82
g1959
sg75
(lp1966
g111
asbasbasbag68
(g84
g70
NtRp1967
(dp1968
g73
(dp1969
sg82
g858
sg75
(lp1970
g68
(g89
g70
NtRp1971
(dp1972
g73
(dp1973
g93
g94
ssg82
g1967
sg75
(lp1974
S'wsgi_url_scheme'
p1975
asbag68
(g89
g70
NtRp1976
(dp1977
g73
(dp1978
g100
g101
ssg82
g1967
sg75
(lp1979
S':'
asbag68
(g89
g70
NtRp1980
(dp1981
g73
(dp1982
sg82
g1967
sg75
(lp1983
g68
(g69
g70
NtRp1984
(dp1985
g73
(dp1986
g81
I4
ssg82
g1980
sg75
(lp1987
S'http'
p1988
asbasbasbag68
(g84
g70
NtRp1989
(dp1990
g73
(dp1991
sg82
g858
sg75
(lp1992
g68
(g89
g70
NtRp1993
(dp1994
g73
(dp1995
g93
g94
ssg82
g1989
sg75
(lp1996
S'wsgi_version'
p1997
asbag68
(g89
g70
NtRp1998
(dp1999
g73
(dp2000
g100
g101
ssg82
g1989
sg75
(lp2001
S':'
asbag68
(g89
g70
NtRp2002
(dp2003
g73
(dp2004
sg82
g1989
sg75
(lp2005
g68
(g69
g70
NtRp2006
(dp2007
g73
(dp2008
g81
I4
ssg82
g2002
sg75
(lp2009
g68
(g77
g70
NtRp2010
(dp2011
g73
(dp2012
g81
I3
ssg82
Nsg75
(lp2013
g68
(g84
g70
NtRp2014
(dp2015
g73
(dp2016
sg82
g2010
sg75
(lp2017
g68
(g89
g70
NtRp2018
(dp2019
g73
(dp2020
sg82
g2014
sg75
(lp2021
g68
(g69
g70
NtRp2022
(dp2023
g73
(dp2024
g81
I3
ssg82
g2018
sg75
(lp2025
S'1'
asbasbasbag68
(g84
g70
NtRp2026
(dp2027
g73
(dp2028
sg82
g2010
sg75
(lp2029
g68
(g89
g70
NtRp2030
(dp2031
g73
(dp2032
sg82
g2026
sg75
(lp2033
g68
(g69
g70
NtRp2034
(dp2035
g73
(dp2036
g81
I3
ssg82
g2030
sg75
(lp2037
S'0'
asbasbasbasbasbasbasbasbasbasbasbag68
(g84
g70
NtRp2038
(dp2039
g73
(dp2040
sg82
g78
sg75
(lp2041
g68
(g89
g70
NtRp2042
(dp2043
g73
(dp2044
g93
g94
ssg82
g2038
sg75
(lp2045
S'extension'
p2046
asbag68
(g89
g70
NtRp2047
(dp2048
g73
(dp2049
g100
g101
ssg82
g2038
sg75
(lp2050
S':'
asbag68
(g89
g70
NtRp2051
(dp2052
g73
(dp2053
sg82
g2038
sg75
(lp2054
g68
(g69
g70
NtRp2055
(dp2056
g73
(dp2057
g81
I5
ssg82
g2051
sg75
(lp2058
S'html'
p2059
asbasbasbag68
(g84
g70
NtRp2060
(dp2061
g73
(dp2062
sg82
g78
sg75
(lp2063
g68
(g89
g70
NtRp2064
(dp2065
g73
(dp2066
g93
g94
ssg82
g2060
sg75
(lp2067
S'folder'
p2068
asbag68
(g89
g70
NtRp2069
(dp2070
g73
(dp2071
g100
g101
ssg82
g2060
sg75
(lp2072
S':'
asbag68
(g89
g70
NtRp2073
(dp2074
g73
(dp2075
sg82
g2060
sg75
(lp2076
g68
(g69
g70
NtRp2077
(dp2078
g73
(dp2079
g81
I5
ssg82
g2073
sg75
(lp2080
S'/Users/Truki/Desarrollo/web2py/applications/rosan/'
p2081
asbasbasbag68
(g84
g70
NtRp2082
(dp2083
g73
(dp2084
sg82
g78
sg75
(lp2085
g68
(g89
g70
NtRp2086
(dp2087
g73
(dp2088
g93
g94
ssg82
g2082
sg75
(lp2089
S'function'
p2090
asbag68
(g89
g70
NtRp2091
(dp2092
g73
(dp2093
g100
g101
ssg82
g2082
sg75
(lp2094
S':'
asbag68
(g89
g70
NtRp2095
(dp2096
g73
(dp2097
sg82
g2082
sg75
(lp2098
g68
(g69
g70
NtRp2099
(dp2100
g73
(dp2101
g81
I5
ssg82
g2095
sg75
(lp2102
S'detalleFactura'
p2103
asbasbasbag68
(g84
g70
NtRp2104
(dp2105
g73
(dp2106
sg82
g78
sg75
(lp2107
g68
(g89
g70
NtRp2108
(dp2109
g73
(dp2110
g93
g94
ssg82
g2104
sg75
(lp2111
S'get_vars'
p2112
asbag68
(g89
g70
NtRp2113
(dp2114
g73
(dp2115
g100
g101
ssg82
g2104
sg75
(lp2116
S':'
asbag68
(g89
g70
NtRp2117
(dp2118
g73
(dp2119
sg82
g2104
sg75
(lp2120
g68
(g69
g70
NtRp2121
(dp2122
g73
(dp2123
g81
I5
ssg82
g2117
sg75
(lp2124
g68
(g77
g70
NtRp2125
(dp2126
g73
(dp2127
g81
I4
ssg82
Nsg75
(lp2128
sbasbasbasbag68
(g84
g70
NtRp2129
(dp2130
g73
(dp2131
sg82
g78
sg75
(lp2132
g68
(g89
g70
NtRp2133
(dp2134
g73
(dp2135
g93
g94
ssg82
g2129
sg75
(lp2136
S'global_settings'
p2137
asbag68
(g89
g70
NtRp2138
(dp2139
g73
(dp2140
g100
g101
ssg82
g2129
sg75
(lp2141
S':'
asbag68
(g89
g70
NtRp2142
(dp2143
g73
(dp2144
sg82
g2129
sg75
(lp2145
g68
(g69
g70
NtRp2146
(dp2147
g73
(dp2148
g81
I5
ssg82
g2142
sg75
(lp2149
g68
(g77
g70
NtRp2150
(dp2151
g73
(dp2152
g81
I4
ssg82
Nsg75
(lp2153
g68
(g84
g70
NtRp2154
(dp2155
g73
(dp2156
sg82
g2150
sg75
(lp2157
g68
(g89
g70
NtRp2158
(dp2159
g73
(dp2160
g93
g94
ssg82
g2154
sg75
(lp2161
g870
asbag68
(g89
g70
NtRp2162
(dp2163
g73
(dp2164
g100
g101
ssg82
g2154
sg75
(lp2165
S':'
asbag68
(g89
g70
NtRp2166
(dp2167
g73
(dp2168
sg82
g2154
sg75
(lp2169
g68
(g69
g70
NtRp2170
(dp2171
g73
(dp2172
g81
I4
ssg82
g2166
sg75
(lp2173
S"set(['/Users/Truki/Desarrollo/web2py/applications/welcome/', '/Users/Truki/Desarrollo/web2py/applications/rosan/', '/Users/Truki/Desarrollo/web2py/applications/admin/'])"
p2174
asbasbasbag68
(g84
g70
NtRp2175
(dp2176
g73
(dp2177
sg82
g2150
sg75
(lp2178
g68
(g89
g70
NtRp2179
(dp2180
g73
(dp2181
g93
g94
ssg82
g2175
sg75
(lp2182
g892
asbag68
(g89
g70
NtRp2183
(dp2184
g73
(dp2185
g100
g101
ssg82
g2175
sg75
(lp2186
S':'
asbag68
(g89
g70
NtRp2187
(dp2188
g73
(dp2189
sg82
g2175
sg75
(lp2190
g68
(g69
g70
NtRp2191
(dp2192
g73
(dp2193
g81
I4
ssg82
g2187
sg75
(lp2194
g905
asbasbasbag68
(g84
g70
NtRp2195
(dp2196
g73
(dp2197
sg82
g2150
sg75
(lp2198
g68
(g89
g70
NtRp2199
(dp2200
g73
(dp2201
g93
g94
ssg82
g2195
sg75
(lp2202
g914
asbag68
(g89
g70
NtRp2203
(dp2204
g73
(dp2205
g100
g101
ssg82
g2195
sg75
(lp2206
S':'
asbag68
(g89
g70
NtRp2207
(dp2208
g73
(dp2209
sg82
g2195
sg75
(lp2210
g68
(g69
g70
NtRp2211
(dp2212
g73
(dp2213
g81
I4
ssg82
g2207
sg75
(lp2214
g68
(g77
g70
NtRp2215
(dp2216
g73
(dp2217
g81
I3
ssg82
Nsg75
(lp2218
sbasbasbasbag68
(g84
g70
NtRp2219
(dp2220
g73
(dp2221
sg82
g2150
sg75
(lp2222
g68
(g89
g70
NtRp2223
(dp2224
g73
(dp2225
g93
g94
ssg82
g2219
sg75
(lp2226
g939
asbag68
(g89
g70
NtRp2227
(dp2228
g73
(dp2229
g100
g101
ssg82
g2219
sg75
(lp2230
S':'
asbag68
(g89
g70
NtRp2231
(dp2232
g73
(dp2233
sg82
g2219
sg75
(lp2234
g68
(g69
g70
NtRp2235
(dp2236
g73
(dp2237
g81
I4
ssg82
g2231
sg75
(lp2238
S"<Values at 0x10b621488: {'verbose': False, 'ip': '127.0.0.1', 'with_scheduler': False, 'ips': ['fe80::8e2d:aaff:fe4a:3d35%en1', '192.168.1.35'], 'shutdown_timeout': 5, 'taskbar': False, 'port': 8000, 'maxthreads': None, 'softcron': False, 'server_name': 'PeritoMascao.local', 'bpython': False, 'nogui': False, 'pid_filename': 'httpserver.pid', 'extcron': False, 'runcron': False, 'run_system_tests': False, 'test': None, 'folder': '/Users/Truki/Desarrollo/web2py', 'config': '', 'minthreads': None, 'winservice': '', 'shell': None, 'run': '', 'log_filename': 'httpserver.log', 'debuglevel': 30, 'args': [''], 'socket_timeout': 5, 'ssl_ca_certificate': None, 'scheduler': None, 'profiler_filename': None, 'ssl_private_key': '', 'scheduler_groups': None, 'password': '<ask>', 'request_queue_size': 5, 'ssl_certificate': '', 'cronjob': False, 'numthreads': None, 'quiet': False, 'interfaces': None, 'import_models': False, 'timeout': 10, 'plain': False, 'nobanner': False}>"
p2239
asbasbasbag68
(g84
g70
NtRp2240
(dp2241
g73
(dp2242
sg82
g2150
sg75
(lp2243
g68
(g89
g70
NtRp2244
(dp2245
g73
(dp2246
g93
g94
ssg82
g2240
sg75
(lp2247
g1005
asbag68
(g89
g70
NtRp2248
(dp2249
g73
(dp2250
g100
g101
ssg82
g2240
sg75
(lp2251
S':'
asbag68
(g89
g70
NtRp2252
(dp2253
g73
(dp2254
sg82
g2240
sg75
(lp2255
g68
(g69
g70
NtRp2256
(dp2257
g73
(dp2258
g81
I4
ssg82
g2252
sg75
(lp2259
S'set([])'
p2260
asbasbasbag68
(g84
g70
NtRp2261
(dp2262
g73
(dp2263
sg82
g2150
sg75
(lp2264
g68
(g89
g70
NtRp2265
(dp2266
g73
(dp2267
g93
g94
ssg82
g2261
sg75
(lp2268
g1027
asbag68
(g89
g70
NtRp2269
(dp2270
g73
(dp2271
g100
g101
ssg82
g2261
sg75
(lp2272
S':'
asbag68
(g89
g70
NtRp2273
(dp2274
g73
(dp2275
sg82
g2261
sg75
(lp2276
g68
(g69
g70
NtRp2277
(dp2278
g73
(dp2279
g81
I4
ssg82
g2273
sg75
(lp2280
g111
asbasbasbag68
(g84
g70
NtRp2281
(dp2282
g73
(dp2283
sg82
g2150
sg75
(lp2284
g68
(g89
g70
NtRp2285
(dp2286
g73
(dp2287
g93
g94
ssg82
g2281
sg75
(lp2288
g1048
asbag68
(g89
g70
NtRp2289
(dp2290
g73
(dp2291
g100
g101
ssg82
g2281
sg75
(lp2292
S':'
asbag68
(g89
g70
NtRp2293
(dp2294
g73
(dp2295
sg82
g2281
sg75
(lp2296
g68
(g69
g70
NtRp2297
(dp2298
g73
(dp2299
g81
I4
ssg82
g2293
sg75
(lp2300
g1061
asbasbasbag68
(g84
g70
NtRp2301
(dp2302
g73
(dp2303
sg82
g2150
sg75
(lp2304
g68
(g89
g70
NtRp2305
(dp2306
g73
(dp2307
g93
g94
ssg82
g2301
sg75
(lp2308
g1354
asbag68
(g89
g70
NtRp2309
(dp2310
g73
(dp2311
g100
g101
ssg82
g2301
sg75
(lp2312
S':'
asbag68
(g89
g70
NtRp2313
(dp2314
g73
(dp2315
sg82
g2301
sg75
(lp2316
g68
(g69
g70
NtRp2317
(dp2318
g73
(dp2319
g81
I4
ssg82
g2313
sg75
(lp2320
g111
asbasbasbag68
(g84
g70
NtRp2321
(dp2322
g73
(dp2323
sg82
g2150
sg75
(lp2324
g68
(g89
g70
NtRp2325
(dp2326
g73
(dp2327
g93
g94
ssg82
g2321
sg75
(lp2328
g1375
asbag68
(g89
g70
NtRp2329
(dp2330
g73
(dp2331
g100
g101
ssg82
g2321
sg75
(lp2332
S':'
asbag68
(g89
g70
NtRp2333
(dp2334
g73
(dp2335
sg82
g2321
sg75
(lp2336
g68
(g69
g70
NtRp2337
(dp2338
g73
(dp2339
g81
I4
ssg82
g2333
sg75
(lp2340
g111
asbasbasbag68
(g84
g70
NtRp2341
(dp2342
g73
(dp2343
sg82
g2150
sg75
(lp2344
g68
(g89
g70
NtRp2345
(dp2346
g73
(dp2347
g93
g94
ssg82
g2341
sg75
(lp2348
g1396
asbag68
(g89
g70
NtRp2349
(dp2350
g73
(dp2351
g100
g101
ssg82
g2341
sg75
(lp2352
S':'
asbag68
(g89
g70
NtRp2353
(dp2354
g73
(dp2355
sg82
g2341
sg75
(lp2356
g68
(g69
g70
NtRp2357
(dp2358
g73
(dp2359
g81
I4
ssg82
g2353
sg75
(lp2360
g68
(g77
g70
NtRp2361
(dp2362
g73
(dp2363
g81
I3
ssg82
Nsg75
(lp2364
g68
(g84
g70
NtRp2365
(dp2366
g73
(dp2367
sg82
g2361
sg75
(lp2368
g68
(g89
g70
NtRp2369
(dp2370
g73
(dp2371
sg82
g2365
sg75
(lp2372
g68
(g69
g70
NtRp2373
(dp2374
g73
(dp2375
g81
I3
ssg82
g2369
sg75
(lp2376
g1425
asbasbasbag68
(g84
g70
NtRp2377
(dp2378
g73
(dp2379
sg82
g2361
sg75
(lp2380
g68
(g89
g70
NtRp2381
(dp2382
g73
(dp2383
sg82
g2377
sg75
(lp2384
g68
(g69
g70
NtRp2385
(dp2386
g73
(dp2387
g81
I3
ssg82
g2381
sg75
(lp2388
g1438
asbasbasbag68
(g84
g70
NtRp2389
(dp2390
g73
(dp2391
sg82
g2361
sg75
(lp2392
g68
(g89
g70
NtRp2393
(dp2394
g73
(dp2395
sg82
g2389
sg75
(lp2396
g68
(g69
g70
NtRp2397
(dp2398
g73
(dp2399
g81
I3
ssg82
g2393
sg75
(lp2400
g1451
asbasbasbag68
(g84
g70
NtRp2401
(dp2402
g73
(dp2403
sg82
g2361
sg75
(lp2404
g68
(g89
g70
NtRp2405
(dp2406
g73
(dp2407
sg82
g2401
sg75
(lp2408
g68
(g69
g70
NtRp2409
(dp2410
g73
(dp2411
g81
I3
ssg82
g2405
sg75
(lp2412
g1464
asbasbasbag68
(g84
g70
NtRp2413
(dp2414
g73
(dp2415
sg82
g2361
sg75
(lp2416
g68
(g89
g70
NtRp2417
(dp2418
g73
(dp2419
sg82
g2413
sg75
(lp2420
g68
(g69
g70
NtRp2421
(dp2422
g73
(dp2423
g81
I3
ssg82
g2417
sg75
(lp2424
g1477
asbasbasbag68
(g84
g70
NtRp2425
(dp2426
g73
(dp2427
sg82
g2361
sg75
(lp2428
g68
(g89
g70
NtRp2429
(dp2430
g73
(dp2431
sg82
g2425
sg75
(lp2432
g68
(g69
g70
NtRp2433
(dp2434
g73
(dp2435
g81
I3
ssg82
g2429
sg75
(lp2436
g1490
asbasbasbasbasbasbasbag68
(g84
g70
NtRp2437
(dp2438
g73
(dp2439
sg82
g2150
sg75
(lp2440
g68
(g89
g70
NtRp2441
(dp2442
g73
(dp2443
g93
g94
ssg82
g2437
sg75
(lp2444
g1758
asbag68
(g89
g70
NtRp2445
(dp2446
g73
(dp2447
g100
g101
ssg82
g2437
sg75
(lp2448
S':'
asbag68
(g89
g70
NtRp2449
(dp2450
g73
(dp2451
sg82
g2437
sg75
(lp2452
g68
(g69
g70
NtRp2453
(dp2454
g73
(dp2455
g81
I4
ssg82
g2449
sg75
(lp2456
g68
(g77
g70
NtRp2457
(dp2458
g73
(dp2459
g81
I3
ssg82
Nsg75
(lp2460
g68
(g84
g70
NtRp2461
(dp2462
g73
(dp2463
sg82
g2457
sg75
(lp2464
g68
(g89
g70
NtRp2465
(dp2466
g73
(dp2467
sg82
g2461
sg75
(lp2468
g68
(g69
g70
NtRp2469
(dp2470
g73
(dp2471
g81
I3
ssg82
g2465
sg75
(lp2472
S'2'
asbasbasbag68
(g84
g70
NtRp2473
(dp2474
g73
(dp2475
sg82
g2457
sg75
(lp2476
g68
(g89
g70
NtRp2477
(dp2478
g73
(dp2479
sg82
g2473
sg75
(lp2480
g68
(g69
g70
NtRp2481
(dp2482
g73
(dp2483
g81
I3
ssg82
g2477
sg75
(lp2484
S'3'
asbasbasbag68
(g84
g70
NtRp2485
(dp2486
g73
(dp2487
sg82
g2457
sg75
(lp2488
g68
(g89
g70
NtRp2489
(dp2490
g73
(dp2491
sg82
g2485
sg75
(lp2492
g68
(g69
g70
NtRp2493
(dp2494
g73
(dp2495
g81
I3
ssg82
g2489
sg75
(lp2496
S'2'
asbasbasbag68
(g84
g70
NtRp2497
(dp2498
g73
(dp2499
sg82
g2457
sg75
(lp2500
g68
(g89
g70
NtRp2501
(dp2502
g73
(dp2503
sg82
g2497
sg75
(lp2504
g68
(g69
g70
NtRp2505
(dp2506
g73
(dp2507
g81
I3
ssg82
g2501
sg75
(lp2508
S'datetime.datetime(2012, 12, 17, 15, 3, 30)'
p2509
asbasbasbag68
(g84
g70
NtRp2510
(dp2511
g73
(dp2512
sg82
g2457
sg75
(lp2513
g68
(g89
g70
NtRp2514
(dp2515
g73
(dp2516
sg82
g2510
sg75
(lp2517
g68
(g69
g70
NtRp2518
(dp2519
g73
(dp2520
g81
I3
ssg82
g2514
sg75
(lp2521
g1836
asbasbasbasbasbasbasbasbasbasbasbag68
(g84
g70
NtRp2522
(dp2523
g73
(dp2524
sg82
g78
sg75
(lp2525
g68
(g89
g70
NtRp2526
(dp2527
g73
(dp2528
g93
g94
ssg82
g2522
sg75
(lp2529
S'is_https'
p2530
asbag68
(g89
g70
NtRp2531
(dp2532
g73
(dp2533
g100
g101
ssg82
g2522
sg75
(lp2534
S':'
asbag68
(g89
g70
NtRp2535
(dp2536
g73
(dp2537
sg82
g2522
sg75
(lp2538
g68
(g69
g70
NtRp2539
(dp2540
g73
(dp2541
g81
I5
ssg82
g2535
sg75
(lp2542
g111
asbasbasbag68
(g84
g70
NtRp2543
(dp2544
g73
(dp2545
sg82
g78
sg75
(lp2546
g68
(g89
g70
NtRp2547
(dp2548
g73
(dp2549
g93
g94
ssg82
g2543
sg75
(lp2550
S'is_local'
p2551
asbag68
(g89
g70
NtRp2552
(dp2553
g73
(dp2554
g100
g101
ssg82
g2543
sg75
(lp2555
S':'
asbag68
(g89
g70
NtRp2556
(dp2557
g73
(dp2558
sg82
g2543
sg75
(lp2559
g68
(g69
g70
NtRp2560
(dp2561
g73
(dp2562
g81
I5
ssg82
g2556
sg75
(lp2563
g1945
asbasbasbag68
(g84
g70
NtRp2564
(dp2565
g73
(dp2566
sg82
g78
sg75
(lp2567
g68
(g89
g70
NtRp2568
(dp2569
g73
(dp2570
g93
g94
ssg82
g2564
sg75
(lp2571
S'is_restful'
p2572
asbag68
(g89
g70
NtRp2573
(dp2574
g73
(dp2575
g100
g101
ssg82
g2564
sg75
(lp2576
S':'
asbag68
(g89
g70
NtRp2577
(dp2578
g73
(dp2579
sg82
g2564
sg75
(lp2580
g68
(g69
g70
NtRp2581
(dp2582
g73
(dp2583
g81
I5
ssg82
g2577
sg75
(lp2584
g111
asbasbasbag68
(g84
g70
NtRp2585
(dp2586
g73
(dp2587
sg82
g78
sg75
(lp2588
g68
(g89
g70
NtRp2589
(dp2590
g73
(dp2591
g93
g94
ssg82
g2585
sg75
(lp2592
S'now'
p2593
asbag68
(g89
g70
NtRp2594
(dp2595
g73
(dp2596
g100
g101
ssg82
g2585
sg75
(lp2597
S':'
asbag68
(g89
g70
NtRp2598
(dp2599
g73
(dp2600
sg82
g2585
sg75
(lp2601
g68
(g69
g70
NtRp2602
(dp2603
g73
(dp2604
g81
I5
ssg82
g2598
sg75
(lp2605
S'datetime.datetime(2013, 2, 13, 23, 57, 48, 212885)'
p2606
asbasbasbag68
(g84
g70
NtRp2607
(dp2608
g73
(dp2609
sg82
g78
sg75
(lp2610
g68
(g89
g70
NtRp2611
(dp2612
g73
(dp2613
g93
g94
ssg82
g2607
sg75
(lp2614
S'post_vars'
p2615
asbag68
(g89
g70
NtRp2616
(dp2617
g73
(dp2618
g100
g101
ssg82
g2607
sg75
(lp2619
S':'
asbag68
(g89
g70
NtRp2620
(dp2621
g73
(dp2622
sg82
g2607
sg75
(lp2623
g68
(g69
g70
NtRp2624
(dp2625
g73
(dp2626
g81
I5
ssg82
g2620
sg75
(lp2627
g68
(g77
g70
NtRp2628
(dp2629
g73
(dp2630
g81
I4
ssg82
Nsg75
(lp2631
g68
(g84
g70
NtRp2632
(dp2633
g73
(dp2634
sg82
g2628
sg75
(lp2635
g68
(g89
g70
NtRp2636
(dp2637
g73
(dp2638
g93
g94
ssg82
g2632
sg75
(lp2639
S'cantidad'
p2640
asbag68
(g89
g70
NtRp2641
(dp2642
g73
(dp2643
g100
g101
ssg82
g2632
sg75
(lp2644
S':'
asbag68
(g89
g70
NtRp2645
(dp2646
g73
(dp2647
sg82
g2632
sg75
(lp2648
g68
(g69
g70
NtRp2649
(dp2650
g73
(dp2651
g81
I4
ssg82
g2645
sg75
(lp2652
S'134343'
p2653
asbasbasbag68
(g84
g70
NtRp2654
(dp2655
g73
(dp2656
sg82
g2628
sg75
(lp2657
g68
(g89
g70
NtRp2658
(dp2659
g73
(dp2660
g93
g94
ssg82
g2654
sg75
(lp2661
S'descripcion'
p2662
asbag68
(g89
g70
NtRp2663
(dp2664
g73
(dp2665
g100
g101
ssg82
g2654
sg75
(lp2666
S':'
asbag68
(g89
g70
NtRp2667
(dp2668
g73
(dp2669
sg82
g2654
sg75
(lp2670
g68
(g69
g70
NtRp2671
(dp2672
g73
(dp2673
g81
I4
ssg82
g2667
sg75
(lp2674
S''
asbasbasbasbasbasbasbag68
(g84
g70
NtRp2675
(dp2676
g73
(dp2677
sg82
g78
sg75
(lp2678
g68
(g89
g70
NtRp2679
(dp2680
g73
(dp2681
g93
g94
ssg82
g2675
sg75
(lp2682
S'raw_args'
p2683
asbag68
(g89
g70
NtRp2684
(dp2685
g73
(dp2686
g100
g101
ssg82
g2675
sg75
(lp2687
S':'
asbag68
(g89
g70
NtRp2688
(dp2689
g73
(dp2690
sg82
g2675
sg75
(lp2691
g68
(g69
g70
NtRp2692
(dp2693
g73
(dp2694
g81
I5
ssg82
g2688
sg75
(lp2695
S''
asbasbasbag68
(g84
g70
NtRp2696
(dp2697
g73
(dp2698
sg82
g78
sg75
(lp2699
g68
(g89
g70
NtRp2700
(dp2701
g73
(dp2702
g93
g94
ssg82
g2696
sg75
(lp2703
S'raw_extension'
p2704
asbag68
(g89
g70
NtRp2705
(dp2706
g73
(dp2707
g100
g101
ssg82
g2696
sg75
(lp2708
S':'
asbag68
(g89
g70
NtRp2709
(dp2710
g73
(dp2711
sg82
g2696
sg75
(lp2712
g68
(g69
g70
NtRp2713
(dp2714
g73
(dp2715
g81
I5
ssg82
g2709
sg75
(lp2716
S'None'
p2717
asbasbasbag68
(g84
g70
NtRp2718
(dp2719
g73
(dp2720
sg82
g78
sg75
(lp2721
g68
(g89
g70
NtRp2722
(dp2723
g73
(dp2724
g93
g94
ssg82
g2718
sg75
(lp2725
S'url'
p2726
asbag68
(g89
g70
NtRp2727
(dp2728
g73
(dp2729
g100
g101
ssg82
g2718
sg75
(lp2730
S':'
asbag68
(g89
g70
NtRp2731
(dp2732
g73
(dp2733
sg82
g2718
sg75
(lp2734
g68
(g69
g70
NtRp2735
(dp2736
g73
(dp2737
g81
I5
ssg82
g2731
sg75
(lp2738
g1512
asbasbasbag68
(g84
g70
NtRp2739
(dp2740
g73
(dp2741
sg82
g78
sg75
(lp2742
g68
(g89
g70
NtRp2743
(dp2744
g73
(dp2745
g93
g94
ssg82
g2739
sg75
(lp2746
S'utcnow'
p2747
asbag68
(g89
g70
NtRp2748
(dp2749
g73
(dp2750
g100
g101
ssg82
g2739
sg75
(lp2751
S':'
asbag68
(g89
g70
NtRp2752
(dp2753
g73
(dp2754
sg82
g2739
sg75
(lp2755
g68
(g69
g70
NtRp2756
(dp2757
g73
(dp2758
g81
I5
ssg82
g2752
sg75
(lp2759
S'datetime.datetime(2013, 2, 13, 22, 57, 48, 212894)'
p2760
asbasbasbag68
(g84
g70
NtRp2761
(dp2762
g73
(dp2763
sg82
g78
sg75
(lp2764
g68
(g89
g70
NtRp2765
(dp2766
g73
(dp2767
g93
g94
ssg82
g2761
sg75
(lp2768
S'uuid'
p2769
asbag68
(g89
g70
NtRp2770
(dp2771
g73
(dp2772
g100
g101
ssg82
g2761
sg75
(lp2773
S':'
asbag68
(g89
g70
NtRp2774
(dp2775
g73
(dp2776
sg82
g2761
sg75
(lp2777
g68
(g69
g70
NtRp2778
(dp2779
g73
(dp2780
g81
I5
ssg82
g2774
sg75
(lp2781
S'rosan/127.0.0.1.2013-02-13.23-57-48.6267ad4e-6c9b-46fa-8d5a-cccb739ddf60'
p2782
asbasbasbag68
(g84
g70
NtRp2783
(dp2784
g73
(dp2785
sg82
g78
sg75
(lp2786
g68
(g89
g70
NtRp2787
(dp2788
g73
(dp2789
g93
g94
ssg82
g2783
sg75
(lp2790
S'vars'
p2791
asbag68
(g89
g70
NtRp2792
(dp2793
g73
(dp2794
g100
g101
ssg82
g2783
sg75
(lp2795
S':'
asbag68
(g89
g70
NtRp2796
(dp2797
g73
(dp2798
sg82
g2783
sg75
(lp2799
g68
(g69
g70
NtRp2800
(dp2801
g73
(dp2802
g81
I5
ssg82
g2796
sg75
(lp2803
g68
(g77
g70
NtRp2804
(dp2805
g73
(dp2806
g81
I4
ssg82
Nsg75
(lp2807
g68
(g84
g70
NtRp2808
(dp2809
g73
(dp2810
sg82
g2804
sg75
(lp2811
g68
(g89
g70
NtRp2812
(dp2813
g73
(dp2814
g93
g94
ssg82
g2808
sg75
(lp2815
g2640
asbag68
(g89
g70
NtRp2816
(dp2817
g73
(dp2818
g100
g101
ssg82
g2808
sg75
(lp2819
S':'
asbag68
(g89
g70
NtRp2820
(dp2821
g73
(dp2822
sg82
g2808
sg75
(lp2823
g68
(g69
g70
NtRp2824
(dp2825
g73
(dp2826
g81
I4
ssg82
g2820
sg75
(lp2827
g2653
asbasbasbag68
(g84
g70
NtRp2828
(dp2829
g73
(dp2830
sg82
g2804
sg75
(lp2831
g68
(g89
g70
NtRp2832
(dp2833
g73
(dp2834
g93
g94
ssg82
g2828
sg75
(lp2835
g2662
asbag68
(g89
g70
NtRp2836
(dp2837
g73
(dp2838
g100
g101
ssg82
g2828
sg75
(lp2839
S':'
asbag68
(g89
g70
NtRp2840
(dp2841
g73
(dp2842
sg82
g2828
sg75
(lp2843
g68
(g69
g70
NtRp2844
(dp2845
g73
(dp2846
g81
I4
ssg82
g2840
sg75
(lp2847
S''
asbasbasbasbasbasbasbag68
(g84
g70
NtRp2848
(dp2849
g73
(dp2850
sg82
g78
sg75
(lp2851
g68
(g89
g70
NtRp2852
(dp2853
g73
(dp2854
g93
g94
ssg82
g2848
sg75
(lp2855
S'wsgi'
p2856
asbag68
(g89
g70
NtRp2857
(dp2858
g73
(dp2859
g100
g101
ssg82
g2848
sg75
(lp2860
S':'
asbag68
(g89
g70
NtRp2861
(dp2862
g73
(dp2863
sg82
g2848
sg75
(lp2864
g68
(g69
g70
NtRp2865
(dp2866
g73
(dp2867
g81
I5
ssg82
g2861
sg75
(lp2868
g68
(g77
g70
NtRp2869
(dp2870
g73
(dp2871
g81
I4
ssg82
Nsg75
(lp2872
g68
(g84
g70
NtRp2873
(dp2874
g73
(dp2875
sg82
g2869
sg75
(lp2876
g68
(g89
g70
NtRp2877
(dp2878
g73
(dp2879
g93
g94
ssg82
g2873
sg75
(lp2880
S'environ'
p2881
asbag68
(g89
g70
NtRp2882
(dp2883
g73
(dp2884
g100
g101
ssg82
g2873
sg75
(lp2885
S':'
asbag68
(g89
g70
NtRp2886
(dp2887
g73
(dp2888
sg82
g2873
sg75
(lp2889
g68
(g69
g70
NtRp2890
(dp2891
g73
(dp2892
g81
I4
ssg82
g2886
sg75
(lp2893
g68
(g77
g70
NtRp2894
(dp2895
g73
(dp2896
g81
I3
ssg82
Nsg75
(lp2897
g68
(g84
g70
NtRp2898
(dp2899
g73
(dp2900
sg82
g2894
sg75
(lp2901
g68
(g89
g70
NtRp2902
(dp2903
g73
(dp2904
g93
g94
ssg82
g2898
sg75
(lp2905
S'CONTENT_LENGTH'
p2906
asbag68
(g89
g70
NtRp2907
(dp2908
g73
(dp2909
g100
g101
ssg82
g2898
sg75
(lp2910
S':'
asbag68
(g89
g70
NtRp2911
(dp2912
g73
(dp2913
sg82
g2898
sg75
(lp2914
g68
(g69
g70
NtRp2915
(dp2916
g73
(dp2917
g81
I3
ssg82
g2911
sg75
(lp2918
g974
asbasbasbag68
(g84
g70
NtRp2919
(dp2920
g73
(dp2921
sg82
g2894
sg75
(lp2922
g68
(g89
g70
NtRp2923
(dp2924
g73
(dp2925
g93
g94
ssg82
g2919
sg75
(lp2926
S'CONTENT_TYPE'
p2927
asbag68
(g89
g70
NtRp2928
(dp2929
g73
(dp2930
g100
g101
ssg82
g2919
sg75
(lp2931
S':'
asbag68
(g89
g70
NtRp2932
(dp2933
g73
(dp2934
sg82
g2919
sg75
(lp2935
g68
(g69
g70
NtRp2936
(dp2937
g73
(dp2938
g81
I3
ssg82
g2932
sg75
(lp2939
g996
asbasbasbag68
(g84
g70
NtRp2940
(dp2941
g73
(dp2942
sg82
g2894
sg75
(lp2943
g68
(g89
g70
NtRp2944
(dp2945
g73
(dp2946
g93
g94
ssg82
g2940
sg75
(lp2947
S'HTTP_ACCEPT'
p2948
asbag68
(g89
g70
NtRp2949
(dp2950
g73
(dp2951
g100
g101
ssg82
g2940
sg75
(lp2952
S':'
asbag68
(g89
g70
NtRp2953
(dp2954
g73
(dp2955
sg82
g2940
sg75
(lp2956
g68
(g69
g70
NtRp2957
(dp2958
g73
(dp2959
g81
I3
ssg82
g2953
sg75
(lp2960
g1083
asbasbasbag68
(g84
g70
NtRp2961
(dp2962
g73
(dp2963
sg82
g2894
sg75
(lp2964
g68
(g89
g70
NtRp2965
(dp2966
g73
(dp2967
g93
g94
ssg82
g2961
sg75
(lp2968
S'HTTP_ACCEPT_CHARSET'
p2969
asbag68
(g89
g70
NtRp2970
(dp2971
g73
(dp2972
g100
g101
ssg82
g2961
sg75
(lp2973
S':'
asbag68
(g89
g70
NtRp2974
(dp2975
g73
(dp2976
sg82
g2961
sg75
(lp2977
g68
(g69
g70
NtRp2978
(dp2979
g73
(dp2980
g81
I3
ssg82
g2974
sg75
(lp2981
g1105
asbasbasbag68
(g84
g70
NtRp2982
(dp2983
g73
(dp2984
sg82
g2894
sg75
(lp2985
g68
(g89
g70
NtRp2986
(dp2987
g73
(dp2988
g93
g94
ssg82
g2982
sg75
(lp2989
S'HTTP_ACCEPT_ENCODING'
p2990
asbag68
(g89
g70
NtRp2991
(dp2992
g73
(dp2993
g100
g101
ssg82
g2982
sg75
(lp2994
S':'
asbag68
(g89
g70
NtRp2995
(dp2996
g73
(dp2997
sg82
g2982
sg75
(lp2998
g68
(g69
g70
NtRp2999
(dp3000
g73
(dp3001
g81
I3
ssg82
g2995
sg75
(lp3002
g1127
asbasbasbag68
(g84
g70
NtRp3003
(dp3004
g73
(dp3005
sg82
g2894
sg75
(lp3006
g68
(g89
g70
NtRp3007
(dp3008
g73
(dp3009
g93
g94
ssg82
g3003
sg75
(lp3010
S'HTTP_ACCEPT_LANGUAGE'
p3011
asbag68
(g89
g70
NtRp3012
(dp3013
g73
(dp3014
g100
g101
ssg82
g3003
sg75
(lp3015
S':'
asbag68
(g89
g70
NtRp3016
(dp3017
g73
(dp3018
sg82
g3003
sg75
(lp3019
g68
(g69
g70
NtRp3020
(dp3021
g73
(dp3022
g81
I3
ssg82
g3016
sg75
(lp3023
g1149
asbasbasbag68
(g84
g70
NtRp3024
(dp3025
g73
(dp3026
sg82
g2894
sg75
(lp3027
g68
(g89
g70
NtRp3028
(dp3029
g73
(dp3030
g93
g94
ssg82
g3024
sg75
(lp3031
S'HTTP_CACHE_CONTROL'
p3032
asbag68
(g89
g70
NtRp3033
(dp3034
g73
(dp3035
g100
g101
ssg82
g3024
sg75
(lp3036
S':'
asbag68
(g89
g70
NtRp3037
(dp3038
g73
(dp3039
sg82
g3024
sg75
(lp3040
g68
(g69
g70
NtRp3041
(dp3042
g73
(dp3043
g81
I3
ssg82
g3037
sg75
(lp3044
g1171
asbasbasbag68
(g84
g70
NtRp3045
(dp3046
g73
(dp3047
sg82
g2894
sg75
(lp3048
g68
(g89
g70
NtRp3049
(dp3050
g73
(dp3051
g93
g94
ssg82
g3045
sg75
(lp3052
S'HTTP_CONNECTION'
p3053
asbag68
(g89
g70
NtRp3054
(dp3055
g73
(dp3056
g100
g101
ssg82
g3045
sg75
(lp3057
S':'
asbag68
(g89
g70
NtRp3058
(dp3059
g73
(dp3060
sg82
g3045
sg75
(lp3061
g68
(g69
g70
NtRp3062
(dp3063
g73
(dp3064
g81
I3
ssg82
g3058
sg75
(lp3065
g1193
asbasbasbag68
(g84
g70
NtRp3066
(dp3067
g73
(dp3068
sg82
g2894
sg75
(lp3069
g68
(g89
g70
NtRp3070
(dp3071
g73
(dp3072
g93
g94
ssg82
g3066
sg75
(lp3073
S'HTTP_CONTENT_LENGTH'
p3074
asbag68
(g89
g70
NtRp3075
(dp3076
g73
(dp3077
g100
g101
ssg82
g3066
sg75
(lp3078
S':'
asbag68
(g89
g70
NtRp3079
(dp3080
g73
(dp3081
sg82
g3066
sg75
(lp3082
g68
(g69
g70
NtRp3083
(dp3084
g73
(dp3085
g81
I3
ssg82
g3079
sg75
(lp3086
g974
asbasbasbag68
(g84
g70
NtRp3087
(dp3088
g73
(dp3089
sg82
g2894
sg75
(lp3090
g68
(g89
g70
NtRp3091
(dp3092
g73
(dp3093
g93
g94
ssg82
g3087
sg75
(lp3094
S'HTTP_CONTENT_TYPE'
p3095
asbag68
(g89
g70
NtRp3096
(dp3097
g73
(dp3098
g100
g101
ssg82
g3087
sg75
(lp3099
S':'
asbag68
(g89
g70
NtRp3100
(dp3101
g73
(dp3102
sg82
g3087
sg75
(lp3103
g68
(g69
g70
NtRp3104
(dp3105
g73
(dp3106
g81
I3
ssg82
g3100
sg75
(lp3107
g996
asbasbasbag68
(g84
g70
NtRp3108
(dp3109
g73
(dp3110
sg82
g2894
sg75
(lp3111
g68
(g89
g70
NtRp3112
(dp3113
g73
(dp3114
g93
g94
ssg82
g3108
sg75
(lp3115
S'HTTP_COOKIE'
p3116
asbag68
(g89
g70
NtRp3117
(dp3118
g73
(dp3119
g100
g101
ssg82
g3108
sg75
(lp3120
S':'
asbag68
(g89
g70
NtRp3121
(dp3122
g73
(dp3123
sg82
g3108
sg75
(lp3124
g68
(g69
g70
NtRp3125
(dp3126
g73
(dp3127
g81
I3
ssg82
g3121
sg75
(lp3128
g1257
asbasbasbag68
(g84
g70
NtRp3129
(dp3130
g73
(dp3131
sg82
g2894
sg75
(lp3132
g68
(g89
g70
NtRp3133
(dp3134
g73
(dp3135
g93
g94
ssg82
g3129
sg75
(lp3136
S'HTTP_HOST'
p3137
asbag68
(g89
g70
NtRp3138
(dp3139
g73
(dp3140
g100
g101
ssg82
g3129
sg75
(lp3141
S':'
asbag68
(g89
g70
NtRp3142
(dp3143
g73
(dp3144
sg82
g3129
sg75
(lp3145
g68
(g69
g70
NtRp3146
(dp3147
g73
(dp3148
g81
I3
ssg82
g3142
sg75
(lp3149
g1279
asbasbasbag68
(g84
g70
NtRp3150
(dp3151
g73
(dp3152
sg82
g2894
sg75
(lp3153
g68
(g89
g70
NtRp3154
(dp3155
g73
(dp3156
g93
g94
ssg82
g3150
sg75
(lp3157
S'HTTP_ORIGIN'
p3158
asbag68
(g89
g70
NtRp3159
(dp3160
g73
(dp3161
g100
g101
ssg82
g3150
sg75
(lp3162
S':'
asbag68
(g89
g70
NtRp3163
(dp3164
g73
(dp3165
sg82
g3150
sg75
(lp3166
g68
(g69
g70
NtRp3167
(dp3168
g73
(dp3169
g81
I3
ssg82
g3163
sg75
(lp3170
g1301
asbasbasbag68
(g84
g70
NtRp3171
(dp3172
g73
(dp3173
sg82
g2894
sg75
(lp3174
g68
(g89
g70
NtRp3175
(dp3176
g73
(dp3177
g93
g94
ssg82
g3171
sg75
(lp3178
S'HTTP_REFERER'
p3179
asbag68
(g89
g70
NtRp3180
(dp3181
g73
(dp3182
g100
g101
ssg82
g3171
sg75
(lp3183
S':'
asbag68
(g89
g70
NtRp3184
(dp3185
g73
(dp3186
sg82
g3171
sg75
(lp3187
g68
(g69
g70
NtRp3188
(dp3189
g73
(dp3190
g81
I3
ssg82
g3184
sg75
(lp3191
g1323
asbasbasbag68
(g84
g70
NtRp3192
(dp3193
g73
(dp3194
sg82
g2894
sg75
(lp3195
g68
(g89
g70
NtRp3196
(dp3197
g73
(dp3198
g93
g94
ssg82
g3192
sg75
(lp3199
S'HTTP_USER_AGENT'
p3200
asbag68
(g89
g70
NtRp3201
(dp3202
g73
(dp3203
g100
g101
ssg82
g3192
sg75
(lp3204
S':'
asbag68
(g89
g70
NtRp3205
(dp3206
g73
(dp3207
sg82
g3192
sg75
(lp3208
g68
(g69
g70
NtRp3209
(dp3210
g73
(dp3211
g81
I3
ssg82
g3205
sg75
(lp3212
g1345
asbasbasbag68
(g84
g70
NtRp3213
(dp3214
g73
(dp3215
sg82
g2894
sg75
(lp3216
g68
(g89
g70
NtRp3217
(dp3218
g73
(dp3219
g93
g94
ssg82
g3213
sg75
(lp3220
S'PATH_INFO'
p3221
asbag68
(g89
g70
NtRp3222
(dp3223
g73
(dp3224
g100
g101
ssg82
g3213
sg75
(lp3225
S':'
asbag68
(g89
g70
NtRp3226
(dp3227
g73
(dp3228
sg82
g3213
sg75
(lp3229
g68
(g69
g70
NtRp3230
(dp3231
g73
(dp3232
g81
I3
ssg82
g3226
sg75
(lp3233
g1512
asbasbasbag68
(g84
g70
NtRp3234
(dp3235
g73
(dp3236
sg82
g2894
sg75
(lp3237
g68
(g89
g70
NtRp3238
(dp3239
g73
(dp3240
g93
g94
ssg82
g3234
sg75
(lp3241
S'QUERY_STRING'
p3242
asbag68
(g89
g70
NtRp3243
(dp3244
g73
(dp3245
g100
g101
ssg82
g3234
sg75
(lp3246
S':'
asbag68
(g89
g70
NtRp3247
(dp3248
g73
(dp3249
sg82
g3234
sg75
(lp3250
g68
(g69
g70
NtRp3251
(dp3252
g73
(dp3253
g81
I3
ssg82
g3247
sg75
(lp3254
S''
asbasbasbag68
(g84
g70
NtRp3255
(dp3256
g73
(dp3257
sg82
g2894
sg75
(lp3258
g68
(g89
g70
NtRp3259
(dp3260
g73
(dp3261
g93
g94
ssg82
g3255
sg75
(lp3262
S'REMOTE_ADDR'
p3263
asbag68
(g89
g70
NtRp3264
(dp3265
g73
(dp3266
g100
g101
ssg82
g3255
sg75
(lp3267
S':'
asbag68
(g89
g70
NtRp3268
(dp3269
g73
(dp3270
sg82
g3255
sg75
(lp3271
g68
(g69
g70
NtRp3272
(dp3273
g73
(dp3274
g81
I3
ssg82
g3268
sg75
(lp3275
g223
asbasbasbag68
(g84
g70
NtRp3276
(dp3277
g73
(dp3278
sg82
g2894
sg75
(lp3279
g68
(g89
g70
NtRp3280
(dp3281
g73
(dp3282
g93
g94
ssg82
g3276
sg75
(lp3283
S'REMOTE_PORT'
p3284
asbag68
(g89
g70
NtRp3285
(dp3286
g73
(dp3287
g100
g101
ssg82
g3276
sg75
(lp3288
S':'
asbag68
(g89
g70
NtRp3289
(dp3290
g73
(dp3291
sg82
g3276
sg75
(lp3292
g68
(g69
g70
NtRp3293
(dp3294
g73
(dp3295
g81
I3
ssg82
g3289
sg75
(lp3296
g1576
asbasbasbag68
(g84
g70
NtRp3297
(dp3298
g73
(dp3299
sg82
g2894
sg75
(lp3300
g68
(g89
g70
NtRp3301
(dp3302
g73
(dp3303
g93
g94
ssg82
g3297
sg75
(lp3304
S'REQUEST_METHOD'
p3305
asbag68
(g89
g70
NtRp3306
(dp3307
g73
(dp3308
g100
g101
ssg82
g3297
sg75
(lp3309
S':'
asbag68
(g89
g70
NtRp3310
(dp3311
g73
(dp3312
sg82
g3297
sg75
(lp3313
g68
(g69
g70
NtRp3314
(dp3315
g73
(dp3316
g81
I3
ssg82
g3310
sg75
(lp3317
g1598
asbasbasbag68
(g84
g70
NtRp3318
(dp3319
g73
(dp3320
sg82
g2894
sg75
(lp3321
g68
(g89
g70
NtRp3322
(dp3323
g73
(dp3324
g93
g94
ssg82
g3318
sg75
(lp3325
S'REQUEST_URI'
p3326
asbag68
(g89
g70
NtRp3327
(dp3328
g73
(dp3329
g100
g101
ssg82
g3318
sg75
(lp3330
S':'
asbag68
(g89
g70
NtRp3331
(dp3332
g73
(dp3333
sg82
g3318
sg75
(lp3334
g68
(g69
g70
NtRp3335
(dp3336
g73
(dp3337
g81
I3
ssg82
g3331
sg75
(lp3338
g1512
asbasbasbag68
(g84
g70
NtRp3339
(dp3340
g73
(dp3341
sg82
g2894
sg75
(lp3342
g68
(g89
g70
NtRp3343
(dp3344
g73
(dp3345
g93
g94
ssg82
g3339
sg75
(lp3346
S'SCRIPT_NAME'
p3347
asbag68
(g89
g70
NtRp3348
(dp3349
g73
(dp3350
g100
g101
ssg82
g3339
sg75
(lp3351
S':'
asbag68
(g89
g70
NtRp3352
(dp3353
g73
(dp3354
sg82
g3339
sg75
(lp3355
g68
(g69
g70
NtRp3356
(dp3357
g73
(dp3358
g81
I3
ssg82
g3352
sg75
(lp3359
S''
asbasbasbag68
(g84
g70
NtRp3360
(dp3361
g73
(dp3362
sg82
g2894
sg75
(lp3363
g68
(g89
g70
NtRp3364
(dp3365
g73
(dp3366
g93
g94
ssg82
g3360
sg75
(lp3367
S'SERVER_NAME'
p3368
asbag68
(g89
g70
NtRp3369
(dp3370
g73
(dp3371
g100
g101
ssg82
g3360
sg75
(lp3372
S':'
asbag68
(g89
g70
NtRp3373
(dp3374
g73
(dp3375
sg82
g3360
sg75
(lp3376
g68
(g69
g70
NtRp3377
(dp3378
g73
(dp3379
g81
I3
ssg82
g3373
sg75
(lp3380
g1662
asbasbasbag68
(g84
g70
NtRp3381
(dp3382
g73
(dp3383
sg82
g2894
sg75
(lp3384
g68
(g89
g70
NtRp3385
(dp3386
g73
(dp3387
g93
g94
ssg82
g3381
sg75
(lp3388
S'SERVER_PORT'
p3389
asbag68
(g89
g70
NtRp3390
(dp3391
g73
(dp3392
g100
g101
ssg82
g3381
sg75
(lp3393
S':'
asbag68
(g89
g70
NtRp3394
(dp3395
g73
(dp3396
sg82
g3381
sg75
(lp3397
g68
(g69
g70
NtRp3398
(dp3399
g73
(dp3400
g81
I3
ssg82
g3394
sg75
(lp3401
g1684
asbasbasbag68
(g84
g70
NtRp3402
(dp3403
g73
(dp3404
sg82
g2894
sg75
(lp3405
g68
(g89
g70
NtRp3406
(dp3407
g73
(dp3408
g93
g94
ssg82
g3402
sg75
(lp3409
S'SERVER_PROTOCOL'
p3410
asbag68
(g89
g70
NtRp3411
(dp3412
g73
(dp3413
g100
g101
ssg82
g3402
sg75
(lp3414
S':'
asbag68
(g89
g70
NtRp3415
(dp3416
g73
(dp3417
sg82
g3402
sg75
(lp3418
g68
(g69
g70
NtRp3419
(dp3420
g73
(dp3421
g81
I3
ssg82
g3415
sg75
(lp3422
g1706
asbasbasbag68
(g84
g70
NtRp3423
(dp3424
g73
(dp3425
sg82
g2894
sg75
(lp3426
g68
(g89
g70
NtRp3427
(dp3428
g73
(dp3429
g93
g94
ssg82
g3423
sg75
(lp3430
S'SERVER_SOFTWARE'
p3431
asbag68
(g89
g70
NtRp3432
(dp3433
g73
(dp3434
g100
g101
ssg82
g3423
sg75
(lp3435
S':'
asbag68
(g89
g70
NtRp3436
(dp3437
g73
(dp3438
sg82
g3423
sg75
(lp3439
g68
(g69
g70
NtRp3440
(dp3441
g73
(dp3442
g81
I3
ssg82
g3436
sg75
(lp3443
g1728
asbasbasbag68
(g84
g70
NtRp3444
(dp3445
g73
(dp3446
sg82
g2894
sg75
(lp3447
g68
(g89
g70
NtRp3448
(dp3449
g73
(dp3450
g93
g94
ssg82
g3444
sg75
(lp3451
S'wsgi.errors'
p3452
asbag68
(g89
g70
NtRp3453
(dp3454
g73
(dp3455
g100
g101
ssg82
g3444
sg75
(lp3456
S':'
asbag68
(g89
g70
NtRp3457
(dp3458
g73
(dp3459
sg82
g3444
sg75
(lp3460
g68
(g69
g70
NtRp3461
(dp3462
g73
(dp3463
g81
I3
ssg82
g3457
sg75
(lp3464
S"<open file '<stderr>', mode 'w' at 0x10a853270>"
p3465
asbasbasbag68
(g84
g70
NtRp3466
(dp3467
g73
(dp3468
sg82
g2894
sg75
(lp3469
g68
(g89
g70
NtRp3470
(dp3471
g73
(dp3472
g93
g94
ssg82
g3466
sg75
(lp3473
S'wsgi.file_wrapper'
p3474
asbag68
(g89
g70
NtRp3475
(dp3476
g73
(dp3477
g100
g101
ssg82
g3466
sg75
(lp3478
S':'
asbag68
(g89
g70
NtRp3479
(dp3480
g73
(dp3481
sg82
g3466
sg75
(lp3482
g68
(g69
g70
NtRp3483
(dp3484
g73
(dp3485
g81
I3
ssg82
g3479
sg75
(lp3486
S'<class wsgiref.util.FileWrapper at 0x10b5c0ae0>'
p3487
asbasbasbag68
(g84
g70
NtRp3488
(dp3489
g73
(dp3490
sg82
g2894
sg75
(lp3491
g68
(g89
g70
NtRp3492
(dp3493
g73
(dp3494
g93
g94
ssg82
g3488
sg75
(lp3495
S'wsgi.input'
p3496
asbag68
(g89
g70
NtRp3497
(dp3498
g73
(dp3499
g100
g101
ssg82
g3488
sg75
(lp3500
S':'
asbag68
(g89
g70
NtRp3501
(dp3502
g73
(dp3503
sg82
g3488
sg75
(lp3504
g68
(g69
g70
NtRp3505
(dp3506
g73
(dp3507
g81
I3
ssg82
g3501
sg75
(lp3508
S"<open file '<fdopen>', mode 'w+b' at 0x10f7f5150>"
p3509
asbasbasbag68
(g84
g70
NtRp3510
(dp3511
g73
(dp3512
sg82
g2894
sg75
(lp3513
g68
(g89
g70
NtRp3514
(dp3515
g73
(dp3516
g93
g94
ssg82
g3510
sg75
(lp3517
S'wsgi.multiprocess'
p3518
asbag68
(g89
g70
NtRp3519
(dp3520
g73
(dp3521
g100
g101
ssg82
g3510
sg75
(lp3522
S':'
asbag68
(g89
g70
NtRp3523
(dp3524
g73
(dp3525
sg82
g3510
sg75
(lp3526
g68
(g69
g70
NtRp3527
(dp3528
g73
(dp3529
g81
I3
ssg82
g3523
sg75
(lp3530
g111
asbasbasbag68
(g84
g70
NtRp3531
(dp3532
g73
(dp3533
sg82
g2894
sg75
(lp3534
g68
(g89
g70
NtRp3535
(dp3536
g73
(dp3537
g93
g94
ssg82
g3531
sg75
(lp3538
S'wsgi.multithread'
p3539
asbag68
(g89
g70
NtRp3540
(dp3541
g73
(dp3542
g100
g101
ssg82
g3531
sg75
(lp3543
S':'
asbag68
(g89
g70
NtRp3544
(dp3545
g73
(dp3546
sg82
g3531
sg75
(lp3547
g68
(g69
g70
NtRp3548
(dp3549
g73
(dp3550
g81
I3
ssg82
g3544
sg75
(lp3551
g1945
asbasbasbag68
(g84
g70
NtRp3552
(dp3553
g73
(dp3554
sg82
g2894
sg75
(lp3555
g68
(g89
g70
NtRp3556
(dp3557
g73
(dp3558
g93
g94
ssg82
g3552
sg75
(lp3559
S'wsgi.run_once'
p3560
asbag68
(g89
g70
NtRp3561
(dp3562
g73
(dp3563
g100
g101
ssg82
g3552
sg75
(lp3564
S':'
asbag68
(g89
g70
NtRp3565
(dp3566
g73
(dp3567
sg82
g3552
sg75
(lp3568
g68
(g69
g70
NtRp3569
(dp3570
g73
(dp3571
g81
I3
ssg82
g3565
sg75
(lp3572
g111
asbasbasbag68
(g84
g70
NtRp3573
(dp3574
g73
(dp3575
sg82
g2894
sg75
(lp3576
g68
(g89
g70
NtRp3577
(dp3578
g73
(dp3579
g93
g94
ssg82
g3573
sg75
(lp3580
S'wsgi.url_scheme'
p3581
asbag68
(g89
g70
NtRp3582
(dp3583
g73
(dp3584
g100
g101
ssg82
g3573
sg75
(lp3585
S':'
asbag68
(g89
g70
NtRp3586
(dp3587
g73
(dp3588
sg82
g3573
sg75
(lp3589
g68
(g69
g70
NtRp3590
(dp3591
g73
(dp3592
g81
I3
ssg82
g3586
sg75
(lp3593
g1988
asbasbasbag68
(g84
g70
NtRp3594
(dp3595
g73
(dp3596
sg82
g2894
sg75
(lp3597
g68
(g89
g70
NtRp3598
(dp3599
g73
(dp3600
g93
g94
ssg82
g3594
sg75
(lp3601
S'wsgi.version'
p3602
asbag68
(g89
g70
NtRp3603
(dp3604
g73
(dp3605
g100
g101
ssg82
g3594
sg75
(lp3606
S':'
asbag68
(g89
g70
NtRp3607
(dp3608
g73
(dp3609
sg82
g3594
sg75
(lp3610
g68
(g69
g70
NtRp3611
(dp3612
g73
(dp3613
g81
I3
ssg82
g3607
sg75
(lp3614
S'1'
asbasbasbasbasbasbasbasbasbasbasbasbasbsS'frames'
p3615
(lp3616
(dp3617
S'file'
p3618
S'/Users/Truki/Desarrollo/web2py/gluon/restricted.py'
p3619
sS'dump'
p3620
(dp3621
S'code'
p3622
S"'# coding: utf8\\n# intente algo como\\ndef index(): ...\\nresponse._vars=response._caller(detalleFactura)\\n'"
p3623
sS'layer'
p3624
S"'/Users/Truki/Desarrollo/web2py/applications/rosan/controllers/facturas.py'"
p3625
sS'global compile2'
p3626
S'<function compile2>'
p3627
sS'ccode'
p3628
S'undefined'
p3629
ssS'lnum'
p3630
I211
sS'lines'
p3631
(dp3632
I206
S"    environment['__name__'] = '__restricted__'"
p3633
sI207
S'    try:'
p3634
sI208
S'        if isinstance(code, types.CodeType):'
p3635
sI209
S'            ccode = code'
p3636
sI210
S'        else:'
p3637
sI211
S'            ccode = compile2(code, layer)'
p3638
sI212
S'        exec ccode in environment'
p3639
sI213
S'    except HTTP:'
p3640
sI214
S'        raise'
p3641
sI215
S'    except RestrictedError:'
p3642
ssS'call'
p3643
S"(code='# coding: utf8\\n# intente algo como\\ndef index(): ...\\nresponse._vars=response._caller(detalleFactura)\\n', environment={'A': <class 'gluon.html.A'>, 'Auth': <class 'gluon.tools.Auth'>, 'B': <class 'gluon.html.B'>, 'BEAUTIFY': <class 'gluon.html.BEAUTIFY'>, 'BODY': <class 'gluon.html.BODY'>, 'BR': <class 'gluon.html.BR'>, 'BUTTON': <class 'gluon.html.BUTTON'>, 'CAT': <class 'gluon.html.CAT'>, 'CENTER': <class 'gluon.html.CENTER'>, 'CLEANUP': <class 'gluon.validators.CLEANUP'>, ...}, layer='/Users/Truki/Desarrollo/web2py/applications/rosan/controllers/facturas.py')"
p3644
sS'func'
p3645
S'restricted'
p3646
sa(dp3647
g3618
S'/Users/Truki/Desarrollo/web2py/gluon/restricted.py'
p3648
sg3620
(dp3649
S'builtincompile'
p3650
S'<built-in function compile>'
p3651
sS'code'
p3652
S"'# coding: utf8\\n# intente algo como\\ndef index(): ...\\nresponse._vars=response._caller(detalleFactura)\\n'"
p3653
sS'code.rstrip'
p3654
S'<built-in method rstrip of str object>'
p3655
sS').replace'
p3656
g3629
sS'layer'
p3657
S"'/Users/Truki/Desarrollo/web2py/applications/rosan/controllers/facturas.py'"
p3658
ssg3630
I194
sg3631
(dp3659
I192
S"    The +'\\n' is necessary else compile fails when code ends in a comment."
p3660
sI193
S'    """'
p3661
sI194
S"    return compile(code.rstrip().replace('\\r\\n', '\\n') + '\\n', layer, 'exec')"
p3662
sI195
S''
sI196
S''
sI197
S"def restricted(code, environment=None, layer='Unknown'):"
p3663
sI198
S'    """'
p3664
sI189
S''
sI190
S'def compile2(code, layer):'
p3665
sI191
S'    """'
p3666
ssg3643
S"(code='# coding: utf8\\n# intente algo como\\ndef index(): ...\\nresponse._vars=response._caller(detalleFactura)\\n', layer='/Users/Truki/Desarrollo/web2py/applications/rosan/controllers/facturas.py')"
p3667
sg3645
S'compile2'
p3668
sasS'pyver'
p3669
S'Python 2.7.2: /usr/bin/python'
p3670
sS'session'
p3671
g68
(g69
g70
NtRp3672
(dp3673
g73
(dp3674
sg75
(lp3675
g68
(g77
g70
NtRp3676
(dp3677
g73
(dp3678
g81
I5
ssg82
Nsg75
(lp3679
sbasbsS'etype'
p3680
S"<type 'exceptions.IndentationError'>"
p3681
sS'date'
p3682
S'Wed Feb 13 23:57:48 2013'
p3683
sS'response'
p3684
g68
(g69
g70
NtRp3685
(dp3686
g73
(dp3687
sg75
(lp3688
g68
(g77
g70
NtRp3689
(dp3690
g73
(dp3691
g81
I5
ssg82
Nsg75
(lp3692
g68
(g84
g70
NtRp3693
(dp3694
g73
(dp3695
sg82
g3689
sg75
(lp3696
g68
(g89
g70
NtRp3697
(dp3698
g73
(dp3699
g93
g94
ssg82
g3693
sg75
(lp3700
g166
asbag68
(g89
g70
NtRp3701
(dp3702
g73
(dp3703
g100
g101
ssg82
g3693
sg75
(lp3704
S':'
asbag68
(g89
g70
NtRp3705
(dp3706
g73
(dp3707
sg82
g3693
sg75
(lp3708
g68
(g69
g70
NtRp3709
(dp3710
g73
(dp3711
g81
I5
ssg82
g3705
sg75
(lp3712
S'<cStringIO.StringO object at 0x10b76eb58>'
p3713
asbasbasbag68
(g84
g70
NtRp3714
(dp3715
g73
(dp3716
sg82
g3689
sg75
(lp3717
g68
(g89
g70
NtRp3718
(dp3719
g73
(dp3720
g93
g94
ssg82
g3714
sg75
(lp3721
g254
asbag68
(g89
g70
NtRp3722
(dp3723
g73
(dp3724
g100
g101
ssg82
g3714
sg75
(lp3725
S':'
asbag68
(g89
g70
NtRp3726
(dp3727
g73
(dp3728
sg82
g3714
sg75
(lp3729
g68
(g69
g70
NtRp3730
(dp3731
g73
(dp3732
g81
I5
ssg82
g3726
sg75
(lp3733
g68
(g77
g70
NtRp3734
(dp3735
g73
(dp3736
g81
I4
ssg82
Nsg75
(lp3737
g68
(g84
g70
NtRp3738
(dp3739
g73
(dp3740
sg82
g3734
sg75
(lp3741
g68
(g89
g70
NtRp3742
(dp3743
g73
(dp3744
g93
g94
ssg82
g3738
sg75
(lp3745
S'session_id_rosan'
p3746
asbag68
(g89
g70
NtRp3747
(dp3748
g73
(dp3749
g100
g101
ssg82
g3738
sg75
(lp3750
S':'
asbag68
(g89
g70
NtRp3751
(dp3752
g73
(dp3753
sg82
g3738
sg75
(lp3754
g68
(g69
g70
NtRp3755
(dp3756
g73
(dp3757
g81
I4
ssg82
g3751
sg75
(lp3758
g486
ag68
(g77
g70
NtRp3759
(dp3760
g73
(dp3761
g81
I3
ssg82
Nsg75
(lp3762
g68
(g84
g70
NtRp3763
(dp3764
g73
(dp3765
sg82
g3759
sg75
(lp3766
g68
(g89
g70
NtRp3767
(dp3768
g73
(dp3769
g93
g94
ssg82
g3763
sg75
(lp3770
g305
asbag68
(g89
g70
NtRp3771
(dp3772
g73
(dp3773
g100
g101
ssg82
g3763
sg75
(lp3774
S':'
asbag68
(g89
g70
NtRp3775
(dp3776
g73
(dp3777
sg82
g3763
sg75
(lp3778
g68
(g69
g70
NtRp3779
(dp3780
g73
(dp3781
g81
I3
ssg82
g3775
sg75
(lp3782
S''
asbasbasbag68
(g84
g70
NtRp3783
(dp3784
g73
(dp3785
sg82
g3759
sg75
(lp3786
g68
(g89
g70
NtRp3787
(dp3788
g73
(dp3789
g93
g94
ssg82
g3783
sg75
(lp3790
g326
asbag68
(g89
g70
NtRp3791
(dp3792
g73
(dp3793
g100
g101
ssg82
g3783
sg75
(lp3794
S':'
asbag68
(g89
g70
NtRp3795
(dp3796
g73
(dp3797
sg82
g3783
sg75
(lp3798
g68
(g69
g70
NtRp3799
(dp3800
g73
(dp3801
g81
I3
ssg82
g3795
sg75
(lp3802
S''
asbasbasbag68
(g84
g70
NtRp3803
(dp3804
g73
(dp3805
sg82
g3759
sg75
(lp3806
g68
(g89
g70
NtRp3807
(dp3808
g73
(dp3809
g93
g94
ssg82
g3803
sg75
(lp3810
g347
asbag68
(g89
g70
NtRp3811
(dp3812
g73
(dp3813
g100
g101
ssg82
g3803
sg75
(lp3814
S':'
asbag68
(g89
g70
NtRp3815
(dp3816
g73
(dp3817
sg82
g3803
sg75
(lp3818
g68
(g69
g70
NtRp3819
(dp3820
g73
(dp3821
g81
I3
ssg82
g3815
sg75
(lp3822
S''
asbasbasbag68
(g84
g70
NtRp3823
(dp3824
g73
(dp3825
sg82
g3759
sg75
(lp3826
g68
(g89
g70
NtRp3827
(dp3828
g73
(dp3829
g93
g94
ssg82
g3823
sg75
(lp3830
g368
asbag68
(g89
g70
NtRp3831
(dp3832
g73
(dp3833
g100
g101
ssg82
g3823
sg75
(lp3834
S':'
asbag68
(g89
g70
NtRp3835
(dp3836
g73
(dp3837
sg82
g3823
sg75
(lp3838
g68
(g69
g70
NtRp3839
(dp3840
g73
(dp3841
g81
I3
ssg82
g3835
sg75
(lp3842
S''
asbasbasbag68
(g84
g70
NtRp3843
(dp3844
g73
(dp3845
sg82
g3759
sg75
(lp3846
g68
(g89
g70
NtRp3847
(dp3848
g73
(dp3849
g93
g94
ssg82
g3843
sg75
(lp3850
g389
asbag68
(g89
g70
NtRp3851
(dp3852
g73
(dp3853
g100
g101
ssg82
g3843
sg75
(lp3854
S':'
asbag68
(g89
g70
NtRp3855
(dp3856
g73
(dp3857
sg82
g3843
sg75
(lp3858
g68
(g69
g70
NtRp3859
(dp3860
g73
(dp3861
g81
I3
ssg82
g3855
sg75
(lp3862
S''
asbasbasbag68
(g84
g70
NtRp3863
(dp3864
g73
(dp3865
sg82
g3759
sg75
(lp3866
g68
(g89
g70
NtRp3867
(dp3868
g73
(dp3869
g93
g94
ssg82
g3863
sg75
(lp3870
g410
asbag68
(g89
g70
NtRp3871
(dp3872
g73
(dp3873
g100
g101
ssg82
g3863
sg75
(lp3874
S':'
asbag68
(g89
g70
NtRp3875
(dp3876
g73
(dp3877
sg82
g3863
sg75
(lp3878
g68
(g69
g70
NtRp3879
(dp3880
g73
(dp3881
g81
I3
ssg82
g3875
sg75
(lp3882
S'/'
asbasbasbag68
(g84
g70
NtRp3883
(dp3884
g73
(dp3885
sg82
g3759
sg75
(lp3886
g68
(g89
g70
NtRp3887
(dp3888
g73
(dp3889
g93
g94
ssg82
g3883
sg75
(lp3890
g431
asbag68
(g89
g70
NtRp3891
(dp3892
g73
(dp3893
g100
g101
ssg82
g3883
sg75
(lp3894
S':'
asbag68
(g89
g70
NtRp3895
(dp3896
g73
(dp3897
sg82
g3883
sg75
(lp3898
g68
(g69
g70
NtRp3899
(dp3900
g73
(dp3901
g81
I3
ssg82
g3895
sg75
(lp3902
S''
asbasbasbag68
(g84
g70
NtRp3903
(dp3904
g73
(dp3905
sg82
g3759
sg75
(lp3906
g68
(g89
g70
NtRp3907
(dp3908
g73
(dp3909
g93
g94
ssg82
g3903
sg75
(lp3910
g452
asbag68
(g89
g70
NtRp3911
(dp3912
g73
(dp3913
g100
g101
ssg82
g3903
sg75
(lp3914
S':'
asbag68
(g89
g70
NtRp3915
(dp3916
g73
(dp3917
sg82
g3903
sg75
(lp3918
g68
(g69
g70
NtRp3919
(dp3920
g73
(dp3921
g81
I3
ssg82
g3915
sg75
(lp3922
S''
asbasbasbasbasbasbasbasbasbasbasbag68
(g84
g70
NtRp3923
(dp3924
g73
(dp3925
sg82
g3689
sg75
(lp3926
g68
(g89
g70
NtRp3927
(dp3928
g73
(dp3929
g93
g94
ssg82
g3923
sg75
(lp3930
S'delimiters'
p3931
asbag68
(g89
g70
NtRp3932
(dp3933
g73
(dp3934
g100
g101
ssg82
g3923
sg75
(lp3935
S':'
asbag68
(g89
g70
NtRp3936
(dp3937
g73
(dp3938
sg82
g3923
sg75
(lp3939
g68
(g69
g70
NtRp3940
(dp3941
g73
(dp3942
g81
I5
ssg82
g3936
sg75
(lp3943
g68
(g77
g70
NtRp3944
(dp3945
g73
(dp3946
g81
I4
ssg82
Nsg75
(lp3947
g68
(g84
g70
NtRp3948
(dp3949
g73
(dp3950
sg82
g3944
sg75
(lp3951
g68
(g89
g70
NtRp3952
(dp3953
g73
(dp3954
sg82
g3948
sg75
(lp3955
g68
(g69
g70
NtRp3956
(dp3957
g73
(dp3958
g81
I4
ssg82
g3952
sg75
(lp3959
S'{{'
p3960
asbasbasbag68
(g84
g70
NtRp3961
(dp3962
g73
(dp3963
sg82
g3944
sg75
(lp3964
g68
(g89
g70
NtRp3965
(dp3966
g73
(dp3967
sg82
g3961
sg75
(lp3968
g68
(g69
g70
NtRp3969
(dp3970
g73
(dp3971
g81
I4
ssg82
g3965
sg75
(lp3972
S'}}'
p3973
asbasbasbasbasbasbasbag68
(g84
g70
NtRp3974
(dp3975
g73
(dp3976
sg82
g3689
sg75
(lp3977
g68
(g89
g70
NtRp3978
(dp3979
g73
(dp3980
g93
g94
ssg82
g3974
sg75
(lp3981
S'files'
p3982
asbag68
(g89
g70
NtRp3983
(dp3984
g73
(dp3985
g100
g101
ssg82
g3974
sg75
(lp3986
S':'
asbag68
(g89
g70
NtRp3987
(dp3988
g73
(dp3989
sg82
g3974
sg75
(lp3990
g68
(g69
g70
NtRp3991
(dp3992
g73
(dp3993
g81
I5
ssg82
g3987
sg75
(lp3994
g68
(g77
g70
NtRp3995
(dp3996
g73
(dp3997
g81
I4
ssg82
Nsg75
(lp3998
sbasbasbasbag68
(g84
g70
NtRp3999
(dp4000
g73
(dp4001
sg82
g3689
sg75
(lp4002
g68
(g89
g70
NtRp4003
(dp4004
g73
(dp4005
g93
g94
ssg82
g3999
sg75
(lp4006
S'flash'
p4007
asbag68
(g89
g70
NtRp4008
(dp4009
g73
(dp4010
g100
g101
ssg82
g3999
sg75
(lp4011
S':'
asbag68
(g89
g70
NtRp4012
(dp4013
g73
(dp4014
sg82
g3999
sg75
(lp4015
g68
(g69
g70
NtRp4016
(dp4017
g73
(dp4018
g81
I5
ssg82
g4012
sg75
(lp4019
S''
asbasbasbag68
(g84
g70
NtRp4020
(dp4021
g73
(dp4022
sg82
g3689
sg75
(lp4023
g68
(g89
g70
NtRp4024
(dp4025
g73
(dp4026
g93
g94
ssg82
g4020
sg75
(lp4027
S'generic_patterns'
p4028
asbag68
(g89
g70
NtRp4029
(dp4030
g73
(dp4031
g100
g101
ssg82
g4020
sg75
(lp4032
S':'
asbag68
(g89
g70
NtRp4033
(dp4034
g73
(dp4035
sg82
g4020
sg75
(lp4036
g68
(g69
g70
NtRp4037
(dp4038
g73
(dp4039
g81
I5
ssg82
g4033
sg75
(lp4040
g68
(g77
g70
NtRp4041
(dp4042
g73
(dp4043
g81
I4
ssg82
Nsg75
(lp4044
g68
(g84
g70
NtRp4045
(dp4046
g73
(dp4047
sg82
g4041
sg75
(lp4048
g68
(g89
g70
NtRp4049
(dp4050
g73
(dp4051
sg82
g4045
sg75
(lp4052
g68
(g69
g70
NtRp4053
(dp4054
g73
(dp4055
g81
I4
ssg82
g4049
sg75
(lp4056
S'*'
asbasbasbasbasbasbasbag68
(g84
g70
NtRp4057
(dp4058
g73
(dp4059
sg82
g3689
sg75
(lp4060
g68
(g89
g70
NtRp4061
(dp4062
g73
(dp4063
g93
g94
ssg82
g4057
sg75
(lp4064
S'headers'
p4065
asbag68
(g89
g70
NtRp4066
(dp4067
g73
(dp4068
g100
g101
ssg82
g4057
sg75
(lp4069
S':'
asbag68
(g89
g70
NtRp4070
(dp4071
g73
(dp4072
sg82
g4057
sg75
(lp4073
g68
(g69
g70
NtRp4074
(dp4075
g73
(dp4076
g81
I5
ssg82
g4070
sg75
(lp4077
g68
(g77
g70
NtRp4078
(dp4079
g73
(dp4080
g81
I4
ssg82
Nsg75
(lp4081
g68
(g84
g70
NtRp4082
(dp4083
g73
(dp4084
sg82
g4078
sg75
(lp4085
g68
(g89
g70
NtRp4086
(dp4087
g73
(dp4088
g93
g94
ssg82
g4082
sg75
(lp4089
S'X-Powered-By'
p4090
asbag68
(g89
g70
NtRp4091
(dp4092
g73
(dp4093
g100
g101
ssg82
g4082
sg75
(lp4094
S':'
asbag68
(g89
g70
NtRp4095
(dp4096
g73
(dp4097
sg82
g4082
sg75
(lp4098
g68
(g69
g70
NtRp4099
(dp4100
g73
(dp4101
g81
I4
ssg82
g4095
sg75
(lp4102
S'web2py'
p4103
asbasbasbasbasbasbasbag68
(g84
g70
NtRp4104
(dp4105
g73
(dp4106
sg82
g3689
sg75
(lp4107
g68
(g89
g70
NtRp4108
(dp4109
g73
(dp4110
g93
g94
ssg82
g4104
sg75
(lp4111
S'menu'
p4112
asbag68
(g89
g70
NtRp4113
(dp4114
g73
(dp4115
g100
g101
ssg82
g4104
sg75
(lp4116
S':'
asbag68
(g89
g70
NtRp4117
(dp4118
g73
(dp4119
sg82
g4104
sg75
(lp4120
g68
(g69
g70
NtRp4121
(dp4122
g73
(dp4123
g81
I5
ssg82
g4117
sg75
(lp4124
g68
(g77
g70
NtRp4125
(dp4126
g73
(dp4127
g81
I4
ssg82
Nsg75
(lp4128
g68
(g84
g70
NtRp4129
(dp4130
g73
(dp4131
sg82
g4125
sg75
(lp4132
g68
(g89
g70
NtRp4133
(dp4134
g73
(dp4135
sg82
g4129
sg75
(lp4136
g68
(g69
g70
NtRp4137
(dp4138
g73
(dp4139
g81
I4
ssg82
g4133
sg75
(lp4140
g68
(g77
g70
NtRp4141
(dp4142
g73
(dp4143
g81
I3
ssg82
Nsg75
(lp4144
g68
(g84
g70
NtRp4145
(dp4146
g73
(dp4147
sg82
g4141
sg75
(lp4148
g68
(g89
g70
NtRp4149
(dp4150
g73
(dp4151
sg82
g4145
sg75
(lp4152
g68
(g69
g70
NtRp4153
(dp4154
g73
(dp4155
g81
I3
ssg82
g4149
sg75
(lp4156
cgluon.languages
lazyT_unpickle
p4157
(S's\x06\x00\x00\x00Indice'
tRp4158
asbasbasbag68
(g84
g70
NtRp4159
(dp4160
g73
(dp4161
sg82
g4141
sg75
(lp4162
g68
(g89
g70
NtRp4163
(dp4164
g73
(dp4165
sg82
g4159
sg75
(lp4166
g68
(g69
g70
NtRp4167
(dp4168
g73
(dp4169
g81
I3
ssg82
g4163
sg75
(lp4170
g111
asbasbasbag68
(g84
g70
NtRp4171
(dp4172
g73
(dp4173
sg82
g4141
sg75
(lp4174
g68
(g89
g70
NtRp4175
(dp4176
g73
(dp4177
sg82
g4171
sg75
(lp4178
g68
(g69
g70
NtRp4179
(dp4180
g73
(dp4181
g81
I3
ssg82
g4175
sg75
(lp4182
S'/rosan/default/index'
p4183
asbasbasbag68
(g84
g70
NtRp4184
(dp4185
g73
(dp4186
sg82
g4141
sg75
(lp4187
g68
(g89
g70
NtRp4188
(dp4189
g73
(dp4190
sg82
g4184
sg75
(lp4191
g68
(g69
g70
NtRp4192
(dp4193
g73
(dp4194
g81
I3
ssg82
g4188
sg75
(lp4195
g68
(g77
g70
NtRp4196
(dp4197
g73
(dp4198
g81
I2
ssg82
Nsg75
(lp4199
sbasbasbasbasbasbasbasbag68
(g84
g70
NtRp4200
(dp4201
g73
(dp4202
sg82
g4125
sg75
(lp4203
g68
(g89
g70
NtRp4204
(dp4205
g73
(dp4206
sg82
g4200
sg75
(lp4207
g68
(g69
g70
NtRp4208
(dp4209
g73
(dp4210
g81
I4
ssg82
g4204
sg75
(lp4211
g68
(g77
g70
NtRp4212
(dp4213
g73
(dp4214
g81
I3
ssg82
Nsg75
(lp4215
g68
(g84
g70
NtRp4216
(dp4217
g73
(dp4218
sg82
g4212
sg75
(lp4219
g68
(g89
g70
NtRp4220
(dp4221
g73
(dp4222
sg82
g4216
sg75
(lp4223
g68
(g69
g70
NtRp4224
(dp4225
g73
(dp4226
g81
I3
ssg82
g4220
sg75
(lp4227
g4157
(S's\x08\x00\x00\x00Clientes'
tRp4228
asbasbasbag68
(g84
g70
NtRp4229
(dp4230
g73
(dp4231
sg82
g4212
sg75
(lp4232
g68
(g89
g70
NtRp4233
(dp4234
g73
(dp4235
sg82
g4229
sg75
(lp4236
g68
(g69
g70
NtRp4237
(dp4238
g73
(dp4239
g81
I3
ssg82
g4233
sg75
(lp4240
g111
asbasbasbag68
(g84
g70
NtRp4241
(dp4242
g73
(dp4243
sg82
g4212
sg75
(lp4244
g68
(g89
g70
NtRp4245
(dp4246
g73
(dp4247
sg82
g4241
sg75
(lp4248
g68
(g69
g70
NtRp4249
(dp4250
g73
(dp4251
g81
I3
ssg82
g4245
sg75
(lp4252
S'/rosan/default/nuevoCliente'
p4253
asbasbasbag68
(g84
g70
NtRp4254
(dp4255
g73
(dp4256
sg82
g4212
sg75
(lp4257
g68
(g89
g70
NtRp4258
(dp4259
g73
(dp4260
sg82
g4254
sg75
(lp4261
g68
(g69
g70
NtRp4262
(dp4263
g73
(dp4264
g81
I3
ssg82
g4258
sg75
(lp4265
g68
(g77
g70
NtRp4266
(dp4267
g73
(dp4268
g81
I2
ssg82
Nsg75
(lp4269
sbasbasbasbasbasbasbasbag68
(g84
g70
NtRp4270
(dp4271
g73
(dp4272
sg82
g4125
sg75
(lp4273
g68
(g89
g70
NtRp4274
(dp4275
g73
(dp4276
sg82
g4270
sg75
(lp4277
g68
(g69
g70
NtRp4278
(dp4279
g73
(dp4280
g81
I4
ssg82
g4274
sg75
(lp4281
g68
(g77
g70
NtRp4282
(dp4283
g73
(dp4284
g81
I3
ssg82
Nsg75
(lp4285
g68
(g84
g70
NtRp4286
(dp4287
g73
(dp4288
sg82
g4282
sg75
(lp4289
g68
(g89
g70
NtRp4290
(dp4291
g73
(dp4292
sg82
g4286
sg75
(lp4293
g68
(g69
g70
NtRp4294
(dp4295
g73
(dp4296
g81
I3
ssg82
g4290
sg75
(lp4297
g4157
(S's\x08\x00\x00\x00Facturas'
tRp4298
asbasbasbag68
(g84
g70
NtRp4299
(dp4300
g73
(dp4301
sg82
g4282
sg75
(lp4302
g68
(g89
g70
NtRp4303
(dp4304
g73
(dp4305
sg82
g4299
sg75
(lp4306
g68
(g69
g70
NtRp4307
(dp4308
g73
(dp4309
g81
I3
ssg82
g4303
sg75
(lp4310
g111
asbasbasbag68
(g84
g70
NtRp4311
(dp4312
g73
(dp4313
sg82
g4282
sg75
(lp4314
g68
(g89
g70
NtRp4315
(dp4316
g73
(dp4317
sg82
g4311
sg75
(lp4318
g68
(g69
g70
NtRp4319
(dp4320
g73
(dp4321
g81
I3
ssg82
g4315
sg75
(lp4322
S'/rosan/default/nuevaFactura'
p4323
asbasbasbag68
(g84
g70
NtRp4324
(dp4325
g73
(dp4326
sg82
g4282
sg75
(lp4327
g68
(g89
g70
NtRp4328
(dp4329
g73
(dp4330
sg82
g4324
sg75
(lp4331
g68
(g69
g70
NtRp4332
(dp4333
g73
(dp4334
g81
I3
ssg82
g4328
sg75
(lp4335
g68
(g77
g70
NtRp4336
(dp4337
g73
(dp4338
g81
I2
ssg82
Nsg75
(lp4339
sbasbasbasbasbasbasbasbag68
(g84
g70
NtRp4340
(dp4341
g73
(dp4342
sg82
g4125
sg75
(lp4343
g68
(g89
g70
NtRp4344
(dp4345
g73
(dp4346
sg82
g4340
sg75
(lp4347
g68
(g69
g70
NtRp4348
(dp4349
g73
(dp4350
g81
I4
ssg82
g4344
sg75
(lp4351
g68
(g77
g70
NtRp4352
(dp4353
g73
(dp4354
g81
I3
ssg82
Nsg75
(lp4355
g68
(g84
g70
NtRp4356
(dp4357
g73
(dp4358
sg82
g4352
sg75
(lp4359
g68
(g89
g70
NtRp4360
(dp4361
g73
(dp4362
sg82
g4356
sg75
(lp4363
g68
(g69
g70
NtRp4364
(dp4365
g73
(dp4366
g81
I3
ssg82
g4360
sg75
(lp4367
g4157
(S's\x0c\x00\x00\x00Presupuestos'
tRp4368
asbasbasbag68
(g84
g70
NtRp4369
(dp4370
g73
(dp4371
sg82
g4352
sg75
(lp4372
g68
(g89
g70
NtRp4373
(dp4374
g73
(dp4375
sg82
g4369
sg75
(lp4376
g68
(g69
g70
NtRp4377
(dp4378
g73
(dp4379
g81
I3
ssg82
g4373
sg75
(lp4380
g111
asbasbasbag68
(g84
g70
NtRp4381
(dp4382
g73
(dp4383
sg82
g4352
sg75
(lp4384
g68
(g89
g70
NtRp4385
(dp4386
g73
(dp4387
sg82
g4381
sg75
(lp4388
g68
(g69
g70
NtRp4389
(dp4390
g73
(dp4391
g81
I3
ssg82
g4385
sg75
(lp4392
S'/rosan/default/nuevoPresupuesto'
p4393
asbasbasbag68
(g84
g70
NtRp4394
(dp4395
g73
(dp4396
sg82
g4352
sg75
(lp4397
g68
(g89
g70
NtRp4398
(dp4399
g73
(dp4400
sg82
g4394
sg75
(lp4401
g68
(g69
g70
NtRp4402
(dp4403
g73
(dp4404
g81
I3
ssg82
g4398
sg75
(lp4405
g68
(g77
g70
NtRp4406
(dp4407
g73
(dp4408
g81
I2
ssg82
Nsg75
(lp4409
sbasbasbasbasbasbasbasbasbasbasbasbag68
(g84
g70
NtRp4410
(dp4411
g73
(dp4412
sg82
g3689
sg75
(lp4413
g68
(g89
g70
NtRp4414
(dp4415
g73
(dp4416
g93
g94
ssg82
g4410
sg75
(lp4417
S'meta'
p4418
asbag68
(g89
g70
NtRp4419
(dp4420
g73
(dp4421
g100
g101
ssg82
g4410
sg75
(lp4422
S':'
asbag68
(g89
g70
NtRp4423
(dp4424
g73
(dp4425
sg82
g4410
sg75
(lp4426
g68
(g69
g70
NtRp4427
(dp4428
g73
(dp4429
g81
I5
ssg82
g4423
sg75
(lp4430
g68
(g77
g70
NtRp4431
(dp4432
g73
(dp4433
g81
I4
ssg82
Nsg75
(lp4434
g68
(g84
g70
NtRp4435
(dp4436
g73
(dp4437
sg82
g4431
sg75
(lp4438
g68
(g89
g70
NtRp4439
(dp4440
g73
(dp4441
g93
g94
ssg82
g4435
sg75
(lp4442
S'author'
p4443
asbag68
(g89
g70
NtRp4444
(dp4445
g73
(dp4446
g100
g101
ssg82
g4435
sg75
(lp4447
S':'
asbag68
(g89
g70
NtRp4448
(dp4449
g73
(dp4450
sg82
g4435
sg75
(lp4451
g68
(g69
g70
NtRp4452
(dp4453
g73
(dp4454
g81
I4
ssg82
g4448
sg75
(lp4455
S'@trukise <trukise@gmail.com>'
p4456
asbasbasbag68
(g84
g70
NtRp4457
(dp4458
g73
(dp4459
sg82
g4431
sg75
(lp4460
g68
(g89
g70
NtRp4461
(dp4462
g73
(dp4463
g93
g94
ssg82
g4457
sg75
(lp4464
S'description'
p4465
asbag68
(g89
g70
NtRp4466
(dp4467
g73
(dp4468
g100
g101
ssg82
g4457
sg75
(lp4469
S':'
asbag68
(g89
g70
NtRp4470
(dp4471
g73
(dp4472
sg82
g4457
sg75
(lp4473
g68
(g69
g70
NtRp4474
(dp4475
g73
(dp4476
g81
I4
ssg82
g4470
sg75
(lp4477
S'Gesti\xc3\xb3n intengral de Fontaner\xc3\xada Rosa y S\xc3\xa1nchez'
p4478
asbasbasbag68
(g84
g70
NtRp4479
(dp4480
g73
(dp4481
sg82
g4431
sg75
(lp4482
g68
(g89
g70
NtRp4483
(dp4484
g73
(dp4485
g93
g94
ssg82
g4479
sg75
(lp4486
S'keywords'
p4487
asbag68
(g89
g70
NtRp4488
(dp4489
g73
(dp4490
g100
g101
ssg82
g4479
sg75
(lp4491
S':'
asbag68
(g89
g70
NtRp4492
(dp4493
g73
(dp4494
sg82
g4479
sg75
(lp4495
g68
(g69
g70
NtRp4496
(dp4497
g73
(dp4498
g81
I4
ssg82
g4492
sg75
(lp4499
S'Rosan, facturacion'
p4500
asbasbasbasbasbasbasbag68
(g84
g70
NtRp4501
(dp4502
g73
(dp4503
sg82
g3689
sg75
(lp4504
g68
(g89
g70
NtRp4505
(dp4506
g73
(dp4507
g93
g94
ssg82
g4501
sg75
(lp4508
S'models_to_run'
p4509
asbag68
(g89
g70
NtRp4510
(dp4511
g73
(dp4512
g100
g101
ssg82
g4501
sg75
(lp4513
S':'
asbag68
(g89
g70
NtRp4514
(dp4515
g73
(dp4516
sg82
g4501
sg75
(lp4517
g68
(g69
g70
NtRp4518
(dp4519
g73
(dp4520
g81
I5
ssg82
g4514
sg75
(lp4521
g68
(g77
g70
NtRp4522
(dp4523
g73
(dp4524
g81
I4
ssg82
Nsg75
(lp4525
g68
(g84
g70
NtRp4526
(dp4527
g73
(dp4528
sg82
g4522
sg75
(lp4529
g68
(g89
g70
NtRp4530
(dp4531
g73
(dp4532
sg82
g4526
sg75
(lp4533
g68
(g69
g70
NtRp4534
(dp4535
g73
(dp4536
g81
I4
ssg82
g4530
sg75
(lp4537
S'^\\w+\\.py$'
p4538
asbasbasbag68
(g84
g70
NtRp4539
(dp4540
g73
(dp4541
sg82
g4522
sg75
(lp4542
g68
(g89
g70
NtRp4543
(dp4544
g73
(dp4545
sg82
g4539
sg75
(lp4546
g68
(g69
g70
NtRp4547
(dp4548
g73
(dp4549
g81
I4
ssg82
g4543
sg75
(lp4550
S'^facturas/\\w+\\.py$'
p4551
asbasbasbag68
(g84
g70
NtRp4552
(dp4553
g73
(dp4554
sg82
g4522
sg75
(lp4555
g68
(g89
g70
NtRp4556
(dp4557
g73
(dp4558
sg82
g4552
sg75
(lp4559
g68
(g69
g70
NtRp4560
(dp4561
g73
(dp4562
g81
I4
ssg82
g4556
sg75
(lp4563
S'^facturas/detalleFactura/\\w+\\.py$'
p4564
asbasbasbasbasbasbasbag68
(g84
g70
NtRp4565
(dp4566
g73
(dp4567
sg82
g3689
sg75
(lp4568
g68
(g89
g70
NtRp4569
(dp4570
g73
(dp4571
g93
g94
ssg82
g4565
sg75
(lp4572
S'postprocessing'
p4573
asbag68
(g89
g70
NtRp4574
(dp4575
g73
(dp4576
g100
g101
ssg82
g4565
sg75
(lp4577
S':'
asbag68
(g89
g70
NtRp4578
(dp4579
g73
(dp4580
sg82
g4565
sg75
(lp4581
g68
(g69
g70
NtRp4582
(dp4583
g73
(dp4584
g81
I5
ssg82
g4578
sg75
(lp4585
g68
(g77
g70
NtRp4586
(dp4587
g73
(dp4588
g81
I4
ssg82
Nsg75
(lp4589
sbasbasbasbag68
(g84
g70
NtRp4590
(dp4591
g73
(dp4592
sg82
g3689
sg75
(lp4593
g68
(g89
g70
NtRp4594
(dp4595
g73
(dp4596
g93
g94
ssg82
g4590
sg75
(lp4597
S'session_cookie_expires'
p4598
asbag68
(g89
g70
NtRp4599
(dp4600
g73
(dp4601
g100
g101
ssg82
g4590
sg75
(lp4602
S':'
asbag68
(g89
g70
NtRp4603
(dp4604
g73
(dp4605
sg82
g4590
sg75
(lp4606
g68
(g69
g70
NtRp4607
(dp4608
g73
(dp4609
g81
I5
ssg82
g4603
sg75
(lp4610
S'None'
p4611
asbasbasbag68
(g84
g70
NtRp4612
(dp4613
g73
(dp4614
sg82
g3689
sg75
(lp4615
g68
(g89
g70
NtRp4616
(dp4617
g73
(dp4618
g93
g94
ssg82
g4612
sg75
(lp4619
S'session_data_name'
p4620
asbag68
(g89
g70
NtRp4621
(dp4622
g73
(dp4623
g100
g101
ssg82
g4612
sg75
(lp4624
S':'
asbag68
(g89
g70
NtRp4625
(dp4626
g73
(dp4627
sg82
g4612
sg75
(lp4628
g68
(g69
g70
NtRp4629
(dp4630
g73
(dp4631
g81
I5
ssg82
g4625
sg75
(lp4632
S'session_data_rosan'
p4633
asbasbasbag68
(g84
g70
NtRp4634
(dp4635
g73
(dp4636
sg82
g3689
sg75
(lp4637
g68
(g89
g70
NtRp4638
(dp4639
g73
(dp4640
g93
g94
ssg82
g4634
sg75
(lp4641
S'session_file'
p4642
asbag68
(g89
g70
NtRp4643
(dp4644
g73
(dp4645
g100
g101
ssg82
g4634
sg75
(lp4646
S':'
asbag68
(g89
g70
NtRp4647
(dp4648
g73
(dp4649
sg82
g4634
sg75
(lp4650
g68
(g69
g70
NtRp4651
(dp4652
g73
(dp4653
g81
I5
ssg82
g4647
sg75
(lp4654
S'None'
p4655
asbasbasbag68
(g84
g70
NtRp4656
(dp4657
g73
(dp4658
sg82
g3689
sg75
(lp4659
g68
(g89
g70
NtRp4660
(dp4661
g73
(dp4662
g93
g94
ssg82
g4656
sg75
(lp4663
S'session_filename'
p4664
asbag68
(g89
g70
NtRp4665
(dp4666
g73
(dp4667
g100
g101
ssg82
g4656
sg75
(lp4668
S':'
asbag68
(g89
g70
NtRp4669
(dp4670
g73
(dp4671
sg82
g4656
sg75
(lp4672
g68
(g69
g70
NtRp4673
(dp4674
g73
(dp4675
g81
I5
ssg82
g4669
sg75
(lp4676
S'/Users/Truki/Desarrollo/web2py/applications/rosan/sessions/127.0.0.1-3f9bc004-8806-428c-8ebf-06d42e84bf4b'
p4677
asbasbasbag68
(g84
g70
NtRp4678
(dp4679
g73
(dp4680
sg82
g3689
sg75
(lp4681
g68
(g89
g70
NtRp4682
(dp4683
g73
(dp4684
g93
g94
ssg82
g4678
sg75
(lp4685
S'session_id'
p4686
asbag68
(g89
g70
NtRp4687
(dp4688
g73
(dp4689
g100
g101
ssg82
g4678
sg75
(lp4690
S':'
asbag68
(g89
g70
NtRp4691
(dp4692
g73
(dp4693
sg82
g4678
sg75
(lp4694
g68
(g69
g70
NtRp4695
(dp4696
g73
(dp4697
g81
I5
ssg82
g4691
sg75
(lp4698
g486
asbasbasbag68
(g84
g70
NtRp4699
(dp4700
g73
(dp4701
sg82
g3689
sg75
(lp4702
g68
(g89
g70
NtRp4703
(dp4704
g73
(dp4705
g93
g94
ssg82
g4699
sg75
(lp4706
S'session_id_name'
p4707
asbag68
(g89
g70
NtRp4708
(dp4709
g73
(dp4710
g100
g101
ssg82
g4699
sg75
(lp4711
S':'
asbag68
(g89
g70
NtRp4712
(dp4713
g73
(dp4714
sg82
g4699
sg75
(lp4715
g68
(g69
g70
NtRp4716
(dp4717
g73
(dp4718
g81
I5
ssg82
g4712
sg75
(lp4719
g3746
asbasbasbag68
(g84
g70
NtRp4720
(dp4721
g73
(dp4722
sg82
g3689
sg75
(lp4723
g68
(g89
g70
NtRp4724
(dp4725
g73
(dp4726
g93
g94
ssg82
g4720
sg75
(lp4727
S'session_new'
p4728
asbag68
(g89
g70
NtRp4729
(dp4730
g73
(dp4731
g100
g101
ssg82
g4720
sg75
(lp4732
S':'
asbag68
(g89
g70
NtRp4733
(dp4734
g73
(dp4735
sg82
g4720
sg75
(lp4736
g68
(g69
g70
NtRp4737
(dp4738
g73
(dp4739
g81
I5
ssg82
g4733
sg75
(lp4740
g111
asbasbasbag68
(g84
g70
NtRp4741
(dp4742
g73
(dp4743
sg82
g3689
sg75
(lp4744
g68
(g89
g70
NtRp4745
(dp4746
g73
(dp4747
g93
g94
ssg82
g4741
sg75
(lp4748
S'session_storage_type'
p4749
asbag68
(g89
g70
NtRp4750
(dp4751
g73
(dp4752
g100
g101
ssg82
g4741
sg75
(lp4753
S':'
asbag68
(g89
g70
NtRp4754
(dp4755
g73
(dp4756
sg82
g4741
sg75
(lp4757
g68
(g69
g70
NtRp4758
(dp4759
g73
(dp4760
g81
I5
ssg82
g4754
sg75
(lp4761
g3618
asbasbasbag68
(g84
g70
NtRp4762
(dp4763
g73
(dp4764
sg82
g3689
sg75
(lp4765
g68
(g89
g70
NtRp4766
(dp4767
g73
(dp4768
g93
g94
ssg82
g4762
sg75
(lp4769
S'status'
p4770
asbag68
(g89
g70
NtRp4771
(dp4772
g73
(dp4773
g100
g101
ssg82
g4762
sg75
(lp4774
S':'
asbag68
(g89
g70
NtRp4775
(dp4776
g73
(dp4777
sg82
g4762
sg75
(lp4778
g68
(g69
g70
NtRp4779
(dp4780
g73
(dp4781
g81
I5
ssg82
g4775
sg75
(lp4782
S'200'
p4783
asbasbasbag68
(g84
g70
NtRp4784
(dp4785
g73
(dp4786
sg82
g3689
sg75
(lp4787
g68
(g89
g70
NtRp4788
(dp4789
g73
(dp4790
g93
g94
ssg82
g4784
sg75
(lp4791
S'subtitle'
p4792
asbag68
(g89
g70
NtRp4793
(dp4794
g73
(dp4795
g100
g101
ssg82
g4784
sg75
(lp4796
S':'
asbag68
(g89
g70
NtRp4797
(dp4798
g73
(dp4799
sg82
g4784
sg75
(lp4800
g68
(g69
g70
NtRp4801
(dp4802
g73
(dp4803
g81
I5
ssg82
g4797
sg75
(lp4804
S'by @trukise'
p4805
asbasbasbag68
(g84
g70
NtRp4806
(dp4807
g73
(dp4808
sg82
g3689
sg75
(lp4809
g68
(g89
g70
NtRp4810
(dp4811
g73
(dp4812
g93
g94
ssg82
g4806
sg75
(lp4813
S'title'
p4814
asbag68
(g89
g70
NtRp4815
(dp4816
g73
(dp4817
g100
g101
ssg82
g4806
sg75
(lp4818
S':'
asbag68
(g89
g70
NtRp4819
(dp4820
g73
(dp4821
sg82
g4806
sg75
(lp4822
g68
(g69
g70
NtRp4823
(dp4824
g73
(dp4825
g81
I5
ssg82
g4819
sg75
(lp4826
S'Rosan'
p4827
asbasbasbag68
(g84
g70
NtRp4828
(dp4829
g73
(dp4830
sg82
g3689
sg75
(lp4831
g68
(g89
g70
NtRp4832
(dp4833
g73
(dp4834
g93
g94
ssg82
g4828
sg75
(lp4835
S'view'
p4836
asbag68
(g89
g70
NtRp4837
(dp4838
g73
(dp4839
g100
g101
ssg82
g4828
sg75
(lp4840
S':'
asbag68
(g89
g70
NtRp4841
(dp4842
g73
(dp4843
sg82
g4828
sg75
(lp4844
g68
(g69
g70
NtRp4845
(dp4846
g73
(dp4847
g81
I5
ssg82
g4841
sg75
(lp4848
S'facturas/detalleFactura.html'
p4849
asbasbasbasbasbsS'locals'
p4850
(dp4851
g4
S"'/Users/Truki/Desarrollo/web2py/applications/rosan/controllers/facturas.py'"
p4852
sg6
S"'# coding: utf8\\n# intente algo como\\ndef index(): ...\\nresponse._vars=response._caller(detalleFactura)\\n'"
p4853
sssS'traceback'
p4854
S'Traceback (most recent call last):\n  File "/Users/Truki/Desarrollo/web2py/gluon/restricted.py", line 211, in restricted\n    ccode = compile2(code, layer)\n  File "/Users/Truki/Desarrollo/web2py/gluon/restricted.py", line 194, in compile2\n    return compile(code.rstrip().replace(\'\\r\\n\', \'\\n\') + \'\\n\', layer, \'exec\')\n  File "/Users/Truki/Desarrollo/web2py/applications/rosan/controllers/facturas.py", line 24\n    _class="form-horizontal", _action="/rosan/facturas/detalleFactura", _name="nuevoConcepto")\n   ^\nIndentationError: unexpected indent\n'
p4855
s.