(dp1
S'output'
p2
S"<class 'sqlite3.OperationalError'> table auth_user already exists"
p3
sS'layer'
p4
S'/Users/Truki/web2py/applications/rosan/models/db.py'
p5
sS'code'
p6
S"# -*- coding: utf-8 -*-\r\n\r\n#########################################################################\r\n## This scaffolding model makes your app work on Google App Engine too\r\n## File is released under public domain and you can use without limitations\r\n#########################################################################\r\n\r\n## if SSL/HTTPS is properly configured and you want all HTTP requests to\r\n## be redirected to HTTPS, uncomment the line below:\r\n# request.requires_https()\r\n\r\nif not request.env.web2py_runtime_gae:\r\n    ## if NOT running on Google App Engine use SQLite or other DB\r\n    db = DAL('sqlite://storage.sqlite')\r\nelse:\r\n    ## connect to Google BigTable (optional 'google:datastore://namespace')\r\n    db = DAL('google:datastore')\r\n    ## store sessions and tickets there\r\n    session.connect(request, response, db = db)\r\n    ## or store session in Memcache, Redis, etc.\r\n    ## from gluon.contrib.memdb import MEMDB\r\n    ## from google.appengine.api.memcache import Client\r\n    ## session.connect(request, response, db = MEMDB(Client()))\r\n\r\n## by default give a view/generic.extension to all actions from localhost\r\n## none otherwise. a pattern can be 'controller/function.extension'\r\nresponse.generic_patterns = ['*'] if request.is_local else []\r\n## (optional) optimize handling of static files\r\n# response.optimize_css = 'concat,minify,inline'\r\n# response.optimize_js = 'concat,minify,inline'\r\n\r\n#########################################################################\r\n## Here is sample code if you need for\r\n## - email capabilities\r\n## - authentication (registration, login, logout, ... )\r\n## - authorization (role based authorization)\r\n## - services (xml, csv, json, xmlrpc, jsonrpc, amf, rss)\r\n## - old style crud actions\r\n## (more options discussed in gluon/tools.py)\r\n#########################################################################\r\n\r\nfrom gluon.tools import Auth, Crud, Service, PluginManager, prettydate\r\nauth = Auth(db, hmac_key=Auth.get_or_create_key())\r\ncrud, service, plugins = Crud(db), Service(), PluginManager()\r\n\r\n## create all tables needed by auth if not custom tables\r\n\n########################################\ndb.define_table('auth_user',\n    Field('username', type='string',\n          label=T('Username')),\n    Field('first_name', type='string',\n          label=T('First Name')),\n    Field('last_name', type='string',\n          label=T('Last Name')),\n    Field('email', type='string',\n          label=T('Email')),\n    Field('password', type='password',\n          readable=False,\n          label=T('Password')),\n    Field('created_on','datetime',default=request.now,\n          label=T('Created On'),writable=False,readable=False),\n    Field('modified_on','datetime',default=request.now,\n          label=T('Modified On'),writable=False,readable=False,\n          update=request.now),\n    Field('registration_key',default='',\n          writable=False,readable=False),\n    Field('reset_password_key',default='',\n          writable=False,readable=False),\n    Field('registration_id',default='',\n          writable=False,readable=False),\n    format='%(username)s',\n    migrate=settings.migrate)\n\n\ndb.auth_user.first_name.requires = IS_NOT_EMPTY(error_message=auth.messages.is_empty)\ndb.auth_user.last_name.requires = IS_NOT_EMPTY(error_message=auth.messages.is_empty)\ndb.auth_user.password.requires = CRYPT(key=auth.settings.hmac_key)\ndb.auth_user.username.requires = IS_NOT_IN_DB(db, db.auth_user.username)\ndb.auth_user.email.requires = (IS_EMAIL(error_message=auth.messages.invalid_email),\n                               IS_NOT_IN_DB(db, db.auth_user.email))\nauth.define_tables(migrate = settings.migrate)\r\n\r\n## configure email\r\nmail=auth.settings.mailer\r\nmail.settings.server = 'logging' or 'smtp.gmail.com:587'\r\nmail.settings.sender = 'you@gmail.com'\r\nmail.settings.login = 'username:password'\r\n\r\n## configure auth policy\r\nauth.settings.registration_requires_verification = False\r\nauth.settings.registration_requires_approval = False\r\nauth.settings.reset_password_requires_verification = True\r\n\r\n## if you need to use OpenID, Facebook, MySpace, Twitter, Linkedin, etc.\r\n## register with janrain.com, write your domain:api_key in private/janrain.key\r\nfrom gluon.contrib.login_methods.rpx_account import use_janrain\r\nuse_janrain(auth,filename='private/janrain.key')\r\n\r\n#########################################################################\r\n## Define your tables below (or better in another model file) for example\r\n##\r\n## >>> db.define_table('mytable',Field('myfield','string'))\r\n##\r\n## Fields can be 'string','text','password','integer','double','boolean'\r\n##       'date','time','datetime','blob','upload', 'reference TABLENAME'\r\n## There is an implicit 'id integer autoincrement' field\r\n## Consult manual for more options, validators, etc.\r\n##\r\n## More API examples for controllers:\r\n##\r\n## >>> db.mytable.insert(myfield='value')\r\n## >>> rows=db(db.mytable.myfield=='value').select(db.mytable.ALL)\r\n## >>> for row in rows: print row.id, row.myfield\r\n#########################################################################\r\n\r\n\nmail.settings.server = settings.email_server\nmail.settings.sender = settings.email_sender\nmail.settings.login = settings.email_login\n"
p7
sS'snapshot'
p8
(dp9
S'exception'
p10
(dp11
S'__module__'
p12
S"'sqlite3'"
p13
sS'__getslice__'
p14
S"<method-wrapper '__getslice__' of OperationalError object>"
p15
sS'__str__'
p16
S"<method-wrapper '__str__' of OperationalError object>"
p17
sS'__reduce__'
p18
S'<built-in method __reduce__ of OperationalError object>'
p19
sS'__dict__'
p20
S'{}'
p21
sS'__sizeof__'
p22
S'<built-in method __sizeof__ of OperationalError object>'
p23
sS'__weakref__'
p24
S'None'
p25
sS'__init__'
p26
S"<method-wrapper '__init__' of OperationalError object>"
p27
sS'__setattr__'
p28
S"<method-wrapper '__setattr__' of OperationalError object>"
p29
sS'__reduce_ex__'
p30
S'<built-in method __reduce_ex__ of OperationalError object>'
p31
sS'__new__'
p32
S'<built-in method __new__ of type object>'
p33
sS'__format__'
p34
S'<built-in method __format__ of OperationalError object>'
p35
sS'__class__'
p36
S"<class 'sqlite3.OperationalError'>"
p37
sS'__doc__'
p38
S'None'
p39
sS'__getitem__'
p40
S"<method-wrapper '__getitem__' of OperationalError object>"
p41
sS'__setstate__'
p42
S'<built-in method __setstate__ of OperationalError object>'
p43
sS'__getattribute__'
p44
S"<method-wrapper '__getattribute__' of OperationalError object>"
p45
sS'args'
p46
S"('table auth_user already exists',)"
p47
sS'__subclasshook__'
p48
S'<built-in method __subclasshook__ of type object>'
p49
sS'__unicode__'
p50
S'<built-in method __unicode__ of OperationalError object>'
p51
sS'__delattr__'
p52
S"<method-wrapper '__delattr__' of OperationalError object>"
p53
sS'__repr__'
p54
S"<method-wrapper '__repr__' of OperationalError object>"
p55
sS'__hash__'
p56
S"<method-wrapper '__hash__' of OperationalError object>"
p57
ssS'evalue'
p58
S'table auth_user already exists'
p59
sS'request'
p60
ccopy_reg
_reconstructor
p61
(cgluon.html
BEAUTIFY
p62
c__builtin__
object
p63
NtRp64
(dp65
S'attributes'
p66
(dp67
sS'components'
p68
(lp69
g61
(cgluon.html
TABLE
p70
g63
NtRp71
(dp72
g66
(dp73
S'level'
p74
I5
ssS'parent'
p75
Nsg68
(lp76
g61
(cgluon.html
TR
p77
g63
NtRp78
(dp79
g66
(dp80
sg75
g71
sg68
(lp81
g61
(cgluon.html
TD
p82
g63
NtRp83
(dp84
g66
(dp85
S'_style'
p86
S'font-weight:bold;vertical-align:top'
p87
ssg75
g78
sg68
(lp88
S'ajax'
p89
asbag61
(g82
g63
NtRp90
(dp91
g66
(dp92
S'_valign'
p93
S'top'
p94
ssg75
g78
sg68
(lp95
S':'
asbag61
(g82
g63
NtRp96
(dp97
g66
(dp98
sg75
g78
sg68
(lp99
g61
(g62
g63
NtRp100
(dp101
g66
(dp102
g74
I5
ssg75
g96
sg68
(lp103
S'False'
p104
asbasbasbag61
(g77
g63
NtRp105
(dp106
g66
(dp107
sg75
g71
sg68
(lp108
g61
(g82
g63
NtRp109
(dp110
g66
(dp111
g86
g87
ssg75
g105
sg68
(lp112
S'application'
p113
asbag61
(g82
g63
NtRp114
(dp115
g66
(dp116
g93
g94
ssg75
g105
sg68
(lp117
S':'
asbag61
(g82
g63
NtRp118
(dp119
g66
(dp120
sg75
g105
sg68
(lp121
g61
(g62
g63
NtRp122
(dp123
g66
(dp124
g74
I5
ssg75
g118
sg68
(lp125
S'rosan'
p126
asbasbasbag61
(g77
g63
NtRp127
(dp128
g66
(dp129
sg75
g71
sg68
(lp130
g61
(g82
g63
NtRp131
(dp132
g66
(dp133
g86
g87
ssg75
g127
sg68
(lp134
g46
asbag61
(g82
g63
NtRp135
(dp136
g66
(dp137
g93
g94
ssg75
g127
sg68
(lp138
S':'
asbag61
(g82
g63
NtRp139
(dp140
g66
(dp141
sg75
g127
sg68
(lp142
g61
(g62
g63
NtRp143
(dp144
g66
(dp145
g74
I5
ssg75
g139
sg68
(lp146
g61
(g70
g63
NtRp147
(dp148
g66
(dp149
g74
I4
ssg75
Nsg68
(lp150
sbasbasbasbag61
(g77
g63
NtRp151
(dp152
g66
(dp153
sg75
g71
sg68
(lp154
g61
(g82
g63
NtRp155
(dp156
g66
(dp157
g86
g87
ssg75
g151
sg68
(lp158
S'body'
p159
asbag61
(g82
g63
NtRp160
(dp161
g66
(dp162
g93
g94
ssg75
g151
sg68
(lp163
S':'
asbag61
(g82
g63
NtRp164
(dp165
g66
(dp166
sg75
g151
sg68
(lp167
g61
(g62
g63
NtRp168
(dp169
g66
(dp170
g74
I5
ssg75
g164
sg68
(lp171
S'<cStringIO.StringO object at 0x18882680>'
p172
asbasbasbag61
(g77
g63
NtRp173
(dp174
g66
(dp175
sg75
g71
sg68
(lp176
g61
(g82
g63
NtRp177
(dp178
g66
(dp179
g86
g87
ssg75
g173
sg68
(lp180
S'cid'
p181
asbag61
(g82
g63
NtRp182
(dp183
g66
(dp184
g93
g94
ssg75
g173
sg68
(lp185
S':'
asbag61
(g82
g63
NtRp186
(dp187
g66
(dp188
sg75
g173
sg68
(lp189
g61
(g62
g63
NtRp190
(dp191
g66
(dp192
g74
I5
ssg75
g186
sg68
(lp193
S'None'
p194
asbasbasbag61
(g77
g63
NtRp195
(dp196
g66
(dp197
sg75
g71
sg68
(lp198
g61
(g82
g63
NtRp199
(dp200
g66
(dp201
g86
g87
ssg75
g195
sg68
(lp202
S'client'
p203
asbag61
(g82
g63
NtRp204
(dp205
g66
(dp206
g93
g94
ssg75
g195
sg68
(lp207
S':'
asbag61
(g82
g63
NtRp208
(dp209
g66
(dp210
sg75
g195
sg68
(lp211
g61
(g62
g63
NtRp212
(dp213
g66
(dp214
g74
I5
ssg75
g208
sg68
(lp215
S'127.0.0.1'
p216
asbasbasbag61
(g77
g63
NtRp217
(dp218
g66
(dp219
sg75
g71
sg68
(lp220
g61
(g82
g63
NtRp221
(dp222
g66
(dp223
g86
g87
ssg75
g217
sg68
(lp224
S'controller'
p225
asbag61
(g82
g63
NtRp226
(dp227
g66
(dp228
g93
g94
ssg75
g217
sg68
(lp229
S':'
asbag61
(g82
g63
NtRp230
(dp231
g66
(dp232
sg75
g217
sg68
(lp233
g61
(g62
g63
NtRp234
(dp235
g66
(dp236
g74
I5
ssg75
g230
sg68
(lp237
S'default'
p238
asbasbasbag61
(g77
g63
NtRp239
(dp240
g66
(dp241
sg75
g71
sg68
(lp242
g61
(g82
g63
NtRp243
(dp244
g66
(dp245
g86
g87
ssg75
g239
sg68
(lp246
S'cookies'
p247
asbag61
(g82
g63
NtRp248
(dp249
g66
(dp250
g93
g94
ssg75
g239
sg68
(lp251
S':'
asbag61
(g82
g63
NtRp252
(dp253
g66
(dp254
sg75
g239
sg68
(lp255
g61
(g62
g63
NtRp256
(dp257
g66
(dp258
g74
I5
ssg75
g252
sg68
(lp259
g61
(g70
g63
NtRp260
(dp261
g66
(dp262
g74
I4
ssg75
Nsg68
(lp263
g61
(g77
g63
NtRp264
(dp265
g66
(dp266
sg75
g260
sg68
(lp267
g61
(g82
g63
NtRp268
(dp269
g66
(dp270
g86
g87
ssg75
g264
sg68
(lp271
S'session_id_admin'
p272
asbag61
(g82
g63
NtRp273
(dp274
g66
(dp275
g93
g94
ssg75
g264
sg68
(lp276
S':'
asbag61
(g82
g63
NtRp277
(dp278
g66
(dp279
sg75
g264
sg68
(lp280
g61
(g62
g63
NtRp281
(dp282
g66
(dp283
g74
I4
ssg75
g277
sg68
(lp284
S'127.0.0.1-75ddbde5-8b43-4cf0-9571-7b2d1d8a6250'
p285
ag61
(g70
g63
NtRp286
(dp287
g66
(dp288
g74
I3
ssg75
Nsg68
(lp289
g61
(g77
g63
NtRp290
(dp291
g66
(dp292
sg75
g286
sg68
(lp293
g61
(g82
g63
NtRp294
(dp295
g66
(dp296
g86
g87
ssg75
g290
sg68
(lp297
S'comment'
p298
asbag61
(g82
g63
NtRp299
(dp300
g66
(dp301
g93
g94
ssg75
g290
sg68
(lp302
S':'
asbag61
(g82
g63
NtRp303
(dp304
g66
(dp305
sg75
g290
sg68
(lp306
g61
(g62
g63
NtRp307
(dp308
g66
(dp309
g74
I3
ssg75
g303
sg68
(lp310
S''
asbasbasbag61
(g77
g63
NtRp311
(dp312
g66
(dp313
sg75
g286
sg68
(lp314
g61
(g82
g63
NtRp315
(dp316
g66
(dp317
g86
g87
ssg75
g311
sg68
(lp318
S'domain'
p319
asbag61
(g82
g63
NtRp320
(dp321
g66
(dp322
g93
g94
ssg75
g311
sg68
(lp323
S':'
asbag61
(g82
g63
NtRp324
(dp325
g66
(dp326
sg75
g311
sg68
(lp327
g61
(g62
g63
NtRp328
(dp329
g66
(dp330
g74
I3
ssg75
g324
sg68
(lp331
S''
asbasbasbag61
(g77
g63
NtRp332
(dp333
g66
(dp334
sg75
g286
sg68
(lp335
g61
(g82
g63
NtRp336
(dp337
g66
(dp338
g86
g87
ssg75
g332
sg68
(lp339
S'expires'
p340
asbag61
(g82
g63
NtRp341
(dp342
g66
(dp343
g93
g94
ssg75
g332
sg68
(lp344
S':'
asbag61
(g82
g63
NtRp345
(dp346
g66
(dp347
sg75
g332
sg68
(lp348
g61
(g62
g63
NtRp349
(dp350
g66
(dp351
g74
I3
ssg75
g345
sg68
(lp352
S''
asbasbasbag61
(g77
g63
NtRp353
(dp354
g66
(dp355
sg75
g286
sg68
(lp356
g61
(g82
g63
NtRp357
(dp358
g66
(dp359
g86
g87
ssg75
g353
sg68
(lp360
S'httponly'
p361
asbag61
(g82
g63
NtRp362
(dp363
g66
(dp364
g93
g94
ssg75
g353
sg68
(lp365
S':'
asbag61
(g82
g63
NtRp366
(dp367
g66
(dp368
sg75
g353
sg68
(lp369
g61
(g62
g63
NtRp370
(dp371
g66
(dp372
g74
I3
ssg75
g366
sg68
(lp373
S''
asbasbasbag61
(g77
g63
NtRp374
(dp375
g66
(dp376
sg75
g286
sg68
(lp377
g61
(g82
g63
NtRp378
(dp379
g66
(dp380
g86
g87
ssg75
g374
sg68
(lp381
S'max-age'
p382
asbag61
(g82
g63
NtRp383
(dp384
g66
(dp385
g93
g94
ssg75
g374
sg68
(lp386
S':'
asbag61
(g82
g63
NtRp387
(dp388
g66
(dp389
sg75
g374
sg68
(lp390
g61
(g62
g63
NtRp391
(dp392
g66
(dp393
g74
I3
ssg75
g387
sg68
(lp394
S''
asbasbasbag61
(g77
g63
NtRp395
(dp396
g66
(dp397
sg75
g286
sg68
(lp398
g61
(g82
g63
NtRp399
(dp400
g66
(dp401
g86
g87
ssg75
g395
sg68
(lp402
S'path'
p403
asbag61
(g82
g63
NtRp404
(dp405
g66
(dp406
g93
g94
ssg75
g395
sg68
(lp407
S':'
asbag61
(g82
g63
NtRp408
(dp409
g66
(dp410
sg75
g395
sg68
(lp411
g61
(g62
g63
NtRp412
(dp413
g66
(dp414
g74
I3
ssg75
g408
sg68
(lp415
S''
asbasbasbag61
(g77
g63
NtRp416
(dp417
g66
(dp418
sg75
g286
sg68
(lp419
g61
(g82
g63
NtRp420
(dp421
g66
(dp422
g86
g87
ssg75
g416
sg68
(lp423
S'secure'
p424
asbag61
(g82
g63
NtRp425
(dp426
g66
(dp427
g93
g94
ssg75
g416
sg68
(lp428
S':'
asbag61
(g82
g63
NtRp429
(dp430
g66
(dp431
sg75
g416
sg68
(lp432
g61
(g62
g63
NtRp433
(dp434
g66
(dp435
g74
I3
ssg75
g429
sg68
(lp436
S''
asbasbasbag61
(g77
g63
NtRp437
(dp438
g66
(dp439
sg75
g286
sg68
(lp440
g61
(g82
g63
NtRp441
(dp442
g66
(dp443
g86
g87
ssg75
g437
sg68
(lp444
S'version'
p445
asbag61
(g82
g63
NtRp446
(dp447
g66
(dp448
g93
g94
ssg75
g437
sg68
(lp449
S':'
asbag61
(g82
g63
NtRp450
(dp451
g66
(dp452
sg75
g437
sg68
(lp453
g61
(g62
g63
NtRp454
(dp455
g66
(dp456
g74
I3
ssg75
g450
sg68
(lp457
S''
asbasbasbasbasbasbasbag61
(g77
g63
NtRp458
(dp459
g66
(dp460
sg75
g260
sg68
(lp461
g61
(g82
g63
NtRp462
(dp463
g66
(dp464
g86
g87
ssg75
g458
sg68
(lp465
S'session_id_matronasur'
p466
asbag61
(g82
g63
NtRp467
(dp468
g66
(dp469
g93
g94
ssg75
g458
sg68
(lp470
S':'
asbag61
(g82
g63
NtRp471
(dp472
g66
(dp473
sg75
g458
sg68
(lp474
g61
(g62
g63
NtRp475
(dp476
g66
(dp477
g74
I4
ssg75
g471
sg68
(lp478
S'127.0.0.1-8343402c-1487-4a2a-bd4e-cabfaa583d35'
p479
ag61
(g70
g63
NtRp480
(dp481
g66
(dp482
g74
I3
ssg75
Nsg68
(lp483
g61
(g77
g63
NtRp484
(dp485
g66
(dp486
sg75
g480
sg68
(lp487
g61
(g82
g63
NtRp488
(dp489
g66
(dp490
g86
g87
ssg75
g484
sg68
(lp491
g298
asbag61
(g82
g63
NtRp492
(dp493
g66
(dp494
g93
g94
ssg75
g484
sg68
(lp495
S':'
asbag61
(g82
g63
NtRp496
(dp497
g66
(dp498
sg75
g484
sg68
(lp499
g61
(g62
g63
NtRp500
(dp501
g66
(dp502
g74
I3
ssg75
g496
sg68
(lp503
S''
asbasbasbag61
(g77
g63
NtRp504
(dp505
g66
(dp506
sg75
g480
sg68
(lp507
g61
(g82
g63
NtRp508
(dp509
g66
(dp510
g86
g87
ssg75
g504
sg68
(lp511
g319
asbag61
(g82
g63
NtRp512
(dp513
g66
(dp514
g93
g94
ssg75
g504
sg68
(lp515
S':'
asbag61
(g82
g63
NtRp516
(dp517
g66
(dp518
sg75
g504
sg68
(lp519
g61
(g62
g63
NtRp520
(dp521
g66
(dp522
g74
I3
ssg75
g516
sg68
(lp523
S''
asbasbasbag61
(g77
g63
NtRp524
(dp525
g66
(dp526
sg75
g480
sg68
(lp527
g61
(g82
g63
NtRp528
(dp529
g66
(dp530
g86
g87
ssg75
g524
sg68
(lp531
g340
asbag61
(g82
g63
NtRp532
(dp533
g66
(dp534
g93
g94
ssg75
g524
sg68
(lp535
S':'
asbag61
(g82
g63
NtRp536
(dp537
g66
(dp538
sg75
g524
sg68
(lp539
g61
(g62
g63
NtRp540
(dp541
g66
(dp542
g74
I3
ssg75
g536
sg68
(lp543
S''
asbasbasbag61
(g77
g63
NtRp544
(dp545
g66
(dp546
sg75
g480
sg68
(lp547
g61
(g82
g63
NtRp548
(dp549
g66
(dp550
g86
g87
ssg75
g544
sg68
(lp551
g361
asbag61
(g82
g63
NtRp552
(dp553
g66
(dp554
g93
g94
ssg75
g544
sg68
(lp555
S':'
asbag61
(g82
g63
NtRp556
(dp557
g66
(dp558
sg75
g544
sg68
(lp559
g61
(g62
g63
NtRp560
(dp561
g66
(dp562
g74
I3
ssg75
g556
sg68
(lp563
S''
asbasbasbag61
(g77
g63
NtRp564
(dp565
g66
(dp566
sg75
g480
sg68
(lp567
g61
(g82
g63
NtRp568
(dp569
g66
(dp570
g86
g87
ssg75
g564
sg68
(lp571
g382
asbag61
(g82
g63
NtRp572
(dp573
g66
(dp574
g93
g94
ssg75
g564
sg68
(lp575
S':'
asbag61
(g82
g63
NtRp576
(dp577
g66
(dp578
sg75
g564
sg68
(lp579
g61
(g62
g63
NtRp580
(dp581
g66
(dp582
g74
I3
ssg75
g576
sg68
(lp583
S''
asbasbasbag61
(g77
g63
NtRp584
(dp585
g66
(dp586
sg75
g480
sg68
(lp587
g61
(g82
g63
NtRp588
(dp589
g66
(dp590
g86
g87
ssg75
g584
sg68
(lp591
g403
asbag61
(g82
g63
NtRp592
(dp593
g66
(dp594
g93
g94
ssg75
g584
sg68
(lp595
S':'
asbag61
(g82
g63
NtRp596
(dp597
g66
(dp598
sg75
g584
sg68
(lp599
g61
(g62
g63
NtRp600
(dp601
g66
(dp602
g74
I3
ssg75
g596
sg68
(lp603
S''
asbasbasbag61
(g77
g63
NtRp604
(dp605
g66
(dp606
sg75
g480
sg68
(lp607
g61
(g82
g63
NtRp608
(dp609
g66
(dp610
g86
g87
ssg75
g604
sg68
(lp611
g424
asbag61
(g82
g63
NtRp612
(dp613
g66
(dp614
g93
g94
ssg75
g604
sg68
(lp615
S':'
asbag61
(g82
g63
NtRp616
(dp617
g66
(dp618
sg75
g604
sg68
(lp619
g61
(g62
g63
NtRp620
(dp621
g66
(dp622
g74
I3
ssg75
g616
sg68
(lp623
S''
asbasbasbag61
(g77
g63
NtRp624
(dp625
g66
(dp626
sg75
g480
sg68
(lp627
g61
(g82
g63
NtRp628
(dp629
g66
(dp630
g86
g87
ssg75
g624
sg68
(lp631
g445
asbag61
(g82
g63
NtRp632
(dp633
g66
(dp634
g93
g94
ssg75
g624
sg68
(lp635
S':'
asbag61
(g82
g63
NtRp636
(dp637
g66
(dp638
sg75
g624
sg68
(lp639
g61
(g62
g63
NtRp640
(dp641
g66
(dp642
g74
I3
ssg75
g636
sg68
(lp643
S''
asbasbasbasbasbasbasbag61
(g77
g63
NtRp644
(dp645
g66
(dp646
sg75
g260
sg68
(lp647
g61
(g82
g63
NtRp648
(dp649
g66
(dp650
g86
g87
ssg75
g644
sg68
(lp651
S'session_id_sergio'
p652
asbag61
(g82
g63
NtRp653
(dp654
g66
(dp655
g93
g94
ssg75
g644
sg68
(lp656
S':'
asbag61
(g82
g63
NtRp657
(dp658
g66
(dp659
sg75
g644
sg68
(lp660
g61
(g62
g63
NtRp661
(dp662
g66
(dp663
g74
I4
ssg75
g657
sg68
(lp664
S'127.0.0.1-ef088a5c-6a3f-4191-8874-d733ec0c5b7d'
p665
ag61
(g70
g63
NtRp666
(dp667
g66
(dp668
g74
I3
ssg75
Nsg68
(lp669
g61
(g77
g63
NtRp670
(dp671
g66
(dp672
sg75
g666
sg68
(lp673
g61
(g82
g63
NtRp674
(dp675
g66
(dp676
g86
g87
ssg75
g670
sg68
(lp677
g298
asbag61
(g82
g63
NtRp678
(dp679
g66
(dp680
g93
g94
ssg75
g670
sg68
(lp681
S':'
asbag61
(g82
g63
NtRp682
(dp683
g66
(dp684
sg75
g670
sg68
(lp685
g61
(g62
g63
NtRp686
(dp687
g66
(dp688
g74
I3
ssg75
g682
sg68
(lp689
S''
asbasbasbag61
(g77
g63
NtRp690
(dp691
g66
(dp692
sg75
g666
sg68
(lp693
g61
(g82
g63
NtRp694
(dp695
g66
(dp696
g86
g87
ssg75
g690
sg68
(lp697
g319
asbag61
(g82
g63
NtRp698
(dp699
g66
(dp700
g93
g94
ssg75
g690
sg68
(lp701
S':'
asbag61
(g82
g63
NtRp702
(dp703
g66
(dp704
sg75
g690
sg68
(lp705
g61
(g62
g63
NtRp706
(dp707
g66
(dp708
g74
I3
ssg75
g702
sg68
(lp709
S''
asbasbasbag61
(g77
g63
NtRp710
(dp711
g66
(dp712
sg75
g666
sg68
(lp713
g61
(g82
g63
NtRp714
(dp715
g66
(dp716
g86
g87
ssg75
g710
sg68
(lp717
g340
asbag61
(g82
g63
NtRp718
(dp719
g66
(dp720
g93
g94
ssg75
g710
sg68
(lp721
S':'
asbag61
(g82
g63
NtRp722
(dp723
g66
(dp724
sg75
g710
sg68
(lp725
g61
(g62
g63
NtRp726
(dp727
g66
(dp728
g74
I3
ssg75
g722
sg68
(lp729
S''
asbasbasbag61
(g77
g63
NtRp730
(dp731
g66
(dp732
sg75
g666
sg68
(lp733
g61
(g82
g63
NtRp734
(dp735
g66
(dp736
g86
g87
ssg75
g730
sg68
(lp737
g361
asbag61
(g82
g63
NtRp738
(dp739
g66
(dp740
g93
g94
ssg75
g730
sg68
(lp741
S':'
asbag61
(g82
g63
NtRp742
(dp743
g66
(dp744
sg75
g730
sg68
(lp745
g61
(g62
g63
NtRp746
(dp747
g66
(dp748
g74
I3
ssg75
g742
sg68
(lp749
S''
asbasbasbag61
(g77
g63
NtRp750
(dp751
g66
(dp752
sg75
g666
sg68
(lp753
g61
(g82
g63
NtRp754
(dp755
g66
(dp756
g86
g87
ssg75
g750
sg68
(lp757
g382
asbag61
(g82
g63
NtRp758
(dp759
g66
(dp760
g93
g94
ssg75
g750
sg68
(lp761
S':'
asbag61
(g82
g63
NtRp762
(dp763
g66
(dp764
sg75
g750
sg68
(lp765
g61
(g62
g63
NtRp766
(dp767
g66
(dp768
g74
I3
ssg75
g762
sg68
(lp769
S''
asbasbasbag61
(g77
g63
NtRp770
(dp771
g66
(dp772
sg75
g666
sg68
(lp773
g61
(g82
g63
NtRp774
(dp775
g66
(dp776
g86
g87
ssg75
g770
sg68
(lp777
g403
asbag61
(g82
g63
NtRp778
(dp779
g66
(dp780
g93
g94
ssg75
g770
sg68
(lp781
S':'
asbag61
(g82
g63
NtRp782
(dp783
g66
(dp784
sg75
g770
sg68
(lp785
g61
(g62
g63
NtRp786
(dp787
g66
(dp788
g74
I3
ssg75
g782
sg68
(lp789
S''
asbasbasbag61
(g77
g63
NtRp790
(dp791
g66
(dp792
sg75
g666
sg68
(lp793
g61
(g82
g63
NtRp794
(dp795
g66
(dp796
g86
g87
ssg75
g790
sg68
(lp797
g424
asbag61
(g82
g63
NtRp798
(dp799
g66
(dp800
g93
g94
ssg75
g790
sg68
(lp801
S':'
asbag61
(g82
g63
NtRp802
(dp803
g66
(dp804
sg75
g790
sg68
(lp805
g61
(g62
g63
NtRp806
(dp807
g66
(dp808
g74
I3
ssg75
g802
sg68
(lp809
S''
asbasbasbag61
(g77
g63
NtRp810
(dp811
g66
(dp812
sg75
g666
sg68
(lp813
g61
(g82
g63
NtRp814
(dp815
g66
(dp816
g86
g87
ssg75
g810
sg68
(lp817
g445
asbag61
(g82
g63
NtRp818
(dp819
g66
(dp820
g93
g94
ssg75
g810
sg68
(lp821
S':'
asbag61
(g82
g63
NtRp822
(dp823
g66
(dp824
sg75
g810
sg68
(lp825
g61
(g62
g63
NtRp826
(dp827
g66
(dp828
g74
I3
ssg75
g822
sg68
(lp829
S''
asbasbasbasbasbasbasbag61
(g77
g63
NtRp830
(dp831
g66
(dp832
sg75
g260
sg68
(lp833
g61
(g82
g63
NtRp834
(dp835
g66
(dp836
g86
g87
ssg75
g830
sg68
(lp837
S'session_id_welcome'
p838
asbag61
(g82
g63
NtRp839
(dp840
g66
(dp841
g93
g94
ssg75
g830
sg68
(lp842
S':'
asbag61
(g82
g63
NtRp843
(dp844
g66
(dp845
sg75
g830
sg68
(lp846
g61
(g62
g63
NtRp847
(dp848
g66
(dp849
g74
I4
ssg75
g843
sg68
(lp850
S'127.0.0.1-67239e43-a3ae-4c64-8c01-35126378c9df'
p851
ag61
(g70
g63
NtRp852
(dp853
g66
(dp854
g74
I3
ssg75
Nsg68
(lp855
g61
(g77
g63
NtRp856
(dp857
g66
(dp858
sg75
g852
sg68
(lp859
g61
(g82
g63
NtRp860
(dp861
g66
(dp862
g86
g87
ssg75
g856
sg68
(lp863
g298
asbag61
(g82
g63
NtRp864
(dp865
g66
(dp866
g93
g94
ssg75
g856
sg68
(lp867
S':'
asbag61
(g82
g63
NtRp868
(dp869
g66
(dp870
sg75
g856
sg68
(lp871
g61
(g62
g63
NtRp872
(dp873
g66
(dp874
g74
I3
ssg75
g868
sg68
(lp875
S''
asbasbasbag61
(g77
g63
NtRp876
(dp877
g66
(dp878
sg75
g852
sg68
(lp879
g61
(g82
g63
NtRp880
(dp881
g66
(dp882
g86
g87
ssg75
g876
sg68
(lp883
g319
asbag61
(g82
g63
NtRp884
(dp885
g66
(dp886
g93
g94
ssg75
g876
sg68
(lp887
S':'
asbag61
(g82
g63
NtRp888
(dp889
g66
(dp890
sg75
g876
sg68
(lp891
g61
(g62
g63
NtRp892
(dp893
g66
(dp894
g74
I3
ssg75
g888
sg68
(lp895
S''
asbasbasbag61
(g77
g63
NtRp896
(dp897
g66
(dp898
sg75
g852
sg68
(lp899
g61
(g82
g63
NtRp900
(dp901
g66
(dp902
g86
g87
ssg75
g896
sg68
(lp903
g340
asbag61
(g82
g63
NtRp904
(dp905
g66
(dp906
g93
g94
ssg75
g896
sg68
(lp907
S':'
asbag61
(g82
g63
NtRp908
(dp909
g66
(dp910
sg75
g896
sg68
(lp911
g61
(g62
g63
NtRp912
(dp913
g66
(dp914
g74
I3
ssg75
g908
sg68
(lp915
S''
asbasbasbag61
(g77
g63
NtRp916
(dp917
g66
(dp918
sg75
g852
sg68
(lp919
g61
(g82
g63
NtRp920
(dp921
g66
(dp922
g86
g87
ssg75
g916
sg68
(lp923
g361
asbag61
(g82
g63
NtRp924
(dp925
g66
(dp926
g93
g94
ssg75
g916
sg68
(lp927
S':'
asbag61
(g82
g63
NtRp928
(dp929
g66
(dp930
sg75
g916
sg68
(lp931
g61
(g62
g63
NtRp932
(dp933
g66
(dp934
g74
I3
ssg75
g928
sg68
(lp935
S''
asbasbasbag61
(g77
g63
NtRp936
(dp937
g66
(dp938
sg75
g852
sg68
(lp939
g61
(g82
g63
NtRp940
(dp941
g66
(dp942
g86
g87
ssg75
g936
sg68
(lp943
g382
asbag61
(g82
g63
NtRp944
(dp945
g66
(dp946
g93
g94
ssg75
g936
sg68
(lp947
S':'
asbag61
(g82
g63
NtRp948
(dp949
g66
(dp950
sg75
g936
sg68
(lp951
g61
(g62
g63
NtRp952
(dp953
g66
(dp954
g74
I3
ssg75
g948
sg68
(lp955
S''
asbasbasbag61
(g77
g63
NtRp956
(dp957
g66
(dp958
sg75
g852
sg68
(lp959
g61
(g82
g63
NtRp960
(dp961
g66
(dp962
g86
g87
ssg75
g956
sg68
(lp963
g403
asbag61
(g82
g63
NtRp964
(dp965
g66
(dp966
g93
g94
ssg75
g956
sg68
(lp967
S':'
asbag61
(g82
g63
NtRp968
(dp969
g66
(dp970
sg75
g956
sg68
(lp971
g61
(g62
g63
NtRp972
(dp973
g66
(dp974
g74
I3
ssg75
g968
sg68
(lp975
S''
asbasbasbag61
(g77
g63
NtRp976
(dp977
g66
(dp978
sg75
g852
sg68
(lp979
g61
(g82
g63
NtRp980
(dp981
g66
(dp982
g86
g87
ssg75
g976
sg68
(lp983
g424
asbag61
(g82
g63
NtRp984
(dp985
g66
(dp986
g93
g94
ssg75
g976
sg68
(lp987
S':'
asbag61
(g82
g63
NtRp988
(dp989
g66
(dp990
sg75
g976
sg68
(lp991
g61
(g62
g63
NtRp992
(dp993
g66
(dp994
g74
I3
ssg75
g988
sg68
(lp995
S''
asbasbasbag61
(g77
g63
NtRp996
(dp997
g66
(dp998
sg75
g852
sg68
(lp999
g61
(g82
g63
NtRp1000
(dp1001
g66
(dp1002
g86
g87
ssg75
g996
sg68
(lp1003
g445
asbag61
(g82
g63
NtRp1004
(dp1005
g66
(dp1006
g93
g94
ssg75
g996
sg68
(lp1007
S':'
asbag61
(g82
g63
NtRp1008
(dp1009
g66
(dp1010
sg75
g996
sg68
(lp1011
g61
(g62
g63
NtRp1012
(dp1013
g66
(dp1014
g74
I3
ssg75
g1008
sg68
(lp1015
S''
asbasbasbasbasbasbasbag61
(g77
g63
NtRp1016
(dp1017
g66
(dp1018
sg75
g260
sg68
(lp1019
g61
(g82
g63
NtRp1020
(dp1021
g66
(dp1022
g86
g87
ssg75
g1016
sg68
(lp1023
S'session_id_xxx'
p1024
asbag61
(g82
g63
NtRp1025
(dp1026
g66
(dp1027
g93
g94
ssg75
g1016
sg68
(lp1028
S':'
asbag61
(g82
g63
NtRp1029
(dp1030
g66
(dp1031
sg75
g1016
sg68
(lp1032
g61
(g62
g63
NtRp1033
(dp1034
g66
(dp1035
g74
I4
ssg75
g1029
sg68
(lp1036
S'127.0.0.1-3cc882ee-ca73-4359-9860-7dcf59d41ca5'
p1037
ag61
(g70
g63
NtRp1038
(dp1039
g66
(dp1040
g74
I3
ssg75
Nsg68
(lp1041
g61
(g77
g63
NtRp1042
(dp1043
g66
(dp1044
sg75
g1038
sg68
(lp1045
g61
(g82
g63
NtRp1046
(dp1047
g66
(dp1048
g86
g87
ssg75
g1042
sg68
(lp1049
g298
asbag61
(g82
g63
NtRp1050
(dp1051
g66
(dp1052
g93
g94
ssg75
g1042
sg68
(lp1053
S':'
asbag61
(g82
g63
NtRp1054
(dp1055
g66
(dp1056
sg75
g1042
sg68
(lp1057
g61
(g62
g63
NtRp1058
(dp1059
g66
(dp1060
g74
I3
ssg75
g1054
sg68
(lp1061
S''
asbasbasbag61
(g77
g63
NtRp1062
(dp1063
g66
(dp1064
sg75
g1038
sg68
(lp1065
g61
(g82
g63
NtRp1066
(dp1067
g66
(dp1068
g86
g87
ssg75
g1062
sg68
(lp1069
g319
asbag61
(g82
g63
NtRp1070
(dp1071
g66
(dp1072
g93
g94
ssg75
g1062
sg68
(lp1073
S':'
asbag61
(g82
g63
NtRp1074
(dp1075
g66
(dp1076
sg75
g1062
sg68
(lp1077
g61
(g62
g63
NtRp1078
(dp1079
g66
(dp1080
g74
I3
ssg75
g1074
sg68
(lp1081
S''
asbasbasbag61
(g77
g63
NtRp1082
(dp1083
g66
(dp1084
sg75
g1038
sg68
(lp1085
g61
(g82
g63
NtRp1086
(dp1087
g66
(dp1088
g86
g87
ssg75
g1082
sg68
(lp1089
g340
asbag61
(g82
g63
NtRp1090
(dp1091
g66
(dp1092
g93
g94
ssg75
g1082
sg68
(lp1093
S':'
asbag61
(g82
g63
NtRp1094
(dp1095
g66
(dp1096
sg75
g1082
sg68
(lp1097
g61
(g62
g63
NtRp1098
(dp1099
g66
(dp1100
g74
I3
ssg75
g1094
sg68
(lp1101
S''
asbasbasbag61
(g77
g63
NtRp1102
(dp1103
g66
(dp1104
sg75
g1038
sg68
(lp1105
g61
(g82
g63
NtRp1106
(dp1107
g66
(dp1108
g86
g87
ssg75
g1102
sg68
(lp1109
g361
asbag61
(g82
g63
NtRp1110
(dp1111
g66
(dp1112
g93
g94
ssg75
g1102
sg68
(lp1113
S':'
asbag61
(g82
g63
NtRp1114
(dp1115
g66
(dp1116
sg75
g1102
sg68
(lp1117
g61
(g62
g63
NtRp1118
(dp1119
g66
(dp1120
g74
I3
ssg75
g1114
sg68
(lp1121
S''
asbasbasbag61
(g77
g63
NtRp1122
(dp1123
g66
(dp1124
sg75
g1038
sg68
(lp1125
g61
(g82
g63
NtRp1126
(dp1127
g66
(dp1128
g86
g87
ssg75
g1122
sg68
(lp1129
g382
asbag61
(g82
g63
NtRp1130
(dp1131
g66
(dp1132
g93
g94
ssg75
g1122
sg68
(lp1133
S':'
asbag61
(g82
g63
NtRp1134
(dp1135
g66
(dp1136
sg75
g1122
sg68
(lp1137
g61
(g62
g63
NtRp1138
(dp1139
g66
(dp1140
g74
I3
ssg75
g1134
sg68
(lp1141
S''
asbasbasbag61
(g77
g63
NtRp1142
(dp1143
g66
(dp1144
sg75
g1038
sg68
(lp1145
g61
(g82
g63
NtRp1146
(dp1147
g66
(dp1148
g86
g87
ssg75
g1142
sg68
(lp1149
g403
asbag61
(g82
g63
NtRp1150
(dp1151
g66
(dp1152
g93
g94
ssg75
g1142
sg68
(lp1153
S':'
asbag61
(g82
g63
NtRp1154
(dp1155
g66
(dp1156
sg75
g1142
sg68
(lp1157
g61
(g62
g63
NtRp1158
(dp1159
g66
(dp1160
g74
I3
ssg75
g1154
sg68
(lp1161
S''
asbasbasbag61
(g77
g63
NtRp1162
(dp1163
g66
(dp1164
sg75
g1038
sg68
(lp1165
g61
(g82
g63
NtRp1166
(dp1167
g66
(dp1168
g86
g87
ssg75
g1162
sg68
(lp1169
g424
asbag61
(g82
g63
NtRp1170
(dp1171
g66
(dp1172
g93
g94
ssg75
g1162
sg68
(lp1173
S':'
asbag61
(g82
g63
NtRp1174
(dp1175
g66
(dp1176
sg75
g1162
sg68
(lp1177
g61
(g62
g63
NtRp1178
(dp1179
g66
(dp1180
g74
I3
ssg75
g1174
sg68
(lp1181
S''
asbasbasbag61
(g77
g63
NtRp1182
(dp1183
g66
(dp1184
sg75
g1038
sg68
(lp1185
g61
(g82
g63
NtRp1186
(dp1187
g66
(dp1188
g86
g87
ssg75
g1182
sg68
(lp1189
g445
asbag61
(g82
g63
NtRp1190
(dp1191
g66
(dp1192
g93
g94
ssg75
g1182
sg68
(lp1193
S':'
asbag61
(g82
g63
NtRp1194
(dp1195
g66
(dp1196
sg75
g1182
sg68
(lp1197
g61
(g62
g63
NtRp1198
(dp1199
g66
(dp1200
g74
I3
ssg75
g1194
sg68
(lp1201
S''
asbasbasbasbasbasbasbasbasbasbasbag61
(g77
g63
NtRp1202
(dp1203
g66
(dp1204
sg75
g71
sg68
(lp1205
g61
(g82
g63
NtRp1206
(dp1207
g66
(dp1208
g86
g87
ssg75
g1202
sg68
(lp1209
S'env'
p1210
asbag61
(g82
g63
NtRp1211
(dp1212
g66
(dp1213
g93
g94
ssg75
g1202
sg68
(lp1214
S':'
asbag61
(g82
g63
NtRp1215
(dp1216
g66
(dp1217
sg75
g1202
sg68
(lp1218
g61
(g62
g63
NtRp1219
(dp1220
g66
(dp1221
g74
I5
ssg75
g1215
sg68
(lp1222
g61
(g70
g63
NtRp1223
(dp1224
g66
(dp1225
g74
I4
ssg75
Nsg68
(lp1226
g61
(g77
g63
NtRp1227
(dp1228
g66
(dp1229
sg75
g1223
sg68
(lp1230
g61
(g82
g63
NtRp1231
(dp1232
g66
(dp1233
g86
g87
ssg75
g1227
sg68
(lp1234
S'app_folders'
p1235
asbag61
(g82
g63
NtRp1236
(dp1237
g66
(dp1238
g93
g94
ssg75
g1227
sg68
(lp1239
S':'
asbag61
(g82
g63
NtRp1240
(dp1241
g66
(dp1242
sg75
g1227
sg68
(lp1243
g61
(g62
g63
NtRp1244
(dp1245
g66
(dp1246
g74
I4
ssg75
g1240
sg68
(lp1247
S"set(['/Users/Truki/web2py/applications/welcome/', '/Users/Truki/web2py/applications/admin/', '/Users/Truki/web2py/applications/rosan/'])"
p1248
asbasbasbag61
(g77
g63
NtRp1249
(dp1250
g66
(dp1251
sg75
g1223
sg68
(lp1252
g61
(g82
g63
NtRp1253
(dp1254
g66
(dp1255
g86
g87
ssg75
g1249
sg68
(lp1256
S'applications_parent'
p1257
asbag61
(g82
g63
NtRp1258
(dp1259
g66
(dp1260
g93
g94
ssg75
g1249
sg68
(lp1261
S':'
asbag61
(g82
g63
NtRp1262
(dp1263
g66
(dp1264
sg75
g1249
sg68
(lp1265
g61
(g62
g63
NtRp1266
(dp1267
g66
(dp1268
g74
I4
ssg75
g1262
sg68
(lp1269
S'/Users/Truki/web2py'
p1270
asbasbasbag61
(g77
g63
NtRp1271
(dp1272
g66
(dp1273
sg75
g1223
sg68
(lp1274
g61
(g82
g63
NtRp1275
(dp1276
g66
(dp1277
g86
g87
ssg75
g1271
sg68
(lp1278
S'cmd_args'
p1279
asbag61
(g82
g63
NtRp1280
(dp1281
g66
(dp1282
g93
g94
ssg75
g1271
sg68
(lp1283
S':'
asbag61
(g82
g63
NtRp1284
(dp1285
g66
(dp1286
sg75
g1271
sg68
(lp1287
g61
(g62
g63
NtRp1288
(dp1289
g66
(dp1290
g74
I4
ssg75
g1284
sg68
(lp1291
g61
(g70
g63
NtRp1292
(dp1293
g66
(dp1294
g74
I3
ssg75
Nsg68
(lp1295
sbasbasbasbag61
(g77
g63
NtRp1296
(dp1297
g66
(dp1298
sg75
g1223
sg68
(lp1299
g61
(g82
g63
NtRp1300
(dp1301
g66
(dp1302
g86
g87
ssg75
g1296
sg68
(lp1303
S'cmd_options'
p1304
asbag61
(g82
g63
NtRp1305
(dp1306
g66
(dp1307
g93
g94
ssg75
g1296
sg68
(lp1308
S':'
asbag61
(g82
g63
NtRp1309
(dp1310
g66
(dp1311
sg75
g1296
sg68
(lp1312
g61
(g62
g63
NtRp1313
(dp1314
g66
(dp1315
g74
I4
ssg75
g1309
sg68
(lp1316
S"<Values at 0x19b23f0: {'verbose': False, 'ip': '127.0.0.1', 'with_scheduler': False, 'ips': ['192.168.1.33'], 'shutdown_timeout': 5, 'taskbar': False, 'port': 8000, 'maxthreads': None, 'softcron': False, 'server_name': 'MBT.local', 'bpython': False, 'nogui': False, 'pid_filename': 'httpserver.pid', 'extcron': False, 'runcron': False, 'run_system_tests': False, 'test': None, 'folder': '/Users/Truki/web2py', 'config': '', 'import_models': False, 'winservice': '', 'shell': None, 'run': '', 'log_filename': 'httpserver.log', 'debuglevel': 30, 'args': [''], 'socket_timeout': 5, 'ssl_ca_certificate': None, 'scheduler': None, 'profiler_filename': None, 'ssl_private_key': '', 'scheduler_groups': None, 'password': '<ask>', 'request_queue_size': 5, 'ssl_certificate': '', 'cronjob': False, 'numthreads': None, 'quiet': False, 'interfaces': None, 'minthreads': None, 'timeout': 10, 'plain': False, 'nobanner': False}>"
p1317
asbasbasbag61
(g77
g63
NtRp1318
(dp1319
g66
(dp1320
sg75
g1223
sg68
(lp1321
g61
(g82
g63
NtRp1322
(dp1323
g66
(dp1324
g86
g87
ssg75
g1318
sg68
(lp1325
S'db_sessions'
p1326
asbag61
(g82
g63
NtRp1327
(dp1328
g66
(dp1329
g93
g94
ssg75
g1318
sg68
(lp1330
S':'
asbag61
(g82
g63
NtRp1331
(dp1332
g66
(dp1333
sg75
g1318
sg68
(lp1334
g61
(g62
g63
NtRp1335
(dp1336
g66
(dp1337
g74
I4
ssg75
g1331
sg68
(lp1338
S'set([])'
p1339
asbasbasbag61
(g77
g63
NtRp1340
(dp1341
g66
(dp1342
sg75
g1223
sg68
(lp1343
g61
(g82
g63
NtRp1344
(dp1345
g66
(dp1346
g86
g87
ssg75
g1340
sg68
(lp1347
S'debugging'
p1348
asbag61
(g82
g63
NtRp1349
(dp1350
g66
(dp1351
g93
g94
ssg75
g1340
sg68
(lp1352
S':'
asbag61
(g82
g63
NtRp1353
(dp1354
g66
(dp1355
sg75
g1340
sg68
(lp1356
g61
(g62
g63
NtRp1357
(dp1358
g66
(dp1359
g74
I4
ssg75
g1353
sg68
(lp1360
g104
asbasbasbag61
(g77
g63
NtRp1361
(dp1362
g66
(dp1363
sg75
g1223
sg68
(lp1364
g61
(g82
g63
NtRp1365
(dp1366
g66
(dp1367
g86
g87
ssg75
g1361
sg68
(lp1368
S'gluon_parent'
p1369
asbag61
(g82
g63
NtRp1370
(dp1371
g66
(dp1372
g93
g94
ssg75
g1361
sg68
(lp1373
S':'
asbag61
(g82
g63
NtRp1374
(dp1375
g66
(dp1376
sg75
g1361
sg68
(lp1377
g61
(g62
g63
NtRp1378
(dp1379
g66
(dp1380
g74
I4
ssg75
g1374
sg68
(lp1381
S'/Users/Truki/web2py'
p1382
asbasbasbag61
(g77
g63
NtRp1383
(dp1384
g66
(dp1385
sg75
g1223
sg68
(lp1386
g61
(g82
g63
NtRp1387
(dp1388
g66
(dp1389
g86
g87
ssg75
g1383
sg68
(lp1390
S'http_accept'
p1391
asbag61
(g82
g63
NtRp1392
(dp1393
g66
(dp1394
g93
g94
ssg75
g1383
sg68
(lp1395
S':'
asbag61
(g82
g63
NtRp1396
(dp1397
g66
(dp1398
sg75
g1383
sg68
(lp1399
g61
(g62
g63
NtRp1400
(dp1401
g66
(dp1402
g74
I4
ssg75
g1396
sg68
(lp1403
S'application/xml,application/xhtml+xml,text/html;q=0.9,text/plain;q=0.8,image/png,*/*;q=0.5'
p1404
asbasbasbag61
(g77
g63
NtRp1405
(dp1406
g66
(dp1407
sg75
g1223
sg68
(lp1408
g61
(g82
g63
NtRp1409
(dp1410
g66
(dp1411
g86
g87
ssg75
g1405
sg68
(lp1412
S'http_accept_encoding'
p1413
asbag61
(g82
g63
NtRp1414
(dp1415
g66
(dp1416
g93
g94
ssg75
g1405
sg68
(lp1417
S':'
asbag61
(g82
g63
NtRp1418
(dp1419
g66
(dp1420
sg75
g1405
sg68
(lp1421
g61
(g62
g63
NtRp1422
(dp1423
g66
(dp1424
g74
I4
ssg75
g1418
sg68
(lp1425
S'gzip, deflate'
p1426
asbasbasbag61
(g77
g63
NtRp1427
(dp1428
g66
(dp1429
sg75
g1223
sg68
(lp1430
g61
(g82
g63
NtRp1431
(dp1432
g66
(dp1433
g86
g87
ssg75
g1427
sg68
(lp1434
S'http_accept_language'
p1435
asbag61
(g82
g63
NtRp1436
(dp1437
g66
(dp1438
g93
g94
ssg75
g1427
sg68
(lp1439
S':'
asbag61
(g82
g63
NtRp1440
(dp1441
g66
(dp1442
sg75
g1427
sg68
(lp1443
g61
(g62
g63
NtRp1444
(dp1445
g66
(dp1446
g74
I4
ssg75
g1440
sg68
(lp1447
S'es-es'
p1448
asbasbasbag61
(g77
g63
NtRp1449
(dp1450
g66
(dp1451
sg75
g1223
sg68
(lp1452
g61
(g82
g63
NtRp1453
(dp1454
g66
(dp1455
g86
g87
ssg75
g1449
sg68
(lp1456
S'http_connection'
p1457
asbag61
(g82
g63
NtRp1458
(dp1459
g66
(dp1460
g93
g94
ssg75
g1449
sg68
(lp1461
S':'
asbag61
(g82
g63
NtRp1462
(dp1463
g66
(dp1464
sg75
g1449
sg68
(lp1465
g61
(g62
g63
NtRp1466
(dp1467
g66
(dp1468
g74
I4
ssg75
g1462
sg68
(lp1469
S'keep-alive'
p1470
asbasbasbag61
(g77
g63
NtRp1471
(dp1472
g66
(dp1473
sg75
g1223
sg68
(lp1474
g61
(g82
g63
NtRp1475
(dp1476
g66
(dp1477
g86
g87
ssg75
g1471
sg68
(lp1478
S'http_cookie'
p1479
asbag61
(g82
g63
NtRp1480
(dp1481
g66
(dp1482
g93
g94
ssg75
g1471
sg68
(lp1483
S':'
asbag61
(g82
g63
NtRp1484
(dp1485
g66
(dp1486
sg75
g1471
sg68
(lp1487
g61
(g62
g63
NtRp1488
(dp1489
g66
(dp1490
g74
I4
ssg75
g1484
sg68
(lp1491
S'session_id_admin=127.0.0.1-75ddbde5-8b43-4cf0-9571-7b2d1d8a6250; session_id_welcome=127.0.0.1-67239e43-a3ae-4c64-8c01-35126378c9df; session_id_matronasur=127.0.0.1-8343402c-1487-4a2a-bd4e-cabfaa583d35; session_id_xxx=127.0.0.1-3cc882ee-ca73-4359-9860-7dcf59d41ca5; session_id_sergio=127.0.0.1-ef088a5c-6a3f-4191-8874-d733ec0c5b7d'
p1492
asbasbasbag61
(g77
g63
NtRp1493
(dp1494
g66
(dp1495
sg75
g1223
sg68
(lp1496
g61
(g82
g63
NtRp1497
(dp1498
g66
(dp1499
g86
g87
ssg75
g1493
sg68
(lp1500
S'http_host'
p1501
asbag61
(g82
g63
NtRp1502
(dp1503
g66
(dp1504
g93
g94
ssg75
g1493
sg68
(lp1505
S':'
asbag61
(g82
g63
NtRp1506
(dp1507
g66
(dp1508
sg75
g1493
sg68
(lp1509
g61
(g62
g63
NtRp1510
(dp1511
g66
(dp1512
g74
I4
ssg75
g1506
sg68
(lp1513
S'127.0.0.1:8000'
p1514
asbasbasbag61
(g77
g63
NtRp1515
(dp1516
g66
(dp1517
sg75
g1223
sg68
(lp1518
g61
(g82
g63
NtRp1519
(dp1520
g66
(dp1521
g86
g87
ssg75
g1515
sg68
(lp1522
S'http_referer'
p1523
asbag61
(g82
g63
NtRp1524
(dp1525
g66
(dp1526
g93
g94
ssg75
g1515
sg68
(lp1527
S':'
asbag61
(g82
g63
NtRp1528
(dp1529
g66
(dp1530
sg75
g1515
sg68
(lp1531
g61
(g62
g63
NtRp1532
(dp1533
g66
(dp1534
g74
I4
ssg75
g1528
sg68
(lp1535
S'http://127.0.0.1:8000/admin/default/site'
p1536
asbasbasbag61
(g77
g63
NtRp1537
(dp1538
g66
(dp1539
sg75
g1223
sg68
(lp1540
g61
(g82
g63
NtRp1541
(dp1542
g66
(dp1543
g86
g87
ssg75
g1537
sg68
(lp1544
S'http_user_agent'
p1545
asbag61
(g82
g63
NtRp1546
(dp1547
g66
(dp1548
g93
g94
ssg75
g1537
sg68
(lp1549
S':'
asbag61
(g82
g63
NtRp1550
(dp1551
g66
(dp1552
sg75
g1537
sg68
(lp1553
g61
(g62
g63
NtRp1554
(dp1555
g66
(dp1556
g74
I4
ssg75
g1550
sg68
(lp1557
S'Mozilla/5.0 (Macintosh; U; Intel Mac OS X 10_6_6; es-es) AppleWebKit/533.19.4 (KHTML, like Gecko) Version/5.0.3 Safari/533.19.4'
p1558
asbasbasbag61
(g77
g63
NtRp1559
(dp1560
g66
(dp1561
sg75
g1223
sg68
(lp1562
g61
(g82
g63
NtRp1563
(dp1564
g66
(dp1565
g86
g87
ssg75
g1559
sg68
(lp1566
S'is_jython'
p1567
asbag61
(g82
g63
NtRp1568
(dp1569
g66
(dp1570
g93
g94
ssg75
g1559
sg68
(lp1571
S':'
asbag61
(g82
g63
NtRp1572
(dp1573
g66
(dp1574
sg75
g1559
sg68
(lp1575
g61
(g62
g63
NtRp1576
(dp1577
g66
(dp1578
g74
I4
ssg75
g1572
sg68
(lp1579
g104
asbasbasbag61
(g77
g63
NtRp1580
(dp1581
g66
(dp1582
sg75
g1223
sg68
(lp1583
g61
(g82
g63
NtRp1584
(dp1585
g66
(dp1586
g86
g87
ssg75
g1580
sg68
(lp1587
S'is_pypy'
p1588
asbag61
(g82
g63
NtRp1589
(dp1590
g66
(dp1591
g93
g94
ssg75
g1580
sg68
(lp1592
S':'
asbag61
(g82
g63
NtRp1593
(dp1594
g66
(dp1595
sg75
g1580
sg68
(lp1596
g61
(g62
g63
NtRp1597
(dp1598
g66
(dp1599
g74
I4
ssg75
g1593
sg68
(lp1600
g104
asbasbasbag61
(g77
g63
NtRp1601
(dp1602
g66
(dp1603
sg75
g1223
sg68
(lp1604
g61
(g82
g63
NtRp1605
(dp1606
g66
(dp1607
g86
g87
ssg75
g1601
sg68
(lp1608
S'local_hosts'
p1609
asbag61
(g82
g63
NtRp1610
(dp1611
g66
(dp1612
g93
g94
ssg75
g1601
sg68
(lp1613
S':'
asbag61
(g82
g63
NtRp1614
(dp1615
g66
(dp1616
sg75
g1601
sg68
(lp1617
g61
(g62
g63
NtRp1618
(dp1619
g66
(dp1620
g74
I4
ssg75
g1614
sg68
(lp1621
g61
(g70
g63
NtRp1622
(dp1623
g66
(dp1624
g74
I3
ssg75
Nsg68
(lp1625
g61
(g77
g63
NtRp1626
(dp1627
g66
(dp1628
sg75
g1622
sg68
(lp1629
g61
(g82
g63
NtRp1630
(dp1631
g66
(dp1632
sg75
g1626
sg68
(lp1633
g61
(g62
g63
NtRp1634
(dp1635
g66
(dp1636
g74
I3
ssg75
g1630
sg68
(lp1637
S'127.0.0.1'
p1638
asbasbasbag61
(g77
g63
NtRp1639
(dp1640
g66
(dp1641
sg75
g1622
sg68
(lp1642
g61
(g82
g63
NtRp1643
(dp1644
g66
(dp1645
sg75
g1639
sg68
(lp1646
g61
(g62
g63
NtRp1647
(dp1648
g66
(dp1649
g74
I3
ssg75
g1643
sg68
(lp1650
S'::ffff:127.0.0.1'
p1651
asbasbasbag61
(g77
g63
NtRp1652
(dp1653
g66
(dp1654
sg75
g1622
sg68
(lp1655
g61
(g82
g63
NtRp1656
(dp1657
g66
(dp1658
sg75
g1652
sg68
(lp1659
g61
(g62
g63
NtRp1660
(dp1661
g66
(dp1662
g74
I3
ssg75
g1656
sg68
(lp1663
S'MBT.local'
p1664
asbasbasbag61
(g77
g63
NtRp1665
(dp1666
g66
(dp1667
sg75
g1622
sg68
(lp1668
g61
(g82
g63
NtRp1669
(dp1670
g66
(dp1671
sg75
g1665
sg68
(lp1672
g61
(g62
g63
NtRp1673
(dp1674
g66
(dp1675
g74
I3
ssg75
g1669
sg68
(lp1676
S'MBT.local'
p1677
asbasbasbag61
(g77
g63
NtRp1678
(dp1679
g66
(dp1680
sg75
g1622
sg68
(lp1681
g61
(g82
g63
NtRp1682
(dp1683
g66
(dp1684
sg75
g1678
sg68
(lp1685
g61
(g62
g63
NtRp1686
(dp1687
g66
(dp1688
g74
I3
ssg75
g1682
sg68
(lp1689
S'192.168.1.33'
p1690
asbasbasbasbasbasbasbag61
(g77
g63
NtRp1691
(dp1692
g66
(dp1693
sg75
g1223
sg68
(lp1694
g61
(g82
g63
NtRp1695
(dp1696
g66
(dp1697
g86
g87
ssg75
g1691
sg68
(lp1698
S'path_info'
p1699
asbag61
(g82
g63
NtRp1700
(dp1701
g66
(dp1702
g93
g94
ssg75
g1691
sg68
(lp1703
S':'
asbag61
(g82
g63
NtRp1704
(dp1705
g66
(dp1706
sg75
g1691
sg68
(lp1707
g61
(g62
g63
NtRp1708
(dp1709
g66
(dp1710
g74
I4
ssg75
g1704
sg68
(lp1711
S'/rosan/default/index'
p1712
asbasbasbag61
(g77
g63
NtRp1713
(dp1714
g66
(dp1715
sg75
g1223
sg68
(lp1716
g61
(g82
g63
NtRp1717
(dp1718
g66
(dp1719
g86
g87
ssg75
g1713
sg68
(lp1720
S'query_string'
p1721
asbag61
(g82
g63
NtRp1722
(dp1723
g66
(dp1724
g93
g94
ssg75
g1713
sg68
(lp1725
S':'
asbag61
(g82
g63
NtRp1726
(dp1727
g66
(dp1728
sg75
g1713
sg68
(lp1729
g61
(g62
g63
NtRp1730
(dp1731
g66
(dp1732
g74
I4
ssg75
g1726
sg68
(lp1733
S''
asbasbasbag61
(g77
g63
NtRp1734
(dp1735
g66
(dp1736
sg75
g1223
sg68
(lp1737
g61
(g82
g63
NtRp1738
(dp1739
g66
(dp1740
g86
g87
ssg75
g1734
sg68
(lp1741
S'remote_addr'
p1742
asbag61
(g82
g63
NtRp1743
(dp1744
g66
(dp1745
g93
g94
ssg75
g1734
sg68
(lp1746
S':'
asbag61
(g82
g63
NtRp1747
(dp1748
g66
(dp1749
sg75
g1734
sg68
(lp1750
g61
(g62
g63
NtRp1751
(dp1752
g66
(dp1753
g74
I4
ssg75
g1747
sg68
(lp1754
g216
asbasbasbag61
(g77
g63
NtRp1755
(dp1756
g66
(dp1757
sg75
g1223
sg68
(lp1758
g61
(g82
g63
NtRp1759
(dp1760
g66
(dp1761
g86
g87
ssg75
g1755
sg68
(lp1762
S'remote_port'
p1763
asbag61
(g82
g63
NtRp1764
(dp1765
g66
(dp1766
g93
g94
ssg75
g1755
sg68
(lp1767
S':'
asbag61
(g82
g63
NtRp1768
(dp1769
g66
(dp1770
sg75
g1755
sg68
(lp1771
g61
(g62
g63
NtRp1772
(dp1773
g66
(dp1774
g74
I4
ssg75
g1768
sg68
(lp1775
S'49988'
p1776
asbasbasbag61
(g77
g63
NtRp1777
(dp1778
g66
(dp1779
sg75
g1223
sg68
(lp1780
g61
(g82
g63
NtRp1781
(dp1782
g66
(dp1783
g86
g87
ssg75
g1777
sg68
(lp1784
S'request_method'
p1785
asbag61
(g82
g63
NtRp1786
(dp1787
g66
(dp1788
g93
g94
ssg75
g1777
sg68
(lp1789
S':'
asbag61
(g82
g63
NtRp1790
(dp1791
g66
(dp1792
sg75
g1777
sg68
(lp1793
g61
(g62
g63
NtRp1794
(dp1795
g66
(dp1796
g74
I4
ssg75
g1790
sg68
(lp1797
S'GET'
p1798
asbasbasbag61
(g77
g63
NtRp1799
(dp1800
g66
(dp1801
sg75
g1223
sg68
(lp1802
g61
(g82
g63
NtRp1803
(dp1804
g66
(dp1805
g86
g87
ssg75
g1799
sg68
(lp1806
S'request_uri'
p1807
asbag61
(g82
g63
NtRp1808
(dp1809
g66
(dp1810
g93
g94
ssg75
g1799
sg68
(lp1811
S':'
asbag61
(g82
g63
NtRp1812
(dp1813
g66
(dp1814
sg75
g1799
sg68
(lp1815
g61
(g62
g63
NtRp1816
(dp1817
g66
(dp1818
g74
I4
ssg75
g1812
sg68
(lp1819
g1712
asbasbasbag61
(g77
g63
NtRp1820
(dp1821
g66
(dp1822
sg75
g1223
sg68
(lp1823
g61
(g82
g63
NtRp1824
(dp1825
g66
(dp1826
g86
g87
ssg75
g1820
sg68
(lp1827
S'script_name'
p1828
asbag61
(g82
g63
NtRp1829
(dp1830
g66
(dp1831
g93
g94
ssg75
g1820
sg68
(lp1832
S':'
asbag61
(g82
g63
NtRp1833
(dp1834
g66
(dp1835
sg75
g1820
sg68
(lp1836
g61
(g62
g63
NtRp1837
(dp1838
g66
(dp1839
g74
I4
ssg75
g1833
sg68
(lp1840
S''
asbasbasbag61
(g77
g63
NtRp1841
(dp1842
g66
(dp1843
sg75
g1223
sg68
(lp1844
g61
(g82
g63
NtRp1845
(dp1846
g66
(dp1847
g86
g87
ssg75
g1841
sg68
(lp1848
S'server_name'
p1849
asbag61
(g82
g63
NtRp1850
(dp1851
g66
(dp1852
g93
g94
ssg75
g1841
sg68
(lp1853
S':'
asbag61
(g82
g63
NtRp1854
(dp1855
g66
(dp1856
sg75
g1841
sg68
(lp1857
g61
(g62
g63
NtRp1858
(dp1859
g66
(dp1860
g74
I4
ssg75
g1854
sg68
(lp1861
g1677
asbasbasbag61
(g77
g63
NtRp1862
(dp1863
g66
(dp1864
sg75
g1223
sg68
(lp1865
g61
(g82
g63
NtRp1866
(dp1867
g66
(dp1868
g86
g87
ssg75
g1862
sg68
(lp1869
S'server_port'
p1870
asbag61
(g82
g63
NtRp1871
(dp1872
g66
(dp1873
g93
g94
ssg75
g1862
sg68
(lp1874
S':'
asbag61
(g82
g63
NtRp1875
(dp1876
g66
(dp1877
sg75
g1862
sg68
(lp1878
g61
(g62
g63
NtRp1879
(dp1880
g66
(dp1881
g74
I4
ssg75
g1875
sg68
(lp1882
S'8000'
p1883
asbasbasbag61
(g77
g63
NtRp1884
(dp1885
g66
(dp1886
sg75
g1223
sg68
(lp1887
g61
(g82
g63
NtRp1888
(dp1889
g66
(dp1890
g86
g87
ssg75
g1884
sg68
(lp1891
S'server_protocol'
p1892
asbag61
(g82
g63
NtRp1893
(dp1894
g66
(dp1895
g93
g94
ssg75
g1884
sg68
(lp1896
S':'
asbag61
(g82
g63
NtRp1897
(dp1898
g66
(dp1899
sg75
g1884
sg68
(lp1900
g61
(g62
g63
NtRp1901
(dp1902
g66
(dp1903
g74
I4
ssg75
g1897
sg68
(lp1904
S'HTTP/1.1'
p1905
asbasbasbag61
(g77
g63
NtRp1906
(dp1907
g66
(dp1908
sg75
g1223
sg68
(lp1909
g61
(g82
g63
NtRp1910
(dp1911
g66
(dp1912
g86
g87
ssg75
g1906
sg68
(lp1913
S'server_software'
p1914
asbag61
(g82
g63
NtRp1915
(dp1916
g66
(dp1917
g93
g94
ssg75
g1906
sg68
(lp1918
S':'
asbag61
(g82
g63
NtRp1919
(dp1920
g66
(dp1921
sg75
g1906
sg68
(lp1922
g61
(g62
g63
NtRp1923
(dp1924
g66
(dp1925
g74
I4
ssg75
g1919
sg68
(lp1926
S'Rocket 1.2.5'
p1927
asbasbasbag61
(g77
g63
NtRp1928
(dp1929
g66
(dp1930
sg75
g1223
sg68
(lp1931
g61
(g82
g63
NtRp1932
(dp1933
g66
(dp1934
g86
g87
ssg75
g1928
sg68
(lp1935
S'web2py_path'
p1936
asbag61
(g82
g63
NtRp1937
(dp1938
g66
(dp1939
g93
g94
ssg75
g1928
sg68
(lp1940
S':'
asbag61
(g82
g63
NtRp1941
(dp1942
g66
(dp1943
sg75
g1928
sg68
(lp1944
g61
(g62
g63
NtRp1945
(dp1946
g66
(dp1947
g74
I4
ssg75
g1941
sg68
(lp1948
g1270
asbasbasbag61
(g77
g63
NtRp1949
(dp1950
g66
(dp1951
sg75
g1223
sg68
(lp1952
g61
(g82
g63
NtRp1953
(dp1954
g66
(dp1955
g86
g87
ssg75
g1949
sg68
(lp1956
S'web2py_version'
p1957
asbag61
(g82
g63
NtRp1958
(dp1959
g66
(dp1960
g93
g94
ssg75
g1949
sg68
(lp1961
S':'
asbag61
(g82
g63
NtRp1962
(dp1963
g66
(dp1964
sg75
g1949
sg68
(lp1965
g61
(g62
g63
NtRp1966
(dp1967
g66
(dp1968
g74
I4
ssg75
g1962
sg68
(lp1969
g61
(g70
g63
NtRp1970
(dp1971
g66
(dp1972
g74
I3
ssg75
Nsg68
(lp1973
g61
(g77
g63
NtRp1974
(dp1975
g66
(dp1976
sg75
g1970
sg68
(lp1977
g61
(g82
g63
NtRp1978
(dp1979
g66
(dp1980
sg75
g1974
sg68
(lp1981
g61
(g62
g63
NtRp1982
(dp1983
g66
(dp1984
g74
I3
ssg75
g1978
sg68
(lp1985
S'2'
asbasbasbag61
(g77
g63
NtRp1986
(dp1987
g66
(dp1988
sg75
g1970
sg68
(lp1989
g61
(g82
g63
NtRp1990
(dp1991
g66
(dp1992
sg75
g1986
sg68
(lp1993
g61
(g62
g63
NtRp1994
(dp1995
g66
(dp1996
g74
I3
ssg75
g1990
sg68
(lp1997
S'2'
asbasbasbag61
(g77
g63
NtRp1998
(dp1999
g66
(dp2000
sg75
g1970
sg68
(lp2001
g61
(g82
g63
NtRp2002
(dp2003
g66
(dp2004
sg75
g1998
sg68
(lp2005
g61
(g62
g63
NtRp2006
(dp2007
g66
(dp2008
g74
I3
ssg75
g2002
sg68
(lp2009
S'1'
asbasbasbag61
(g77
g63
NtRp2010
(dp2011
g66
(dp2012
sg75
g1970
sg68
(lp2013
g61
(g82
g63
NtRp2014
(dp2015
g66
(dp2016
sg75
g2010
sg68
(lp2017
g61
(g62
g63
NtRp2018
(dp2019
g66
(dp2020
g74
I3
ssg75
g2014
sg68
(lp2021
S'datetime.datetime(2012, 10, 21, 16, 57, 4)'
p2022
asbasbasbag61
(g77
g63
NtRp2023
(dp2024
g66
(dp2025
sg75
g1970
sg68
(lp2026
g61
(g82
g63
NtRp2027
(dp2028
g66
(dp2029
sg75
g2023
sg68
(lp2030
g61
(g62
g63
NtRp2031
(dp2032
g66
(dp2033
g74
I3
ssg75
g2027
sg68
(lp2034
S'stable'
p2035
asbasbasbasbasbasbasbag61
(g77
g63
NtRp2036
(dp2037
g66
(dp2038
sg75
g1223
sg68
(lp2039
g61
(g82
g63
NtRp2040
(dp2041
g66
(dp2042
g86
g87
ssg75
g2036
sg68
(lp2043
S'wsgi_errors'
p2044
asbag61
(g82
g63
NtRp2045
(dp2046
g66
(dp2047
g93
g94
ssg75
g2036
sg68
(lp2048
S':'
asbag61
(g82
g63
NtRp2049
(dp2050
g66
(dp2051
sg75
g2036
sg68
(lp2052
g61
(g62
g63
NtRp2053
(dp2054
g66
(dp2055
g74
I4
ssg75
g2049
sg68
(lp2056
S"<open file '<stderr>', mode 'w' at 0x25a0d0>"
p2057
asbasbasbag61
(g77
g63
NtRp2058
(dp2059
g66
(dp2060
sg75
g1223
sg68
(lp2061
g61
(g82
g63
NtRp2062
(dp2063
g66
(dp2064
g86
g87
ssg75
g2058
sg68
(lp2065
S'wsgi_file_wrapper'
p2066
asbag61
(g82
g63
NtRp2067
(dp2068
g66
(dp2069
g93
g94
ssg75
g2058
sg68
(lp2070
S':'
asbag61
(g82
g63
NtRp2071
(dp2072
g66
(dp2073
sg75
g2058
sg68
(lp2074
g61
(g62
g63
NtRp2075
(dp2076
g66
(dp2077
g74
I4
ssg75
g2071
sg68
(lp2078
S'<class wsgiref.util.FileWrapper at 0x1968d88>'
p2079
asbasbasbag61
(g77
g63
NtRp2080
(dp2081
g66
(dp2082
sg75
g1223
sg68
(lp2083
g61
(g82
g63
NtRp2084
(dp2085
g66
(dp2086
g86
g87
ssg75
g2080
sg68
(lp2087
S'wsgi_input'
p2088
asbag61
(g82
g63
NtRp2089
(dp2090
g66
(dp2091
g93
g94
ssg75
g2080
sg68
(lp2092
S':'
asbag61
(g82
g63
NtRp2093
(dp2094
g66
(dp2095
sg75
g2080
sg68
(lp2096
g61
(g62
g63
NtRp2097
(dp2098
g66
(dp2099
g74
I4
ssg75
g2093
sg68
(lp2100
S'<socket._fileobject object at 0x17fa0070>'
p2101
asbasbasbag61
(g77
g63
NtRp2102
(dp2103
g66
(dp2104
sg75
g1223
sg68
(lp2105
g61
(g82
g63
NtRp2106
(dp2107
g66
(dp2108
g86
g87
ssg75
g2102
sg68
(lp2109
S'wsgi_multiprocess'
p2110
asbag61
(g82
g63
NtRp2111
(dp2112
g66
(dp2113
g93
g94
ssg75
g2102
sg68
(lp2114
S':'
asbag61
(g82
g63
NtRp2115
(dp2116
g66
(dp2117
sg75
g2102
sg68
(lp2118
g61
(g62
g63
NtRp2119
(dp2120
g66
(dp2121
g74
I4
ssg75
g2115
sg68
(lp2122
g104
asbasbasbag61
(g77
g63
NtRp2123
(dp2124
g66
(dp2125
sg75
g1223
sg68
(lp2126
g61
(g82
g63
NtRp2127
(dp2128
g66
(dp2129
g86
g87
ssg75
g2123
sg68
(lp2130
S'wsgi_multithread'
p2131
asbag61
(g82
g63
NtRp2132
(dp2133
g66
(dp2134
g93
g94
ssg75
g2123
sg68
(lp2135
S':'
asbag61
(g82
g63
NtRp2136
(dp2137
g66
(dp2138
sg75
g2123
sg68
(lp2139
g61
(g62
g63
NtRp2140
(dp2141
g66
(dp2142
g74
I4
ssg75
g2136
sg68
(lp2143
S'True'
p2144
asbasbasbag61
(g77
g63
NtRp2145
(dp2146
g66
(dp2147
sg75
g1223
sg68
(lp2148
g61
(g82
g63
NtRp2149
(dp2150
g66
(dp2151
g86
g87
ssg75
g2145
sg68
(lp2152
S'wsgi_run_once'
p2153
asbag61
(g82
g63
NtRp2154
(dp2155
g66
(dp2156
g93
g94
ssg75
g2145
sg68
(lp2157
S':'
asbag61
(g82
g63
NtRp2158
(dp2159
g66
(dp2160
sg75
g2145
sg68
(lp2161
g61
(g62
g63
NtRp2162
(dp2163
g66
(dp2164
g74
I4
ssg75
g2158
sg68
(lp2165
g104
asbasbasbag61
(g77
g63
NtRp2166
(dp2167
g66
(dp2168
sg75
g1223
sg68
(lp2169
g61
(g82
g63
NtRp2170
(dp2171
g66
(dp2172
g86
g87
ssg75
g2166
sg68
(lp2173
S'wsgi_url_scheme'
p2174
asbag61
(g82
g63
NtRp2175
(dp2176
g66
(dp2177
g93
g94
ssg75
g2166
sg68
(lp2178
S':'
asbag61
(g82
g63
NtRp2179
(dp2180
g66
(dp2181
sg75
g2166
sg68
(lp2182
g61
(g62
g63
NtRp2183
(dp2184
g66
(dp2185
g74
I4
ssg75
g2179
sg68
(lp2186
S'http'
p2187
asbasbasbag61
(g77
g63
NtRp2188
(dp2189
g66
(dp2190
sg75
g1223
sg68
(lp2191
g61
(g82
g63
NtRp2192
(dp2193
g66
(dp2194
g86
g87
ssg75
g2188
sg68
(lp2195
S'wsgi_version'
p2196
asbag61
(g82
g63
NtRp2197
(dp2198
g66
(dp2199
g93
g94
ssg75
g2188
sg68
(lp2200
S':'
asbag61
(g82
g63
NtRp2201
(dp2202
g66
(dp2203
sg75
g2188
sg68
(lp2204
g61
(g62
g63
NtRp2205
(dp2206
g66
(dp2207
g74
I4
ssg75
g2201
sg68
(lp2208
g61
(g70
g63
NtRp2209
(dp2210
g66
(dp2211
g74
I3
ssg75
Nsg68
(lp2212
g61
(g77
g63
NtRp2213
(dp2214
g66
(dp2215
sg75
g2209
sg68
(lp2216
g61
(g82
g63
NtRp2217
(dp2218
g66
(dp2219
sg75
g2213
sg68
(lp2220
g61
(g62
g63
NtRp2221
(dp2222
g66
(dp2223
g74
I3
ssg75
g2217
sg68
(lp2224
S'1'
asbasbasbag61
(g77
g63
NtRp2225
(dp2226
g66
(dp2227
sg75
g2209
sg68
(lp2228
g61
(g82
g63
NtRp2229
(dp2230
g66
(dp2231
sg75
g2225
sg68
(lp2232
g61
(g62
g63
NtRp2233
(dp2234
g66
(dp2235
g74
I3
ssg75
g2229
sg68
(lp2236
S'0'
asbasbasbasbasbasbasbasbasbasbasbag61
(g77
g63
NtRp2237
(dp2238
g66
(dp2239
sg75
g71
sg68
(lp2240
g61
(g82
g63
NtRp2241
(dp2242
g66
(dp2243
g86
g87
ssg75
g2237
sg68
(lp2244
S'extension'
p2245
asbag61
(g82
g63
NtRp2246
(dp2247
g66
(dp2248
g93
g94
ssg75
g2237
sg68
(lp2249
S':'
asbag61
(g82
g63
NtRp2250
(dp2251
g66
(dp2252
sg75
g2237
sg68
(lp2253
g61
(g62
g63
NtRp2254
(dp2255
g66
(dp2256
g74
I5
ssg75
g2250
sg68
(lp2257
S'html'
p2258
asbasbasbag61
(g77
g63
NtRp2259
(dp2260
g66
(dp2261
sg75
g71
sg68
(lp2262
g61
(g82
g63
NtRp2263
(dp2264
g66
(dp2265
g86
g87
ssg75
g2259
sg68
(lp2266
S'folder'
p2267
asbag61
(g82
g63
NtRp2268
(dp2269
g66
(dp2270
g93
g94
ssg75
g2259
sg68
(lp2271
S':'
asbag61
(g82
g63
NtRp2272
(dp2273
g66
(dp2274
sg75
g2259
sg68
(lp2275
g61
(g62
g63
NtRp2276
(dp2277
g66
(dp2278
g74
I5
ssg75
g2272
sg68
(lp2279
S'/Users/Truki/web2py/applications/rosan/'
p2280
asbasbasbag61
(g77
g63
NtRp2281
(dp2282
g66
(dp2283
sg75
g71
sg68
(lp2284
g61
(g82
g63
NtRp2285
(dp2286
g66
(dp2287
g86
g87
ssg75
g2281
sg68
(lp2288
S'function'
p2289
asbag61
(g82
g63
NtRp2290
(dp2291
g66
(dp2292
g93
g94
ssg75
g2281
sg68
(lp2293
S':'
asbag61
(g82
g63
NtRp2294
(dp2295
g66
(dp2296
sg75
g2281
sg68
(lp2297
g61
(g62
g63
NtRp2298
(dp2299
g66
(dp2300
g74
I5
ssg75
g2294
sg68
(lp2301
S'index'
p2302
asbasbasbag61
(g77
g63
NtRp2303
(dp2304
g66
(dp2305
sg75
g71
sg68
(lp2306
g61
(g82
g63
NtRp2307
(dp2308
g66
(dp2309
g86
g87
ssg75
g2303
sg68
(lp2310
S'get_vars'
p2311
asbag61
(g82
g63
NtRp2312
(dp2313
g66
(dp2314
g93
g94
ssg75
g2303
sg68
(lp2315
S':'
asbag61
(g82
g63
NtRp2316
(dp2317
g66
(dp2318
sg75
g2303
sg68
(lp2319
g61
(g62
g63
NtRp2320
(dp2321
g66
(dp2322
g74
I5
ssg75
g2316
sg68
(lp2323
g61
(g70
g63
NtRp2324
(dp2325
g66
(dp2326
g74
I4
ssg75
Nsg68
(lp2327
sbasbasbasbag61
(g77
g63
NtRp2328
(dp2329
g66
(dp2330
sg75
g71
sg68
(lp2331
g61
(g82
g63
NtRp2332
(dp2333
g66
(dp2334
g86
g87
ssg75
g2328
sg68
(lp2335
S'global_settings'
p2336
asbag61
(g82
g63
NtRp2337
(dp2338
g66
(dp2339
g93
g94
ssg75
g2328
sg68
(lp2340
S':'
asbag61
(g82
g63
NtRp2341
(dp2342
g66
(dp2343
sg75
g2328
sg68
(lp2344
g61
(g62
g63
NtRp2345
(dp2346
g66
(dp2347
g74
I5
ssg75
g2341
sg68
(lp2348
g61
(g70
g63
NtRp2349
(dp2350
g66
(dp2351
g74
I4
ssg75
Nsg68
(lp2352
g61
(g77
g63
NtRp2353
(dp2354
g66
(dp2355
sg75
g2349
sg68
(lp2356
g61
(g82
g63
NtRp2357
(dp2358
g66
(dp2359
g86
g87
ssg75
g2353
sg68
(lp2360
g1235
asbag61
(g82
g63
NtRp2361
(dp2362
g66
(dp2363
g93
g94
ssg75
g2353
sg68
(lp2364
S':'
asbag61
(g82
g63
NtRp2365
(dp2366
g66
(dp2367
sg75
g2353
sg68
(lp2368
g61
(g62
g63
NtRp2369
(dp2370
g66
(dp2371
g74
I4
ssg75
g2365
sg68
(lp2372
S"set(['/Users/Truki/web2py/applications/welcome/', '/Users/Truki/web2py/applications/admin/', '/Users/Truki/web2py/applications/rosan/'])"
p2373
asbasbasbag61
(g77
g63
NtRp2374
(dp2375
g66
(dp2376
sg75
g2349
sg68
(lp2377
g61
(g82
g63
NtRp2378
(dp2379
g66
(dp2380
g86
g87
ssg75
g2374
sg68
(lp2381
g1257
asbag61
(g82
g63
NtRp2382
(dp2383
g66
(dp2384
g93
g94
ssg75
g2374
sg68
(lp2385
S':'
asbag61
(g82
g63
NtRp2386
(dp2387
g66
(dp2388
sg75
g2374
sg68
(lp2389
g61
(g62
g63
NtRp2390
(dp2391
g66
(dp2392
g74
I4
ssg75
g2386
sg68
(lp2393
g1270
asbasbasbag61
(g77
g63
NtRp2394
(dp2395
g66
(dp2396
sg75
g2349
sg68
(lp2397
g61
(g82
g63
NtRp2398
(dp2399
g66
(dp2400
g86
g87
ssg75
g2394
sg68
(lp2401
g1279
asbag61
(g82
g63
NtRp2402
(dp2403
g66
(dp2404
g93
g94
ssg75
g2394
sg68
(lp2405
S':'
asbag61
(g82
g63
NtRp2406
(dp2407
g66
(dp2408
sg75
g2394
sg68
(lp2409
g61
(g62
g63
NtRp2410
(dp2411
g66
(dp2412
g74
I4
ssg75
g2406
sg68
(lp2413
g61
(g70
g63
NtRp2414
(dp2415
g66
(dp2416
g74
I3
ssg75
Nsg68
(lp2417
sbasbasbasbag61
(g77
g63
NtRp2418
(dp2419
g66
(dp2420
sg75
g2349
sg68
(lp2421
g61
(g82
g63
NtRp2422
(dp2423
g66
(dp2424
g86
g87
ssg75
g2418
sg68
(lp2425
g1304
asbag61
(g82
g63
NtRp2426
(dp2427
g66
(dp2428
g93
g94
ssg75
g2418
sg68
(lp2429
S':'
asbag61
(g82
g63
NtRp2430
(dp2431
g66
(dp2432
sg75
g2418
sg68
(lp2433
g61
(g62
g63
NtRp2434
(dp2435
g66
(dp2436
g74
I4
ssg75
g2430
sg68
(lp2437
S"<Values at 0x19b23f0: {'verbose': False, 'ip': '127.0.0.1', 'with_scheduler': False, 'ips': ['192.168.1.33'], 'shutdown_timeout': 5, 'taskbar': False, 'port': 8000, 'maxthreads': None, 'softcron': False, 'server_name': 'MBT.local', 'bpython': False, 'nogui': False, 'pid_filename': 'httpserver.pid', 'extcron': False, 'runcron': False, 'run_system_tests': False, 'test': None, 'folder': '/Users/Truki/web2py', 'config': '', 'import_models': False, 'winservice': '', 'shell': None, 'run': '', 'log_filename': 'httpserver.log', 'debuglevel': 30, 'args': [''], 'socket_timeout': 5, 'ssl_ca_certificate': None, 'scheduler': None, 'profiler_filename': None, 'ssl_private_key': '', 'scheduler_groups': None, 'password': '<ask>', 'request_queue_size': 5, 'ssl_certificate': '', 'cronjob': False, 'numthreads': None, 'quiet': False, 'interfaces': None, 'minthreads': None, 'timeout': 10, 'plain': False, 'nobanner': False}>"
p2438
asbasbasbag61
(g77
g63
NtRp2439
(dp2440
g66
(dp2441
sg75
g2349
sg68
(lp2442
g61
(g82
g63
NtRp2443
(dp2444
g66
(dp2445
g86
g87
ssg75
g2439
sg68
(lp2446
g1326
asbag61
(g82
g63
NtRp2447
(dp2448
g66
(dp2449
g93
g94
ssg75
g2439
sg68
(lp2450
S':'
asbag61
(g82
g63
NtRp2451
(dp2452
g66
(dp2453
sg75
g2439
sg68
(lp2454
g61
(g62
g63
NtRp2455
(dp2456
g66
(dp2457
g74
I4
ssg75
g2451
sg68
(lp2458
S'set([])'
p2459
asbasbasbag61
(g77
g63
NtRp2460
(dp2461
g66
(dp2462
sg75
g2349
sg68
(lp2463
g61
(g82
g63
NtRp2464
(dp2465
g66
(dp2466
g86
g87
ssg75
g2460
sg68
(lp2467
g1348
asbag61
(g82
g63
NtRp2468
(dp2469
g66
(dp2470
g93
g94
ssg75
g2460
sg68
(lp2471
S':'
asbag61
(g82
g63
NtRp2472
(dp2473
g66
(dp2474
sg75
g2460
sg68
(lp2475
g61
(g62
g63
NtRp2476
(dp2477
g66
(dp2478
g74
I4
ssg75
g2472
sg68
(lp2479
g104
asbasbasbag61
(g77
g63
NtRp2480
(dp2481
g66
(dp2482
sg75
g2349
sg68
(lp2483
g61
(g82
g63
NtRp2484
(dp2485
g66
(dp2486
g86
g87
ssg75
g2480
sg68
(lp2487
g1369
asbag61
(g82
g63
NtRp2488
(dp2489
g66
(dp2490
g93
g94
ssg75
g2480
sg68
(lp2491
S':'
asbag61
(g82
g63
NtRp2492
(dp2493
g66
(dp2494
sg75
g2480
sg68
(lp2495
g61
(g62
g63
NtRp2496
(dp2497
g66
(dp2498
g74
I4
ssg75
g2492
sg68
(lp2499
g1382
asbasbasbag61
(g77
g63
NtRp2500
(dp2501
g66
(dp2502
sg75
g2349
sg68
(lp2503
g61
(g82
g63
NtRp2504
(dp2505
g66
(dp2506
g86
g87
ssg75
g2500
sg68
(lp2507
g1567
asbag61
(g82
g63
NtRp2508
(dp2509
g66
(dp2510
g93
g94
ssg75
g2500
sg68
(lp2511
S':'
asbag61
(g82
g63
NtRp2512
(dp2513
g66
(dp2514
sg75
g2500
sg68
(lp2515
g61
(g62
g63
NtRp2516
(dp2517
g66
(dp2518
g74
I4
ssg75
g2512
sg68
(lp2519
g104
asbasbasbag61
(g77
g63
NtRp2520
(dp2521
g66
(dp2522
sg75
g2349
sg68
(lp2523
g61
(g82
g63
NtRp2524
(dp2525
g66
(dp2526
g86
g87
ssg75
g2520
sg68
(lp2527
g1588
asbag61
(g82
g63
NtRp2528
(dp2529
g66
(dp2530
g93
g94
ssg75
g2520
sg68
(lp2531
S':'
asbag61
(g82
g63
NtRp2532
(dp2533
g66
(dp2534
sg75
g2520
sg68
(lp2535
g61
(g62
g63
NtRp2536
(dp2537
g66
(dp2538
g74
I4
ssg75
g2532
sg68
(lp2539
g104
asbasbasbag61
(g77
g63
NtRp2540
(dp2541
g66
(dp2542
sg75
g2349
sg68
(lp2543
g61
(g82
g63
NtRp2544
(dp2545
g66
(dp2546
g86
g87
ssg75
g2540
sg68
(lp2547
g1609
asbag61
(g82
g63
NtRp2548
(dp2549
g66
(dp2550
g93
g94
ssg75
g2540
sg68
(lp2551
S':'
asbag61
(g82
g63
NtRp2552
(dp2553
g66
(dp2554
sg75
g2540
sg68
(lp2555
g61
(g62
g63
NtRp2556
(dp2557
g66
(dp2558
g74
I4
ssg75
g2552
sg68
(lp2559
g61
(g70
g63
NtRp2560
(dp2561
g66
(dp2562
g74
I3
ssg75
Nsg68
(lp2563
g61
(g77
g63
NtRp2564
(dp2565
g66
(dp2566
sg75
g2560
sg68
(lp2567
g61
(g82
g63
NtRp2568
(dp2569
g66
(dp2570
sg75
g2564
sg68
(lp2571
g61
(g62
g63
NtRp2572
(dp2573
g66
(dp2574
g74
I3
ssg75
g2568
sg68
(lp2575
g1638
asbasbasbag61
(g77
g63
NtRp2576
(dp2577
g66
(dp2578
sg75
g2560
sg68
(lp2579
g61
(g82
g63
NtRp2580
(dp2581
g66
(dp2582
sg75
g2576
sg68
(lp2583
g61
(g62
g63
NtRp2584
(dp2585
g66
(dp2586
g74
I3
ssg75
g2580
sg68
(lp2587
g1651
asbasbasbag61
(g77
g63
NtRp2588
(dp2589
g66
(dp2590
sg75
g2560
sg68
(lp2591
g61
(g82
g63
NtRp2592
(dp2593
g66
(dp2594
sg75
g2588
sg68
(lp2595
g61
(g62
g63
NtRp2596
(dp2597
g66
(dp2598
g74
I3
ssg75
g2592
sg68
(lp2599
g1664
asbasbasbag61
(g77
g63
NtRp2600
(dp2601
g66
(dp2602
sg75
g2560
sg68
(lp2603
g61
(g82
g63
NtRp2604
(dp2605
g66
(dp2606
sg75
g2600
sg68
(lp2607
g61
(g62
g63
NtRp2608
(dp2609
g66
(dp2610
g74
I3
ssg75
g2604
sg68
(lp2611
g1677
asbasbasbag61
(g77
g63
NtRp2612
(dp2613
g66
(dp2614
sg75
g2560
sg68
(lp2615
g61
(g82
g63
NtRp2616
(dp2617
g66
(dp2618
sg75
g2612
sg68
(lp2619
g61
(g62
g63
NtRp2620
(dp2621
g66
(dp2622
g74
I3
ssg75
g2616
sg68
(lp2623
g1690
asbasbasbasbasbasbasbag61
(g77
g63
NtRp2624
(dp2625
g66
(dp2626
sg75
g2349
sg68
(lp2627
g61
(g82
g63
NtRp2628
(dp2629
g66
(dp2630
g86
g87
ssg75
g2624
sg68
(lp2631
g1957
asbag61
(g82
g63
NtRp2632
(dp2633
g66
(dp2634
g93
g94
ssg75
g2624
sg68
(lp2635
S':'
asbag61
(g82
g63
NtRp2636
(dp2637
g66
(dp2638
sg75
g2624
sg68
(lp2639
g61
(g62
g63
NtRp2640
(dp2641
g66
(dp2642
g74
I4
ssg75
g2636
sg68
(lp2643
g61
(g70
g63
NtRp2644
(dp2645
g66
(dp2646
g74
I3
ssg75
Nsg68
(lp2647
g61
(g77
g63
NtRp2648
(dp2649
g66
(dp2650
sg75
g2644
sg68
(lp2651
g61
(g82
g63
NtRp2652
(dp2653
g66
(dp2654
sg75
g2648
sg68
(lp2655
g61
(g62
g63
NtRp2656
(dp2657
g66
(dp2658
g74
I3
ssg75
g2652
sg68
(lp2659
S'2'
asbasbasbag61
(g77
g63
NtRp2660
(dp2661
g66
(dp2662
sg75
g2644
sg68
(lp2663
g61
(g82
g63
NtRp2664
(dp2665
g66
(dp2666
sg75
g2660
sg68
(lp2667
g61
(g62
g63
NtRp2668
(dp2669
g66
(dp2670
g74
I3
ssg75
g2664
sg68
(lp2671
S'2'
asbasbasbag61
(g77
g63
NtRp2672
(dp2673
g66
(dp2674
sg75
g2644
sg68
(lp2675
g61
(g82
g63
NtRp2676
(dp2677
g66
(dp2678
sg75
g2672
sg68
(lp2679
g61
(g62
g63
NtRp2680
(dp2681
g66
(dp2682
g74
I3
ssg75
g2676
sg68
(lp2683
S'1'
asbasbasbag61
(g77
g63
NtRp2684
(dp2685
g66
(dp2686
sg75
g2644
sg68
(lp2687
g61
(g82
g63
NtRp2688
(dp2689
g66
(dp2690
sg75
g2684
sg68
(lp2691
g61
(g62
g63
NtRp2692
(dp2693
g66
(dp2694
g74
I3
ssg75
g2688
sg68
(lp2695
S'datetime.datetime(2012, 10, 21, 16, 57, 4)'
p2696
asbasbasbag61
(g77
g63
NtRp2697
(dp2698
g66
(dp2699
sg75
g2644
sg68
(lp2700
g61
(g82
g63
NtRp2701
(dp2702
g66
(dp2703
sg75
g2697
sg68
(lp2704
g61
(g62
g63
NtRp2705
(dp2706
g66
(dp2707
g74
I3
ssg75
g2701
sg68
(lp2708
g2035
asbasbasbasbasbasbasbasbasbasbasbag61
(g77
g63
NtRp2709
(dp2710
g66
(dp2711
sg75
g71
sg68
(lp2712
g61
(g82
g63
NtRp2713
(dp2714
g66
(dp2715
g86
g87
ssg75
g2709
sg68
(lp2716
S'is_https'
p2717
asbag61
(g82
g63
NtRp2718
(dp2719
g66
(dp2720
g93
g94
ssg75
g2709
sg68
(lp2721
S':'
asbag61
(g82
g63
NtRp2722
(dp2723
g66
(dp2724
sg75
g2709
sg68
(lp2725
g61
(g62
g63
NtRp2726
(dp2727
g66
(dp2728
g74
I5
ssg75
g2722
sg68
(lp2729
g104
asbasbasbag61
(g77
g63
NtRp2730
(dp2731
g66
(dp2732
sg75
g71
sg68
(lp2733
g61
(g82
g63
NtRp2734
(dp2735
g66
(dp2736
g86
g87
ssg75
g2730
sg68
(lp2737
S'is_local'
p2738
asbag61
(g82
g63
NtRp2739
(dp2740
g66
(dp2741
g93
g94
ssg75
g2730
sg68
(lp2742
S':'
asbag61
(g82
g63
NtRp2743
(dp2744
g66
(dp2745
sg75
g2730
sg68
(lp2746
g61
(g62
g63
NtRp2747
(dp2748
g66
(dp2749
g74
I5
ssg75
g2743
sg68
(lp2750
g2144
asbasbasbag61
(g77
g63
NtRp2751
(dp2752
g66
(dp2753
sg75
g71
sg68
(lp2754
g61
(g82
g63
NtRp2755
(dp2756
g66
(dp2757
g86
g87
ssg75
g2751
sg68
(lp2758
S'is_restful'
p2759
asbag61
(g82
g63
NtRp2760
(dp2761
g66
(dp2762
g93
g94
ssg75
g2751
sg68
(lp2763
S':'
asbag61
(g82
g63
NtRp2764
(dp2765
g66
(dp2766
sg75
g2751
sg68
(lp2767
g61
(g62
g63
NtRp2768
(dp2769
g66
(dp2770
g74
I5
ssg75
g2764
sg68
(lp2771
g104
asbasbasbag61
(g77
g63
NtRp2772
(dp2773
g66
(dp2774
sg75
g71
sg68
(lp2775
g61
(g82
g63
NtRp2776
(dp2777
g66
(dp2778
g86
g87
ssg75
g2772
sg68
(lp2779
S'now'
p2780
asbag61
(g82
g63
NtRp2781
(dp2782
g66
(dp2783
g93
g94
ssg75
g2772
sg68
(lp2784
S':'
asbag61
(g82
g63
NtRp2785
(dp2786
g66
(dp2787
sg75
g2772
sg68
(lp2788
g61
(g62
g63
NtRp2789
(dp2790
g66
(dp2791
g74
I5
ssg75
g2785
sg68
(lp2792
S'datetime.datetime(2012, 11, 21, 17, 56, 48, 394931)'
p2793
asbasbasbag61
(g77
g63
NtRp2794
(dp2795
g66
(dp2796
sg75
g71
sg68
(lp2797
g61
(g82
g63
NtRp2798
(dp2799
g66
(dp2800
g86
g87
ssg75
g2794
sg68
(lp2801
S'post_vars'
p2802
asbag61
(g82
g63
NtRp2803
(dp2804
g66
(dp2805
g93
g94
ssg75
g2794
sg68
(lp2806
S':'
asbag61
(g82
g63
NtRp2807
(dp2808
g66
(dp2809
sg75
g2794
sg68
(lp2810
g61
(g62
g63
NtRp2811
(dp2812
g66
(dp2813
g74
I5
ssg75
g2807
sg68
(lp2814
g61
(g70
g63
NtRp2815
(dp2816
g66
(dp2817
g74
I4
ssg75
Nsg68
(lp2818
sbasbasbasbag61
(g77
g63
NtRp2819
(dp2820
g66
(dp2821
sg75
g71
sg68
(lp2822
g61
(g82
g63
NtRp2823
(dp2824
g66
(dp2825
g86
g87
ssg75
g2819
sg68
(lp2826
S'raw_args'
p2827
asbag61
(g82
g63
NtRp2828
(dp2829
g66
(dp2830
g93
g94
ssg75
g2819
sg68
(lp2831
S':'
asbag61
(g82
g63
NtRp2832
(dp2833
g66
(dp2834
sg75
g2819
sg68
(lp2835
g61
(g62
g63
NtRp2836
(dp2837
g66
(dp2838
g74
I5
ssg75
g2832
sg68
(lp2839
S''
asbasbasbag61
(g77
g63
NtRp2840
(dp2841
g66
(dp2842
sg75
g71
sg68
(lp2843
g61
(g82
g63
NtRp2844
(dp2845
g66
(dp2846
g86
g87
ssg75
g2840
sg68
(lp2847
S'raw_extension'
p2848
asbag61
(g82
g63
NtRp2849
(dp2850
g66
(dp2851
g93
g94
ssg75
g2840
sg68
(lp2852
S':'
asbag61
(g82
g63
NtRp2853
(dp2854
g66
(dp2855
sg75
g2840
sg68
(lp2856
g61
(g62
g63
NtRp2857
(dp2858
g66
(dp2859
g74
I5
ssg75
g2853
sg68
(lp2860
S'None'
p2861
asbasbasbag61
(g77
g63
NtRp2862
(dp2863
g66
(dp2864
sg75
g71
sg68
(lp2865
g61
(g82
g63
NtRp2866
(dp2867
g66
(dp2868
g86
g87
ssg75
g2862
sg68
(lp2869
S'url'
p2870
asbag61
(g82
g63
NtRp2871
(dp2872
g66
(dp2873
g93
g94
ssg75
g2862
sg68
(lp2874
S':'
asbag61
(g82
g63
NtRp2875
(dp2876
g66
(dp2877
sg75
g2862
sg68
(lp2878
g61
(g62
g63
NtRp2879
(dp2880
g66
(dp2881
g74
I5
ssg75
g2875
sg68
(lp2882
g1712
asbasbasbag61
(g77
g63
NtRp2883
(dp2884
g66
(dp2885
sg75
g71
sg68
(lp2886
g61
(g82
g63
NtRp2887
(dp2888
g66
(dp2889
g86
g87
ssg75
g2883
sg68
(lp2890
S'utcnow'
p2891
asbag61
(g82
g63
NtRp2892
(dp2893
g66
(dp2894
g93
g94
ssg75
g2883
sg68
(lp2895
S':'
asbag61
(g82
g63
NtRp2896
(dp2897
g66
(dp2898
sg75
g2883
sg68
(lp2899
g61
(g62
g63
NtRp2900
(dp2901
g66
(dp2902
g74
I5
ssg75
g2896
sg68
(lp2903
S'datetime.datetime(2012, 11, 21, 16, 56, 48, 394941)'
p2904
asbasbasbag61
(g77
g63
NtRp2905
(dp2906
g66
(dp2907
sg75
g71
sg68
(lp2908
g61
(g82
g63
NtRp2909
(dp2910
g66
(dp2911
g86
g87
ssg75
g2905
sg68
(lp2912
S'uuid'
p2913
asbag61
(g82
g63
NtRp2914
(dp2915
g66
(dp2916
g93
g94
ssg75
g2905
sg68
(lp2917
S':'
asbag61
(g82
g63
NtRp2918
(dp2919
g66
(dp2920
sg75
g2905
sg68
(lp2921
g61
(g62
g63
NtRp2922
(dp2923
g66
(dp2924
g74
I5
ssg75
g2918
sg68
(lp2925
S'rosan/127.0.0.1.2012-11-21.17-56-48.79a1dbb4-2729-4ac6-9c13-edc485baa3a8'
p2926
asbasbasbag61
(g77
g63
NtRp2927
(dp2928
g66
(dp2929
sg75
g71
sg68
(lp2930
g61
(g82
g63
NtRp2931
(dp2932
g66
(dp2933
g86
g87
ssg75
g2927
sg68
(lp2934
S'vars'
p2935
asbag61
(g82
g63
NtRp2936
(dp2937
g66
(dp2938
g93
g94
ssg75
g2927
sg68
(lp2939
S':'
asbag61
(g82
g63
NtRp2940
(dp2941
g66
(dp2942
sg75
g2927
sg68
(lp2943
g61
(g62
g63
NtRp2944
(dp2945
g66
(dp2946
g74
I5
ssg75
g2940
sg68
(lp2947
g61
(g70
g63
NtRp2948
(dp2949
g66
(dp2950
g74
I4
ssg75
Nsg68
(lp2951
sbasbasbasbag61
(g77
g63
NtRp2952
(dp2953
g66
(dp2954
sg75
g71
sg68
(lp2955
g61
(g82
g63
NtRp2956
(dp2957
g66
(dp2958
g86
g87
ssg75
g2952
sg68
(lp2959
S'wsgi'
p2960
asbag61
(g82
g63
NtRp2961
(dp2962
g66
(dp2963
g93
g94
ssg75
g2952
sg68
(lp2964
S':'
asbag61
(g82
g63
NtRp2965
(dp2966
g66
(dp2967
sg75
g2952
sg68
(lp2968
g61
(g62
g63
NtRp2969
(dp2970
g66
(dp2971
g74
I5
ssg75
g2965
sg68
(lp2972
g61
(g70
g63
NtRp2973
(dp2974
g66
(dp2975
g74
I4
ssg75
Nsg68
(lp2976
g61
(g77
g63
NtRp2977
(dp2978
g66
(dp2979
sg75
g2973
sg68
(lp2980
g61
(g82
g63
NtRp2981
(dp2982
g66
(dp2983
g86
g87
ssg75
g2977
sg68
(lp2984
S'environ'
p2985
asbag61
(g82
g63
NtRp2986
(dp2987
g66
(dp2988
g93
g94
ssg75
g2977
sg68
(lp2989
S':'
asbag61
(g82
g63
NtRp2990
(dp2991
g66
(dp2992
sg75
g2977
sg68
(lp2993
g61
(g62
g63
NtRp2994
(dp2995
g66
(dp2996
g74
I4
ssg75
g2990
sg68
(lp2997
g61
(g70
g63
NtRp2998
(dp2999
g66
(dp3000
g74
I3
ssg75
Nsg68
(lp3001
g61
(g77
g63
NtRp3002
(dp3003
g66
(dp3004
sg75
g2998
sg68
(lp3005
g61
(g82
g63
NtRp3006
(dp3007
g66
(dp3008
g86
g87
ssg75
g3002
sg68
(lp3009
S'HTTP_ACCEPT'
p3010
asbag61
(g82
g63
NtRp3011
(dp3012
g66
(dp3013
g93
g94
ssg75
g3002
sg68
(lp3014
S':'
asbag61
(g82
g63
NtRp3015
(dp3016
g66
(dp3017
sg75
g3002
sg68
(lp3018
g61
(g62
g63
NtRp3019
(dp3020
g66
(dp3021
g74
I3
ssg75
g3015
sg68
(lp3022
g1404
asbasbasbag61
(g77
g63
NtRp3023
(dp3024
g66
(dp3025
sg75
g2998
sg68
(lp3026
g61
(g82
g63
NtRp3027
(dp3028
g66
(dp3029
g86
g87
ssg75
g3023
sg68
(lp3030
S'HTTP_ACCEPT_ENCODING'
p3031
asbag61
(g82
g63
NtRp3032
(dp3033
g66
(dp3034
g93
g94
ssg75
g3023
sg68
(lp3035
S':'
asbag61
(g82
g63
NtRp3036
(dp3037
g66
(dp3038
sg75
g3023
sg68
(lp3039
g61
(g62
g63
NtRp3040
(dp3041
g66
(dp3042
g74
I3
ssg75
g3036
sg68
(lp3043
g1426
asbasbasbag61
(g77
g63
NtRp3044
(dp3045
g66
(dp3046
sg75
g2998
sg68
(lp3047
g61
(g82
g63
NtRp3048
(dp3049
g66
(dp3050
g86
g87
ssg75
g3044
sg68
(lp3051
S'HTTP_ACCEPT_LANGUAGE'
p3052
asbag61
(g82
g63
NtRp3053
(dp3054
g66
(dp3055
g93
g94
ssg75
g3044
sg68
(lp3056
S':'
asbag61
(g82
g63
NtRp3057
(dp3058
g66
(dp3059
sg75
g3044
sg68
(lp3060
g61
(g62
g63
NtRp3061
(dp3062
g66
(dp3063
g74
I3
ssg75
g3057
sg68
(lp3064
g1448
asbasbasbag61
(g77
g63
NtRp3065
(dp3066
g66
(dp3067
sg75
g2998
sg68
(lp3068
g61
(g82
g63
NtRp3069
(dp3070
g66
(dp3071
g86
g87
ssg75
g3065
sg68
(lp3072
S'HTTP_CONNECTION'
p3073
asbag61
(g82
g63
NtRp3074
(dp3075
g66
(dp3076
g93
g94
ssg75
g3065
sg68
(lp3077
S':'
asbag61
(g82
g63
NtRp3078
(dp3079
g66
(dp3080
sg75
g3065
sg68
(lp3081
g61
(g62
g63
NtRp3082
(dp3083
g66
(dp3084
g74
I3
ssg75
g3078
sg68
(lp3085
g1470
asbasbasbag61
(g77
g63
NtRp3086
(dp3087
g66
(dp3088
sg75
g2998
sg68
(lp3089
g61
(g82
g63
NtRp3090
(dp3091
g66
(dp3092
g86
g87
ssg75
g3086
sg68
(lp3093
S'HTTP_COOKIE'
p3094
asbag61
(g82
g63
NtRp3095
(dp3096
g66
(dp3097
g93
g94
ssg75
g3086
sg68
(lp3098
S':'
asbag61
(g82
g63
NtRp3099
(dp3100
g66
(dp3101
sg75
g3086
sg68
(lp3102
g61
(g62
g63
NtRp3103
(dp3104
g66
(dp3105
g74
I3
ssg75
g3099
sg68
(lp3106
g1492
asbasbasbag61
(g77
g63
NtRp3107
(dp3108
g66
(dp3109
sg75
g2998
sg68
(lp3110
g61
(g82
g63
NtRp3111
(dp3112
g66
(dp3113
g86
g87
ssg75
g3107
sg68
(lp3114
S'HTTP_HOST'
p3115
asbag61
(g82
g63
NtRp3116
(dp3117
g66
(dp3118
g93
g94
ssg75
g3107
sg68
(lp3119
S':'
asbag61
(g82
g63
NtRp3120
(dp3121
g66
(dp3122
sg75
g3107
sg68
(lp3123
g61
(g62
g63
NtRp3124
(dp3125
g66
(dp3126
g74
I3
ssg75
g3120
sg68
(lp3127
g1514
asbasbasbag61
(g77
g63
NtRp3128
(dp3129
g66
(dp3130
sg75
g2998
sg68
(lp3131
g61
(g82
g63
NtRp3132
(dp3133
g66
(dp3134
g86
g87
ssg75
g3128
sg68
(lp3135
S'HTTP_REFERER'
p3136
asbag61
(g82
g63
NtRp3137
(dp3138
g66
(dp3139
g93
g94
ssg75
g3128
sg68
(lp3140
S':'
asbag61
(g82
g63
NtRp3141
(dp3142
g66
(dp3143
sg75
g3128
sg68
(lp3144
g61
(g62
g63
NtRp3145
(dp3146
g66
(dp3147
g74
I3
ssg75
g3141
sg68
(lp3148
g1536
asbasbasbag61
(g77
g63
NtRp3149
(dp3150
g66
(dp3151
sg75
g2998
sg68
(lp3152
g61
(g82
g63
NtRp3153
(dp3154
g66
(dp3155
g86
g87
ssg75
g3149
sg68
(lp3156
S'HTTP_USER_AGENT'
p3157
asbag61
(g82
g63
NtRp3158
(dp3159
g66
(dp3160
g93
g94
ssg75
g3149
sg68
(lp3161
S':'
asbag61
(g82
g63
NtRp3162
(dp3163
g66
(dp3164
sg75
g3149
sg68
(lp3165
g61
(g62
g63
NtRp3166
(dp3167
g66
(dp3168
g74
I3
ssg75
g3162
sg68
(lp3169
g1558
asbasbasbag61
(g77
g63
NtRp3170
(dp3171
g66
(dp3172
sg75
g2998
sg68
(lp3173
g61
(g82
g63
NtRp3174
(dp3175
g66
(dp3176
g86
g87
ssg75
g3170
sg68
(lp3177
S'PATH_INFO'
p3178
asbag61
(g82
g63
NtRp3179
(dp3180
g66
(dp3181
g93
g94
ssg75
g3170
sg68
(lp3182
S':'
asbag61
(g82
g63
NtRp3183
(dp3184
g66
(dp3185
sg75
g3170
sg68
(lp3186
g61
(g62
g63
NtRp3187
(dp3188
g66
(dp3189
g74
I3
ssg75
g3183
sg68
(lp3190
g1712
asbasbasbag61
(g77
g63
NtRp3191
(dp3192
g66
(dp3193
sg75
g2998
sg68
(lp3194
g61
(g82
g63
NtRp3195
(dp3196
g66
(dp3197
g86
g87
ssg75
g3191
sg68
(lp3198
S'QUERY_STRING'
p3199
asbag61
(g82
g63
NtRp3200
(dp3201
g66
(dp3202
g93
g94
ssg75
g3191
sg68
(lp3203
S':'
asbag61
(g82
g63
NtRp3204
(dp3205
g66
(dp3206
sg75
g3191
sg68
(lp3207
g61
(g62
g63
NtRp3208
(dp3209
g66
(dp3210
g74
I3
ssg75
g3204
sg68
(lp3211
S''
asbasbasbag61
(g77
g63
NtRp3212
(dp3213
g66
(dp3214
sg75
g2998
sg68
(lp3215
g61
(g82
g63
NtRp3216
(dp3217
g66
(dp3218
g86
g87
ssg75
g3212
sg68
(lp3219
S'REMOTE_ADDR'
p3220
asbag61
(g82
g63
NtRp3221
(dp3222
g66
(dp3223
g93
g94
ssg75
g3212
sg68
(lp3224
S':'
asbag61
(g82
g63
NtRp3225
(dp3226
g66
(dp3227
sg75
g3212
sg68
(lp3228
g61
(g62
g63
NtRp3229
(dp3230
g66
(dp3231
g74
I3
ssg75
g3225
sg68
(lp3232
g216
asbasbasbag61
(g77
g63
NtRp3233
(dp3234
g66
(dp3235
sg75
g2998
sg68
(lp3236
g61
(g82
g63
NtRp3237
(dp3238
g66
(dp3239
g86
g87
ssg75
g3233
sg68
(lp3240
S'REMOTE_PORT'
p3241
asbag61
(g82
g63
NtRp3242
(dp3243
g66
(dp3244
g93
g94
ssg75
g3233
sg68
(lp3245
S':'
asbag61
(g82
g63
NtRp3246
(dp3247
g66
(dp3248
sg75
g3233
sg68
(lp3249
g61
(g62
g63
NtRp3250
(dp3251
g66
(dp3252
g74
I3
ssg75
g3246
sg68
(lp3253
g1776
asbasbasbag61
(g77
g63
NtRp3254
(dp3255
g66
(dp3256
sg75
g2998
sg68
(lp3257
g61
(g82
g63
NtRp3258
(dp3259
g66
(dp3260
g86
g87
ssg75
g3254
sg68
(lp3261
S'REQUEST_METHOD'
p3262
asbag61
(g82
g63
NtRp3263
(dp3264
g66
(dp3265
g93
g94
ssg75
g3254
sg68
(lp3266
S':'
asbag61
(g82
g63
NtRp3267
(dp3268
g66
(dp3269
sg75
g3254
sg68
(lp3270
g61
(g62
g63
NtRp3271
(dp3272
g66
(dp3273
g74
I3
ssg75
g3267
sg68
(lp3274
g1798
asbasbasbag61
(g77
g63
NtRp3275
(dp3276
g66
(dp3277
sg75
g2998
sg68
(lp3278
g61
(g82
g63
NtRp3279
(dp3280
g66
(dp3281
g86
g87
ssg75
g3275
sg68
(lp3282
S'REQUEST_URI'
p3283
asbag61
(g82
g63
NtRp3284
(dp3285
g66
(dp3286
g93
g94
ssg75
g3275
sg68
(lp3287
S':'
asbag61
(g82
g63
NtRp3288
(dp3289
g66
(dp3290
sg75
g3275
sg68
(lp3291
g61
(g62
g63
NtRp3292
(dp3293
g66
(dp3294
g74
I3
ssg75
g3288
sg68
(lp3295
g1712
asbasbasbag61
(g77
g63
NtRp3296
(dp3297
g66
(dp3298
sg75
g2998
sg68
(lp3299
g61
(g82
g63
NtRp3300
(dp3301
g66
(dp3302
g86
g87
ssg75
g3296
sg68
(lp3303
S'SCRIPT_NAME'
p3304
asbag61
(g82
g63
NtRp3305
(dp3306
g66
(dp3307
g93
g94
ssg75
g3296
sg68
(lp3308
S':'
asbag61
(g82
g63
NtRp3309
(dp3310
g66
(dp3311
sg75
g3296
sg68
(lp3312
g61
(g62
g63
NtRp3313
(dp3314
g66
(dp3315
g74
I3
ssg75
g3309
sg68
(lp3316
S''
asbasbasbag61
(g77
g63
NtRp3317
(dp3318
g66
(dp3319
sg75
g2998
sg68
(lp3320
g61
(g82
g63
NtRp3321
(dp3322
g66
(dp3323
g86
g87
ssg75
g3317
sg68
(lp3324
S'SERVER_NAME'
p3325
asbag61
(g82
g63
NtRp3326
(dp3327
g66
(dp3328
g93
g94
ssg75
g3317
sg68
(lp3329
S':'
asbag61
(g82
g63
NtRp3330
(dp3331
g66
(dp3332
sg75
g3317
sg68
(lp3333
g61
(g62
g63
NtRp3334
(dp3335
g66
(dp3336
g74
I3
ssg75
g3330
sg68
(lp3337
g1677
asbasbasbag61
(g77
g63
NtRp3338
(dp3339
g66
(dp3340
sg75
g2998
sg68
(lp3341
g61
(g82
g63
NtRp3342
(dp3343
g66
(dp3344
g86
g87
ssg75
g3338
sg68
(lp3345
S'SERVER_PORT'
p3346
asbag61
(g82
g63
NtRp3347
(dp3348
g66
(dp3349
g93
g94
ssg75
g3338
sg68
(lp3350
S':'
asbag61
(g82
g63
NtRp3351
(dp3352
g66
(dp3353
sg75
g3338
sg68
(lp3354
g61
(g62
g63
NtRp3355
(dp3356
g66
(dp3357
g74
I3
ssg75
g3351
sg68
(lp3358
g1883
asbasbasbag61
(g77
g63
NtRp3359
(dp3360
g66
(dp3361
sg75
g2998
sg68
(lp3362
g61
(g82
g63
NtRp3363
(dp3364
g66
(dp3365
g86
g87
ssg75
g3359
sg68
(lp3366
S'SERVER_PROTOCOL'
p3367
asbag61
(g82
g63
NtRp3368
(dp3369
g66
(dp3370
g93
g94
ssg75
g3359
sg68
(lp3371
S':'
asbag61
(g82
g63
NtRp3372
(dp3373
g66
(dp3374
sg75
g3359
sg68
(lp3375
g61
(g62
g63
NtRp3376
(dp3377
g66
(dp3378
g74
I3
ssg75
g3372
sg68
(lp3379
g1905
asbasbasbag61
(g77
g63
NtRp3380
(dp3381
g66
(dp3382
sg75
g2998
sg68
(lp3383
g61
(g82
g63
NtRp3384
(dp3385
g66
(dp3386
g86
g87
ssg75
g3380
sg68
(lp3387
S'SERVER_SOFTWARE'
p3388
asbag61
(g82
g63
NtRp3389
(dp3390
g66
(dp3391
g93
g94
ssg75
g3380
sg68
(lp3392
S':'
asbag61
(g82
g63
NtRp3393
(dp3394
g66
(dp3395
sg75
g3380
sg68
(lp3396
g61
(g62
g63
NtRp3397
(dp3398
g66
(dp3399
g74
I3
ssg75
g3393
sg68
(lp3400
g1927
asbasbasbag61
(g77
g63
NtRp3401
(dp3402
g66
(dp3403
sg75
g2998
sg68
(lp3404
g61
(g82
g63
NtRp3405
(dp3406
g66
(dp3407
g86
g87
ssg75
g3401
sg68
(lp3408
S'wsgi.errors'
p3409
asbag61
(g82
g63
NtRp3410
(dp3411
g66
(dp3412
g93
g94
ssg75
g3401
sg68
(lp3413
S':'
asbag61
(g82
g63
NtRp3414
(dp3415
g66
(dp3416
sg75
g3401
sg68
(lp3417
g61
(g62
g63
NtRp3418
(dp3419
g66
(dp3420
g74
I3
ssg75
g3414
sg68
(lp3421
S"<open file '<stderr>', mode 'w' at 0x25a0d0>"
p3422
asbasbasbag61
(g77
g63
NtRp3423
(dp3424
g66
(dp3425
sg75
g2998
sg68
(lp3426
g61
(g82
g63
NtRp3427
(dp3428
g66
(dp3429
g86
g87
ssg75
g3423
sg68
(lp3430
S'wsgi.file_wrapper'
p3431
asbag61
(g82
g63
NtRp3432
(dp3433
g66
(dp3434
g93
g94
ssg75
g3423
sg68
(lp3435
S':'
asbag61
(g82
g63
NtRp3436
(dp3437
g66
(dp3438
sg75
g3423
sg68
(lp3439
g61
(g62
g63
NtRp3440
(dp3441
g66
(dp3442
g74
I3
ssg75
g3436
sg68
(lp3443
S'<class wsgiref.util.FileWrapper at 0x1968d88>'
p3444
asbasbasbag61
(g77
g63
NtRp3445
(dp3446
g66
(dp3447
sg75
g2998
sg68
(lp3448
g61
(g82
g63
NtRp3449
(dp3450
g66
(dp3451
g86
g87
ssg75
g3445
sg68
(lp3452
S'wsgi.input'
p3453
asbag61
(g82
g63
NtRp3454
(dp3455
g66
(dp3456
g93
g94
ssg75
g3445
sg68
(lp3457
S':'
asbag61
(g82
g63
NtRp3458
(dp3459
g66
(dp3460
sg75
g3445
sg68
(lp3461
g61
(g62
g63
NtRp3462
(dp3463
g66
(dp3464
g74
I3
ssg75
g3458
sg68
(lp3465
S'<cStringIO.StringO object at 0x18882680>'
p3466
asbasbasbag61
(g77
g63
NtRp3467
(dp3468
g66
(dp3469
sg75
g2998
sg68
(lp3470
g61
(g82
g63
NtRp3471
(dp3472
g66
(dp3473
g86
g87
ssg75
g3467
sg68
(lp3474
S'wsgi.multiprocess'
p3475
asbag61
(g82
g63
NtRp3476
(dp3477
g66
(dp3478
g93
g94
ssg75
g3467
sg68
(lp3479
S':'
asbag61
(g82
g63
NtRp3480
(dp3481
g66
(dp3482
sg75
g3467
sg68
(lp3483
g61
(g62
g63
NtRp3484
(dp3485
g66
(dp3486
g74
I3
ssg75
g3480
sg68
(lp3487
g104
asbasbasbag61
(g77
g63
NtRp3488
(dp3489
g66
(dp3490
sg75
g2998
sg68
(lp3491
g61
(g82
g63
NtRp3492
(dp3493
g66
(dp3494
g86
g87
ssg75
g3488
sg68
(lp3495
S'wsgi.multithread'
p3496
asbag61
(g82
g63
NtRp3497
(dp3498
g66
(dp3499
g93
g94
ssg75
g3488
sg68
(lp3500
S':'
asbag61
(g82
g63
NtRp3501
(dp3502
g66
(dp3503
sg75
g3488
sg68
(lp3504
g61
(g62
g63
NtRp3505
(dp3506
g66
(dp3507
g74
I3
ssg75
g3501
sg68
(lp3508
g2144
asbasbasbag61
(g77
g63
NtRp3509
(dp3510
g66
(dp3511
sg75
g2998
sg68
(lp3512
g61
(g82
g63
NtRp3513
(dp3514
g66
(dp3515
g86
g87
ssg75
g3509
sg68
(lp3516
S'wsgi.run_once'
p3517
asbag61
(g82
g63
NtRp3518
(dp3519
g66
(dp3520
g93
g94
ssg75
g3509
sg68
(lp3521
S':'
asbag61
(g82
g63
NtRp3522
(dp3523
g66
(dp3524
sg75
g3509
sg68
(lp3525
g61
(g62
g63
NtRp3526
(dp3527
g66
(dp3528
g74
I3
ssg75
g3522
sg68
(lp3529
g104
asbasbasbag61
(g77
g63
NtRp3530
(dp3531
g66
(dp3532
sg75
g2998
sg68
(lp3533
g61
(g82
g63
NtRp3534
(dp3535
g66
(dp3536
g86
g87
ssg75
g3530
sg68
(lp3537
S'wsgi.url_scheme'
p3538
asbag61
(g82
g63
NtRp3539
(dp3540
g66
(dp3541
g93
g94
ssg75
g3530
sg68
(lp3542
S':'
asbag61
(g82
g63
NtRp3543
(dp3544
g66
(dp3545
sg75
g3530
sg68
(lp3546
g61
(g62
g63
NtRp3547
(dp3548
g66
(dp3549
g74
I3
ssg75
g3543
sg68
(lp3550
g2187
asbasbasbag61
(g77
g63
NtRp3551
(dp3552
g66
(dp3553
sg75
g2998
sg68
(lp3554
g61
(g82
g63
NtRp3555
(dp3556
g66
(dp3557
g86
g87
ssg75
g3551
sg68
(lp3558
S'wsgi.version'
p3559
asbag61
(g82
g63
NtRp3560
(dp3561
g66
(dp3562
g93
g94
ssg75
g3551
sg68
(lp3563
S':'
asbag61
(g82
g63
NtRp3564
(dp3565
g66
(dp3566
sg75
g3551
sg68
(lp3567
g61
(g62
g63
NtRp3568
(dp3569
g66
(dp3570
g74
I3
ssg75
g3564
sg68
(lp3571
S'1'
asbasbasbasbasbasbasbasbasbasbasbasbasbsS'frames'
p3572
(lp3573
(dp3574
S'file'
p3575
S'/Users/Truki/web2py/gluon/restricted.py'
p3576
sS'dump'
p3577
(dp3578
S'environment'
p3579
S"{'A': <class 'gluon.html.A'>, 'Auth': <class 'gluon.tools.Auth'>, 'B': <class 'gluon.html.B'>, 'BEAUTIFY': <class 'gluon.html.BEAUTIFY'>, 'BODY': <class 'gluon.html.BODY'>, 'BR': <class 'gluon.html.BR'>, 'BUTTON': <class 'gluon.html.BUTTON'>, 'CAT': <class 'gluon.html.CAT'>, 'CENTER': <class 'gluon.html.CENTER'>, 'CLEANUP': <class 'gluon.validators.CLEANUP'>, ...}"
p3580
sS'ccode'
p3581
S'<code object <module> at 0x17f4d848, file "/User...web2py/applications/rosan/models/db.py", line 12>'
p3582
ssS'lnum'
p3583
I212
sS'lines'
p3584
(dp3585
I207
S'    try:'
p3586
sI208
S'        if isinstance(code, types.CodeType):'
p3587
sI209
S'            ccode = code'
p3588
sI210
S'        else:'
p3589
sI211
S'            ccode = compile2(code, layer)'
p3590
sI212
S'        exec ccode in environment'
p3591
sI213
S'    except HTTP:'
p3592
sI214
S'        raise'
p3593
sI215
S'    except RestrictedError:'
p3594
sI216
S'        # do not encapsulate (obfuscate) the original RestrictedError'
p3595
ssS'call'
p3596
S"(code='# -*- coding: utf-8 -*-\\r\\n\\r\\n#####################...ender\\nmail.settings.login = settings.email_login\\n', environment={'A': <class 'gluon.html.A'>, 'Auth': <class 'gluon.tools.Auth'>, 'B': <class 'gluon.html.B'>, 'BEAUTIFY': <class 'gluon.html.BEAUTIFY'>, 'BODY': <class 'gluon.html.BODY'>, 'BR': <class 'gluon.html.BR'>, 'BUTTON': <class 'gluon.html.BUTTON'>, 'CAT': <class 'gluon.html.CAT'>, 'CENTER': <class 'gluon.html.CENTER'>, 'CLEANUP': <class 'gluon.validators.CLEANUP'>, ...}, layer='/Users/Truki/web2py/applications/rosan/models/db.py')"
p3597
sS'func'
p3598
S'restricted'
p3599
sa(dp3600
g3575
S'/Users/Truki/web2py/applications/rosan/models/db.py'
p3601
sg3577
(dp3602
S'migrate'
p3603
S'undefined'
p3604
sS'settings.migrate'
p3605
g2144
sS'settings'
p3606
S"<Storage {'layout_theme': 'Default', 'subtitle':...l_server': 'localhost', 'login_method': 'local'}>"
p3607
ssg3583
I73
sg3584
(dp3608
I68
S"    Field('reset_password_key',default='',"
p3609
sI69
S'          writable=False,readable=False),'
p3610
sI70
S"    Field('registration_id',default='',"
p3611
sI71
S'          writable=False,readable=False),'
p3612
sI72
S"    format='%(username)s',"
p3613
sI73
S'    migrate=settings.migrate)'
p3614
sI74
S''
sI75
S''
sI76
S'db.auth_user.first_name.requires = IS_NOT_EMPTY(error_message=auth.messages.is_empty)'
p3615
sI77
S'db.auth_user.last_name.requires = IS_NOT_EMPTY(error_message=auth.messages.is_empty)'
p3616
ssg3596
S'()'
p3617
sg3598
S'<module>'
p3618
sa(dp3619
g3575
S'/Users/Truki/web2py/gluon/dal.py'
p3620
sg3577
(dp3621
S'fields'
p3622
S'(<gluon.dal.Field object>, <gluon.dal.Field object>, <gluon.dal.Field object>, <gluon.dal.Field object>, <gluon.dal.Field object>, <gluon.dal.Field object>, <gluon.dal.Field object>, <gluon.dal.Field object>, <gluon.dal.Field object>, <gluon.dal.Field object>)'
p3623
sS'self'
p3624
S'<DAL uri="sqlite://storage.sqlite">'
p3625
sS'args'
p3626
S"{'format': '%(username)s', 'migrate': True}"
p3627
sS'tablename'
p3628
S"'auth_user'"
p3629
sS'table'
p3630
g3604
sS'self.lazy_define_table'
p3631
S'<bound method DAL.lazy_define_table of <DAL uri="sqlite://storage.sqlite">>'
p3632
ssg3583
I7086
sg3584
(dp3633
I7081
S'                    % (tablename,invalid_args)'
p3634
sI7082
S'        if self._lazy_tables and not tablename in self._LAZY_TABLES:'
p3635
sI7083
S'            self._LAZY_TABLES[tablename] = (tablename,fields,args)'
p3636
sI7084
S'            table = None'
p3637
sI7085
S'        else:'
p3638
sI7086
S'            table = self.lazy_define_table(tablename,*fields,**args)'
p3639
sI7087
S'        if not tablename in self.tables:'
p3640
sI7088
S'            self.tables.append(tablename)'
p3641
sI7089
S'        return table'
p3642
sI7090
S''
ssg3596
S'(self=<DAL uri="sqlite://storage.sqlite">, tablename=\'auth_user\', *fields=(<gluon.dal.Field object>, <gluon.dal.Field object>, <gluon.dal.Field object>, <gluon.dal.Field object>, <gluon.dal.Field object>, <gluon.dal.Field object>, <gluon.dal.Field object>, <gluon.dal.Field object>, <gluon.dal.Field object>, <gluon.dal.Field object>), **args={\'format\': \'%(username)s\', \'migrate\': True})'
p3643
sg3598
S'define_table'
p3644
sa(dp3645
g3575
S'/Users/Truki/web2py/gluon/dal.py'
p3646
sg3577
(dp3647
S'polymodel'
p3648
S'None'
p3649
ssg3583
I7118
sg3584
(dp3650
I7113
S"            polymodel = args_get('polymodel',None)"
p3651
sI7114
S'            try:'
p3652
sI7115
S'                GLOBAL_LOCKER.acquire()'
p3653
sI7116
S'                self._adapter.create_table(table,migrate=migrate,'
p3654
sI7117
S'                                           fake_migrate=fake_migrate,'
p3655
sI7118
S'                                           polymodel=polymodel)'
p3656
sI7119
S'            finally:'
p3657
sI7120
S'                GLOBAL_LOCKER.release()'
p3658
sI7121
S'        else:'
p3659
sI7122
S'            table._dbt = None'
p3660
ssg3596
S'(self=<DAL uri="sqlite://storage.sqlite">, tablename=\'auth_user\', *fields=(<gluon.dal.Field object>, <gluon.dal.Field object>, <gluon.dal.Field object>, <gluon.dal.Field object>, <gluon.dal.Field object>, <gluon.dal.Field object>, <gluon.dal.Field object>, <gluon.dal.Field object>, <gluon.dal.Field object>, <gluon.dal.Field object>), **args={\'format\': \'%(username)s\', \'migrate\': True})'
p3661
sg3598
S'lazy_define_table'
p3662
sa(dp3663
g3575
S'/Users/Truki/web2py/gluon/dal.py'
p3664
sg3577
(dp3665
S'query'
p3666
S"'CREATE TABLE auth_user(\\n    id INTEGER PRIMARY K...d_key CHAR(512),\\n    registration_id CHAR(512)\\n);'"
p3667
sS'self'
p3668
S'<gluon.dal.SQLiteAdapter object>'
p3669
sS'table'
p3670
S'<Table auth_user (id,username,first_name,last_na...stration_key,reset_password_key,registration_id)>'
p3671
sS'self.create_sequence_and_triggers'
p3672
S'<bound method SQLiteAdapter.create_sequence_and_triggers of <gluon.dal.SQLiteAdapter object>>'
p3673
ssg3583
I921
sg3584
(dp3674
I916
S'            if table._dbt:'
p3675
sI917
S"                logfile.write('timestamp: %s\\n'"
p3676
sI918
S'                               % datetime.datetime.today().isoformat())'
p3677
sI919
S"                logfile.write(query + '\\n')"
p3678
sI920
S'            if not fake_migrate:'
p3679
sI921
S'                self.create_sequence_and_triggers(query,table)'
p3680
sI922
S'                table._db.commit()'
p3681
sI923
S'                # Postgres geom fields are added now,'
p3682
sI924
S'                # after the table has been created'
p3683
sI925
S'                for query in postcreation_fields:'
p3684
ssg3596
S'(self=<gluon.dal.SQLiteAdapter object>, table=<Table auth_user (id,username,first_name,last_na...stration_key,reset_password_key,registration_id)>, migrate=True, fake_migrate=False, polymodel=None)'
p3685
sg3598
S'create_table'
p3686
sa(dp3687
g3575
S'/Users/Truki/web2py/gluon/dal.py'
p3688
sg3577
(dp3689
S'query'
p3690
S"'CREATE TABLE auth_user(\\n    id INTEGER PRIMARY K...d_key CHAR(512),\\n    registration_id CHAR(512)\\n);'"
p3691
sS'self'
p3692
S'<gluon.dal.SQLiteAdapter object>'
p3693
sS'self.execute'
p3694
S'<bound method SQLiteAdapter.execute of <gluon.dal.SQLiteAdapter object>>'
p3695
ssg3583
I1679
sg3584
(dp3696
I1674
S''
sI1675
S'    def constraint_name(self, table, fieldname):'
p3697
sI1676
S"        return '%s_%s__constraint' % (table,fieldname)"
p3698
sI1677
S''
sI1678
S'    def create_sequence_and_triggers(self, query, table, **args):'
p3699
sI1679
S'        self.execute(query)'
p3700
sI1680
S''
sI1681
S'    def log_execute(self, *a, **b):'
p3701
sI1682
S'        if not self.connection: return None'
p3702
sI1683
S'        command = a[0]'
p3703
ssg3596
S"(self=<gluon.dal.SQLiteAdapter object>, query='CREATE TABLE auth_user(\\n    id INTEGER PRIMARY K...d_key CHAR(512),\\n    registration_id CHAR(512)\\n);', table=<Table auth_user (id,username,first_name,last_na...stration_key,reset_password_key,registration_id)>, **args={})"
p3704
sg3598
S'create_sequence_and_triggers'
p3705
sa(dp3706
g3575
S'/Users/Truki/web2py/gluon/dal.py'
p3707
sg3577
(dp3708
S'a'
S"('CREATE TABLE auth_user(\\n    id INTEGER PRIMARY K...d_key CHAR(512),\\n    registration_id CHAR(512)\\n);',)"
p3709
sS'self'
p3710
S'<gluon.dal.SQLiteAdapter object>'
p3711
sS'b'
g21
sS'self.log_execute'
p3712
S'<bound method SQLiteAdapter.log_execute of <gluon.dal.SQLiteAdapter object>>'
p3713
ssg3583
I1694
sg3584
(dp3714
I1696
S'    def represent(self, obj, fieldtype):'
p3715
sI1697
S'        field_is_type = fieldtype.startswith'
p3716
sI1698
S'        if isinstance(obj, CALLABLETYPES):'
p3717
sI1689
S'        self.db._timings.append((command,time.time()-t0))'
p3718
sI1690
S'        del self.db._timings[:-TIMINGSSIZE]'
p3719
sI1691
S'        return ret'
p3720
sI1692
S''
sI1693
S'    def execute(self, *a, **b):'
p3721
sI1694
S'        return self.log_execute(*a, **b)'
p3722
sI1695
S''
ssg3596
S"(self=<gluon.dal.SQLiteAdapter object>, *a=('CREATE TABLE auth_user(\\n    id INTEGER PRIMARY K...d_key CHAR(512),\\n    registration_id CHAR(512)\\n);',), **b={})"
p3723
sg3598
S'execute'
p3724
sa(dp3725
g3575
S'/Users/Truki/web2py/gluon/dal.py'
p3726
sg3577
(dp3727
S'a'
S"('CREATE TABLE auth_user(\\n    id INTEGER PRIMARY K...d_key CHAR(512),\\n    registration_id CHAR(512)\\n);',)"
p3728
sS'b'
g21
sS'self'
p3729
S'<gluon.dal.SQLiteAdapter object>'
p3730
sS'ret'
p3731
g3604
sS'self.cursor'
p3732
S'<sqlite3.Cursor object>'
p3733
sS'self.cursor.execute'
p3734
S'<built-in method execute of sqlite3.Cursor object>'
p3735
ssg3583
I1688
sg3584
(dp3736
I1683
S'        command = a[0]'
p3737
sI1684
S'        if self.db._debug:'
p3738
sI1685
S"            LOGGER.debug('SQL: %s' % command)"
p3739
sI1686
S'        self.db._lastsql = command'
p3740
sI1687
S'        t0 = time.time()'
p3741
sI1688
S'        ret = self.cursor.execute(*a, **b)'
p3742
sI1689
S'        self.db._timings.append((command,time.time()-t0))'
p3743
sI1690
S'        del self.db._timings[:-TIMINGSSIZE]'
p3744
sI1691
S'        return ret'
p3745
sI1692
S''
ssg3596
S"(self=<gluon.dal.SQLiteAdapter object>, *a=('CREATE TABLE auth_user(\\n    id INTEGER PRIMARY K...d_key CHAR(512),\\n    registration_id CHAR(512)\\n);',), **b={})"
p3746
sg3598
S'log_execute'
p3747
sasS'pyver'
p3748
S'Python 2.7.3: /Library/Frameworks/Python.framework/Versions/2.7/Resources/Python.app/Contents/MacOS/Python'
p3749
sS'session'
p3750
g61
(g62
g63
NtRp3751
(dp3752
g66
(dp3753
sg68
(lp3754
g61
(g70
g63
NtRp3755
(dp3756
g66
(dp3757
g74
I5
ssg75
Nsg68
(lp3758
sbasbsS'etype'
p3759
S"<class 'sqlite3.OperationalError'>"
p3760
sS'date'
p3761
S'Wed Nov 21 17:56:48 2012'
p3762
sS'response'
p3763
g61
(g62
g63
NtRp3764
(dp3765
g66
(dp3766
sg68
(lp3767
g61
(g70
g63
NtRp3768
(dp3769
g66
(dp3770
g74
I5
ssg75
Nsg68
(lp3771
g61
(g77
g63
NtRp3772
(dp3773
g66
(dp3774
sg75
g3768
sg68
(lp3775
g61
(g82
g63
NtRp3776
(dp3777
g66
(dp3778
g86
g87
ssg75
g3772
sg68
(lp3779
g159
asbag61
(g82
g63
NtRp3780
(dp3781
g66
(dp3782
g93
g94
ssg75
g3772
sg68
(lp3783
S':'
asbag61
(g82
g63
NtRp3784
(dp3785
g66
(dp3786
sg75
g3772
sg68
(lp3787
g61
(g62
g63
NtRp3788
(dp3789
g66
(dp3790
g74
I5
ssg75
g3784
sg68
(lp3791
S'<cStringIO.StringO object at 0x1825be00>'
p3792
asbasbasbag61
(g77
g63
NtRp3793
(dp3794
g66
(dp3795
sg75
g3768
sg68
(lp3796
g61
(g82
g63
NtRp3797
(dp3798
g66
(dp3799
g86
g87
ssg75
g3793
sg68
(lp3800
g247
asbag61
(g82
g63
NtRp3801
(dp3802
g66
(dp3803
g93
g94
ssg75
g3793
sg68
(lp3804
S':'
asbag61
(g82
g63
NtRp3805
(dp3806
g66
(dp3807
sg75
g3793
sg68
(lp3808
g61
(g62
g63
NtRp3809
(dp3810
g66
(dp3811
g74
I5
ssg75
g3805
sg68
(lp3812
g61
(g70
g63
NtRp3813
(dp3814
g66
(dp3815
g74
I4
ssg75
Nsg68
(lp3816
g61
(g77
g63
NtRp3817
(dp3818
g66
(dp3819
sg75
g3813
sg68
(lp3820
g61
(g82
g63
NtRp3821
(dp3822
g66
(dp3823
g86
g87
ssg75
g3817
sg68
(lp3824
S'session_id_rosan'
p3825
asbag61
(g82
g63
NtRp3826
(dp3827
g66
(dp3828
g93
g94
ssg75
g3817
sg68
(lp3829
S':'
asbag61
(g82
g63
NtRp3830
(dp3831
g66
(dp3832
sg75
g3817
sg68
(lp3833
g61
(g62
g63
NtRp3834
(dp3835
g66
(dp3836
g74
I4
ssg75
g3830
sg68
(lp3837
S'127.0.0.1-cdde7a10-1611-415a-b5d2-8b64438fb894'
p3838
ag61
(g70
g63
NtRp3839
(dp3840
g66
(dp3841
g74
I3
ssg75
Nsg68
(lp3842
g61
(g77
g63
NtRp3843
(dp3844
g66
(dp3845
sg75
g3839
sg68
(lp3846
g61
(g82
g63
NtRp3847
(dp3848
g66
(dp3849
g86
g87
ssg75
g3843
sg68
(lp3850
g298
asbag61
(g82
g63
NtRp3851
(dp3852
g66
(dp3853
g93
g94
ssg75
g3843
sg68
(lp3854
S':'
asbag61
(g82
g63
NtRp3855
(dp3856
g66
(dp3857
sg75
g3843
sg68
(lp3858
g61
(g62
g63
NtRp3859
(dp3860
g66
(dp3861
g74
I3
ssg75
g3855
sg68
(lp3862
S''
asbasbasbag61
(g77
g63
NtRp3863
(dp3864
g66
(dp3865
sg75
g3839
sg68
(lp3866
g61
(g82
g63
NtRp3867
(dp3868
g66
(dp3869
g86
g87
ssg75
g3863
sg68
(lp3870
g319
asbag61
(g82
g63
NtRp3871
(dp3872
g66
(dp3873
g93
g94
ssg75
g3863
sg68
(lp3874
S':'
asbag61
(g82
g63
NtRp3875
(dp3876
g66
(dp3877
sg75
g3863
sg68
(lp3878
g61
(g62
g63
NtRp3879
(dp3880
g66
(dp3881
g74
I3
ssg75
g3875
sg68
(lp3882
S''
asbasbasbag61
(g77
g63
NtRp3883
(dp3884
g66
(dp3885
sg75
g3839
sg68
(lp3886
g61
(g82
g63
NtRp3887
(dp3888
g66
(dp3889
g86
g87
ssg75
g3883
sg68
(lp3890
g340
asbag61
(g82
g63
NtRp3891
(dp3892
g66
(dp3893
g93
g94
ssg75
g3883
sg68
(lp3894
S':'
asbag61
(g82
g63
NtRp3895
(dp3896
g66
(dp3897
sg75
g3883
sg68
(lp3898
g61
(g62
g63
NtRp3899
(dp3900
g66
(dp3901
g74
I3
ssg75
g3895
sg68
(lp3902
S''
asbasbasbag61
(g77
g63
NtRp3903
(dp3904
g66
(dp3905
sg75
g3839
sg68
(lp3906
g61
(g82
g63
NtRp3907
(dp3908
g66
(dp3909
g86
g87
ssg75
g3903
sg68
(lp3910
g361
asbag61
(g82
g63
NtRp3911
(dp3912
g66
(dp3913
g93
g94
ssg75
g3903
sg68
(lp3914
S':'
asbag61
(g82
g63
NtRp3915
(dp3916
g66
(dp3917
sg75
g3903
sg68
(lp3918
g61
(g62
g63
NtRp3919
(dp3920
g66
(dp3921
g74
I3
ssg75
g3915
sg68
(lp3922
S''
asbasbasbag61
(g77
g63
NtRp3923
(dp3924
g66
(dp3925
sg75
g3839
sg68
(lp3926
g61
(g82
g63
NtRp3927
(dp3928
g66
(dp3929
g86
g87
ssg75
g3923
sg68
(lp3930
g382
asbag61
(g82
g63
NtRp3931
(dp3932
g66
(dp3933
g93
g94
ssg75
g3923
sg68
(lp3934
S':'
asbag61
(g82
g63
NtRp3935
(dp3936
g66
(dp3937
sg75
g3923
sg68
(lp3938
g61
(g62
g63
NtRp3939
(dp3940
g66
(dp3941
g74
I3
ssg75
g3935
sg68
(lp3942
S''
asbasbasbag61
(g77
g63
NtRp3943
(dp3944
g66
(dp3945
sg75
g3839
sg68
(lp3946
g61
(g82
g63
NtRp3947
(dp3948
g66
(dp3949
g86
g87
ssg75
g3943
sg68
(lp3950
g403
asbag61
(g82
g63
NtRp3951
(dp3952
g66
(dp3953
g93
g94
ssg75
g3943
sg68
(lp3954
S':'
asbag61
(g82
g63
NtRp3955
(dp3956
g66
(dp3957
sg75
g3943
sg68
(lp3958
g61
(g62
g63
NtRp3959
(dp3960
g66
(dp3961
g74
I3
ssg75
g3955
sg68
(lp3962
S'/'
asbasbasbag61
(g77
g63
NtRp3963
(dp3964
g66
(dp3965
sg75
g3839
sg68
(lp3966
g61
(g82
g63
NtRp3967
(dp3968
g66
(dp3969
g86
g87
ssg75
g3963
sg68
(lp3970
g424
asbag61
(g82
g63
NtRp3971
(dp3972
g66
(dp3973
g93
g94
ssg75
g3963
sg68
(lp3974
S':'
asbag61
(g82
g63
NtRp3975
(dp3976
g66
(dp3977
sg75
g3963
sg68
(lp3978
g61
(g62
g63
NtRp3979
(dp3980
g66
(dp3981
g74
I3
ssg75
g3975
sg68
(lp3982
S''
asbasbasbag61
(g77
g63
NtRp3983
(dp3984
g66
(dp3985
sg75
g3839
sg68
(lp3986
g61
(g82
g63
NtRp3987
(dp3988
g66
(dp3989
g86
g87
ssg75
g3983
sg68
(lp3990
g445
asbag61
(g82
g63
NtRp3991
(dp3992
g66
(dp3993
g93
g94
ssg75
g3983
sg68
(lp3994
S':'
asbag61
(g82
g63
NtRp3995
(dp3996
g66
(dp3997
sg75
g3983
sg68
(lp3998
g61
(g62
g63
NtRp3999
(dp4000
g66
(dp4001
g74
I3
ssg75
g3995
sg68
(lp4002
S''
asbasbasbasbasbasbasbasbasbasbasbag61
(g77
g63
NtRp4003
(dp4004
g66
(dp4005
sg75
g3768
sg68
(lp4006
g61
(g82
g63
NtRp4007
(dp4008
g66
(dp4009
g86
g87
ssg75
g4003
sg68
(lp4010
S'delimiters'
p4011
asbag61
(g82
g63
NtRp4012
(dp4013
g66
(dp4014
g93
g94
ssg75
g4003
sg68
(lp4015
S':'
asbag61
(g82
g63
NtRp4016
(dp4017
g66
(dp4018
sg75
g4003
sg68
(lp4019
g61
(g62
g63
NtRp4020
(dp4021
g66
(dp4022
g74
I5
ssg75
g4016
sg68
(lp4023
g61
(g70
g63
NtRp4024
(dp4025
g66
(dp4026
g74
I4
ssg75
Nsg68
(lp4027
g61
(g77
g63
NtRp4028
(dp4029
g66
(dp4030
sg75
g4024
sg68
(lp4031
g61
(g82
g63
NtRp4032
(dp4033
g66
(dp4034
sg75
g4028
sg68
(lp4035
g61
(g62
g63
NtRp4036
(dp4037
g66
(dp4038
g74
I4
ssg75
g4032
sg68
(lp4039
S'{{'
p4040
asbasbasbag61
(g77
g63
NtRp4041
(dp4042
g66
(dp4043
sg75
g4024
sg68
(lp4044
g61
(g82
g63
NtRp4045
(dp4046
g66
(dp4047
sg75
g4041
sg68
(lp4048
g61
(g62
g63
NtRp4049
(dp4050
g66
(dp4051
g74
I4
ssg75
g4045
sg68
(lp4052
S'}}'
p4053
asbasbasbasbasbasbasbag61
(g77
g63
NtRp4054
(dp4055
g66
(dp4056
sg75
g3768
sg68
(lp4057
g61
(g82
g63
NtRp4058
(dp4059
g66
(dp4060
g86
g87
ssg75
g4054
sg68
(lp4061
S'files'
p4062
asbag61
(g82
g63
NtRp4063
(dp4064
g66
(dp4065
g93
g94
ssg75
g4054
sg68
(lp4066
S':'
asbag61
(g82
g63
NtRp4067
(dp4068
g66
(dp4069
sg75
g4054
sg68
(lp4070
g61
(g62
g63
NtRp4071
(dp4072
g66
(dp4073
g74
I5
ssg75
g4067
sg68
(lp4074
g61
(g70
g63
NtRp4075
(dp4076
g66
(dp4077
g74
I4
ssg75
Nsg68
(lp4078
sbasbasbasbag61
(g77
g63
NtRp4079
(dp4080
g66
(dp4081
sg75
g3768
sg68
(lp4082
g61
(g82
g63
NtRp4083
(dp4084
g66
(dp4085
g86
g87
ssg75
g4079
sg68
(lp4086
S'flash'
p4087
asbag61
(g82
g63
NtRp4088
(dp4089
g66
(dp4090
g93
g94
ssg75
g4079
sg68
(lp4091
S':'
asbag61
(g82
g63
NtRp4092
(dp4093
g66
(dp4094
sg75
g4079
sg68
(lp4095
g61
(g62
g63
NtRp4096
(dp4097
g66
(dp4098
g74
I5
ssg75
g4092
sg68
(lp4099
S''
asbasbasbag61
(g77
g63
NtRp4100
(dp4101
g66
(dp4102
sg75
g3768
sg68
(lp4103
g61
(g82
g63
NtRp4104
(dp4105
g66
(dp4106
g86
g87
ssg75
g4100
sg68
(lp4107
S'generic_patterns'
p4108
asbag61
(g82
g63
NtRp4109
(dp4110
g66
(dp4111
g93
g94
ssg75
g4100
sg68
(lp4112
S':'
asbag61
(g82
g63
NtRp4113
(dp4114
g66
(dp4115
sg75
g4100
sg68
(lp4116
g61
(g62
g63
NtRp4117
(dp4118
g66
(dp4119
g74
I5
ssg75
g4113
sg68
(lp4120
g61
(g70
g63
NtRp4121
(dp4122
g66
(dp4123
g74
I4
ssg75
Nsg68
(lp4124
g61
(g77
g63
NtRp4125
(dp4126
g66
(dp4127
sg75
g4121
sg68
(lp4128
g61
(g82
g63
NtRp4129
(dp4130
g66
(dp4131
sg75
g4125
sg68
(lp4132
g61
(g62
g63
NtRp4133
(dp4134
g66
(dp4135
g74
I4
ssg75
g4129
sg68
(lp4136
S'*'
asbasbasbasbasbasbasbag61
(g77
g63
NtRp4137
(dp4138
g66
(dp4139
sg75
g3768
sg68
(lp4140
g61
(g82
g63
NtRp4141
(dp4142
g66
(dp4143
g86
g87
ssg75
g4137
sg68
(lp4144
S'headers'
p4145
asbag61
(g82
g63
NtRp4146
(dp4147
g66
(dp4148
g93
g94
ssg75
g4137
sg68
(lp4149
S':'
asbag61
(g82
g63
NtRp4150
(dp4151
g66
(dp4152
sg75
g4137
sg68
(lp4153
g61
(g62
g63
NtRp4154
(dp4155
g66
(dp4156
g74
I5
ssg75
g4150
sg68
(lp4157
g61
(g70
g63
NtRp4158
(dp4159
g66
(dp4160
g74
I4
ssg75
Nsg68
(lp4161
g61
(g77
g63
NtRp4162
(dp4163
g66
(dp4164
sg75
g4158
sg68
(lp4165
g61
(g82
g63
NtRp4166
(dp4167
g66
(dp4168
g86
g87
ssg75
g4162
sg68
(lp4169
S'X-Powered-By'
p4170
asbag61
(g82
g63
NtRp4171
(dp4172
g66
(dp4173
g93
g94
ssg75
g4162
sg68
(lp4174
S':'
asbag61
(g82
g63
NtRp4175
(dp4176
g66
(dp4177
sg75
g4162
sg68
(lp4178
g61
(g62
g63
NtRp4179
(dp4180
g66
(dp4181
g74
I4
ssg75
g4175
sg68
(lp4182
S'web2py'
p4183
asbasbasbasbasbasbasbag61
(g77
g63
NtRp4184
(dp4185
g66
(dp4186
sg75
g3768
sg68
(lp4187
g61
(g82
g63
NtRp4188
(dp4189
g66
(dp4190
g86
g87
ssg75
g4184
sg68
(lp4191
S'menu'
p4192
asbag61
(g82
g63
NtRp4193
(dp4194
g66
(dp4195
g93
g94
ssg75
g4184
sg68
(lp4196
S':'
asbag61
(g82
g63
NtRp4197
(dp4198
g66
(dp4199
sg75
g4184
sg68
(lp4200
g61
(g62
g63
NtRp4201
(dp4202
g66
(dp4203
g74
I5
ssg75
g4197
sg68
(lp4204
g61
(g70
g63
NtRp4205
(dp4206
g66
(dp4207
g74
I4
ssg75
Nsg68
(lp4208
sbasbasbasbag61
(g77
g63
NtRp4209
(dp4210
g66
(dp4211
sg75
g3768
sg68
(lp4212
g61
(g82
g63
NtRp4213
(dp4214
g66
(dp4215
g86
g87
ssg75
g4209
sg68
(lp4216
S'meta'
p4217
asbag61
(g82
g63
NtRp4218
(dp4219
g66
(dp4220
g93
g94
ssg75
g4209
sg68
(lp4221
S':'
asbag61
(g82
g63
NtRp4222
(dp4223
g66
(dp4224
sg75
g4209
sg68
(lp4225
g61
(g62
g63
NtRp4226
(dp4227
g66
(dp4228
g74
I5
ssg75
g4222
sg68
(lp4229
g61
(g70
g63
NtRp4230
(dp4231
g66
(dp4232
g74
I4
ssg75
Nsg68
(lp4233
sbasbasbasbag61
(g77
g63
NtRp4234
(dp4235
g66
(dp4236
sg75
g3768
sg68
(lp4237
g61
(g82
g63
NtRp4238
(dp4239
g66
(dp4240
g86
g87
ssg75
g4234
sg68
(lp4241
S'models_to_run'
p4242
asbag61
(g82
g63
NtRp4243
(dp4244
g66
(dp4245
g93
g94
ssg75
g4234
sg68
(lp4246
S':'
asbag61
(g82
g63
NtRp4247
(dp4248
g66
(dp4249
sg75
g4234
sg68
(lp4250
g61
(g62
g63
NtRp4251
(dp4252
g66
(dp4253
g74
I5
ssg75
g4247
sg68
(lp4254
g61
(g70
g63
NtRp4255
(dp4256
g66
(dp4257
g74
I4
ssg75
Nsg68
(lp4258
g61
(g77
g63
NtRp4259
(dp4260
g66
(dp4261
sg75
g4255
sg68
(lp4262
g61
(g82
g63
NtRp4263
(dp4264
g66
(dp4265
sg75
g4259
sg68
(lp4266
g61
(g62
g63
NtRp4267
(dp4268
g66
(dp4269
g74
I4
ssg75
g4263
sg68
(lp4270
S'^\\w+\\.py$'
p4271
asbasbasbag61
(g77
g63
NtRp4272
(dp4273
g66
(dp4274
sg75
g4255
sg68
(lp4275
g61
(g82
g63
NtRp4276
(dp4277
g66
(dp4278
sg75
g4272
sg68
(lp4279
g61
(g62
g63
NtRp4280
(dp4281
g66
(dp4282
g74
I4
ssg75
g4276
sg68
(lp4283
S'^default/\\w+\\.py$'
p4284
asbasbasbag61
(g77
g63
NtRp4285
(dp4286
g66
(dp4287
sg75
g4255
sg68
(lp4288
g61
(g82
g63
NtRp4289
(dp4290
g66
(dp4291
sg75
g4285
sg68
(lp4292
g61
(g62
g63
NtRp4293
(dp4294
g66
(dp4295
g74
I4
ssg75
g4289
sg68
(lp4296
S'^default/index/\\w+\\.py$'
p4297
asbasbasbasbasbasbasbag61
(g77
g63
NtRp4298
(dp4299
g66
(dp4300
sg75
g3768
sg68
(lp4301
g61
(g82
g63
NtRp4302
(dp4303
g66
(dp4304
g86
g87
ssg75
g4298
sg68
(lp4305
S'postprocessing'
p4306
asbag61
(g82
g63
NtRp4307
(dp4308
g66
(dp4309
g93
g94
ssg75
g4298
sg68
(lp4310
S':'
asbag61
(g82
g63
NtRp4311
(dp4312
g66
(dp4313
sg75
g4298
sg68
(lp4314
g61
(g62
g63
NtRp4315
(dp4316
g66
(dp4317
g74
I5
ssg75
g4311
sg68
(lp4318
g61
(g70
g63
NtRp4319
(dp4320
g66
(dp4321
g74
I4
ssg75
Nsg68
(lp4322
sbasbasbasbag61
(g77
g63
NtRp4323
(dp4324
g66
(dp4325
sg75
g3768
sg68
(lp4326
g61
(g82
g63
NtRp4327
(dp4328
g66
(dp4329
g86
g87
ssg75
g4323
sg68
(lp4330
S'session_cookie_expires'
p4331
asbag61
(g82
g63
NtRp4332
(dp4333
g66
(dp4334
g93
g94
ssg75
g4323
sg68
(lp4335
S':'
asbag61
(g82
g63
NtRp4336
(dp4337
g66
(dp4338
sg75
g4323
sg68
(lp4339
g61
(g62
g63
NtRp4340
(dp4341
g66
(dp4342
g74
I5
ssg75
g4336
sg68
(lp4343
S'None'
p4344
asbasbasbag61
(g77
g63
NtRp4345
(dp4346
g66
(dp4347
sg75
g3768
sg68
(lp4348
g61
(g82
g63
NtRp4349
(dp4350
g66
(dp4351
g86
g87
ssg75
g4345
sg68
(lp4352
S'session_data_name'
p4353
asbag61
(g82
g63
NtRp4354
(dp4355
g66
(dp4356
g93
g94
ssg75
g4345
sg68
(lp4357
S':'
asbag61
(g82
g63
NtRp4358
(dp4359
g66
(dp4360
sg75
g4345
sg68
(lp4361
g61
(g62
g63
NtRp4362
(dp4363
g66
(dp4364
g74
I5
ssg75
g4358
sg68
(lp4365
S'session_data_rosan'
p4366
asbasbasbag61
(g77
g63
NtRp4367
(dp4368
g66
(dp4369
sg75
g3768
sg68
(lp4370
g61
(g82
g63
NtRp4371
(dp4372
g66
(dp4373
g86
g87
ssg75
g4367
sg68
(lp4374
S'session_filename'
p4375
asbag61
(g82
g63
NtRp4376
(dp4377
g66
(dp4378
g93
g94
ssg75
g4367
sg68
(lp4379
S':'
asbag61
(g82
g63
NtRp4380
(dp4381
g66
(dp4382
sg75
g4367
sg68
(lp4383
g61
(g62
g63
NtRp4384
(dp4385
g66
(dp4386
g74
I5
ssg75
g4380
sg68
(lp4387
S'/Users/Truki/web2py/applications/rosan/sessions/127.0.0.1-cdde7a10-1611-415a-b5d2-8b64438fb894'
p4388
asbasbasbag61
(g77
g63
NtRp4389
(dp4390
g66
(dp4391
sg75
g3768
sg68
(lp4392
g61
(g82
g63
NtRp4393
(dp4394
g66
(dp4395
g86
g87
ssg75
g4389
sg68
(lp4396
S'session_id'
p4397
asbag61
(g82
g63
NtRp4398
(dp4399
g66
(dp4400
g93
g94
ssg75
g4389
sg68
(lp4401
S':'
asbag61
(g82
g63
NtRp4402
(dp4403
g66
(dp4404
sg75
g4389
sg68
(lp4405
g61
(g62
g63
NtRp4406
(dp4407
g66
(dp4408
g74
I5
ssg75
g4402
sg68
(lp4409
g3838
asbasbasbag61
(g77
g63
NtRp4410
(dp4411
g66
(dp4412
sg75
g3768
sg68
(lp4413
g61
(g82
g63
NtRp4414
(dp4415
g66
(dp4416
g86
g87
ssg75
g4410
sg68
(lp4417
S'session_id_name'
p4418
asbag61
(g82
g63
NtRp4419
(dp4420
g66
(dp4421
g93
g94
ssg75
g4410
sg68
(lp4422
S':'
asbag61
(g82
g63
NtRp4423
(dp4424
g66
(dp4425
sg75
g4410
sg68
(lp4426
g61
(g62
g63
NtRp4427
(dp4428
g66
(dp4429
g74
I5
ssg75
g4423
sg68
(lp4430
g3825
asbasbasbag61
(g77
g63
NtRp4431
(dp4432
g66
(dp4433
sg75
g3768
sg68
(lp4434
g61
(g82
g63
NtRp4435
(dp4436
g66
(dp4437
g86
g87
ssg75
g4431
sg68
(lp4438
S'session_new'
p4439
asbag61
(g82
g63
NtRp4440
(dp4441
g66
(dp4442
g93
g94
ssg75
g4431
sg68
(lp4443
S':'
asbag61
(g82
g63
NtRp4444
(dp4445
g66
(dp4446
sg75
g4431
sg68
(lp4447
g61
(g62
g63
NtRp4448
(dp4449
g66
(dp4450
g74
I5
ssg75
g4444
sg68
(lp4451
g2144
asbasbasbag61
(g77
g63
NtRp4452
(dp4453
g66
(dp4454
sg75
g3768
sg68
(lp4455
g61
(g82
g63
NtRp4456
(dp4457
g66
(dp4458
g86
g87
ssg75
g4452
sg68
(lp4459
S'session_storage_type'
p4460
asbag61
(g82
g63
NtRp4461
(dp4462
g66
(dp4463
g93
g94
ssg75
g4452
sg68
(lp4464
S':'
asbag61
(g82
g63
NtRp4465
(dp4466
g66
(dp4467
sg75
g4452
sg68
(lp4468
g61
(g62
g63
NtRp4469
(dp4470
g66
(dp4471
g74
I5
ssg75
g4465
sg68
(lp4472
g3575
asbasbasbag61
(g77
g63
NtRp4473
(dp4474
g66
(dp4475
sg75
g3768
sg68
(lp4476
g61
(g82
g63
NtRp4477
(dp4478
g66
(dp4479
g86
g87
ssg75
g4473
sg68
(lp4480
S'status'
p4481
asbag61
(g82
g63
NtRp4482
(dp4483
g66
(dp4484
g93
g94
ssg75
g4473
sg68
(lp4485
S':'
asbag61
(g82
g63
NtRp4486
(dp4487
g66
(dp4488
sg75
g4473
sg68
(lp4489
g61
(g62
g63
NtRp4490
(dp4491
g66
(dp4492
g74
I5
ssg75
g4486
sg68
(lp4493
S'200'
p4494
asbasbasbag61
(g77
g63
NtRp4495
(dp4496
g66
(dp4497
sg75
g3768
sg68
(lp4498
g61
(g82
g63
NtRp4499
(dp4500
g66
(dp4501
g86
g87
ssg75
g4495
sg68
(lp4502
S'view'
p4503
asbag61
(g82
g63
NtRp4504
(dp4505
g66
(dp4506
g93
g94
ssg75
g4495
sg68
(lp4507
S':'
asbag61
(g82
g63
NtRp4508
(dp4509
g66
(dp4510
sg75
g4495
sg68
(lp4511
g61
(g62
g63
NtRp4512
(dp4513
g66
(dp4514
g74
I5
ssg75
g4508
sg68
(lp4515
S'default/index.html'
p4516
asbasbasbasbasbsS'locals'
p4517
(dp4518
S'a'
S"('CREATE TABLE auth_user(\\n    id INTEGER PRIMARY K...d_key CHAR(512),\\n    registration_id CHAR(512)\\n);',)"
p4519
sS'self'
p4520
S'<gluon.dal.SQLiteAdapter object>'
p4521
sS'b'
g21
sS'command'
p4522
S"'CREATE TABLE auth_user(\\n    id INTEGER PRIMARY K...d_key CHAR(512),\\n    registration_id CHAR(512)\\n);'"
p4523
sS't0'
p4524
S'1353517008.403668'
p4525
sssS'traceback'
p4526
S'Traceback (most recent call last):\n  File "/Users/Truki/web2py/gluon/restricted.py", line 212, in restricted\n    exec ccode in environment\n  File "/Users/Truki/web2py/applications/rosan/models/db.py", line 73, in <module>\n    migrate=settings.migrate)\n  File "/Users/Truki/web2py/gluon/dal.py", line 7086, in define_table\n    table = self.lazy_define_table(tablename,*fields,**args)\n  File "/Users/Truki/web2py/gluon/dal.py", line 7118, in lazy_define_table\n    polymodel=polymodel)\n  File "/Users/Truki/web2py/gluon/dal.py", line 921, in create_table\n    self.create_sequence_and_triggers(query,table)\n  File "/Users/Truki/web2py/gluon/dal.py", line 1679, in create_sequence_and_triggers\n    self.execute(query)\n  File "/Users/Truki/web2py/gluon/dal.py", line 1694, in execute\n    return self.log_execute(*a, **b)\n  File "/Users/Truki/web2py/gluon/dal.py", line 1688, in log_execute\n    ret = self.cursor.execute(*a, **b)\nOperationalError: table auth_user already exists\n'
p4527
s.