(dp1
S'output'
p2
S"<class 'sqlite3.OperationalError'> table empresa already exists"
p3
sS'layer'
p4
S'/Users/Truki/Desarrollo/web2py/applications/rosan/models/db_rosan.py'
p5
sS'code'
p6
S'# coding: utf8\n"""\njust copy paste this code into your model and replace dbRosan to something\nyou prefer or what is used in your code, another thing that should be known is that\nthis code still cannot distinguish what exactly should be in reference title - name\nwhen you use generic appadmin so please remove all fiealds you don\'t need not require \n"""\n"""\ndatabase class object creation\n"""\ndbRosan = SQLDB("sqlite://dbRosan.db")\n\n\n"""\n    Tabla empresa\n"""\ndbRosan.define_table("empresa",\n      SQLField("nombre", "string", length=100, notnull=False, default=None),\n      SQLField("descripcion", "text", notnull=True, default=None),\n      SQLField("direccion", "string", length=250, notnull=True, default=None),\n      SQLField("localidad", "string", length=100, notnull=True, default=None),\n      SQLField("cod_postal", "string", length=5, notnull=True, default=None),\n      SQLField("email", "string", length=100, notnull=True, default=None),\n      SQLField("www", "string", length=200, notnull=True, default=None)\n      ) \n\n"""\nTabla de clientes\n"""\ndbRosan.define_table("cliente",\n      SQLField("cif", "string", length=9, notnull=True, default=None),\n      SQLField("nombre", "string", length=200, notnull=True, default=None),\n      SQLField("direccion", "string", length=200, notnull=True, default=None),\n      SQLField("localidad", "string", length=100, notnull=True, default=None),\n      SQLField("cod_postal", "string", length=5, notnull=True, default=None),\n      SQLField("email", "string", length=100, notnull=True, default=None),\n      SQLField("www", "string", length=200, notnull=True, default=None)\n      ) \n\n"""\nTabla con los proveedores\n"""\ndbRosan.define_table("proveedor",\n      SQLField("nombre", "string", length=100, notnull=False, default=None),\n      SQLField("cif", "string", length=9, notnull=True, default=None),\n      SQLField("direccion", "string", length=200, notnull=True, default=None),\n      SQLField("email", "string", length=100, notnull=True, default=None))\n\n\n"""\nTabla articulos\n"""\ndbRosan.define_table("articulo",\n      SQLField("titulo", "string", length=100, notnull=False, default=None),\n      SQLField("descripcion", "text", notnull=True, default=None),\n      SQLField("precio", "double", notnull=True, default=None),\n      SQLField("id_proveedor", dbRosan.proveedor)) \n\n"""\nTabla iva\n"""\ndbRosan.define_table("iva",\n      SQLField("descripcion", "string", length=100, notnull=False, default=None),\n      SQLField("valor", "double", notnull=True, default=None),\n      SQLField("activo", "boolean", notnull=True, default=True)) \n         \n"""\nTabla retencion\n"""\ndbRosan.define_table("retencion",\n      SQLField("descripcion", "string", length=100, notnull=False, default=None),\n      SQLField("valor", "double", notnull=True, default=None),\n      SQLField("activo", "boolean", notnull=True, default=True)) \n         \n\n"""\nTabla facturas\n"""\ndbRosan.define_table("factura",\n      SQLField("numero", "integer", notnull=False, default=None),\n      SQLField("fecha", "date", notnull=True, default=None),\n      SQLField("titulo", "string", length=255, notnull=False, default=None),\n      SQLField("id_cliente", dbRosan.cliente),\n      SQLField("tipo_iva", "double", notnull=True, default=None),\n      SQLField("neto", "double", notnull=True, default=None),\n      SQLField("retencion", "double", notnull=True, default=None),\n      SQLField("descuento", "integer", notnull=True, default=None),\n      SQLField("total_iva", "double", notnull=True, default=None),\n      SQLField("total_bruto", "double", notnull=True, default=None),\n      SQLField("pagada", "boolean", notnull=True, default=False),\n      SQLField("anulada", "boolean", notnull=True, default=False)) \n\n\n\n"""\nTable con el detalle de las facturas\n"""\ndbRosan.define_table("factura_detalle",\n      SQLField("id_factura", dbRosan.factura),\n      SQLField("id_articulo", dbRosan.articulo),\n      SQLField("articulo", "text", notnull=True, default=None),\n      SQLField("precio", "double", notnull=True, default=None),\n      SQLField("cantidad", "integer", notnull=True, default=None),\n      SQLField("total_articulo", "double", notnull=True, default=None))  \n           \n\n"""\nTabla facturas temporal\n"""\ndbRosan.define_table("factura_temp",\n      SQLField("fecha", "date", notnull=True, default=None),\n      SQLField("id_cliente", dbRosan.cliente),\n      SQLField("tipo_iva", "double", notnull=True, default=None),\n      SQLField("neto", "double", notnull=True, default=None),\n      SQLField("retencion", "double", notnull=True, default=None),\n      SQLField("descuento", "integer", notnull=True, default=None),\n      SQLField("total_iva", "double", notnull=True, default=None),\n      SQLField("total_bruto", "double", notnull=True, default=None),\n      SQLField("pagada", "boolean", notnull=True, default=False)) \n\n\n\n"""\nTable con el detalle de las facturas temporales\n"""\ndbRosan.define_table("factura_detalle_temp",\n      SQLField("id_factura", dbRosan.factura_temp),\n      SQLField("id_articulo", dbRosan.articulo),\n      SQLField("articulo", "text", notnull=True, default=None),\n      SQLField("precio", "double", notnull=True, default=None),\n      SQLField("cantidad", "integer", notnull=True, default=None),\n      SQLField("total_articulo", "double", notnull=True, default=None)) \n           \n"""\nTabla con borradores de facturas por guardar\n"""\ndbRosan.define_table("factura_borrador",\n      SQLField("fecha", "date", notnull=True, default=None),\n      SQLField("id_cliente", dbRosan.cliente),\n      SQLField("tipo_iva", "double", notnull=True, default=None),\n      SQLField("neto", "double", notnull=True, default=None),\n      SQLField("retencion", "double", notnull=True, default=None),\n      SQLField("descuento", "integer", notnull=True, default=None),\n      SQLField("total_iva", "double", notnull=True, default=None),\n      SQLField("total_bruto", "double", notnull=True, default=None),\n      SQLField("pagada", "boolean", notnull=True, default=False)) \n           \n"""\nTable con el detalle de las facturas en borradores\n"""\ndbRosan.define_table("factura_detalle_borrador",\n      SQLField("id_factura", dbRosan.factura_borrador),\n      SQLField("id_articulo", dbRosan.articulo),\n      SQLField("articulo", "text", notnull=True, default=None),\n      SQLField("precio", "double", notnull=True, default=None),\n      SQLField("cantidad", "integer", notnull=True, default=None),\n      SQLField("total_articulo", "double", notnull=True, default=None)) \n      \n"""\nTabla almacen, contiene los stocks de los articulos\n"""\ndbRosan.define_table("almacen", \n      SQLField("id_articulo", dbRosan.articulo),\n      SQLField("cantidad", "integer", notnull=True, default=0),\n      SQLField("max", "integer", notnull=True, default=0),\n      SQLField("min", "integer", notnull=True, default=0))\n      \n      \n\n"""\nRelations between tables (remove fields you don\'t need from requires)\n"""\ndbRosan.factura.id_cliente.requires=IS_IN_DB(dbRosan, \'cliente.id\', \'%(nombre)s\')\n\ndbRosan.factura_detalle.id_factura.requires=IS_IN_DB(dbRosan, \'factura.id\')\n\ndbRosan.almacen.id_articulo.requires=IS_IN_DB(dbRosan, \'articulo.id\', \'%(nombre)s\')\n\ndbRosan.articulo.id_proveedor.requires=IS_IN_DB(dbRosan, \'proveedor.id\', \'%(nombre)s\')\n'
p7
sS'snapshot'
p8
(dp9
S'exception'
p10
(dp11
S'__module__'
p12
S"'sqlite3'"
p13
sS'__getslice__'
p14
S"<method-wrapper '__getslice__' of OperationalError object>"
p15
sS'__str__'
p16
S"<method-wrapper '__str__' of OperationalError object>"
p17
sS'__reduce__'
p18
S'<built-in method __reduce__ of OperationalError object>'
p19
sS'__dict__'
p20
S'{}'
p21
sS'__sizeof__'
p22
S'<built-in method __sizeof__ of OperationalError object>'
p23
sS'__weakref__'
p24
S'None'
p25
sS'__init__'
p26
S"<method-wrapper '__init__' of OperationalError object>"
p27
sS'__setattr__'
p28
S"<method-wrapper '__setattr__' of OperationalError object>"
p29
sS'__reduce_ex__'
p30
S'<built-in method __reduce_ex__ of OperationalError object>'
p31
sS'__new__'
p32
S'<built-in method __new__ of type object>'
p33
sS'__format__'
p34
S'<built-in method __format__ of OperationalError object>'
p35
sS'__class__'
p36
S"<class 'sqlite3.OperationalError'>"
p37
sS'__doc__'
p38
S'None'
p39
sS'__getitem__'
p40
S"<method-wrapper '__getitem__' of OperationalError object>"
p41
sS'__setstate__'
p42
S'<built-in method __setstate__ of OperationalError object>'
p43
sS'__getattribute__'
p44
S"<method-wrapper '__getattribute__' of OperationalError object>"
p45
sS'args'
p46
S"('table empresa already exists',)"
p47
sS'__subclasshook__'
p48
S'<built-in method __subclasshook__ of type object>'
p49
sS'__unicode__'
p50
S'<built-in method __unicode__ of OperationalError object>'
p51
sS'__delattr__'
p52
S"<method-wrapper '__delattr__' of OperationalError object>"
p53
sS'__repr__'
p54
S"<method-wrapper '__repr__' of OperationalError object>"
p55
sS'__hash__'
p56
S"<method-wrapper '__hash__' of OperationalError object>"
p57
ssS'evalue'
p58
S'table empresa already exists'
p59
sS'request'
p60
ccopy_reg
_reconstructor
p61
(cgluon.html
BEAUTIFY
p62
c__builtin__
object
p63
NtRp64
(dp65
S'attributes'
p66
(dp67
sS'components'
p68
(lp69
g61
(cgluon.html
TABLE
p70
g63
NtRp71
(dp72
g66
(dp73
S'level'
p74
I5
ssS'parent'
p75
Nsg68
(lp76
g61
(cgluon.html
TR
p77
g63
NtRp78
(dp79
g66
(dp80
sg75
g71
sg68
(lp81
g61
(cgluon.html
TD
p82
g63
NtRp83
(dp84
g66
(dp85
S'_style'
p86
S'font-weight:bold;vertical-align:top'
p87
ssg75
g78
sg68
(lp88
S'ajax'
p89
asbag61
(g82
g63
NtRp90
(dp91
g66
(dp92
S'_valign'
p93
S'top'
p94
ssg75
g78
sg68
(lp95
S':'
asbag61
(g82
g63
NtRp96
(dp97
g66
(dp98
sg75
g78
sg68
(lp99
g61
(g62
g63
NtRp100
(dp101
g66
(dp102
g74
I5
ssg75
g96
sg68
(lp103
S'False'
p104
asbasbasbag61
(g77
g63
NtRp105
(dp106
g66
(dp107
sg75
g71
sg68
(lp108
g61
(g82
g63
NtRp109
(dp110
g66
(dp111
g86
g87
ssg75
g105
sg68
(lp112
S'application'
p113
asbag61
(g82
g63
NtRp114
(dp115
g66
(dp116
g93
g94
ssg75
g105
sg68
(lp117
S':'
asbag61
(g82
g63
NtRp118
(dp119
g66
(dp120
sg75
g105
sg68
(lp121
g61
(g62
g63
NtRp122
(dp123
g66
(dp124
g74
I5
ssg75
g118
sg68
(lp125
S'rosan'
p126
asbasbasbag61
(g77
g63
NtRp127
(dp128
g66
(dp129
sg75
g71
sg68
(lp130
g61
(g82
g63
NtRp131
(dp132
g66
(dp133
g86
g87
ssg75
g127
sg68
(lp134
g46
asbag61
(g82
g63
NtRp135
(dp136
g66
(dp137
g93
g94
ssg75
g127
sg68
(lp138
S':'
asbag61
(g82
g63
NtRp139
(dp140
g66
(dp141
sg75
g127
sg68
(lp142
g61
(g62
g63
NtRp143
(dp144
g66
(dp145
g74
I5
ssg75
g139
sg68
(lp146
g61
(g70
g63
NtRp147
(dp148
g66
(dp149
g74
I4
ssg75
Nsg68
(lp150
sbasbasbasbag61
(g77
g63
NtRp151
(dp152
g66
(dp153
sg75
g71
sg68
(lp154
g61
(g82
g63
NtRp155
(dp156
g66
(dp157
g86
g87
ssg75
g151
sg68
(lp158
S'body'
p159
asbag61
(g82
g63
NtRp160
(dp161
g66
(dp162
g93
g94
ssg75
g151
sg68
(lp163
S':'
asbag61
(g82
g63
NtRp164
(dp165
g66
(dp166
sg75
g151
sg68
(lp167
g61
(g62
g63
NtRp168
(dp169
g66
(dp170
g74
I5
ssg75
g164
sg68
(lp171
S'<cStringIO.StringO object at 0x114433998>'
p172
asbasbasbag61
(g77
g63
NtRp173
(dp174
g66
(dp175
sg75
g71
sg68
(lp176
g61
(g82
g63
NtRp177
(dp178
g66
(dp179
g86
g87
ssg75
g173
sg68
(lp180
S'cid'
p181
asbag61
(g82
g63
NtRp182
(dp183
g66
(dp184
g93
g94
ssg75
g173
sg68
(lp185
S':'
asbag61
(g82
g63
NtRp186
(dp187
g66
(dp188
sg75
g173
sg68
(lp189
g61
(g62
g63
NtRp190
(dp191
g66
(dp192
g74
I5
ssg75
g186
sg68
(lp193
S'None'
p194
asbasbasbag61
(g77
g63
NtRp195
(dp196
g66
(dp197
sg75
g71
sg68
(lp198
g61
(g82
g63
NtRp199
(dp200
g66
(dp201
g86
g87
ssg75
g195
sg68
(lp202
S'client'
p203
asbag61
(g82
g63
NtRp204
(dp205
g66
(dp206
g93
g94
ssg75
g195
sg68
(lp207
S':'
asbag61
(g82
g63
NtRp208
(dp209
g66
(dp210
sg75
g195
sg68
(lp211
g61
(g62
g63
NtRp212
(dp213
g66
(dp214
g74
I5
ssg75
g208
sg68
(lp215
S'127.0.0.1'
p216
asbasbasbag61
(g77
g63
NtRp217
(dp218
g66
(dp219
sg75
g71
sg68
(lp220
g61
(g82
g63
NtRp221
(dp222
g66
(dp223
g86
g87
ssg75
g217
sg68
(lp224
S'controller'
p225
asbag61
(g82
g63
NtRp226
(dp227
g66
(dp228
g93
g94
ssg75
g217
sg68
(lp229
S':'
asbag61
(g82
g63
NtRp230
(dp231
g66
(dp232
sg75
g217
sg68
(lp233
g61
(g62
g63
NtRp234
(dp235
g66
(dp236
g74
I5
ssg75
g230
sg68
(lp237
S'appadmin'
p238
asbasbasbag61
(g77
g63
NtRp239
(dp240
g66
(dp241
sg75
g71
sg68
(lp242
g61
(g82
g63
NtRp243
(dp244
g66
(dp245
g86
g87
ssg75
g239
sg68
(lp246
S'cookies'
p247
asbag61
(g82
g63
NtRp248
(dp249
g66
(dp250
g93
g94
ssg75
g239
sg68
(lp251
S':'
asbag61
(g82
g63
NtRp252
(dp253
g66
(dp254
sg75
g239
sg68
(lp255
g61
(g62
g63
NtRp256
(dp257
g66
(dp258
g74
I5
ssg75
g252
sg68
(lp259
g61
(g70
g63
NtRp260
(dp261
g66
(dp262
g74
I4
ssg75
Nsg68
(lp263
g61
(g77
g63
NtRp264
(dp265
g66
(dp266
sg75
g260
sg68
(lp267
g61
(g82
g63
NtRp268
(dp269
g66
(dp270
g86
g87
ssg75
g264
sg68
(lp271
S'session_id_admin'
p272
asbag61
(g82
g63
NtRp273
(dp274
g66
(dp275
g93
g94
ssg75
g264
sg68
(lp276
S':'
asbag61
(g82
g63
NtRp277
(dp278
g66
(dp279
sg75
g264
sg68
(lp280
g61
(g62
g63
NtRp281
(dp282
g66
(dp283
g74
I4
ssg75
g277
sg68
(lp284
S'127.0.0.1-3e5b5d7f-80c1-43af-ac86-3a7f321b753d'
p285
ag61
(g70
g63
NtRp286
(dp287
g66
(dp288
g74
I3
ssg75
Nsg68
(lp289
g61
(g77
g63
NtRp290
(dp291
g66
(dp292
sg75
g286
sg68
(lp293
g61
(g82
g63
NtRp294
(dp295
g66
(dp296
g86
g87
ssg75
g290
sg68
(lp297
S'comment'
p298
asbag61
(g82
g63
NtRp299
(dp300
g66
(dp301
g93
g94
ssg75
g290
sg68
(lp302
S':'
asbag61
(g82
g63
NtRp303
(dp304
g66
(dp305
sg75
g290
sg68
(lp306
g61
(g62
g63
NtRp307
(dp308
g66
(dp309
g74
I3
ssg75
g303
sg68
(lp310
S''
asbasbasbag61
(g77
g63
NtRp311
(dp312
g66
(dp313
sg75
g286
sg68
(lp314
g61
(g82
g63
NtRp315
(dp316
g66
(dp317
g86
g87
ssg75
g311
sg68
(lp318
S'domain'
p319
asbag61
(g82
g63
NtRp320
(dp321
g66
(dp322
g93
g94
ssg75
g311
sg68
(lp323
S':'
asbag61
(g82
g63
NtRp324
(dp325
g66
(dp326
sg75
g311
sg68
(lp327
g61
(g62
g63
NtRp328
(dp329
g66
(dp330
g74
I3
ssg75
g324
sg68
(lp331
S''
asbasbasbag61
(g77
g63
NtRp332
(dp333
g66
(dp334
sg75
g286
sg68
(lp335
g61
(g82
g63
NtRp336
(dp337
g66
(dp338
g86
g87
ssg75
g332
sg68
(lp339
S'expires'
p340
asbag61
(g82
g63
NtRp341
(dp342
g66
(dp343
g93
g94
ssg75
g332
sg68
(lp344
S':'
asbag61
(g82
g63
NtRp345
(dp346
g66
(dp347
sg75
g332
sg68
(lp348
g61
(g62
g63
NtRp349
(dp350
g66
(dp351
g74
I3
ssg75
g345
sg68
(lp352
S''
asbasbasbag61
(g77
g63
NtRp353
(dp354
g66
(dp355
sg75
g286
sg68
(lp356
g61
(g82
g63
NtRp357
(dp358
g66
(dp359
g86
g87
ssg75
g353
sg68
(lp360
S'httponly'
p361
asbag61
(g82
g63
NtRp362
(dp363
g66
(dp364
g93
g94
ssg75
g353
sg68
(lp365
S':'
asbag61
(g82
g63
NtRp366
(dp367
g66
(dp368
sg75
g353
sg68
(lp369
g61
(g62
g63
NtRp370
(dp371
g66
(dp372
g74
I3
ssg75
g366
sg68
(lp373
S''
asbasbasbag61
(g77
g63
NtRp374
(dp375
g66
(dp376
sg75
g286
sg68
(lp377
g61
(g82
g63
NtRp378
(dp379
g66
(dp380
g86
g87
ssg75
g374
sg68
(lp381
S'max-age'
p382
asbag61
(g82
g63
NtRp383
(dp384
g66
(dp385
g93
g94
ssg75
g374
sg68
(lp386
S':'
asbag61
(g82
g63
NtRp387
(dp388
g66
(dp389
sg75
g374
sg68
(lp390
g61
(g62
g63
NtRp391
(dp392
g66
(dp393
g74
I3
ssg75
g387
sg68
(lp394
S''
asbasbasbag61
(g77
g63
NtRp395
(dp396
g66
(dp397
sg75
g286
sg68
(lp398
g61
(g82
g63
NtRp399
(dp400
g66
(dp401
g86
g87
ssg75
g395
sg68
(lp402
S'path'
p403
asbag61
(g82
g63
NtRp404
(dp405
g66
(dp406
g93
g94
ssg75
g395
sg68
(lp407
S':'
asbag61
(g82
g63
NtRp408
(dp409
g66
(dp410
sg75
g395
sg68
(lp411
g61
(g62
g63
NtRp412
(dp413
g66
(dp414
g74
I3
ssg75
g408
sg68
(lp415
S''
asbasbasbag61
(g77
g63
NtRp416
(dp417
g66
(dp418
sg75
g286
sg68
(lp419
g61
(g82
g63
NtRp420
(dp421
g66
(dp422
g86
g87
ssg75
g416
sg68
(lp423
S'secure'
p424
asbag61
(g82
g63
NtRp425
(dp426
g66
(dp427
g93
g94
ssg75
g416
sg68
(lp428
S':'
asbag61
(g82
g63
NtRp429
(dp430
g66
(dp431
sg75
g416
sg68
(lp432
g61
(g62
g63
NtRp433
(dp434
g66
(dp435
g74
I3
ssg75
g429
sg68
(lp436
S''
asbasbasbag61
(g77
g63
NtRp437
(dp438
g66
(dp439
sg75
g286
sg68
(lp440
g61
(g82
g63
NtRp441
(dp442
g66
(dp443
g86
g87
ssg75
g437
sg68
(lp444
S'version'
p445
asbag61
(g82
g63
NtRp446
(dp447
g66
(dp448
g93
g94
ssg75
g437
sg68
(lp449
S':'
asbag61
(g82
g63
NtRp450
(dp451
g66
(dp452
sg75
g437
sg68
(lp453
g61
(g62
g63
NtRp454
(dp455
g66
(dp456
g74
I3
ssg75
g450
sg68
(lp457
S''
asbasbasbasbasbasbasbag61
(g77
g63
NtRp458
(dp459
g66
(dp460
sg75
g260
sg68
(lp461
g61
(g82
g63
NtRp462
(dp463
g66
(dp464
g86
g87
ssg75
g458
sg68
(lp465
S'session_id_welcome'
p466
asbag61
(g82
g63
NtRp467
(dp468
g66
(dp469
g93
g94
ssg75
g458
sg68
(lp470
S':'
asbag61
(g82
g63
NtRp471
(dp472
g66
(dp473
sg75
g458
sg68
(lp474
g61
(g62
g63
NtRp475
(dp476
g66
(dp477
g74
I4
ssg75
g471
sg68
(lp478
S'127.0.0.1-b3707b60-dfbd-4fdf-b65f-c4ec8698ab0f'
p479
ag61
(g70
g63
NtRp480
(dp481
g66
(dp482
g74
I3
ssg75
Nsg68
(lp483
g61
(g77
g63
NtRp484
(dp485
g66
(dp486
sg75
g480
sg68
(lp487
g61
(g82
g63
NtRp488
(dp489
g66
(dp490
g86
g87
ssg75
g484
sg68
(lp491
g298
asbag61
(g82
g63
NtRp492
(dp493
g66
(dp494
g93
g94
ssg75
g484
sg68
(lp495
S':'
asbag61
(g82
g63
NtRp496
(dp497
g66
(dp498
sg75
g484
sg68
(lp499
g61
(g62
g63
NtRp500
(dp501
g66
(dp502
g74
I3
ssg75
g496
sg68
(lp503
S''
asbasbasbag61
(g77
g63
NtRp504
(dp505
g66
(dp506
sg75
g480
sg68
(lp507
g61
(g82
g63
NtRp508
(dp509
g66
(dp510
g86
g87
ssg75
g504
sg68
(lp511
g319
asbag61
(g82
g63
NtRp512
(dp513
g66
(dp514
g93
g94
ssg75
g504
sg68
(lp515
S':'
asbag61
(g82
g63
NtRp516
(dp517
g66
(dp518
sg75
g504
sg68
(lp519
g61
(g62
g63
NtRp520
(dp521
g66
(dp522
g74
I3
ssg75
g516
sg68
(lp523
S''
asbasbasbag61
(g77
g63
NtRp524
(dp525
g66
(dp526
sg75
g480
sg68
(lp527
g61
(g82
g63
NtRp528
(dp529
g66
(dp530
g86
g87
ssg75
g524
sg68
(lp531
g340
asbag61
(g82
g63
NtRp532
(dp533
g66
(dp534
g93
g94
ssg75
g524
sg68
(lp535
S':'
asbag61
(g82
g63
NtRp536
(dp537
g66
(dp538
sg75
g524
sg68
(lp539
g61
(g62
g63
NtRp540
(dp541
g66
(dp542
g74
I3
ssg75
g536
sg68
(lp543
S''
asbasbasbag61
(g77
g63
NtRp544
(dp545
g66
(dp546
sg75
g480
sg68
(lp547
g61
(g82
g63
NtRp548
(dp549
g66
(dp550
g86
g87
ssg75
g544
sg68
(lp551
g361
asbag61
(g82
g63
NtRp552
(dp553
g66
(dp554
g93
g94
ssg75
g544
sg68
(lp555
S':'
asbag61
(g82
g63
NtRp556
(dp557
g66
(dp558
sg75
g544
sg68
(lp559
g61
(g62
g63
NtRp560
(dp561
g66
(dp562
g74
I3
ssg75
g556
sg68
(lp563
S''
asbasbasbag61
(g77
g63
NtRp564
(dp565
g66
(dp566
sg75
g480
sg68
(lp567
g61
(g82
g63
NtRp568
(dp569
g66
(dp570
g86
g87
ssg75
g564
sg68
(lp571
g382
asbag61
(g82
g63
NtRp572
(dp573
g66
(dp574
g93
g94
ssg75
g564
sg68
(lp575
S':'
asbag61
(g82
g63
NtRp576
(dp577
g66
(dp578
sg75
g564
sg68
(lp579
g61
(g62
g63
NtRp580
(dp581
g66
(dp582
g74
I3
ssg75
g576
sg68
(lp583
S''
asbasbasbag61
(g77
g63
NtRp584
(dp585
g66
(dp586
sg75
g480
sg68
(lp587
g61
(g82
g63
NtRp588
(dp589
g66
(dp590
g86
g87
ssg75
g584
sg68
(lp591
g403
asbag61
(g82
g63
NtRp592
(dp593
g66
(dp594
g93
g94
ssg75
g584
sg68
(lp595
S':'
asbag61
(g82
g63
NtRp596
(dp597
g66
(dp598
sg75
g584
sg68
(lp599
g61
(g62
g63
NtRp600
(dp601
g66
(dp602
g74
I3
ssg75
g596
sg68
(lp603
S''
asbasbasbag61
(g77
g63
NtRp604
(dp605
g66
(dp606
sg75
g480
sg68
(lp607
g61
(g82
g63
NtRp608
(dp609
g66
(dp610
g86
g87
ssg75
g604
sg68
(lp611
g424
asbag61
(g82
g63
NtRp612
(dp613
g66
(dp614
g93
g94
ssg75
g604
sg68
(lp615
S':'
asbag61
(g82
g63
NtRp616
(dp617
g66
(dp618
sg75
g604
sg68
(lp619
g61
(g62
g63
NtRp620
(dp621
g66
(dp622
g74
I3
ssg75
g616
sg68
(lp623
S''
asbasbasbag61
(g77
g63
NtRp624
(dp625
g66
(dp626
sg75
g480
sg68
(lp627
g61
(g82
g63
NtRp628
(dp629
g66
(dp630
g86
g87
ssg75
g624
sg68
(lp631
g445
asbag61
(g82
g63
NtRp632
(dp633
g66
(dp634
g93
g94
ssg75
g624
sg68
(lp635
S':'
asbag61
(g82
g63
NtRp636
(dp637
g66
(dp638
sg75
g624
sg68
(lp639
g61
(g62
g63
NtRp640
(dp641
g66
(dp642
g74
I3
ssg75
g636
sg68
(lp643
S''
asbasbasbasbasbasbasbasbasbasbasbag61
(g77
g63
NtRp644
(dp645
g66
(dp646
sg75
g71
sg68
(lp647
g61
(g82
g63
NtRp648
(dp649
g66
(dp650
g86
g87
ssg75
g644
sg68
(lp651
S'env'
p652
asbag61
(g82
g63
NtRp653
(dp654
g66
(dp655
g93
g94
ssg75
g644
sg68
(lp656
S':'
asbag61
(g82
g63
NtRp657
(dp658
g66
(dp659
sg75
g644
sg68
(lp660
g61
(g62
g63
NtRp661
(dp662
g66
(dp663
g74
I5
ssg75
g657
sg68
(lp664
g61
(g70
g63
NtRp665
(dp666
g66
(dp667
g74
I4
ssg75
Nsg68
(lp668
g61
(g77
g63
NtRp669
(dp670
g66
(dp671
sg75
g665
sg68
(lp672
g61
(g82
g63
NtRp673
(dp674
g66
(dp675
g86
g87
ssg75
g669
sg68
(lp676
S'app_folders'
p677
asbag61
(g82
g63
NtRp678
(dp679
g66
(dp680
g93
g94
ssg75
g669
sg68
(lp681
S':'
asbag61
(g82
g63
NtRp682
(dp683
g66
(dp684
sg75
g669
sg68
(lp685
g61
(g62
g63
NtRp686
(dp687
g66
(dp688
g74
I4
ssg75
g682
sg68
(lp689
S"set(['/Users/Truki/Desarrollo/web2py/applications/welcome/', '/Users/Truki/Desarrollo/web2py/applications/rosan/', '/Users/Truki/Desarrollo/web2py/applications/admin/'])"
p690
asbasbasbag61
(g77
g63
NtRp691
(dp692
g66
(dp693
sg75
g665
sg68
(lp694
g61
(g82
g63
NtRp695
(dp696
g66
(dp697
g86
g87
ssg75
g691
sg68
(lp698
S'applications_parent'
p699
asbag61
(g82
g63
NtRp700
(dp701
g66
(dp702
g93
g94
ssg75
g691
sg68
(lp703
S':'
asbag61
(g82
g63
NtRp704
(dp705
g66
(dp706
sg75
g691
sg68
(lp707
g61
(g62
g63
NtRp708
(dp709
g66
(dp710
g74
I4
ssg75
g704
sg68
(lp711
S'/Users/Truki/Desarrollo/web2py'
p712
asbasbasbag61
(g77
g63
NtRp713
(dp714
g66
(dp715
sg75
g665
sg68
(lp716
g61
(g82
g63
NtRp717
(dp718
g66
(dp719
g86
g87
ssg75
g713
sg68
(lp720
S'cmd_args'
p721
asbag61
(g82
g63
NtRp722
(dp723
g66
(dp724
g93
g94
ssg75
g713
sg68
(lp725
S':'
asbag61
(g82
g63
NtRp726
(dp727
g66
(dp728
sg75
g713
sg68
(lp729
g61
(g62
g63
NtRp730
(dp731
g66
(dp732
g74
I4
ssg75
g726
sg68
(lp733
g61
(g70
g63
NtRp734
(dp735
g66
(dp736
g74
I3
ssg75
Nsg68
(lp737
sbasbasbasbag61
(g77
g63
NtRp738
(dp739
g66
(dp740
sg75
g665
sg68
(lp741
g61
(g82
g63
NtRp742
(dp743
g66
(dp744
g86
g87
ssg75
g738
sg68
(lp745
S'cmd_options'
p746
asbag61
(g82
g63
NtRp747
(dp748
g66
(dp749
g93
g94
ssg75
g738
sg68
(lp750
S':'
asbag61
(g82
g63
NtRp751
(dp752
g66
(dp753
sg75
g738
sg68
(lp754
g61
(g62
g63
NtRp755
(dp756
g66
(dp757
g74
I4
ssg75
g751
sg68
(lp758
S"<Values at 0x1101e4440: {'verbose': False, 'ip': '127.0.0.1', 'with_scheduler': False, 'ips': ['fe80::8e2d:aaff:fe4a:3d35%en1', '192.168.1.35'], 'shutdown_timeout': 5, 'taskbar': False, 'port': 8000, 'maxthreads': None, 'softcron': False, 'server_name': 'PeritoMascao.local', 'bpython': False, 'nogui': False, 'pid_filename': 'httpserver.pid', 'extcron': False, 'runcron': False, 'run_system_tests': False, 'test': None, 'folder': '/Users/Truki/Desarrollo/web2py', 'config': '', 'minthreads': None, 'winservice': '', 'shell': None, 'run': '', 'log_filename': 'httpserver.log', 'debuglevel': 30, 'args': [''], 'socket_timeout': 5, 'ssl_ca_certificate': None, 'scheduler': None, 'profiler_filename': None, 'ssl_private_key': '', 'scheduler_groups': None, 'password': '<ask>', 'request_queue_size': 5, 'ssl_certificate': '', 'cronjob': False, 'numthreads': None, 'quiet': False, 'interfaces': None, 'import_models': False, 'timeout': 10, 'plain': False, 'nobanner': False}>"
p759
asbasbasbag61
(g77
g63
NtRp760
(dp761
g66
(dp762
sg75
g665
sg68
(lp763
g61
(g82
g63
NtRp764
(dp765
g66
(dp766
g86
g87
ssg75
g760
sg68
(lp767
S'db_sessions'
p768
asbag61
(g82
g63
NtRp769
(dp770
g66
(dp771
g93
g94
ssg75
g760
sg68
(lp772
S':'
asbag61
(g82
g63
NtRp773
(dp774
g66
(dp775
sg75
g760
sg68
(lp776
g61
(g62
g63
NtRp777
(dp778
g66
(dp779
g74
I4
ssg75
g773
sg68
(lp780
S'set([])'
p781
asbasbasbag61
(g77
g63
NtRp782
(dp783
g66
(dp784
sg75
g665
sg68
(lp785
g61
(g82
g63
NtRp786
(dp787
g66
(dp788
g86
g87
ssg75
g782
sg68
(lp789
S'debugging'
p790
asbag61
(g82
g63
NtRp791
(dp792
g66
(dp793
g93
g94
ssg75
g782
sg68
(lp794
S':'
asbag61
(g82
g63
NtRp795
(dp796
g66
(dp797
sg75
g782
sg68
(lp798
g61
(g62
g63
NtRp799
(dp800
g66
(dp801
g74
I4
ssg75
g795
sg68
(lp802
g104
asbasbasbag61
(g77
g63
NtRp803
(dp804
g66
(dp805
sg75
g665
sg68
(lp806
g61
(g82
g63
NtRp807
(dp808
g66
(dp809
g86
g87
ssg75
g803
sg68
(lp810
S'gluon_parent'
p811
asbag61
(g82
g63
NtRp812
(dp813
g66
(dp814
g93
g94
ssg75
g803
sg68
(lp815
S':'
asbag61
(g82
g63
NtRp816
(dp817
g66
(dp818
sg75
g803
sg68
(lp819
g61
(g62
g63
NtRp820
(dp821
g66
(dp822
g74
I4
ssg75
g816
sg68
(lp823
S'/Users/Truki/Desarrollo/web2py'
p824
asbasbasbag61
(g77
g63
NtRp825
(dp826
g66
(dp827
sg75
g665
sg68
(lp828
g61
(g82
g63
NtRp829
(dp830
g66
(dp831
g86
g87
ssg75
g825
sg68
(lp832
S'http_accept'
p833
asbag61
(g82
g63
NtRp834
(dp835
g66
(dp836
g93
g94
ssg75
g825
sg68
(lp837
S':'
asbag61
(g82
g63
NtRp838
(dp839
g66
(dp840
sg75
g825
sg68
(lp841
g61
(g62
g63
NtRp842
(dp843
g66
(dp844
g74
I4
ssg75
g838
sg68
(lp845
S'text/html,application/xhtml+xml,application/xml;q=0.9,*/*;q=0.8'
p846
asbasbasbag61
(g77
g63
NtRp847
(dp848
g66
(dp849
sg75
g665
sg68
(lp850
g61
(g82
g63
NtRp851
(dp852
g66
(dp853
g86
g87
ssg75
g847
sg68
(lp854
S'http_accept_encoding'
p855
asbag61
(g82
g63
NtRp856
(dp857
g66
(dp858
g93
g94
ssg75
g847
sg68
(lp859
S':'
asbag61
(g82
g63
NtRp860
(dp861
g66
(dp862
sg75
g847
sg68
(lp863
g61
(g62
g63
NtRp864
(dp865
g66
(dp866
g74
I4
ssg75
g860
sg68
(lp867
S'gzip, deflate'
p868
asbasbasbag61
(g77
g63
NtRp869
(dp870
g66
(dp871
sg75
g665
sg68
(lp872
g61
(g82
g63
NtRp873
(dp874
g66
(dp875
g86
g87
ssg75
g869
sg68
(lp876
S'http_accept_language'
p877
asbag61
(g82
g63
NtRp878
(dp879
g66
(dp880
g93
g94
ssg75
g869
sg68
(lp881
S':'
asbag61
(g82
g63
NtRp882
(dp883
g66
(dp884
sg75
g869
sg68
(lp885
g61
(g62
g63
NtRp886
(dp887
g66
(dp888
g74
I4
ssg75
g882
sg68
(lp889
S'es-es'
p890
asbasbasbag61
(g77
g63
NtRp891
(dp892
g66
(dp893
sg75
g665
sg68
(lp894
g61
(g82
g63
NtRp895
(dp896
g66
(dp897
g86
g87
ssg75
g891
sg68
(lp898
S'http_connection'
p899
asbag61
(g82
g63
NtRp900
(dp901
g66
(dp902
g93
g94
ssg75
g891
sg68
(lp903
S':'
asbag61
(g82
g63
NtRp904
(dp905
g66
(dp906
sg75
g891
sg68
(lp907
g61
(g62
g63
NtRp908
(dp909
g66
(dp910
g74
I4
ssg75
g904
sg68
(lp911
S'keep-alive'
p912
asbasbasbag61
(g77
g63
NtRp913
(dp914
g66
(dp915
sg75
g665
sg68
(lp916
g61
(g82
g63
NtRp917
(dp918
g66
(dp919
g86
g87
ssg75
g913
sg68
(lp920
S'http_cookie'
p921
asbag61
(g82
g63
NtRp922
(dp923
g66
(dp924
g93
g94
ssg75
g913
sg68
(lp925
S':'
asbag61
(g82
g63
NtRp926
(dp927
g66
(dp928
sg75
g913
sg68
(lp929
g61
(g62
g63
NtRp930
(dp931
g66
(dp932
g74
I4
ssg75
g926
sg68
(lp933
S'session_id_admin=127.0.0.1-3e5b5d7f-80c1-43af-ac86-3a7f321b753d; session_id_welcome=127.0.0.1-b3707b60-dfbd-4fdf-b65f-c4ec8698ab0f'
p934
asbasbasbag61
(g77
g63
NtRp935
(dp936
g66
(dp937
sg75
g665
sg68
(lp938
g61
(g82
g63
NtRp939
(dp940
g66
(dp941
g86
g87
ssg75
g935
sg68
(lp942
S'http_host'
p943
asbag61
(g82
g63
NtRp944
(dp945
g66
(dp946
g93
g94
ssg75
g935
sg68
(lp947
S':'
asbag61
(g82
g63
NtRp948
(dp949
g66
(dp950
sg75
g935
sg68
(lp951
g61
(g62
g63
NtRp952
(dp953
g66
(dp954
g74
I4
ssg75
g948
sg68
(lp955
S'127.0.0.1:8000'
p956
asbasbasbag61
(g77
g63
NtRp957
(dp958
g66
(dp959
sg75
g665
sg68
(lp960
g61
(g82
g63
NtRp961
(dp962
g66
(dp963
g86
g87
ssg75
g957
sg68
(lp964
S'http_referer'
p965
asbag61
(g82
g63
NtRp966
(dp967
g66
(dp968
g93
g94
ssg75
g957
sg68
(lp969
S':'
asbag61
(g82
g63
NtRp970
(dp971
g66
(dp972
sg75
g957
sg68
(lp973
g61
(g62
g63
NtRp974
(dp975
g66
(dp976
g74
I4
ssg75
g970
sg68
(lp977
S'http://127.0.0.1:8000/admin/default/design/rosan'
p978
asbasbasbag61
(g77
g63
NtRp979
(dp980
g66
(dp981
sg75
g665
sg68
(lp982
g61
(g82
g63
NtRp983
(dp984
g66
(dp985
g86
g87
ssg75
g979
sg68
(lp986
S'http_user_agent'
p987
asbag61
(g82
g63
NtRp988
(dp989
g66
(dp990
g93
g94
ssg75
g979
sg68
(lp991
S':'
asbag61
(g82
g63
NtRp992
(dp993
g66
(dp994
sg75
g979
sg68
(lp995
g61
(g62
g63
NtRp996
(dp997
g66
(dp998
g74
I4
ssg75
g992
sg68
(lp999
S'Mozilla/5.0 (Macintosh; Intel Mac OS X 10_8_2) AppleWebKit/536.26.17 (KHTML, like Gecko) Version/6.0.2 Safari/536.26.17'
p1000
asbasbasbag61
(g77
g63
NtRp1001
(dp1002
g66
(dp1003
sg75
g665
sg68
(lp1004
g61
(g82
g63
NtRp1005
(dp1006
g66
(dp1007
g86
g87
ssg75
g1001
sg68
(lp1008
S'is_jython'
p1009
asbag61
(g82
g63
NtRp1010
(dp1011
g66
(dp1012
g93
g94
ssg75
g1001
sg68
(lp1013
S':'
asbag61
(g82
g63
NtRp1014
(dp1015
g66
(dp1016
sg75
g1001
sg68
(lp1017
g61
(g62
g63
NtRp1018
(dp1019
g66
(dp1020
g74
I4
ssg75
g1014
sg68
(lp1021
g104
asbasbasbag61
(g77
g63
NtRp1022
(dp1023
g66
(dp1024
sg75
g665
sg68
(lp1025
g61
(g82
g63
NtRp1026
(dp1027
g66
(dp1028
g86
g87
ssg75
g1022
sg68
(lp1029
S'is_pypy'
p1030
asbag61
(g82
g63
NtRp1031
(dp1032
g66
(dp1033
g93
g94
ssg75
g1022
sg68
(lp1034
S':'
asbag61
(g82
g63
NtRp1035
(dp1036
g66
(dp1037
sg75
g1022
sg68
(lp1038
g61
(g62
g63
NtRp1039
(dp1040
g66
(dp1041
g74
I4
ssg75
g1035
sg68
(lp1042
g104
asbasbasbag61
(g77
g63
NtRp1043
(dp1044
g66
(dp1045
sg75
g665
sg68
(lp1046
g61
(g82
g63
NtRp1047
(dp1048
g66
(dp1049
g86
g87
ssg75
g1043
sg68
(lp1050
S'local_hosts'
p1051
asbag61
(g82
g63
NtRp1052
(dp1053
g66
(dp1054
g93
g94
ssg75
g1043
sg68
(lp1055
S':'
asbag61
(g82
g63
NtRp1056
(dp1057
g66
(dp1058
sg75
g1043
sg68
(lp1059
g61
(g62
g63
NtRp1060
(dp1061
g66
(dp1062
g74
I4
ssg75
g1056
sg68
(lp1063
g61
(g70
g63
NtRp1064
(dp1065
g66
(dp1066
g74
I3
ssg75
Nsg68
(lp1067
g61
(g77
g63
NtRp1068
(dp1069
g66
(dp1070
sg75
g1064
sg68
(lp1071
g61
(g82
g63
NtRp1072
(dp1073
g66
(dp1074
sg75
g1068
sg68
(lp1075
g61
(g62
g63
NtRp1076
(dp1077
g66
(dp1078
g74
I3
ssg75
g1072
sg68
(lp1079
S'fe80::8e2d:aaff:fe4a:3d35%en1'
p1080
asbasbasbag61
(g77
g63
NtRp1081
(dp1082
g66
(dp1083
sg75
g1064
sg68
(lp1084
g61
(g82
g63
NtRp1085
(dp1086
g66
(dp1087
sg75
g1081
sg68
(lp1088
g61
(g62
g63
NtRp1089
(dp1090
g66
(dp1091
g74
I3
ssg75
g1085
sg68
(lp1092
S'192.168.1.35'
p1093
asbasbasbag61
(g77
g63
NtRp1094
(dp1095
g66
(dp1096
sg75
g1064
sg68
(lp1097
g61
(g82
g63
NtRp1098
(dp1099
g66
(dp1100
sg75
g1094
sg68
(lp1101
g61
(g62
g63
NtRp1102
(dp1103
g66
(dp1104
g74
I3
ssg75
g1098
sg68
(lp1105
S'::ffff:127.0.0.1'
p1106
asbasbasbag61
(g77
g63
NtRp1107
(dp1108
g66
(dp1109
sg75
g1064
sg68
(lp1110
g61
(g82
g63
NtRp1111
(dp1112
g66
(dp1113
sg75
g1107
sg68
(lp1114
g61
(g62
g63
NtRp1115
(dp1116
g66
(dp1117
g74
I3
ssg75
g1111
sg68
(lp1118
S'::1'
p1119
asbasbasbag61
(g77
g63
NtRp1120
(dp1121
g66
(dp1122
sg75
g1064
sg68
(lp1123
g61
(g82
g63
NtRp1124
(dp1125
g66
(dp1126
sg75
g1120
sg68
(lp1127
g61
(g62
g63
NtRp1128
(dp1129
g66
(dp1130
g74
I3
ssg75
g1124
sg68
(lp1131
S'PeritoMascao.local'
p1132
asbasbasbag61
(g77
g63
NtRp1133
(dp1134
g66
(dp1135
sg75
g1064
sg68
(lp1136
g61
(g82
g63
NtRp1137
(dp1138
g66
(dp1139
sg75
g1133
sg68
(lp1140
g61
(g62
g63
NtRp1141
(dp1142
g66
(dp1143
g74
I3
ssg75
g1137
sg68
(lp1144
S'127.0.0.1'
p1145
asbasbasbasbasbasbasbag61
(g77
g63
NtRp1146
(dp1147
g66
(dp1148
sg75
g665
sg68
(lp1149
g61
(g82
g63
NtRp1150
(dp1151
g66
(dp1152
g86
g87
ssg75
g1146
sg68
(lp1153
S'path_info'
p1154
asbag61
(g82
g63
NtRp1155
(dp1156
g66
(dp1157
g93
g94
ssg75
g1146
sg68
(lp1158
S':'
asbag61
(g82
g63
NtRp1159
(dp1160
g66
(dp1161
sg75
g1146
sg68
(lp1162
g61
(g62
g63
NtRp1163
(dp1164
g66
(dp1165
g74
I4
ssg75
g1159
sg68
(lp1166
S'/rosan/appadmin/index'
p1167
asbasbasbag61
(g77
g63
NtRp1168
(dp1169
g66
(dp1170
sg75
g665
sg68
(lp1171
g61
(g82
g63
NtRp1172
(dp1173
g66
(dp1174
g86
g87
ssg75
g1168
sg68
(lp1175
S'query_string'
p1176
asbag61
(g82
g63
NtRp1177
(dp1178
g66
(dp1179
g93
g94
ssg75
g1168
sg68
(lp1180
S':'
asbag61
(g82
g63
NtRp1181
(dp1182
g66
(dp1183
sg75
g1168
sg68
(lp1184
g61
(g62
g63
NtRp1185
(dp1186
g66
(dp1187
g74
I4
ssg75
g1181
sg68
(lp1188
S''
asbasbasbag61
(g77
g63
NtRp1189
(dp1190
g66
(dp1191
sg75
g665
sg68
(lp1192
g61
(g82
g63
NtRp1193
(dp1194
g66
(dp1195
g86
g87
ssg75
g1189
sg68
(lp1196
S'remote_addr'
p1197
asbag61
(g82
g63
NtRp1198
(dp1199
g66
(dp1200
g93
g94
ssg75
g1189
sg68
(lp1201
S':'
asbag61
(g82
g63
NtRp1202
(dp1203
g66
(dp1204
sg75
g1189
sg68
(lp1205
g61
(g62
g63
NtRp1206
(dp1207
g66
(dp1208
g74
I4
ssg75
g1202
sg68
(lp1209
g216
asbasbasbag61
(g77
g63
NtRp1210
(dp1211
g66
(dp1212
sg75
g665
sg68
(lp1213
g61
(g82
g63
NtRp1214
(dp1215
g66
(dp1216
g86
g87
ssg75
g1210
sg68
(lp1217
S'remote_port'
p1218
asbag61
(g82
g63
NtRp1219
(dp1220
g66
(dp1221
g93
g94
ssg75
g1210
sg68
(lp1222
S':'
asbag61
(g82
g63
NtRp1223
(dp1224
g66
(dp1225
sg75
g1210
sg68
(lp1226
g61
(g62
g63
NtRp1227
(dp1228
g66
(dp1229
g74
I4
ssg75
g1223
sg68
(lp1230
S'49362'
p1231
asbasbasbag61
(g77
g63
NtRp1232
(dp1233
g66
(dp1234
sg75
g665
sg68
(lp1235
g61
(g82
g63
NtRp1236
(dp1237
g66
(dp1238
g86
g87
ssg75
g1232
sg68
(lp1239
S'request_method'
p1240
asbag61
(g82
g63
NtRp1241
(dp1242
g66
(dp1243
g93
g94
ssg75
g1232
sg68
(lp1244
S':'
asbag61
(g82
g63
NtRp1245
(dp1246
g66
(dp1247
sg75
g1232
sg68
(lp1248
g61
(g62
g63
NtRp1249
(dp1250
g66
(dp1251
g74
I4
ssg75
g1245
sg68
(lp1252
S'GET'
p1253
asbasbasbag61
(g77
g63
NtRp1254
(dp1255
g66
(dp1256
sg75
g665
sg68
(lp1257
g61
(g82
g63
NtRp1258
(dp1259
g66
(dp1260
g86
g87
ssg75
g1254
sg68
(lp1261
S'request_uri'
p1262
asbag61
(g82
g63
NtRp1263
(dp1264
g66
(dp1265
g93
g94
ssg75
g1254
sg68
(lp1266
S':'
asbag61
(g82
g63
NtRp1267
(dp1268
g66
(dp1269
sg75
g1254
sg68
(lp1270
g61
(g62
g63
NtRp1271
(dp1272
g66
(dp1273
g74
I4
ssg75
g1267
sg68
(lp1274
g1167
asbasbasbag61
(g77
g63
NtRp1275
(dp1276
g66
(dp1277
sg75
g665
sg68
(lp1278
g61
(g82
g63
NtRp1279
(dp1280
g66
(dp1281
g86
g87
ssg75
g1275
sg68
(lp1282
S'script_name'
p1283
asbag61
(g82
g63
NtRp1284
(dp1285
g66
(dp1286
g93
g94
ssg75
g1275
sg68
(lp1287
S':'
asbag61
(g82
g63
NtRp1288
(dp1289
g66
(dp1290
sg75
g1275
sg68
(lp1291
g61
(g62
g63
NtRp1292
(dp1293
g66
(dp1294
g74
I4
ssg75
g1288
sg68
(lp1295
S''
asbasbasbag61
(g77
g63
NtRp1296
(dp1297
g66
(dp1298
sg75
g665
sg68
(lp1299
g61
(g82
g63
NtRp1300
(dp1301
g66
(dp1302
g86
g87
ssg75
g1296
sg68
(lp1303
S'server_name'
p1304
asbag61
(g82
g63
NtRp1305
(dp1306
g66
(dp1307
g93
g94
ssg75
g1296
sg68
(lp1308
S':'
asbag61
(g82
g63
NtRp1309
(dp1310
g66
(dp1311
sg75
g1296
sg68
(lp1312
g61
(g62
g63
NtRp1313
(dp1314
g66
(dp1315
g74
I4
ssg75
g1309
sg68
(lp1316
S'PeritoMascao.local'
p1317
asbasbasbag61
(g77
g63
NtRp1318
(dp1319
g66
(dp1320
sg75
g665
sg68
(lp1321
g61
(g82
g63
NtRp1322
(dp1323
g66
(dp1324
g86
g87
ssg75
g1318
sg68
(lp1325
S'server_port'
p1326
asbag61
(g82
g63
NtRp1327
(dp1328
g66
(dp1329
g93
g94
ssg75
g1318
sg68
(lp1330
S':'
asbag61
(g82
g63
NtRp1331
(dp1332
g66
(dp1333
sg75
g1318
sg68
(lp1334
g61
(g62
g63
NtRp1335
(dp1336
g66
(dp1337
g74
I4
ssg75
g1331
sg68
(lp1338
S'8000'
p1339
asbasbasbag61
(g77
g63
NtRp1340
(dp1341
g66
(dp1342
sg75
g665
sg68
(lp1343
g61
(g82
g63
NtRp1344
(dp1345
g66
(dp1346
g86
g87
ssg75
g1340
sg68
(lp1347
S'server_protocol'
p1348
asbag61
(g82
g63
NtRp1349
(dp1350
g66
(dp1351
g93
g94
ssg75
g1340
sg68
(lp1352
S':'
asbag61
(g82
g63
NtRp1353
(dp1354
g66
(dp1355
sg75
g1340
sg68
(lp1356
g61
(g62
g63
NtRp1357
(dp1358
g66
(dp1359
g74
I4
ssg75
g1353
sg68
(lp1360
S'HTTP/1.1'
p1361
asbasbasbag61
(g77
g63
NtRp1362
(dp1363
g66
(dp1364
sg75
g665
sg68
(lp1365
g61
(g82
g63
NtRp1366
(dp1367
g66
(dp1368
g86
g87
ssg75
g1362
sg68
(lp1369
S'server_software'
p1370
asbag61
(g82
g63
NtRp1371
(dp1372
g66
(dp1373
g93
g94
ssg75
g1362
sg68
(lp1374
S':'
asbag61
(g82
g63
NtRp1375
(dp1376
g66
(dp1377
sg75
g1362
sg68
(lp1378
g61
(g62
g63
NtRp1379
(dp1380
g66
(dp1381
g74
I4
ssg75
g1375
sg68
(lp1382
S'Rocket 1.2.6'
p1383
asbasbasbag61
(g77
g63
NtRp1384
(dp1385
g66
(dp1386
sg75
g665
sg68
(lp1387
g61
(g82
g63
NtRp1388
(dp1389
g66
(dp1390
g86
g87
ssg75
g1384
sg68
(lp1391
S'web2py_path'
p1392
asbag61
(g82
g63
NtRp1393
(dp1394
g66
(dp1395
g93
g94
ssg75
g1384
sg68
(lp1396
S':'
asbag61
(g82
g63
NtRp1397
(dp1398
g66
(dp1399
sg75
g1384
sg68
(lp1400
g61
(g62
g63
NtRp1401
(dp1402
g66
(dp1403
g74
I4
ssg75
g1397
sg68
(lp1404
g712
asbasbasbag61
(g77
g63
NtRp1405
(dp1406
g66
(dp1407
sg75
g665
sg68
(lp1408
g61
(g82
g63
NtRp1409
(dp1410
g66
(dp1411
g86
g87
ssg75
g1405
sg68
(lp1412
S'web2py_version'
p1413
asbag61
(g82
g63
NtRp1414
(dp1415
g66
(dp1416
g93
g94
ssg75
g1405
sg68
(lp1417
S':'
asbag61
(g82
g63
NtRp1418
(dp1419
g66
(dp1420
sg75
g1405
sg68
(lp1421
g61
(g62
g63
NtRp1422
(dp1423
g66
(dp1424
g74
I4
ssg75
g1418
sg68
(lp1425
g61
(g70
g63
NtRp1426
(dp1427
g66
(dp1428
g74
I3
ssg75
Nsg68
(lp1429
g61
(g77
g63
NtRp1430
(dp1431
g66
(dp1432
sg75
g1426
sg68
(lp1433
g61
(g82
g63
NtRp1434
(dp1435
g66
(dp1436
sg75
g1430
sg68
(lp1437
g61
(g62
g63
NtRp1438
(dp1439
g66
(dp1440
g74
I3
ssg75
g1434
sg68
(lp1441
S'2'
asbasbasbag61
(g77
g63
NtRp1442
(dp1443
g66
(dp1444
sg75
g1426
sg68
(lp1445
g61
(g82
g63
NtRp1446
(dp1447
g66
(dp1448
sg75
g1442
sg68
(lp1449
g61
(g62
g63
NtRp1450
(dp1451
g66
(dp1452
g74
I3
ssg75
g1446
sg68
(lp1453
S'3'
asbasbasbag61
(g77
g63
NtRp1454
(dp1455
g66
(dp1456
sg75
g1426
sg68
(lp1457
g61
(g82
g63
NtRp1458
(dp1459
g66
(dp1460
sg75
g1454
sg68
(lp1461
g61
(g62
g63
NtRp1462
(dp1463
g66
(dp1464
g74
I3
ssg75
g1458
sg68
(lp1465
S'2'
asbasbasbag61
(g77
g63
NtRp1466
(dp1467
g66
(dp1468
sg75
g1426
sg68
(lp1469
g61
(g82
g63
NtRp1470
(dp1471
g66
(dp1472
sg75
g1466
sg68
(lp1473
g61
(g62
g63
NtRp1474
(dp1475
g66
(dp1476
g74
I3
ssg75
g1470
sg68
(lp1477
S'datetime.datetime(2012, 12, 17, 15, 3, 30)'
p1478
asbasbasbag61
(g77
g63
NtRp1479
(dp1480
g66
(dp1481
sg75
g1426
sg68
(lp1482
g61
(g82
g63
NtRp1483
(dp1484
g66
(dp1485
sg75
g1479
sg68
(lp1486
g61
(g62
g63
NtRp1487
(dp1488
g66
(dp1489
g74
I3
ssg75
g1483
sg68
(lp1490
S'stable'
p1491
asbasbasbasbasbasbasbag61
(g77
g63
NtRp1492
(dp1493
g66
(dp1494
sg75
g665
sg68
(lp1495
g61
(g82
g63
NtRp1496
(dp1497
g66
(dp1498
g86
g87
ssg75
g1492
sg68
(lp1499
S'wsgi_errors'
p1500
asbag61
(g82
g63
NtRp1501
(dp1502
g66
(dp1503
g93
g94
ssg75
g1492
sg68
(lp1504
S':'
asbag61
(g82
g63
NtRp1505
(dp1506
g66
(dp1507
sg75
g1492
sg68
(lp1508
g61
(g62
g63
NtRp1509
(dp1510
g66
(dp1511
g74
I4
ssg75
g1505
sg68
(lp1512
S"<open file '<stderr>', mode 'w' at 0x10f416270>"
p1513
asbasbasbag61
(g77
g63
NtRp1514
(dp1515
g66
(dp1516
sg75
g665
sg68
(lp1517
g61
(g82
g63
NtRp1518
(dp1519
g66
(dp1520
g86
g87
ssg75
g1514
sg68
(lp1521
S'wsgi_file_wrapper'
p1522
asbag61
(g82
g63
NtRp1523
(dp1524
g66
(dp1525
g93
g94
ssg75
g1514
sg68
(lp1526
S':'
asbag61
(g82
g63
NtRp1527
(dp1528
g66
(dp1529
sg75
g1514
sg68
(lp1530
g61
(g62
g63
NtRp1531
(dp1532
g66
(dp1533
g74
I4
ssg75
g1527
sg68
(lp1534
S'<class wsgiref.util.FileWrapper at 0x110183ae0>'
p1535
asbasbasbag61
(g77
g63
NtRp1536
(dp1537
g66
(dp1538
sg75
g665
sg68
(lp1539
g61
(g82
g63
NtRp1540
(dp1541
g66
(dp1542
g86
g87
ssg75
g1536
sg68
(lp1543
S'wsgi_input'
p1544
asbag61
(g82
g63
NtRp1545
(dp1546
g66
(dp1547
g93
g94
ssg75
g1536
sg68
(lp1548
S':'
asbag61
(g82
g63
NtRp1549
(dp1550
g66
(dp1551
sg75
g1536
sg68
(lp1552
g61
(g62
g63
NtRp1553
(dp1554
g66
(dp1555
g74
I4
ssg75
g1549
sg68
(lp1556
S'<socket._fileobject object at 0x1107d8ad0>'
p1557
asbasbasbag61
(g77
g63
NtRp1558
(dp1559
g66
(dp1560
sg75
g665
sg68
(lp1561
g61
(g82
g63
NtRp1562
(dp1563
g66
(dp1564
g86
g87
ssg75
g1558
sg68
(lp1565
S'wsgi_multiprocess'
p1566
asbag61
(g82
g63
NtRp1567
(dp1568
g66
(dp1569
g93
g94
ssg75
g1558
sg68
(lp1570
S':'
asbag61
(g82
g63
NtRp1571
(dp1572
g66
(dp1573
sg75
g1558
sg68
(lp1574
g61
(g62
g63
NtRp1575
(dp1576
g66
(dp1577
g74
I4
ssg75
g1571
sg68
(lp1578
g104
asbasbasbag61
(g77
g63
NtRp1579
(dp1580
g66
(dp1581
sg75
g665
sg68
(lp1582
g61
(g82
g63
NtRp1583
(dp1584
g66
(dp1585
g86
g87
ssg75
g1579
sg68
(lp1586
S'wsgi_multithread'
p1587
asbag61
(g82
g63
NtRp1588
(dp1589
g66
(dp1590
g93
g94
ssg75
g1579
sg68
(lp1591
S':'
asbag61
(g82
g63
NtRp1592
(dp1593
g66
(dp1594
sg75
g1579
sg68
(lp1595
g61
(g62
g63
NtRp1596
(dp1597
g66
(dp1598
g74
I4
ssg75
g1592
sg68
(lp1599
S'True'
p1600
asbasbasbag61
(g77
g63
NtRp1601
(dp1602
g66
(dp1603
sg75
g665
sg68
(lp1604
g61
(g82
g63
NtRp1605
(dp1606
g66
(dp1607
g86
g87
ssg75
g1601
sg68
(lp1608
S'wsgi_run_once'
p1609
asbag61
(g82
g63
NtRp1610
(dp1611
g66
(dp1612
g93
g94
ssg75
g1601
sg68
(lp1613
S':'
asbag61
(g82
g63
NtRp1614
(dp1615
g66
(dp1616
sg75
g1601
sg68
(lp1617
g61
(g62
g63
NtRp1618
(dp1619
g66
(dp1620
g74
I4
ssg75
g1614
sg68
(lp1621
g104
asbasbasbag61
(g77
g63
NtRp1622
(dp1623
g66
(dp1624
sg75
g665
sg68
(lp1625
g61
(g82
g63
NtRp1626
(dp1627
g66
(dp1628
g86
g87
ssg75
g1622
sg68
(lp1629
S'wsgi_url_scheme'
p1630
asbag61
(g82
g63
NtRp1631
(dp1632
g66
(dp1633
g93
g94
ssg75
g1622
sg68
(lp1634
S':'
asbag61
(g82
g63
NtRp1635
(dp1636
g66
(dp1637
sg75
g1622
sg68
(lp1638
g61
(g62
g63
NtRp1639
(dp1640
g66
(dp1641
g74
I4
ssg75
g1635
sg68
(lp1642
S'http'
p1643
asbasbasbag61
(g77
g63
NtRp1644
(dp1645
g66
(dp1646
sg75
g665
sg68
(lp1647
g61
(g82
g63
NtRp1648
(dp1649
g66
(dp1650
g86
g87
ssg75
g1644
sg68
(lp1651
S'wsgi_version'
p1652
asbag61
(g82
g63
NtRp1653
(dp1654
g66
(dp1655
g93
g94
ssg75
g1644
sg68
(lp1656
S':'
asbag61
(g82
g63
NtRp1657
(dp1658
g66
(dp1659
sg75
g1644
sg68
(lp1660
g61
(g62
g63
NtRp1661
(dp1662
g66
(dp1663
g74
I4
ssg75
g1657
sg68
(lp1664
g61
(g70
g63
NtRp1665
(dp1666
g66
(dp1667
g74
I3
ssg75
Nsg68
(lp1668
g61
(g77
g63
NtRp1669
(dp1670
g66
(dp1671
sg75
g1665
sg68
(lp1672
g61
(g82
g63
NtRp1673
(dp1674
g66
(dp1675
sg75
g1669
sg68
(lp1676
g61
(g62
g63
NtRp1677
(dp1678
g66
(dp1679
g74
I3
ssg75
g1673
sg68
(lp1680
S'1'
asbasbasbag61
(g77
g63
NtRp1681
(dp1682
g66
(dp1683
sg75
g1665
sg68
(lp1684
g61
(g82
g63
NtRp1685
(dp1686
g66
(dp1687
sg75
g1681
sg68
(lp1688
g61
(g62
g63
NtRp1689
(dp1690
g66
(dp1691
g74
I3
ssg75
g1685
sg68
(lp1692
S'0'
asbasbasbasbasbasbasbasbasbasbasbag61
(g77
g63
NtRp1693
(dp1694
g66
(dp1695
sg75
g71
sg68
(lp1696
g61
(g82
g63
NtRp1697
(dp1698
g66
(dp1699
g86
g87
ssg75
g1693
sg68
(lp1700
S'extension'
p1701
asbag61
(g82
g63
NtRp1702
(dp1703
g66
(dp1704
g93
g94
ssg75
g1693
sg68
(lp1705
S':'
asbag61
(g82
g63
NtRp1706
(dp1707
g66
(dp1708
sg75
g1693
sg68
(lp1709
g61
(g62
g63
NtRp1710
(dp1711
g66
(dp1712
g74
I5
ssg75
g1706
sg68
(lp1713
S'html'
p1714
asbasbasbag61
(g77
g63
NtRp1715
(dp1716
g66
(dp1717
sg75
g71
sg68
(lp1718
g61
(g82
g63
NtRp1719
(dp1720
g66
(dp1721
g86
g87
ssg75
g1715
sg68
(lp1722
S'folder'
p1723
asbag61
(g82
g63
NtRp1724
(dp1725
g66
(dp1726
g93
g94
ssg75
g1715
sg68
(lp1727
S':'
asbag61
(g82
g63
NtRp1728
(dp1729
g66
(dp1730
sg75
g1715
sg68
(lp1731
g61
(g62
g63
NtRp1732
(dp1733
g66
(dp1734
g74
I5
ssg75
g1728
sg68
(lp1735
S'/Users/Truki/Desarrollo/web2py/applications/rosan/'
p1736
asbasbasbag61
(g77
g63
NtRp1737
(dp1738
g66
(dp1739
sg75
g71
sg68
(lp1740
g61
(g82
g63
NtRp1741
(dp1742
g66
(dp1743
g86
g87
ssg75
g1737
sg68
(lp1744
S'function'
p1745
asbag61
(g82
g63
NtRp1746
(dp1747
g66
(dp1748
g93
g94
ssg75
g1737
sg68
(lp1749
S':'
asbag61
(g82
g63
NtRp1750
(dp1751
g66
(dp1752
sg75
g1737
sg68
(lp1753
g61
(g62
g63
NtRp1754
(dp1755
g66
(dp1756
g74
I5
ssg75
g1750
sg68
(lp1757
S'index'
p1758
asbasbasbag61
(g77
g63
NtRp1759
(dp1760
g66
(dp1761
sg75
g71
sg68
(lp1762
g61
(g82
g63
NtRp1763
(dp1764
g66
(dp1765
g86
g87
ssg75
g1759
sg68
(lp1766
S'get_vars'
p1767
asbag61
(g82
g63
NtRp1768
(dp1769
g66
(dp1770
g93
g94
ssg75
g1759
sg68
(lp1771
S':'
asbag61
(g82
g63
NtRp1772
(dp1773
g66
(dp1774
sg75
g1759
sg68
(lp1775
g61
(g62
g63
NtRp1776
(dp1777
g66
(dp1778
g74
I5
ssg75
g1772
sg68
(lp1779
g61
(g70
g63
NtRp1780
(dp1781
g66
(dp1782
g74
I4
ssg75
Nsg68
(lp1783
sbasbasbasbag61
(g77
g63
NtRp1784
(dp1785
g66
(dp1786
sg75
g71
sg68
(lp1787
g61
(g82
g63
NtRp1788
(dp1789
g66
(dp1790
g86
g87
ssg75
g1784
sg68
(lp1791
S'global_settings'
p1792
asbag61
(g82
g63
NtRp1793
(dp1794
g66
(dp1795
g93
g94
ssg75
g1784
sg68
(lp1796
S':'
asbag61
(g82
g63
NtRp1797
(dp1798
g66
(dp1799
sg75
g1784
sg68
(lp1800
g61
(g62
g63
NtRp1801
(dp1802
g66
(dp1803
g74
I5
ssg75
g1797
sg68
(lp1804
g61
(g70
g63
NtRp1805
(dp1806
g66
(dp1807
g74
I4
ssg75
Nsg68
(lp1808
g61
(g77
g63
NtRp1809
(dp1810
g66
(dp1811
sg75
g1805
sg68
(lp1812
g61
(g82
g63
NtRp1813
(dp1814
g66
(dp1815
g86
g87
ssg75
g1809
sg68
(lp1816
g677
asbag61
(g82
g63
NtRp1817
(dp1818
g66
(dp1819
g93
g94
ssg75
g1809
sg68
(lp1820
S':'
asbag61
(g82
g63
NtRp1821
(dp1822
g66
(dp1823
sg75
g1809
sg68
(lp1824
g61
(g62
g63
NtRp1825
(dp1826
g66
(dp1827
g74
I4
ssg75
g1821
sg68
(lp1828
S"set(['/Users/Truki/Desarrollo/web2py/applications/welcome/', '/Users/Truki/Desarrollo/web2py/applications/rosan/', '/Users/Truki/Desarrollo/web2py/applications/admin/'])"
p1829
asbasbasbag61
(g77
g63
NtRp1830
(dp1831
g66
(dp1832
sg75
g1805
sg68
(lp1833
g61
(g82
g63
NtRp1834
(dp1835
g66
(dp1836
g86
g87
ssg75
g1830
sg68
(lp1837
g699
asbag61
(g82
g63
NtRp1838
(dp1839
g66
(dp1840
g93
g94
ssg75
g1830
sg68
(lp1841
S':'
asbag61
(g82
g63
NtRp1842
(dp1843
g66
(dp1844
sg75
g1830
sg68
(lp1845
g61
(g62
g63
NtRp1846
(dp1847
g66
(dp1848
g74
I4
ssg75
g1842
sg68
(lp1849
g712
asbasbasbag61
(g77
g63
NtRp1850
(dp1851
g66
(dp1852
sg75
g1805
sg68
(lp1853
g61
(g82
g63
NtRp1854
(dp1855
g66
(dp1856
g86
g87
ssg75
g1850
sg68
(lp1857
g721
asbag61
(g82
g63
NtRp1858
(dp1859
g66
(dp1860
g93
g94
ssg75
g1850
sg68
(lp1861
S':'
asbag61
(g82
g63
NtRp1862
(dp1863
g66
(dp1864
sg75
g1850
sg68
(lp1865
g61
(g62
g63
NtRp1866
(dp1867
g66
(dp1868
g74
I4
ssg75
g1862
sg68
(lp1869
g61
(g70
g63
NtRp1870
(dp1871
g66
(dp1872
g74
I3
ssg75
Nsg68
(lp1873
sbasbasbasbag61
(g77
g63
NtRp1874
(dp1875
g66
(dp1876
sg75
g1805
sg68
(lp1877
g61
(g82
g63
NtRp1878
(dp1879
g66
(dp1880
g86
g87
ssg75
g1874
sg68
(lp1881
g746
asbag61
(g82
g63
NtRp1882
(dp1883
g66
(dp1884
g93
g94
ssg75
g1874
sg68
(lp1885
S':'
asbag61
(g82
g63
NtRp1886
(dp1887
g66
(dp1888
sg75
g1874
sg68
(lp1889
g61
(g62
g63
NtRp1890
(dp1891
g66
(dp1892
g74
I4
ssg75
g1886
sg68
(lp1893
S"<Values at 0x1101e4440: {'verbose': False, 'ip': '127.0.0.1', 'with_scheduler': False, 'ips': ['fe80::8e2d:aaff:fe4a:3d35%en1', '192.168.1.35'], 'shutdown_timeout': 5, 'taskbar': False, 'port': 8000, 'maxthreads': None, 'softcron': False, 'server_name': 'PeritoMascao.local', 'bpython': False, 'nogui': False, 'pid_filename': 'httpserver.pid', 'extcron': False, 'runcron': False, 'run_system_tests': False, 'test': None, 'folder': '/Users/Truki/Desarrollo/web2py', 'config': '', 'minthreads': None, 'winservice': '', 'shell': None, 'run': '', 'log_filename': 'httpserver.log', 'debuglevel': 30, 'args': [''], 'socket_timeout': 5, 'ssl_ca_certificate': None, 'scheduler': None, 'profiler_filename': None, 'ssl_private_key': '', 'scheduler_groups': None, 'password': '<ask>', 'request_queue_size': 5, 'ssl_certificate': '', 'cronjob': False, 'numthreads': None, 'quiet': False, 'interfaces': None, 'import_models': False, 'timeout': 10, 'plain': False, 'nobanner': False}>"
p1894
asbasbasbag61
(g77
g63
NtRp1895
(dp1896
g66
(dp1897
sg75
g1805
sg68
(lp1898
g61
(g82
g63
NtRp1899
(dp1900
g66
(dp1901
g86
g87
ssg75
g1895
sg68
(lp1902
g768
asbag61
(g82
g63
NtRp1903
(dp1904
g66
(dp1905
g93
g94
ssg75
g1895
sg68
(lp1906
S':'
asbag61
(g82
g63
NtRp1907
(dp1908
g66
(dp1909
sg75
g1895
sg68
(lp1910
g61
(g62
g63
NtRp1911
(dp1912
g66
(dp1913
g74
I4
ssg75
g1907
sg68
(lp1914
S'set([])'
p1915
asbasbasbag61
(g77
g63
NtRp1916
(dp1917
g66
(dp1918
sg75
g1805
sg68
(lp1919
g61
(g82
g63
NtRp1920
(dp1921
g66
(dp1922
g86
g87
ssg75
g1916
sg68
(lp1923
g790
asbag61
(g82
g63
NtRp1924
(dp1925
g66
(dp1926
g93
g94
ssg75
g1916
sg68
(lp1927
S':'
asbag61
(g82
g63
NtRp1928
(dp1929
g66
(dp1930
sg75
g1916
sg68
(lp1931
g61
(g62
g63
NtRp1932
(dp1933
g66
(dp1934
g74
I4
ssg75
g1928
sg68
(lp1935
g104
asbasbasbag61
(g77
g63
NtRp1936
(dp1937
g66
(dp1938
sg75
g1805
sg68
(lp1939
g61
(g82
g63
NtRp1940
(dp1941
g66
(dp1942
g86
g87
ssg75
g1936
sg68
(lp1943
g811
asbag61
(g82
g63
NtRp1944
(dp1945
g66
(dp1946
g93
g94
ssg75
g1936
sg68
(lp1947
S':'
asbag61
(g82
g63
NtRp1948
(dp1949
g66
(dp1950
sg75
g1936
sg68
(lp1951
g61
(g62
g63
NtRp1952
(dp1953
g66
(dp1954
g74
I4
ssg75
g1948
sg68
(lp1955
g824
asbasbasbag61
(g77
g63
NtRp1956
(dp1957
g66
(dp1958
sg75
g1805
sg68
(lp1959
g61
(g82
g63
NtRp1960
(dp1961
g66
(dp1962
g86
g87
ssg75
g1956
sg68
(lp1963
g1009
asbag61
(g82
g63
NtRp1964
(dp1965
g66
(dp1966
g93
g94
ssg75
g1956
sg68
(lp1967
S':'
asbag61
(g82
g63
NtRp1968
(dp1969
g66
(dp1970
sg75
g1956
sg68
(lp1971
g61
(g62
g63
NtRp1972
(dp1973
g66
(dp1974
g74
I4
ssg75
g1968
sg68
(lp1975
g104
asbasbasbag61
(g77
g63
NtRp1976
(dp1977
g66
(dp1978
sg75
g1805
sg68
(lp1979
g61
(g82
g63
NtRp1980
(dp1981
g66
(dp1982
g86
g87
ssg75
g1976
sg68
(lp1983
g1030
asbag61
(g82
g63
NtRp1984
(dp1985
g66
(dp1986
g93
g94
ssg75
g1976
sg68
(lp1987
S':'
asbag61
(g82
g63
NtRp1988
(dp1989
g66
(dp1990
sg75
g1976
sg68
(lp1991
g61
(g62
g63
NtRp1992
(dp1993
g66
(dp1994
g74
I4
ssg75
g1988
sg68
(lp1995
g104
asbasbasbag61
(g77
g63
NtRp1996
(dp1997
g66
(dp1998
sg75
g1805
sg68
(lp1999
g61
(g82
g63
NtRp2000
(dp2001
g66
(dp2002
g86
g87
ssg75
g1996
sg68
(lp2003
g1051
asbag61
(g82
g63
NtRp2004
(dp2005
g66
(dp2006
g93
g94
ssg75
g1996
sg68
(lp2007
S':'
asbag61
(g82
g63
NtRp2008
(dp2009
g66
(dp2010
sg75
g1996
sg68
(lp2011
g61
(g62
g63
NtRp2012
(dp2013
g66
(dp2014
g74
I4
ssg75
g2008
sg68
(lp2015
g61
(g70
g63
NtRp2016
(dp2017
g66
(dp2018
g74
I3
ssg75
Nsg68
(lp2019
g61
(g77
g63
NtRp2020
(dp2021
g66
(dp2022
sg75
g2016
sg68
(lp2023
g61
(g82
g63
NtRp2024
(dp2025
g66
(dp2026
sg75
g2020
sg68
(lp2027
g61
(g62
g63
NtRp2028
(dp2029
g66
(dp2030
g74
I3
ssg75
g2024
sg68
(lp2031
g1080
asbasbasbag61
(g77
g63
NtRp2032
(dp2033
g66
(dp2034
sg75
g2016
sg68
(lp2035
g61
(g82
g63
NtRp2036
(dp2037
g66
(dp2038
sg75
g2032
sg68
(lp2039
g61
(g62
g63
NtRp2040
(dp2041
g66
(dp2042
g74
I3
ssg75
g2036
sg68
(lp2043
g1093
asbasbasbag61
(g77
g63
NtRp2044
(dp2045
g66
(dp2046
sg75
g2016
sg68
(lp2047
g61
(g82
g63
NtRp2048
(dp2049
g66
(dp2050
sg75
g2044
sg68
(lp2051
g61
(g62
g63
NtRp2052
(dp2053
g66
(dp2054
g74
I3
ssg75
g2048
sg68
(lp2055
g1106
asbasbasbag61
(g77
g63
NtRp2056
(dp2057
g66
(dp2058
sg75
g2016
sg68
(lp2059
g61
(g82
g63
NtRp2060
(dp2061
g66
(dp2062
sg75
g2056
sg68
(lp2063
g61
(g62
g63
NtRp2064
(dp2065
g66
(dp2066
g74
I3
ssg75
g2060
sg68
(lp2067
g1119
asbasbasbag61
(g77
g63
NtRp2068
(dp2069
g66
(dp2070
sg75
g2016
sg68
(lp2071
g61
(g82
g63
NtRp2072
(dp2073
g66
(dp2074
sg75
g2068
sg68
(lp2075
g61
(g62
g63
NtRp2076
(dp2077
g66
(dp2078
g74
I3
ssg75
g2072
sg68
(lp2079
g1132
asbasbasbag61
(g77
g63
NtRp2080
(dp2081
g66
(dp2082
sg75
g2016
sg68
(lp2083
g61
(g82
g63
NtRp2084
(dp2085
g66
(dp2086
sg75
g2080
sg68
(lp2087
g61
(g62
g63
NtRp2088
(dp2089
g66
(dp2090
g74
I3
ssg75
g2084
sg68
(lp2091
g1145
asbasbasbasbasbasbasbag61
(g77
g63
NtRp2092
(dp2093
g66
(dp2094
sg75
g1805
sg68
(lp2095
g61
(g82
g63
NtRp2096
(dp2097
g66
(dp2098
g86
g87
ssg75
g2092
sg68
(lp2099
g1413
asbag61
(g82
g63
NtRp2100
(dp2101
g66
(dp2102
g93
g94
ssg75
g2092
sg68
(lp2103
S':'
asbag61
(g82
g63
NtRp2104
(dp2105
g66
(dp2106
sg75
g2092
sg68
(lp2107
g61
(g62
g63
NtRp2108
(dp2109
g66
(dp2110
g74
I4
ssg75
g2104
sg68
(lp2111
g61
(g70
g63
NtRp2112
(dp2113
g66
(dp2114
g74
I3
ssg75
Nsg68
(lp2115
g61
(g77
g63
NtRp2116
(dp2117
g66
(dp2118
sg75
g2112
sg68
(lp2119
g61
(g82
g63
NtRp2120
(dp2121
g66
(dp2122
sg75
g2116
sg68
(lp2123
g61
(g62
g63
NtRp2124
(dp2125
g66
(dp2126
g74
I3
ssg75
g2120
sg68
(lp2127
S'2'
asbasbasbag61
(g77
g63
NtRp2128
(dp2129
g66
(dp2130
sg75
g2112
sg68
(lp2131
g61
(g82
g63
NtRp2132
(dp2133
g66
(dp2134
sg75
g2128
sg68
(lp2135
g61
(g62
g63
NtRp2136
(dp2137
g66
(dp2138
g74
I3
ssg75
g2132
sg68
(lp2139
S'3'
asbasbasbag61
(g77
g63
NtRp2140
(dp2141
g66
(dp2142
sg75
g2112
sg68
(lp2143
g61
(g82
g63
NtRp2144
(dp2145
g66
(dp2146
sg75
g2140
sg68
(lp2147
g61
(g62
g63
NtRp2148
(dp2149
g66
(dp2150
g74
I3
ssg75
g2144
sg68
(lp2151
S'2'
asbasbasbag61
(g77
g63
NtRp2152
(dp2153
g66
(dp2154
sg75
g2112
sg68
(lp2155
g61
(g82
g63
NtRp2156
(dp2157
g66
(dp2158
sg75
g2152
sg68
(lp2159
g61
(g62
g63
NtRp2160
(dp2161
g66
(dp2162
g74
I3
ssg75
g2156
sg68
(lp2163
S'datetime.datetime(2012, 12, 17, 15, 3, 30)'
p2164
asbasbasbag61
(g77
g63
NtRp2165
(dp2166
g66
(dp2167
sg75
g2112
sg68
(lp2168
g61
(g82
g63
NtRp2169
(dp2170
g66
(dp2171
sg75
g2165
sg68
(lp2172
g61
(g62
g63
NtRp2173
(dp2174
g66
(dp2175
g74
I3
ssg75
g2169
sg68
(lp2176
g1491
asbasbasbasbasbasbasbasbasbasbasbag61
(g77
g63
NtRp2177
(dp2178
g66
(dp2179
sg75
g71
sg68
(lp2180
g61
(g82
g63
NtRp2181
(dp2182
g66
(dp2183
g86
g87
ssg75
g2177
sg68
(lp2184
S'is_https'
p2185
asbag61
(g82
g63
NtRp2186
(dp2187
g66
(dp2188
g93
g94
ssg75
g2177
sg68
(lp2189
S':'
asbag61
(g82
g63
NtRp2190
(dp2191
g66
(dp2192
sg75
g2177
sg68
(lp2193
g61
(g62
g63
NtRp2194
(dp2195
g66
(dp2196
g74
I5
ssg75
g2190
sg68
(lp2197
g104
asbasbasbag61
(g77
g63
NtRp2198
(dp2199
g66
(dp2200
sg75
g71
sg68
(lp2201
g61
(g82
g63
NtRp2202
(dp2203
g66
(dp2204
g86
g87
ssg75
g2198
sg68
(lp2205
S'is_local'
p2206
asbag61
(g82
g63
NtRp2207
(dp2208
g66
(dp2209
g93
g94
ssg75
g2198
sg68
(lp2210
S':'
asbag61
(g82
g63
NtRp2211
(dp2212
g66
(dp2213
sg75
g2198
sg68
(lp2214
g61
(g62
g63
NtRp2215
(dp2216
g66
(dp2217
g74
I5
ssg75
g2211
sg68
(lp2218
g1600
asbasbasbag61
(g77
g63
NtRp2219
(dp2220
g66
(dp2221
sg75
g71
sg68
(lp2222
g61
(g82
g63
NtRp2223
(dp2224
g66
(dp2225
g86
g87
ssg75
g2219
sg68
(lp2226
S'is_restful'
p2227
asbag61
(g82
g63
NtRp2228
(dp2229
g66
(dp2230
g93
g94
ssg75
g2219
sg68
(lp2231
S':'
asbag61
(g82
g63
NtRp2232
(dp2233
g66
(dp2234
sg75
g2219
sg68
(lp2235
g61
(g62
g63
NtRp2236
(dp2237
g66
(dp2238
g74
I5
ssg75
g2232
sg68
(lp2239
g104
asbasbasbag61
(g77
g63
NtRp2240
(dp2241
g66
(dp2242
sg75
g71
sg68
(lp2243
g61
(g82
g63
NtRp2244
(dp2245
g66
(dp2246
g86
g87
ssg75
g2240
sg68
(lp2247
S'now'
p2248
asbag61
(g82
g63
NtRp2249
(dp2250
g66
(dp2251
g93
g94
ssg75
g2240
sg68
(lp2252
S':'
asbag61
(g82
g63
NtRp2253
(dp2254
g66
(dp2255
sg75
g2240
sg68
(lp2256
g61
(g62
g63
NtRp2257
(dp2258
g66
(dp2259
g74
I5
ssg75
g2253
sg68
(lp2260
S'datetime.datetime(2013, 2, 5, 16, 50, 13, 804237)'
p2261
asbasbasbag61
(g77
g63
NtRp2262
(dp2263
g66
(dp2264
sg75
g71
sg68
(lp2265
g61
(g82
g63
NtRp2266
(dp2267
g66
(dp2268
g86
g87
ssg75
g2262
sg68
(lp2269
S'post_vars'
p2270
asbag61
(g82
g63
NtRp2271
(dp2272
g66
(dp2273
g93
g94
ssg75
g2262
sg68
(lp2274
S':'
asbag61
(g82
g63
NtRp2275
(dp2276
g66
(dp2277
sg75
g2262
sg68
(lp2278
g61
(g62
g63
NtRp2279
(dp2280
g66
(dp2281
g74
I5
ssg75
g2275
sg68
(lp2282
g61
(g70
g63
NtRp2283
(dp2284
g66
(dp2285
g74
I4
ssg75
Nsg68
(lp2286
sbasbasbasbag61
(g77
g63
NtRp2287
(dp2288
g66
(dp2289
sg75
g71
sg68
(lp2290
g61
(g82
g63
NtRp2291
(dp2292
g66
(dp2293
g86
g87
ssg75
g2287
sg68
(lp2294
S'raw_args'
p2295
asbag61
(g82
g63
NtRp2296
(dp2297
g66
(dp2298
g93
g94
ssg75
g2287
sg68
(lp2299
S':'
asbag61
(g82
g63
NtRp2300
(dp2301
g66
(dp2302
sg75
g2287
sg68
(lp2303
g61
(g62
g63
NtRp2304
(dp2305
g66
(dp2306
g74
I5
ssg75
g2300
sg68
(lp2307
S''
asbasbasbag61
(g77
g63
NtRp2308
(dp2309
g66
(dp2310
sg75
g71
sg68
(lp2311
g61
(g82
g63
NtRp2312
(dp2313
g66
(dp2314
g86
g87
ssg75
g2308
sg68
(lp2315
S'raw_extension'
p2316
asbag61
(g82
g63
NtRp2317
(dp2318
g66
(dp2319
g93
g94
ssg75
g2308
sg68
(lp2320
S':'
asbag61
(g82
g63
NtRp2321
(dp2322
g66
(dp2323
sg75
g2308
sg68
(lp2324
g61
(g62
g63
NtRp2325
(dp2326
g66
(dp2327
g74
I5
ssg75
g2321
sg68
(lp2328
S'None'
p2329
asbasbasbag61
(g77
g63
NtRp2330
(dp2331
g66
(dp2332
sg75
g71
sg68
(lp2333
g61
(g82
g63
NtRp2334
(dp2335
g66
(dp2336
g86
g87
ssg75
g2330
sg68
(lp2337
S'url'
p2338
asbag61
(g82
g63
NtRp2339
(dp2340
g66
(dp2341
g93
g94
ssg75
g2330
sg68
(lp2342
S':'
asbag61
(g82
g63
NtRp2343
(dp2344
g66
(dp2345
sg75
g2330
sg68
(lp2346
g61
(g62
g63
NtRp2347
(dp2348
g66
(dp2349
g74
I5
ssg75
g2343
sg68
(lp2350
g1167
asbasbasbag61
(g77
g63
NtRp2351
(dp2352
g66
(dp2353
sg75
g71
sg68
(lp2354
g61
(g82
g63
NtRp2355
(dp2356
g66
(dp2357
g86
g87
ssg75
g2351
sg68
(lp2358
S'utcnow'
p2359
asbag61
(g82
g63
NtRp2360
(dp2361
g66
(dp2362
g93
g94
ssg75
g2351
sg68
(lp2363
S':'
asbag61
(g82
g63
NtRp2364
(dp2365
g66
(dp2366
sg75
g2351
sg68
(lp2367
g61
(g62
g63
NtRp2368
(dp2369
g66
(dp2370
g74
I5
ssg75
g2364
sg68
(lp2371
S'datetime.datetime(2013, 2, 5, 15, 50, 13, 804245)'
p2372
asbasbasbag61
(g77
g63
NtRp2373
(dp2374
g66
(dp2375
sg75
g71
sg68
(lp2376
g61
(g82
g63
NtRp2377
(dp2378
g66
(dp2379
g86
g87
ssg75
g2373
sg68
(lp2380
S'uuid'
p2381
asbag61
(g82
g63
NtRp2382
(dp2383
g66
(dp2384
g93
g94
ssg75
g2373
sg68
(lp2385
S':'
asbag61
(g82
g63
NtRp2386
(dp2387
g66
(dp2388
sg75
g2373
sg68
(lp2389
g61
(g62
g63
NtRp2390
(dp2391
g66
(dp2392
g74
I5
ssg75
g2386
sg68
(lp2393
S'rosan/127.0.0.1.2013-02-05.16-50-13.60be8aa9-afea-4b7f-ab51-4f7ef4c4bbd9'
p2394
asbasbasbag61
(g77
g63
NtRp2395
(dp2396
g66
(dp2397
sg75
g71
sg68
(lp2398
g61
(g82
g63
NtRp2399
(dp2400
g66
(dp2401
g86
g87
ssg75
g2395
sg68
(lp2402
S'vars'
p2403
asbag61
(g82
g63
NtRp2404
(dp2405
g66
(dp2406
g93
g94
ssg75
g2395
sg68
(lp2407
S':'
asbag61
(g82
g63
NtRp2408
(dp2409
g66
(dp2410
sg75
g2395
sg68
(lp2411
g61
(g62
g63
NtRp2412
(dp2413
g66
(dp2414
g74
I5
ssg75
g2408
sg68
(lp2415
g61
(g70
g63
NtRp2416
(dp2417
g66
(dp2418
g74
I4
ssg75
Nsg68
(lp2419
sbasbasbasbag61
(g77
g63
NtRp2420
(dp2421
g66
(dp2422
sg75
g71
sg68
(lp2423
g61
(g82
g63
NtRp2424
(dp2425
g66
(dp2426
g86
g87
ssg75
g2420
sg68
(lp2427
S'wsgi'
p2428
asbag61
(g82
g63
NtRp2429
(dp2430
g66
(dp2431
g93
g94
ssg75
g2420
sg68
(lp2432
S':'
asbag61
(g82
g63
NtRp2433
(dp2434
g66
(dp2435
sg75
g2420
sg68
(lp2436
g61
(g62
g63
NtRp2437
(dp2438
g66
(dp2439
g74
I5
ssg75
g2433
sg68
(lp2440
g61
(g70
g63
NtRp2441
(dp2442
g66
(dp2443
g74
I4
ssg75
Nsg68
(lp2444
g61
(g77
g63
NtRp2445
(dp2446
g66
(dp2447
sg75
g2441
sg68
(lp2448
g61
(g82
g63
NtRp2449
(dp2450
g66
(dp2451
g86
g87
ssg75
g2445
sg68
(lp2452
S'environ'
p2453
asbag61
(g82
g63
NtRp2454
(dp2455
g66
(dp2456
g93
g94
ssg75
g2445
sg68
(lp2457
S':'
asbag61
(g82
g63
NtRp2458
(dp2459
g66
(dp2460
sg75
g2445
sg68
(lp2461
g61
(g62
g63
NtRp2462
(dp2463
g66
(dp2464
g74
I4
ssg75
g2458
sg68
(lp2465
g61
(g70
g63
NtRp2466
(dp2467
g66
(dp2468
g74
I3
ssg75
Nsg68
(lp2469
g61
(g77
g63
NtRp2470
(dp2471
g66
(dp2472
sg75
g2466
sg68
(lp2473
g61
(g82
g63
NtRp2474
(dp2475
g66
(dp2476
g86
g87
ssg75
g2470
sg68
(lp2477
S'HTTP_ACCEPT'
p2478
asbag61
(g82
g63
NtRp2479
(dp2480
g66
(dp2481
g93
g94
ssg75
g2470
sg68
(lp2482
S':'
asbag61
(g82
g63
NtRp2483
(dp2484
g66
(dp2485
sg75
g2470
sg68
(lp2486
g61
(g62
g63
NtRp2487
(dp2488
g66
(dp2489
g74
I3
ssg75
g2483
sg68
(lp2490
g846
asbasbasbag61
(g77
g63
NtRp2491
(dp2492
g66
(dp2493
sg75
g2466
sg68
(lp2494
g61
(g82
g63
NtRp2495
(dp2496
g66
(dp2497
g86
g87
ssg75
g2491
sg68
(lp2498
S'HTTP_ACCEPT_ENCODING'
p2499
asbag61
(g82
g63
NtRp2500
(dp2501
g66
(dp2502
g93
g94
ssg75
g2491
sg68
(lp2503
S':'
asbag61
(g82
g63
NtRp2504
(dp2505
g66
(dp2506
sg75
g2491
sg68
(lp2507
g61
(g62
g63
NtRp2508
(dp2509
g66
(dp2510
g74
I3
ssg75
g2504
sg68
(lp2511
g868
asbasbasbag61
(g77
g63
NtRp2512
(dp2513
g66
(dp2514
sg75
g2466
sg68
(lp2515
g61
(g82
g63
NtRp2516
(dp2517
g66
(dp2518
g86
g87
ssg75
g2512
sg68
(lp2519
S'HTTP_ACCEPT_LANGUAGE'
p2520
asbag61
(g82
g63
NtRp2521
(dp2522
g66
(dp2523
g93
g94
ssg75
g2512
sg68
(lp2524
S':'
asbag61
(g82
g63
NtRp2525
(dp2526
g66
(dp2527
sg75
g2512
sg68
(lp2528
g61
(g62
g63
NtRp2529
(dp2530
g66
(dp2531
g74
I3
ssg75
g2525
sg68
(lp2532
g890
asbasbasbag61
(g77
g63
NtRp2533
(dp2534
g66
(dp2535
sg75
g2466
sg68
(lp2536
g61
(g82
g63
NtRp2537
(dp2538
g66
(dp2539
g86
g87
ssg75
g2533
sg68
(lp2540
S'HTTP_CONNECTION'
p2541
asbag61
(g82
g63
NtRp2542
(dp2543
g66
(dp2544
g93
g94
ssg75
g2533
sg68
(lp2545
S':'
asbag61
(g82
g63
NtRp2546
(dp2547
g66
(dp2548
sg75
g2533
sg68
(lp2549
g61
(g62
g63
NtRp2550
(dp2551
g66
(dp2552
g74
I3
ssg75
g2546
sg68
(lp2553
g912
asbasbasbag61
(g77
g63
NtRp2554
(dp2555
g66
(dp2556
sg75
g2466
sg68
(lp2557
g61
(g82
g63
NtRp2558
(dp2559
g66
(dp2560
g86
g87
ssg75
g2554
sg68
(lp2561
S'HTTP_COOKIE'
p2562
asbag61
(g82
g63
NtRp2563
(dp2564
g66
(dp2565
g93
g94
ssg75
g2554
sg68
(lp2566
S':'
asbag61
(g82
g63
NtRp2567
(dp2568
g66
(dp2569
sg75
g2554
sg68
(lp2570
g61
(g62
g63
NtRp2571
(dp2572
g66
(dp2573
g74
I3
ssg75
g2567
sg68
(lp2574
g934
asbasbasbag61
(g77
g63
NtRp2575
(dp2576
g66
(dp2577
sg75
g2466
sg68
(lp2578
g61
(g82
g63
NtRp2579
(dp2580
g66
(dp2581
g86
g87
ssg75
g2575
sg68
(lp2582
S'HTTP_HOST'
p2583
asbag61
(g82
g63
NtRp2584
(dp2585
g66
(dp2586
g93
g94
ssg75
g2575
sg68
(lp2587
S':'
asbag61
(g82
g63
NtRp2588
(dp2589
g66
(dp2590
sg75
g2575
sg68
(lp2591
g61
(g62
g63
NtRp2592
(dp2593
g66
(dp2594
g74
I3
ssg75
g2588
sg68
(lp2595
g956
asbasbasbag61
(g77
g63
NtRp2596
(dp2597
g66
(dp2598
sg75
g2466
sg68
(lp2599
g61
(g82
g63
NtRp2600
(dp2601
g66
(dp2602
g86
g87
ssg75
g2596
sg68
(lp2603
S'HTTP_REFERER'
p2604
asbag61
(g82
g63
NtRp2605
(dp2606
g66
(dp2607
g93
g94
ssg75
g2596
sg68
(lp2608
S':'
asbag61
(g82
g63
NtRp2609
(dp2610
g66
(dp2611
sg75
g2596
sg68
(lp2612
g61
(g62
g63
NtRp2613
(dp2614
g66
(dp2615
g74
I3
ssg75
g2609
sg68
(lp2616
g978
asbasbasbag61
(g77
g63
NtRp2617
(dp2618
g66
(dp2619
sg75
g2466
sg68
(lp2620
g61
(g82
g63
NtRp2621
(dp2622
g66
(dp2623
g86
g87
ssg75
g2617
sg68
(lp2624
S'HTTP_USER_AGENT'
p2625
asbag61
(g82
g63
NtRp2626
(dp2627
g66
(dp2628
g93
g94
ssg75
g2617
sg68
(lp2629
S':'
asbag61
(g82
g63
NtRp2630
(dp2631
g66
(dp2632
sg75
g2617
sg68
(lp2633
g61
(g62
g63
NtRp2634
(dp2635
g66
(dp2636
g74
I3
ssg75
g2630
sg68
(lp2637
g1000
asbasbasbag61
(g77
g63
NtRp2638
(dp2639
g66
(dp2640
sg75
g2466
sg68
(lp2641
g61
(g82
g63
NtRp2642
(dp2643
g66
(dp2644
g86
g87
ssg75
g2638
sg68
(lp2645
S'PATH_INFO'
p2646
asbag61
(g82
g63
NtRp2647
(dp2648
g66
(dp2649
g93
g94
ssg75
g2638
sg68
(lp2650
S':'
asbag61
(g82
g63
NtRp2651
(dp2652
g66
(dp2653
sg75
g2638
sg68
(lp2654
g61
(g62
g63
NtRp2655
(dp2656
g66
(dp2657
g74
I3
ssg75
g2651
sg68
(lp2658
g1167
asbasbasbag61
(g77
g63
NtRp2659
(dp2660
g66
(dp2661
sg75
g2466
sg68
(lp2662
g61
(g82
g63
NtRp2663
(dp2664
g66
(dp2665
g86
g87
ssg75
g2659
sg68
(lp2666
S'QUERY_STRING'
p2667
asbag61
(g82
g63
NtRp2668
(dp2669
g66
(dp2670
g93
g94
ssg75
g2659
sg68
(lp2671
S':'
asbag61
(g82
g63
NtRp2672
(dp2673
g66
(dp2674
sg75
g2659
sg68
(lp2675
g61
(g62
g63
NtRp2676
(dp2677
g66
(dp2678
g74
I3
ssg75
g2672
sg68
(lp2679
S''
asbasbasbag61
(g77
g63
NtRp2680
(dp2681
g66
(dp2682
sg75
g2466
sg68
(lp2683
g61
(g82
g63
NtRp2684
(dp2685
g66
(dp2686
g86
g87
ssg75
g2680
sg68
(lp2687
S'REMOTE_ADDR'
p2688
asbag61
(g82
g63
NtRp2689
(dp2690
g66
(dp2691
g93
g94
ssg75
g2680
sg68
(lp2692
S':'
asbag61
(g82
g63
NtRp2693
(dp2694
g66
(dp2695
sg75
g2680
sg68
(lp2696
g61
(g62
g63
NtRp2697
(dp2698
g66
(dp2699
g74
I3
ssg75
g2693
sg68
(lp2700
g216
asbasbasbag61
(g77
g63
NtRp2701
(dp2702
g66
(dp2703
sg75
g2466
sg68
(lp2704
g61
(g82
g63
NtRp2705
(dp2706
g66
(dp2707
g86
g87
ssg75
g2701
sg68
(lp2708
S'REMOTE_PORT'
p2709
asbag61
(g82
g63
NtRp2710
(dp2711
g66
(dp2712
g93
g94
ssg75
g2701
sg68
(lp2713
S':'
asbag61
(g82
g63
NtRp2714
(dp2715
g66
(dp2716
sg75
g2701
sg68
(lp2717
g61
(g62
g63
NtRp2718
(dp2719
g66
(dp2720
g74
I3
ssg75
g2714
sg68
(lp2721
g1231
asbasbasbag61
(g77
g63
NtRp2722
(dp2723
g66
(dp2724
sg75
g2466
sg68
(lp2725
g61
(g82
g63
NtRp2726
(dp2727
g66
(dp2728
g86
g87
ssg75
g2722
sg68
(lp2729
S'REQUEST_METHOD'
p2730
asbag61
(g82
g63
NtRp2731
(dp2732
g66
(dp2733
g93
g94
ssg75
g2722
sg68
(lp2734
S':'
asbag61
(g82
g63
NtRp2735
(dp2736
g66
(dp2737
sg75
g2722
sg68
(lp2738
g61
(g62
g63
NtRp2739
(dp2740
g66
(dp2741
g74
I3
ssg75
g2735
sg68
(lp2742
g1253
asbasbasbag61
(g77
g63
NtRp2743
(dp2744
g66
(dp2745
sg75
g2466
sg68
(lp2746
g61
(g82
g63
NtRp2747
(dp2748
g66
(dp2749
g86
g87
ssg75
g2743
sg68
(lp2750
S'REQUEST_URI'
p2751
asbag61
(g82
g63
NtRp2752
(dp2753
g66
(dp2754
g93
g94
ssg75
g2743
sg68
(lp2755
S':'
asbag61
(g82
g63
NtRp2756
(dp2757
g66
(dp2758
sg75
g2743
sg68
(lp2759
g61
(g62
g63
NtRp2760
(dp2761
g66
(dp2762
g74
I3
ssg75
g2756
sg68
(lp2763
g1167
asbasbasbag61
(g77
g63
NtRp2764
(dp2765
g66
(dp2766
sg75
g2466
sg68
(lp2767
g61
(g82
g63
NtRp2768
(dp2769
g66
(dp2770
g86
g87
ssg75
g2764
sg68
(lp2771
S'SCRIPT_NAME'
p2772
asbag61
(g82
g63
NtRp2773
(dp2774
g66
(dp2775
g93
g94
ssg75
g2764
sg68
(lp2776
S':'
asbag61
(g82
g63
NtRp2777
(dp2778
g66
(dp2779
sg75
g2764
sg68
(lp2780
g61
(g62
g63
NtRp2781
(dp2782
g66
(dp2783
g74
I3
ssg75
g2777
sg68
(lp2784
S''
asbasbasbag61
(g77
g63
NtRp2785
(dp2786
g66
(dp2787
sg75
g2466
sg68
(lp2788
g61
(g82
g63
NtRp2789
(dp2790
g66
(dp2791
g86
g87
ssg75
g2785
sg68
(lp2792
S'SERVER_NAME'
p2793
asbag61
(g82
g63
NtRp2794
(dp2795
g66
(dp2796
g93
g94
ssg75
g2785
sg68
(lp2797
S':'
asbag61
(g82
g63
NtRp2798
(dp2799
g66
(dp2800
sg75
g2785
sg68
(lp2801
g61
(g62
g63
NtRp2802
(dp2803
g66
(dp2804
g74
I3
ssg75
g2798
sg68
(lp2805
g1317
asbasbasbag61
(g77
g63
NtRp2806
(dp2807
g66
(dp2808
sg75
g2466
sg68
(lp2809
g61
(g82
g63
NtRp2810
(dp2811
g66
(dp2812
g86
g87
ssg75
g2806
sg68
(lp2813
S'SERVER_PORT'
p2814
asbag61
(g82
g63
NtRp2815
(dp2816
g66
(dp2817
g93
g94
ssg75
g2806
sg68
(lp2818
S':'
asbag61
(g82
g63
NtRp2819
(dp2820
g66
(dp2821
sg75
g2806
sg68
(lp2822
g61
(g62
g63
NtRp2823
(dp2824
g66
(dp2825
g74
I3
ssg75
g2819
sg68
(lp2826
g1339
asbasbasbag61
(g77
g63
NtRp2827
(dp2828
g66
(dp2829
sg75
g2466
sg68
(lp2830
g61
(g82
g63
NtRp2831
(dp2832
g66
(dp2833
g86
g87
ssg75
g2827
sg68
(lp2834
S'SERVER_PROTOCOL'
p2835
asbag61
(g82
g63
NtRp2836
(dp2837
g66
(dp2838
g93
g94
ssg75
g2827
sg68
(lp2839
S':'
asbag61
(g82
g63
NtRp2840
(dp2841
g66
(dp2842
sg75
g2827
sg68
(lp2843
g61
(g62
g63
NtRp2844
(dp2845
g66
(dp2846
g74
I3
ssg75
g2840
sg68
(lp2847
g1361
asbasbasbag61
(g77
g63
NtRp2848
(dp2849
g66
(dp2850
sg75
g2466
sg68
(lp2851
g61
(g82
g63
NtRp2852
(dp2853
g66
(dp2854
g86
g87
ssg75
g2848
sg68
(lp2855
S'SERVER_SOFTWARE'
p2856
asbag61
(g82
g63
NtRp2857
(dp2858
g66
(dp2859
g93
g94
ssg75
g2848
sg68
(lp2860
S':'
asbag61
(g82
g63
NtRp2861
(dp2862
g66
(dp2863
sg75
g2848
sg68
(lp2864
g61
(g62
g63
NtRp2865
(dp2866
g66
(dp2867
g74
I3
ssg75
g2861
sg68
(lp2868
g1383
asbasbasbag61
(g77
g63
NtRp2869
(dp2870
g66
(dp2871
sg75
g2466
sg68
(lp2872
g61
(g82
g63
NtRp2873
(dp2874
g66
(dp2875
g86
g87
ssg75
g2869
sg68
(lp2876
S'wsgi.errors'
p2877
asbag61
(g82
g63
NtRp2878
(dp2879
g66
(dp2880
g93
g94
ssg75
g2869
sg68
(lp2881
S':'
asbag61
(g82
g63
NtRp2882
(dp2883
g66
(dp2884
sg75
g2869
sg68
(lp2885
g61
(g62
g63
NtRp2886
(dp2887
g66
(dp2888
g74
I3
ssg75
g2882
sg68
(lp2889
S"<open file '<stderr>', mode 'w' at 0x10f416270>"
p2890
asbasbasbag61
(g77
g63
NtRp2891
(dp2892
g66
(dp2893
sg75
g2466
sg68
(lp2894
g61
(g82
g63
NtRp2895
(dp2896
g66
(dp2897
g86
g87
ssg75
g2891
sg68
(lp2898
S'wsgi.file_wrapper'
p2899
asbag61
(g82
g63
NtRp2900
(dp2901
g66
(dp2902
g93
g94
ssg75
g2891
sg68
(lp2903
S':'
asbag61
(g82
g63
NtRp2904
(dp2905
g66
(dp2906
sg75
g2891
sg68
(lp2907
g61
(g62
g63
NtRp2908
(dp2909
g66
(dp2910
g74
I3
ssg75
g2904
sg68
(lp2911
S'<class wsgiref.util.FileWrapper at 0x110183ae0>'
p2912
asbasbasbag61
(g77
g63
NtRp2913
(dp2914
g66
(dp2915
sg75
g2466
sg68
(lp2916
g61
(g82
g63
NtRp2917
(dp2918
g66
(dp2919
g86
g87
ssg75
g2913
sg68
(lp2920
S'wsgi.input'
p2921
asbag61
(g82
g63
NtRp2922
(dp2923
g66
(dp2924
g93
g94
ssg75
g2913
sg68
(lp2925
S':'
asbag61
(g82
g63
NtRp2926
(dp2927
g66
(dp2928
sg75
g2913
sg68
(lp2929
g61
(g62
g63
NtRp2930
(dp2931
g66
(dp2932
g74
I3
ssg75
g2926
sg68
(lp2933
S'<cStringIO.StringO object at 0x114433998>'
p2934
asbasbasbag61
(g77
g63
NtRp2935
(dp2936
g66
(dp2937
sg75
g2466
sg68
(lp2938
g61
(g82
g63
NtRp2939
(dp2940
g66
(dp2941
g86
g87
ssg75
g2935
sg68
(lp2942
S'wsgi.multiprocess'
p2943
asbag61
(g82
g63
NtRp2944
(dp2945
g66
(dp2946
g93
g94
ssg75
g2935
sg68
(lp2947
S':'
asbag61
(g82
g63
NtRp2948
(dp2949
g66
(dp2950
sg75
g2935
sg68
(lp2951
g61
(g62
g63
NtRp2952
(dp2953
g66
(dp2954
g74
I3
ssg75
g2948
sg68
(lp2955
g104
asbasbasbag61
(g77
g63
NtRp2956
(dp2957
g66
(dp2958
sg75
g2466
sg68
(lp2959
g61
(g82
g63
NtRp2960
(dp2961
g66
(dp2962
g86
g87
ssg75
g2956
sg68
(lp2963
S'wsgi.multithread'
p2964
asbag61
(g82
g63
NtRp2965
(dp2966
g66
(dp2967
g93
g94
ssg75
g2956
sg68
(lp2968
S':'
asbag61
(g82
g63
NtRp2969
(dp2970
g66
(dp2971
sg75
g2956
sg68
(lp2972
g61
(g62
g63
NtRp2973
(dp2974
g66
(dp2975
g74
I3
ssg75
g2969
sg68
(lp2976
g1600
asbasbasbag61
(g77
g63
NtRp2977
(dp2978
g66
(dp2979
sg75
g2466
sg68
(lp2980
g61
(g82
g63
NtRp2981
(dp2982
g66
(dp2983
g86
g87
ssg75
g2977
sg68
(lp2984
S'wsgi.run_once'
p2985
asbag61
(g82
g63
NtRp2986
(dp2987
g66
(dp2988
g93
g94
ssg75
g2977
sg68
(lp2989
S':'
asbag61
(g82
g63
NtRp2990
(dp2991
g66
(dp2992
sg75
g2977
sg68
(lp2993
g61
(g62
g63
NtRp2994
(dp2995
g66
(dp2996
g74
I3
ssg75
g2990
sg68
(lp2997
g104
asbasbasbag61
(g77
g63
NtRp2998
(dp2999
g66
(dp3000
sg75
g2466
sg68
(lp3001
g61
(g82
g63
NtRp3002
(dp3003
g66
(dp3004
g86
g87
ssg75
g2998
sg68
(lp3005
S'wsgi.url_scheme'
p3006
asbag61
(g82
g63
NtRp3007
(dp3008
g66
(dp3009
g93
g94
ssg75
g2998
sg68
(lp3010
S':'
asbag61
(g82
g63
NtRp3011
(dp3012
g66
(dp3013
sg75
g2998
sg68
(lp3014
g61
(g62
g63
NtRp3015
(dp3016
g66
(dp3017
g74
I3
ssg75
g3011
sg68
(lp3018
g1643
asbasbasbag61
(g77
g63
NtRp3019
(dp3020
g66
(dp3021
sg75
g2466
sg68
(lp3022
g61
(g82
g63
NtRp3023
(dp3024
g66
(dp3025
g86
g87
ssg75
g3019
sg68
(lp3026
S'wsgi.version'
p3027
asbag61
(g82
g63
NtRp3028
(dp3029
g66
(dp3030
g93
g94
ssg75
g3019
sg68
(lp3031
S':'
asbag61
(g82
g63
NtRp3032
(dp3033
g66
(dp3034
sg75
g3019
sg68
(lp3035
g61
(g62
g63
NtRp3036
(dp3037
g66
(dp3038
g74
I3
ssg75
g3032
sg68
(lp3039
S'1'
asbasbasbasbasbasbasbasbasbasbasbasbasbsS'frames'
p3040
(lp3041
(dp3042
S'file'
p3043
S'/Users/Truki/Desarrollo/web2py/gluon/restricted.py'
p3044
sS'dump'
p3045
(dp3046
S'environment'
p3047
S"{'A': <class 'gluon.html.A'>, 'Auth': <class 'gluon.tools.Auth'>, 'B': <class 'gluon.html.B'>, 'BEAUTIFY': <class 'gluon.html.BEAUTIFY'>, 'BODY': <class 'gluon.html.BODY'>, 'BR': <class 'gluon.html.BR'>, 'BUTTON': <class 'gluon.html.BUTTON'>, 'CAT': <class 'gluon.html.CAT'>, 'CENTER': <class 'gluon.html.CENTER'>, 'CLEANUP': <class 'gluon.validators.CLEANUP'>, ...}"
p3048
sS'ccode'
p3049
S'<code object <module> at 0x1107d89b0, file "/Use...y/applications/rosan/models/db_rosan.py", line 7>'
p3050
ssS'lnum'
p3051
I212
sS'lines'
p3052
(dp3053
I207
S'    try:'
p3054
sI208
S'        if isinstance(code, types.CodeType):'
p3055
sI209
S'            ccode = code'
p3056
sI210
S'        else:'
p3057
sI211
S'            ccode = compile2(code, layer)'
p3058
sI212
S'        exec ccode in environment'
p3059
sI213
S'    except HTTP:'
p3060
sI214
S'        raise'
p3061
sI215
S'    except RestrictedError:'
p3062
sI216
S'        # do not encapsulate (obfuscate) the original RestrictedError'
p3063
ssS'call'
p3064
S'(code=\'# coding: utf8\\n"""\\njust copy paste this code int...=IS_IN_DB(dbRosan, \\\'proveedor.id\\\', \\\'%(nombre)s\\\')\\n\', environment={\'A\': <class \'gluon.html.A\'>, \'Auth\': <class \'gluon.tools.Auth\'>, \'B\': <class \'gluon.html.B\'>, \'BEAUTIFY\': <class \'gluon.html.BEAUTIFY\'>, \'BODY\': <class \'gluon.html.BODY\'>, \'BR\': <class \'gluon.html.BR\'>, \'BUTTON\': <class \'gluon.html.BUTTON\'>, \'CAT\': <class \'gluon.html.CAT\'>, \'CENTER\': <class \'gluon.html.CENTER\'>, \'CLEANUP\': <class \'gluon.validators.CLEANUP\'>, ...}, layer=\'/Users/Truki/Desarrollo/web2py/applications/rosan/models/db_rosan.py\')'
p3065
sS'func'
p3066
S'restricted'
p3067
sa(dp3068
g3043
S'/Users/Truki/Desarrollo/web2py/applications/rosan/models/db_rosan.py'
p3069
sg3045
(dp3070
S'builtinNone'
p3071
S'None'
p3072
sS'default'
p3073
S'undefined'
p3074
sS'builtinTrue'
p3075
g1600
sS'length'
p3076
g3074
sS'notnull'
p3077
g3074
sS'SQLField'
p3078
S"<class 'gluon.dal.Field'>"
p3079
ssg3051
I24
sg3052
(dp3080
I19
S'      SQLField("descripcion", "text", notnull=True, default=None),'
p3081
sI20
S'      SQLField("direccion", "string", length=250, notnull=True, default=None),'
p3082
sI21
S'      SQLField("localidad", "string", length=100, notnull=True, default=None),'
p3083
sI22
S'      SQLField("cod_postal", "string", length=5, notnull=True, default=None),'
p3084
sI23
S'      SQLField("email", "string", length=100, notnull=True, default=None),'
p3085
sI24
S'      SQLField("www", "string", length=200, notnull=True, default=None)'
p3086
sI25
S'      )'
p3087
sI26
S''
sI27
S'"""'
p3088
sI28
S'Tabla de clientes'
p3089
ssg3064
S'()'
p3090
sg3066
S'<module>'
p3091
sa(dp3092
g3043
S'/Users/Truki/Desarrollo/web2py/gluon/dal.py'
p3093
sg3045
(dp3094
S'fields'
p3095
S'(<gluon.dal.Field object>, <gluon.dal.Field object>, <gluon.dal.Field object>, <gluon.dal.Field object>, <gluon.dal.Field object>, <gluon.dal.Field object>, <gluon.dal.Field object>)'
p3096
sS'self'
p3097
S'<DAL uri="sqlite://dbRosan.db">'
p3098
sS'args'
p3099
g21
sS'tablename'
p3100
S"'empresa'"
p3101
sS'table'
p3102
g3074
sS'self.lazy_define_table'
p3103
S'<bound method DAL.lazy_define_table of <DAL uri="sqlite://dbRosan.db">>'
p3104
ssg3051
I7186
sg3052
(dp3105
I7181
S'                    % (tablename,invalid_args))'
p3106
sI7182
S'        if self._lazy_tables and not tablename in self._LAZY_TABLES:'
p3107
sI7183
S'            self._LAZY_TABLES[tablename] = (tablename,fields,args)'
p3108
sI7184
S'            table = None'
p3109
sI7185
S'        else:'
p3110
sI7186
S'            table = self.lazy_define_table(tablename,*fields,**args)'
p3111
sI7187
S'        if not tablename in self.tables:'
p3112
sI7188
S'            self.tables.append(tablename)'
p3113
sI7189
S'        return table'
p3114
sI7190
S''
ssg3064
S'(self=<DAL uri="sqlite://dbRosan.db">, tablename=\'empresa\', *fields=(<gluon.dal.Field object>, <gluon.dal.Field object>, <gluon.dal.Field object>, <gluon.dal.Field object>, <gluon.dal.Field object>, <gluon.dal.Field object>, <gluon.dal.Field object>), **args={})'
p3115
sg3066
S'define_table'
p3116
sa(dp3117
g3043
S'/Users/Truki/Desarrollo/web2py/gluon/dal.py'
p3118
sg3045
(dp3119
S'polymodel'
p3120
S'None'
p3121
ssg3051
I7222
sg3052
(dp3122
I7217
S"            polymodel = args_get('polymodel',None)"
p3123
sI7218
S'            try:'
p3124
sI7219
S'                GLOBAL_LOCKER.acquire()'
p3125
sI7220
S'                self._adapter.create_table(table,migrate=migrate,'
p3126
sI7221
S'                                           fake_migrate=fake_migrate,'
p3127
sI7222
S'                                           polymodel=polymodel)'
p3128
sI7223
S'            finally:'
p3129
sI7224
S'                GLOBAL_LOCKER.release()'
p3130
sI7225
S'        else:'
p3131
sI7226
S'            table._dbt = None'
p3132
ssg3064
S'(self=<DAL uri="sqlite://dbRosan.db">, tablename=\'empresa\', *fields=(<gluon.dal.Field object>, <gluon.dal.Field object>, <gluon.dal.Field object>, <gluon.dal.Field object>, <gluon.dal.Field object>, <gluon.dal.Field object>, <gluon.dal.Field object>), **args={})'
p3133
sg3066
S'lazy_define_table'
p3134
sa(dp3135
g3043
S'/Users/Truki/Desarrollo/web2py/gluon/dal.py'
p3136
sg3045
(dp3137
S'query'
p3138
S"'CREATE TABLE empresa(\\n    id INTEGER PRIMARY KEY...CHAR(100) NOT NULL,\\n    www CHAR(200) NOT NULL\\n);'"
p3139
sS'self'
p3140
S'<gluon.dal.SQLiteAdapter object>'
p3141
sS'table'
p3142
S'<Table empresa (id,nombre,descripcion,direccion,localidad,cod_postal,email,www)>'
p3143
sS'self.create_sequence_and_triggers'
p3144
S'<bound method SQLiteAdapter.create_sequence_and_triggers of <gluon.dal.SQLiteAdapter object>>'
p3145
ssg3051
I935
sg3052
(dp3146
I930
S'            if table._dbt:'
p3147
sI931
S"                logfile.write('timestamp: %s\\n'"
p3148
sI932
S'                               % datetime.datetime.today().isoformat())'
p3149
sI933
S"                logfile.write(query + '\\n')"
p3150
sI934
S'            if not fake_migrate:'
p3151
sI935
S'                self.create_sequence_and_triggers(query,table)'
p3152
sI936
S'                table._db.commit()'
p3153
sI937
S'                # Postgres geom fields are added now,'
p3154
sI938
S'                # after the table has been created'
p3155
sI939
S'                for query in postcreation_fields:'
p3156
ssg3064
S'(self=<gluon.dal.SQLiteAdapter object>, table=<Table empresa (id,nombre,descripcion,direccion,localidad,cod_postal,email,www)>, migrate=True, fake_migrate=False, polymodel=None)'
p3157
sg3066
S'create_table'
p3158
sa(dp3159
g3043
S'/Users/Truki/Desarrollo/web2py/gluon/dal.py'
p3160
sg3045
(dp3161
S'query'
p3162
S"'CREATE TABLE empresa(\\n    id INTEGER PRIMARY KEY...CHAR(100) NOT NULL,\\n    www CHAR(200) NOT NULL\\n);'"
p3163
sS'self'
p3164
S'<gluon.dal.SQLiteAdapter object>'
p3165
sS'self.execute'
p3166
S'<bound method SQLiteAdapter.execute of <gluon.dal.SQLiteAdapter object>>'
p3167
ssg3051
I1694
sg3052
(dp3168
I1696
S'    def log_execute(self, *a, **b):'
p3169
sI1697
S'        if not self.connection: return None'
p3170
sI1698
S'        command = a[0]'
p3171
sI1689
S''
sI1690
S'    def constraint_name(self, table, fieldname):'
p3172
sI1691
S"        return '%s_%s__constraint' % (table,fieldname)"
p3173
sI1692
S''
sI1693
S'    def create_sequence_and_triggers(self, query, table, **args):'
p3174
sI1694
S'        self.execute(query)'
p3175
sI1695
S''
ssg3064
S"(self=<gluon.dal.SQLiteAdapter object>, query='CREATE TABLE empresa(\\n    id INTEGER PRIMARY KEY...CHAR(100) NOT NULL,\\n    www CHAR(200) NOT NULL\\n);', table=<Table empresa (id,nombre,descripcion,direccion,localidad,cod_postal,email,www)>, **args={})"
p3176
sg3066
S'create_sequence_and_triggers'
p3177
sa(dp3178
g3043
S'/Users/Truki/Desarrollo/web2py/gluon/dal.py'
p3179
sg3045
(dp3180
S'a'
S"('CREATE TABLE empresa(\\n    id INTEGER PRIMARY KEY...CHAR(100) NOT NULL,\\n    www CHAR(200) NOT NULL\\n);',)"
p3181
sS'self'
p3182
S'<gluon.dal.SQLiteAdapter object>'
p3183
sS'b'
g21
sS'self.log_execute'
p3184
S'<bound method SQLiteAdapter.log_execute of <gluon.dal.SQLiteAdapter object>>'
p3185
ssg3051
I1709
sg3052
(dp3186
I1704
S'        self.db._timings.append((command,time.time()-t0))'
p3187
sI1705
S'        del self.db._timings[:-TIMINGSSIZE]'
p3188
sI1706
S'        return ret'
p3189
sI1707
S''
sI1708
S'    def execute(self, *a, **b):'
p3190
sI1709
S'        return self.log_execute(*a, **b)'
p3191
sI1710
S''
sI1711
S'    def represent(self, obj, fieldtype):'
p3192
sI1712
S'        field_is_type = fieldtype.startswith'
p3193
sI1713
S'        if isinstance(obj, CALLABLETYPES):'
p3194
ssg3064
S"(self=<gluon.dal.SQLiteAdapter object>, *a=('CREATE TABLE empresa(\\n    id INTEGER PRIMARY KEY...CHAR(100) NOT NULL,\\n    www CHAR(200) NOT NULL\\n);',), **b={})"
p3195
sg3066
S'execute'
p3196
sa(dp3197
g3043
S'/Users/Truki/Desarrollo/web2py/gluon/dal.py'
p3198
sg3045
(dp3199
S'a'
S"('CREATE TABLE empresa(\\n    id INTEGER PRIMARY KEY...CHAR(100) NOT NULL,\\n    www CHAR(200) NOT NULL\\n);',)"
p3200
sS'b'
g21
sS'self'
p3201
S'<gluon.dal.SQLiteAdapter object>'
p3202
sS'ret'
p3203
g3074
sS'self.cursor'
p3204
S'<sqlite3.Cursor object>'
p3205
sS'self.cursor.execute'
p3206
S'<built-in method execute of sqlite3.Cursor object>'
p3207
ssg3051
I1703
sg3052
(dp3208
I1698
S'        command = a[0]'
p3209
sI1699
S'        if self.db._debug:'
p3210
sI1700
S"            LOGGER.debug('SQL: %s' % command)"
p3211
sI1701
S'        self.db._lastsql = command'
p3212
sI1702
S'        t0 = time.time()'
p3213
sI1703
S'        ret = self.cursor.execute(*a, **b)'
p3214
sI1704
S'        self.db._timings.append((command,time.time()-t0))'
p3215
sI1705
S'        del self.db._timings[:-TIMINGSSIZE]'
p3216
sI1706
S'        return ret'
p3217
sI1707
S''
ssg3064
S"(self=<gluon.dal.SQLiteAdapter object>, *a=('CREATE TABLE empresa(\\n    id INTEGER PRIMARY KEY...CHAR(100) NOT NULL,\\n    www CHAR(200) NOT NULL\\n);',), **b={})"
p3218
sg3066
S'log_execute'
p3219
sasS'pyver'
p3220
S'Python 2.7.2: /usr/bin/python'
p3221
sS'session'
p3222
g61
(g62
g63
NtRp3223
(dp3224
g66
(dp3225
sg68
(lp3226
g61
(g70
g63
NtRp3227
(dp3228
g66
(dp3229
g74
I5
ssg75
Nsg68
(lp3230
sbasbsS'etype'
p3231
S"<class 'sqlite3.OperationalError'>"
p3232
sS'date'
p3233
S'Tue Feb  5 16:50:13 2013'
p3234
sS'response'
p3235
g61
(g62
g63
NtRp3236
(dp3237
g66
(dp3238
sg68
(lp3239
g61
(g70
g63
NtRp3240
(dp3241
g66
(dp3242
g74
I5
ssg75
Nsg68
(lp3243
g61
(g77
g63
NtRp3244
(dp3245
g66
(dp3246
sg75
g3240
sg68
(lp3247
g61
(g82
g63
NtRp3248
(dp3249
g66
(dp3250
g86
g87
ssg75
g3244
sg68
(lp3251
g159
asbag61
(g82
g63
NtRp3252
(dp3253
g66
(dp3254
g93
g94
ssg75
g3244
sg68
(lp3255
S':'
asbag61
(g82
g63
NtRp3256
(dp3257
g66
(dp3258
sg75
g3244
sg68
(lp3259
g61
(g62
g63
NtRp3260
(dp3261
g66
(dp3262
g74
I5
ssg75
g3256
sg68
(lp3263
S'<cStringIO.StringO object at 0x11435f650>'
p3264
asbasbasbag61
(g77
g63
NtRp3265
(dp3266
g66
(dp3267
sg75
g3240
sg68
(lp3268
g61
(g82
g63
NtRp3269
(dp3270
g66
(dp3271
g86
g87
ssg75
g3265
sg68
(lp3272
g247
asbag61
(g82
g63
NtRp3273
(dp3274
g66
(dp3275
g93
g94
ssg75
g3265
sg68
(lp3276
S':'
asbag61
(g82
g63
NtRp3277
(dp3278
g66
(dp3279
sg75
g3265
sg68
(lp3280
g61
(g62
g63
NtRp3281
(dp3282
g66
(dp3283
g74
I5
ssg75
g3277
sg68
(lp3284
g61
(g70
g63
NtRp3285
(dp3286
g66
(dp3287
g74
I4
ssg75
Nsg68
(lp3288
g61
(g77
g63
NtRp3289
(dp3290
g66
(dp3291
sg75
g3285
sg68
(lp3292
g61
(g82
g63
NtRp3293
(dp3294
g66
(dp3295
g86
g87
ssg75
g3289
sg68
(lp3296
S'session_id_rosan'
p3297
asbag61
(g82
g63
NtRp3298
(dp3299
g66
(dp3300
g93
g94
ssg75
g3289
sg68
(lp3301
S':'
asbag61
(g82
g63
NtRp3302
(dp3303
g66
(dp3304
sg75
g3289
sg68
(lp3305
g61
(g62
g63
NtRp3306
(dp3307
g66
(dp3308
g74
I4
ssg75
g3302
sg68
(lp3309
S'127.0.0.1-b7479d62-f318-413c-91a0-6640dbdd4cb1'
p3310
ag61
(g70
g63
NtRp3311
(dp3312
g66
(dp3313
g74
I3
ssg75
Nsg68
(lp3314
g61
(g77
g63
NtRp3315
(dp3316
g66
(dp3317
sg75
g3311
sg68
(lp3318
g61
(g82
g63
NtRp3319
(dp3320
g66
(dp3321
g86
g87
ssg75
g3315
sg68
(lp3322
g298
asbag61
(g82
g63
NtRp3323
(dp3324
g66
(dp3325
g93
g94
ssg75
g3315
sg68
(lp3326
S':'
asbag61
(g82
g63
NtRp3327
(dp3328
g66
(dp3329
sg75
g3315
sg68
(lp3330
g61
(g62
g63
NtRp3331
(dp3332
g66
(dp3333
g74
I3
ssg75
g3327
sg68
(lp3334
S''
asbasbasbag61
(g77
g63
NtRp3335
(dp3336
g66
(dp3337
sg75
g3311
sg68
(lp3338
g61
(g82
g63
NtRp3339
(dp3340
g66
(dp3341
g86
g87
ssg75
g3335
sg68
(lp3342
g319
asbag61
(g82
g63
NtRp3343
(dp3344
g66
(dp3345
g93
g94
ssg75
g3335
sg68
(lp3346
S':'
asbag61
(g82
g63
NtRp3347
(dp3348
g66
(dp3349
sg75
g3335
sg68
(lp3350
g61
(g62
g63
NtRp3351
(dp3352
g66
(dp3353
g74
I3
ssg75
g3347
sg68
(lp3354
S''
asbasbasbag61
(g77
g63
NtRp3355
(dp3356
g66
(dp3357
sg75
g3311
sg68
(lp3358
g61
(g82
g63
NtRp3359
(dp3360
g66
(dp3361
g86
g87
ssg75
g3355
sg68
(lp3362
g340
asbag61
(g82
g63
NtRp3363
(dp3364
g66
(dp3365
g93
g94
ssg75
g3355
sg68
(lp3366
S':'
asbag61
(g82
g63
NtRp3367
(dp3368
g66
(dp3369
sg75
g3355
sg68
(lp3370
g61
(g62
g63
NtRp3371
(dp3372
g66
(dp3373
g74
I3
ssg75
g3367
sg68
(lp3374
S''
asbasbasbag61
(g77
g63
NtRp3375
(dp3376
g66
(dp3377
sg75
g3311
sg68
(lp3378
g61
(g82
g63
NtRp3379
(dp3380
g66
(dp3381
g86
g87
ssg75
g3375
sg68
(lp3382
g361
asbag61
(g82
g63
NtRp3383
(dp3384
g66
(dp3385
g93
g94
ssg75
g3375
sg68
(lp3386
S':'
asbag61
(g82
g63
NtRp3387
(dp3388
g66
(dp3389
sg75
g3375
sg68
(lp3390
g61
(g62
g63
NtRp3391
(dp3392
g66
(dp3393
g74
I3
ssg75
g3387
sg68
(lp3394
S''
asbasbasbag61
(g77
g63
NtRp3395
(dp3396
g66
(dp3397
sg75
g3311
sg68
(lp3398
g61
(g82
g63
NtRp3399
(dp3400
g66
(dp3401
g86
g87
ssg75
g3395
sg68
(lp3402
g382
asbag61
(g82
g63
NtRp3403
(dp3404
g66
(dp3405
g93
g94
ssg75
g3395
sg68
(lp3406
S':'
asbag61
(g82
g63
NtRp3407
(dp3408
g66
(dp3409
sg75
g3395
sg68
(lp3410
g61
(g62
g63
NtRp3411
(dp3412
g66
(dp3413
g74
I3
ssg75
g3407
sg68
(lp3414
S''
asbasbasbag61
(g77
g63
NtRp3415
(dp3416
g66
(dp3417
sg75
g3311
sg68
(lp3418
g61
(g82
g63
NtRp3419
(dp3420
g66
(dp3421
g86
g87
ssg75
g3415
sg68
(lp3422
g403
asbag61
(g82
g63
NtRp3423
(dp3424
g66
(dp3425
g93
g94
ssg75
g3415
sg68
(lp3426
S':'
asbag61
(g82
g63
NtRp3427
(dp3428
g66
(dp3429
sg75
g3415
sg68
(lp3430
g61
(g62
g63
NtRp3431
(dp3432
g66
(dp3433
g74
I3
ssg75
g3427
sg68
(lp3434
S'/'
asbasbasbag61
(g77
g63
NtRp3435
(dp3436
g66
(dp3437
sg75
g3311
sg68
(lp3438
g61
(g82
g63
NtRp3439
(dp3440
g66
(dp3441
g86
g87
ssg75
g3435
sg68
(lp3442
g424
asbag61
(g82
g63
NtRp3443
(dp3444
g66
(dp3445
g93
g94
ssg75
g3435
sg68
(lp3446
S':'
asbag61
(g82
g63
NtRp3447
(dp3448
g66
(dp3449
sg75
g3435
sg68
(lp3450
g61
(g62
g63
NtRp3451
(dp3452
g66
(dp3453
g74
I3
ssg75
g3447
sg68
(lp3454
S''
asbasbasbag61
(g77
g63
NtRp3455
(dp3456
g66
(dp3457
sg75
g3311
sg68
(lp3458
g61
(g82
g63
NtRp3459
(dp3460
g66
(dp3461
g86
g87
ssg75
g3455
sg68
(lp3462
g445
asbag61
(g82
g63
NtRp3463
(dp3464
g66
(dp3465
g93
g94
ssg75
g3455
sg68
(lp3466
S':'
asbag61
(g82
g63
NtRp3467
(dp3468
g66
(dp3469
sg75
g3455
sg68
(lp3470
g61
(g62
g63
NtRp3471
(dp3472
g66
(dp3473
g74
I3
ssg75
g3467
sg68
(lp3474
S''
asbasbasbasbasbasbasbasbasbasbasbag61
(g77
g63
NtRp3475
(dp3476
g66
(dp3477
sg75
g3240
sg68
(lp3478
g61
(g82
g63
NtRp3479
(dp3480
g66
(dp3481
g86
g87
ssg75
g3475
sg68
(lp3482
S'delimiters'
p3483
asbag61
(g82
g63
NtRp3484
(dp3485
g66
(dp3486
g93
g94
ssg75
g3475
sg68
(lp3487
S':'
asbag61
(g82
g63
NtRp3488
(dp3489
g66
(dp3490
sg75
g3475
sg68
(lp3491
g61
(g62
g63
NtRp3492
(dp3493
g66
(dp3494
g74
I5
ssg75
g3488
sg68
(lp3495
g61
(g70
g63
NtRp3496
(dp3497
g66
(dp3498
g74
I4
ssg75
Nsg68
(lp3499
g61
(g77
g63
NtRp3500
(dp3501
g66
(dp3502
sg75
g3496
sg68
(lp3503
g61
(g82
g63
NtRp3504
(dp3505
g66
(dp3506
sg75
g3500
sg68
(lp3507
g61
(g62
g63
NtRp3508
(dp3509
g66
(dp3510
g74
I4
ssg75
g3504
sg68
(lp3511
S'{{'
p3512
asbasbasbag61
(g77
g63
NtRp3513
(dp3514
g66
(dp3515
sg75
g3496
sg68
(lp3516
g61
(g82
g63
NtRp3517
(dp3518
g66
(dp3519
sg75
g3513
sg68
(lp3520
g61
(g62
g63
NtRp3521
(dp3522
g66
(dp3523
g74
I4
ssg75
g3517
sg68
(lp3524
S'}}'
p3525
asbasbasbasbasbasbasbag61
(g77
g63
NtRp3526
(dp3527
g66
(dp3528
sg75
g3240
sg68
(lp3529
g61
(g82
g63
NtRp3530
(dp3531
g66
(dp3532
g86
g87
ssg75
g3526
sg68
(lp3533
S'files'
p3534
asbag61
(g82
g63
NtRp3535
(dp3536
g66
(dp3537
g93
g94
ssg75
g3526
sg68
(lp3538
S':'
asbag61
(g82
g63
NtRp3539
(dp3540
g66
(dp3541
sg75
g3526
sg68
(lp3542
g61
(g62
g63
NtRp3543
(dp3544
g66
(dp3545
g74
I5
ssg75
g3539
sg68
(lp3546
g61
(g70
g63
NtRp3547
(dp3548
g66
(dp3549
g74
I4
ssg75
Nsg68
(lp3550
sbasbasbasbag61
(g77
g63
NtRp3551
(dp3552
g66
(dp3553
sg75
g3240
sg68
(lp3554
g61
(g82
g63
NtRp3555
(dp3556
g66
(dp3557
g86
g87
ssg75
g3551
sg68
(lp3558
S'flash'
p3559
asbag61
(g82
g63
NtRp3560
(dp3561
g66
(dp3562
g93
g94
ssg75
g3551
sg68
(lp3563
S':'
asbag61
(g82
g63
NtRp3564
(dp3565
g66
(dp3566
sg75
g3551
sg68
(lp3567
g61
(g62
g63
NtRp3568
(dp3569
g66
(dp3570
g74
I5
ssg75
g3564
sg68
(lp3571
S''
asbasbasbag61
(g77
g63
NtRp3572
(dp3573
g66
(dp3574
sg75
g3240
sg68
(lp3575
g61
(g82
g63
NtRp3576
(dp3577
g66
(dp3578
g86
g87
ssg75
g3572
sg68
(lp3579
S'generic_patterns'
p3580
asbag61
(g82
g63
NtRp3581
(dp3582
g66
(dp3583
g93
g94
ssg75
g3572
sg68
(lp3584
S':'
asbag61
(g82
g63
NtRp3585
(dp3586
g66
(dp3587
sg75
g3572
sg68
(lp3588
g61
(g62
g63
NtRp3589
(dp3590
g66
(dp3591
g74
I5
ssg75
g3585
sg68
(lp3592
g61
(g70
g63
NtRp3593
(dp3594
g66
(dp3595
g74
I4
ssg75
Nsg68
(lp3596
g61
(g77
g63
NtRp3597
(dp3598
g66
(dp3599
sg75
g3593
sg68
(lp3600
g61
(g82
g63
NtRp3601
(dp3602
g66
(dp3603
sg75
g3597
sg68
(lp3604
g61
(g62
g63
NtRp3605
(dp3606
g66
(dp3607
g74
I4
ssg75
g3601
sg68
(lp3608
S'*'
asbasbasbasbasbasbasbag61
(g77
g63
NtRp3609
(dp3610
g66
(dp3611
sg75
g3240
sg68
(lp3612
g61
(g82
g63
NtRp3613
(dp3614
g66
(dp3615
g86
g87
ssg75
g3609
sg68
(lp3616
S'headers'
p3617
asbag61
(g82
g63
NtRp3618
(dp3619
g66
(dp3620
g93
g94
ssg75
g3609
sg68
(lp3621
S':'
asbag61
(g82
g63
NtRp3622
(dp3623
g66
(dp3624
sg75
g3609
sg68
(lp3625
g61
(g62
g63
NtRp3626
(dp3627
g66
(dp3628
g74
I5
ssg75
g3622
sg68
(lp3629
g61
(g70
g63
NtRp3630
(dp3631
g66
(dp3632
g74
I4
ssg75
Nsg68
(lp3633
g61
(g77
g63
NtRp3634
(dp3635
g66
(dp3636
sg75
g3630
sg68
(lp3637
g61
(g82
g63
NtRp3638
(dp3639
g66
(dp3640
g86
g87
ssg75
g3634
sg68
(lp3641
S'X-Powered-By'
p3642
asbag61
(g82
g63
NtRp3643
(dp3644
g66
(dp3645
g93
g94
ssg75
g3634
sg68
(lp3646
S':'
asbag61
(g82
g63
NtRp3647
(dp3648
g66
(dp3649
sg75
g3634
sg68
(lp3650
g61
(g62
g63
NtRp3651
(dp3652
g66
(dp3653
g74
I4
ssg75
g3647
sg68
(lp3654
S'web2py'
p3655
asbasbasbasbasbasbasbag61
(g77
g63
NtRp3656
(dp3657
g66
(dp3658
sg75
g3240
sg68
(lp3659
g61
(g82
g63
NtRp3660
(dp3661
g66
(dp3662
g86
g87
ssg75
g3656
sg68
(lp3663
S'menu'
p3664
asbag61
(g82
g63
NtRp3665
(dp3666
g66
(dp3667
g93
g94
ssg75
g3656
sg68
(lp3668
S':'
asbag61
(g82
g63
NtRp3669
(dp3670
g66
(dp3671
sg75
g3656
sg68
(lp3672
g61
(g62
g63
NtRp3673
(dp3674
g66
(dp3675
g74
I5
ssg75
g3669
sg68
(lp3676
g61
(g70
g63
NtRp3677
(dp3678
g66
(dp3679
g74
I4
ssg75
Nsg68
(lp3680
sbasbasbasbag61
(g77
g63
NtRp3681
(dp3682
g66
(dp3683
sg75
g3240
sg68
(lp3684
g61
(g82
g63
NtRp3685
(dp3686
g66
(dp3687
g86
g87
ssg75
g3681
sg68
(lp3688
S'meta'
p3689
asbag61
(g82
g63
NtRp3690
(dp3691
g66
(dp3692
g93
g94
ssg75
g3681
sg68
(lp3693
S':'
asbag61
(g82
g63
NtRp3694
(dp3695
g66
(dp3696
sg75
g3681
sg68
(lp3697
g61
(g62
g63
NtRp3698
(dp3699
g66
(dp3700
g74
I5
ssg75
g3694
sg68
(lp3701
g61
(g70
g63
NtRp3702
(dp3703
g66
(dp3704
g74
I4
ssg75
Nsg68
(lp3705
sbasbasbasbag61
(g77
g63
NtRp3706
(dp3707
g66
(dp3708
sg75
g3240
sg68
(lp3709
g61
(g82
g63
NtRp3710
(dp3711
g66
(dp3712
g86
g87
ssg75
g3706
sg68
(lp3713
S'models_to_run'
p3714
asbag61
(g82
g63
NtRp3715
(dp3716
g66
(dp3717
g93
g94
ssg75
g3706
sg68
(lp3718
S':'
asbag61
(g82
g63
NtRp3719
(dp3720
g66
(dp3721
sg75
g3706
sg68
(lp3722
g61
(g62
g63
NtRp3723
(dp3724
g66
(dp3725
g74
I5
ssg75
g3719
sg68
(lp3726
g61
(g70
g63
NtRp3727
(dp3728
g66
(dp3729
g74
I4
ssg75
Nsg68
(lp3730
g61
(g77
g63
NtRp3731
(dp3732
g66
(dp3733
sg75
g3727
sg68
(lp3734
g61
(g82
g63
NtRp3735
(dp3736
g66
(dp3737
sg75
g3731
sg68
(lp3738
g61
(g62
g63
NtRp3739
(dp3740
g66
(dp3741
g74
I4
ssg75
g3735
sg68
(lp3742
S'^\\w+\\.py$'
p3743
asbasbasbag61
(g77
g63
NtRp3744
(dp3745
g66
(dp3746
sg75
g3727
sg68
(lp3747
g61
(g82
g63
NtRp3748
(dp3749
g66
(dp3750
sg75
g3744
sg68
(lp3751
g61
(g62
g63
NtRp3752
(dp3753
g66
(dp3754
g74
I4
ssg75
g3748
sg68
(lp3755
S'^appadmin/\\w+\\.py$'
p3756
asbasbasbag61
(g77
g63
NtRp3757
(dp3758
g66
(dp3759
sg75
g3727
sg68
(lp3760
g61
(g82
g63
NtRp3761
(dp3762
g66
(dp3763
sg75
g3757
sg68
(lp3764
g61
(g62
g63
NtRp3765
(dp3766
g66
(dp3767
g74
I4
ssg75
g3761
sg68
(lp3768
S'^appadmin/index/\\w+\\.py$'
p3769
asbasbasbasbasbasbasbag61
(g77
g63
NtRp3770
(dp3771
g66
(dp3772
sg75
g3240
sg68
(lp3773
g61
(g82
g63
NtRp3774
(dp3775
g66
(dp3776
g86
g87
ssg75
g3770
sg68
(lp3777
S'postprocessing'
p3778
asbag61
(g82
g63
NtRp3779
(dp3780
g66
(dp3781
g93
g94
ssg75
g3770
sg68
(lp3782
S':'
asbag61
(g82
g63
NtRp3783
(dp3784
g66
(dp3785
sg75
g3770
sg68
(lp3786
g61
(g62
g63
NtRp3787
(dp3788
g66
(dp3789
g74
I5
ssg75
g3783
sg68
(lp3790
g61
(g70
g63
NtRp3791
(dp3792
g66
(dp3793
g74
I4
ssg75
Nsg68
(lp3794
sbasbasbasbag61
(g77
g63
NtRp3795
(dp3796
g66
(dp3797
sg75
g3240
sg68
(lp3798
g61
(g82
g63
NtRp3799
(dp3800
g66
(dp3801
g86
g87
ssg75
g3795
sg68
(lp3802
S'session_cookie_expires'
p3803
asbag61
(g82
g63
NtRp3804
(dp3805
g66
(dp3806
g93
g94
ssg75
g3795
sg68
(lp3807
S':'
asbag61
(g82
g63
NtRp3808
(dp3809
g66
(dp3810
sg75
g3795
sg68
(lp3811
g61
(g62
g63
NtRp3812
(dp3813
g66
(dp3814
g74
I5
ssg75
g3808
sg68
(lp3815
S'None'
p3816
asbasbasbag61
(g77
g63
NtRp3817
(dp3818
g66
(dp3819
sg75
g3240
sg68
(lp3820
g61
(g82
g63
NtRp3821
(dp3822
g66
(dp3823
g86
g87
ssg75
g3817
sg68
(lp3824
S'session_data_name'
p3825
asbag61
(g82
g63
NtRp3826
(dp3827
g66
(dp3828
g93
g94
ssg75
g3817
sg68
(lp3829
S':'
asbag61
(g82
g63
NtRp3830
(dp3831
g66
(dp3832
sg75
g3817
sg68
(lp3833
g61
(g62
g63
NtRp3834
(dp3835
g66
(dp3836
g74
I5
ssg75
g3830
sg68
(lp3837
S'session_data_rosan'
p3838
asbasbasbag61
(g77
g63
NtRp3839
(dp3840
g66
(dp3841
sg75
g3240
sg68
(lp3842
g61
(g82
g63
NtRp3843
(dp3844
g66
(dp3845
g86
g87
ssg75
g3839
sg68
(lp3846
S'session_filename'
p3847
asbag61
(g82
g63
NtRp3848
(dp3849
g66
(dp3850
g93
g94
ssg75
g3839
sg68
(lp3851
S':'
asbag61
(g82
g63
NtRp3852
(dp3853
g66
(dp3854
sg75
g3839
sg68
(lp3855
g61
(g62
g63
NtRp3856
(dp3857
g66
(dp3858
g74
I5
ssg75
g3852
sg68
(lp3859
S'/Users/Truki/Desarrollo/web2py/applications/rosan/sessions/127.0.0.1-b7479d62-f318-413c-91a0-6640dbdd4cb1'
p3860
asbasbasbag61
(g77
g63
NtRp3861
(dp3862
g66
(dp3863
sg75
g3240
sg68
(lp3864
g61
(g82
g63
NtRp3865
(dp3866
g66
(dp3867
g86
g87
ssg75
g3861
sg68
(lp3868
S'session_id'
p3869
asbag61
(g82
g63
NtRp3870
(dp3871
g66
(dp3872
g93
g94
ssg75
g3861
sg68
(lp3873
S':'
asbag61
(g82
g63
NtRp3874
(dp3875
g66
(dp3876
sg75
g3861
sg68
(lp3877
g61
(g62
g63
NtRp3878
(dp3879
g66
(dp3880
g74
I5
ssg75
g3874
sg68
(lp3881
g3310
asbasbasbag61
(g77
g63
NtRp3882
(dp3883
g66
(dp3884
sg75
g3240
sg68
(lp3885
g61
(g82
g63
NtRp3886
(dp3887
g66
(dp3888
g86
g87
ssg75
g3882
sg68
(lp3889
S'session_id_name'
p3890
asbag61
(g82
g63
NtRp3891
(dp3892
g66
(dp3893
g93
g94
ssg75
g3882
sg68
(lp3894
S':'
asbag61
(g82
g63
NtRp3895
(dp3896
g66
(dp3897
sg75
g3882
sg68
(lp3898
g61
(g62
g63
NtRp3899
(dp3900
g66
(dp3901
g74
I5
ssg75
g3895
sg68
(lp3902
g3297
asbasbasbag61
(g77
g63
NtRp3903
(dp3904
g66
(dp3905
sg75
g3240
sg68
(lp3906
g61
(g82
g63
NtRp3907
(dp3908
g66
(dp3909
g86
g87
ssg75
g3903
sg68
(lp3910
S'session_new'
p3911
asbag61
(g82
g63
NtRp3912
(dp3913
g66
(dp3914
g93
g94
ssg75
g3903
sg68
(lp3915
S':'
asbag61
(g82
g63
NtRp3916
(dp3917
g66
(dp3918
sg75
g3903
sg68
(lp3919
g61
(g62
g63
NtRp3920
(dp3921
g66
(dp3922
g74
I5
ssg75
g3916
sg68
(lp3923
g1600
asbasbasbag61
(g77
g63
NtRp3924
(dp3925
g66
(dp3926
sg75
g3240
sg68
(lp3927
g61
(g82
g63
NtRp3928
(dp3929
g66
(dp3930
g86
g87
ssg75
g3924
sg68
(lp3931
S'session_storage_type'
p3932
asbag61
(g82
g63
NtRp3933
(dp3934
g66
(dp3935
g93
g94
ssg75
g3924
sg68
(lp3936
S':'
asbag61
(g82
g63
NtRp3937
(dp3938
g66
(dp3939
sg75
g3924
sg68
(lp3940
g61
(g62
g63
NtRp3941
(dp3942
g66
(dp3943
g74
I5
ssg75
g3937
sg68
(lp3944
g3043
asbasbasbag61
(g77
g63
NtRp3945
(dp3946
g66
(dp3947
sg75
g3240
sg68
(lp3948
g61
(g82
g63
NtRp3949
(dp3950
g66
(dp3951
g86
g87
ssg75
g3945
sg68
(lp3952
S'status'
p3953
asbag61
(g82
g63
NtRp3954
(dp3955
g66
(dp3956
g93
g94
ssg75
g3945
sg68
(lp3957
S':'
asbag61
(g82
g63
NtRp3958
(dp3959
g66
(dp3960
sg75
g3945
sg68
(lp3961
g61
(g62
g63
NtRp3962
(dp3963
g66
(dp3964
g74
I5
ssg75
g3958
sg68
(lp3965
S'200'
p3966
asbasbasbag61
(g77
g63
NtRp3967
(dp3968
g66
(dp3969
sg75
g3240
sg68
(lp3970
g61
(g82
g63
NtRp3971
(dp3972
g66
(dp3973
g86
g87
ssg75
g3967
sg68
(lp3974
S'view'
p3975
asbag61
(g82
g63
NtRp3976
(dp3977
g66
(dp3978
g93
g94
ssg75
g3967
sg68
(lp3979
S':'
asbag61
(g82
g63
NtRp3980
(dp3981
g66
(dp3982
sg75
g3967
sg68
(lp3983
g61
(g62
g63
NtRp3984
(dp3985
g66
(dp3986
g74
I5
ssg75
g3980
sg68
(lp3987
S'appadmin/index.html'
p3988
asbasbasbasbasbsS'locals'
p3989
(dp3990
S'a'
S"('CREATE TABLE empresa(\\n    id INTEGER PRIMARY KEY...CHAR(100) NOT NULL,\\n    www CHAR(200) NOT NULL\\n);',)"
p3991
sS'self'
p3992
S'<gluon.dal.SQLiteAdapter object>'
p3993
sS'b'
g21
sS'command'
p3994
S"'CREATE TABLE empresa(\\n    id INTEGER PRIMARY KEY...CHAR(100) NOT NULL,\\n    www CHAR(200) NOT NULL\\n);'"
p3995
sS't0'
p3996
S'1360079413.814215'
p3997
sssS'traceback'
p3998
S'Traceback (most recent call last):\n  File "/Users/Truki/Desarrollo/web2py/gluon/restricted.py", line 212, in restricted\n    exec ccode in environment\n  File "/Users/Truki/Desarrollo/web2py/applications/rosan/models/db_rosan.py", line 24, in <module>\n    SQLField("www", "string", length=200, notnull=True, default=None)\n  File "/Users/Truki/Desarrollo/web2py/gluon/dal.py", line 7186, in define_table\n    table = self.lazy_define_table(tablename,*fields,**args)\n  File "/Users/Truki/Desarrollo/web2py/gluon/dal.py", line 7222, in lazy_define_table\n    polymodel=polymodel)\n  File "/Users/Truki/Desarrollo/web2py/gluon/dal.py", line 935, in create_table\n    self.create_sequence_and_triggers(query,table)\n  File "/Users/Truki/Desarrollo/web2py/gluon/dal.py", line 1694, in create_sequence_and_triggers\n    self.execute(query)\n  File "/Users/Truki/Desarrollo/web2py/gluon/dal.py", line 1709, in execute\n    return self.log_execute(*a, **b)\n  File "/Users/Truki/Desarrollo/web2py/gluon/dal.py", line 1703, in log_execute\n    ret = self.cursor.execute(*a, **b)\nOperationalError: table empresa already exists\n'
p3999
s.