(dp1
S'output'
p2
S"<type 'exceptions.AttributeError'> 'Row' object has no attribute 'select'"
p3
sS'layer'
p4
S'/Users/Truki/web2py/applications/rosan/controllers/clientes.py'
p5
sS'code'
p6
S"# -*- coding: utf-8 -*-\n### required - do no delete\ndef user(): return dict(form=auth())\ndef download(): return response.download(request,db)\ndef call(): return service()\n### end requires\ndef index():\n    clientes = dbRosan().select(dbRosan.cliente.ALL, orderby=dbRosan.cliente.nombre)\n    return dict(clientes=clientes)\n\n\ndef eliminar():\n    id = request.args[0]\n    clienteEliminado = dbRosan.cliente(id).select(dbRosan.cliente.ALL)\n    nombre = clienteEliminado.nombre\n    dbRosan(dbRosan.cliente.id==id).delete\n    return dict(id=id, nombre=nombre)\n\n    \n\ndef clientes():\n    form = SQLFORM(dbRosan.cliente)\n    if form.process().accepted:\n        response.flash = 'cliente insertado'\n    return dict(form=form)  \n  \nresponse._vars=response._caller(eliminar)\n"
p7
sS'snapshot'
p8
(dp9
S'exception'
p10
(dp11
S'__hash__'
p12
S"<method-wrapper '__hash__' of exceptions.AttributeError object>"
p13
sS'__setattr__'
p14
S"<method-wrapper '__setattr__' of exceptions.AttributeError object>"
p15
sS'__reduce_ex__'
p16
S'<built-in method __reduce_ex__ of exceptions.AttributeError object>'
p17
sS'__getslice__'
p18
S"<method-wrapper '__getslice__' of exceptions.AttributeError object>"
p19
sS'__getitem__'
p20
S"<method-wrapper '__getitem__' of exceptions.AttributeError object>"
p21
sS'__setstate__'
p22
S'<built-in method __setstate__ of exceptions.AttributeError object>'
p23
sS'__reduce__'
p24
S'<built-in method __reduce__ of exceptions.AttributeError object>'
p25
sS'__str__'
p26
S"<method-wrapper '__str__' of exceptions.AttributeError object>"
p27
sS'__format__'
p28
S'<built-in method __format__ of exceptions.AttributeError object>'
p29
sS'__getattribute__'
p30
S"<method-wrapper '__getattribute__' of exceptions.AttributeError object>"
p31
sS'__class__'
p32
S"<type 'exceptions.AttributeError'>"
p33
sS'__unicode__'
p34
S'<built-in method __unicode__ of exceptions.AttributeError object>'
p35
sS'__delattr__'
p36
S"<method-wrapper '__delattr__' of exceptions.AttributeError object>"
p37
sS'__subclasshook__'
p38
S'<built-in method __subclasshook__ of type object>'
p39
sS'__repr__'
p40
S"<method-wrapper '__repr__' of exceptions.AttributeError object>"
p41
sS'args'
p42
S'("\'Row\' object has no attribute \'select\'",)'
p43
sS'__dict__'
p44
S'{}'
p45
sS'__sizeof__'
p46
S'<built-in method __sizeof__ of exceptions.AttributeError object>'
p47
sS'__doc__'
p48
S"'Attribute not found.'"
p49
sS'__init__'
p50
S"<method-wrapper '__init__' of exceptions.AttributeError object>"
p51
sS'__new__'
p52
S'<built-in method __new__ of type object>'
p53
ssS'evalue'
p54
S"'Row' object has no attribute 'select'"
p55
sS'request'
p56
ccopy_reg
_reconstructor
p57
(cgluon.html
BEAUTIFY
p58
c__builtin__
object
p59
NtRp60
(dp61
S'attributes'
p62
(dp63
sS'components'
p64
(lp65
g57
(cgluon.html
TABLE
p66
g59
NtRp67
(dp68
g62
(dp69
S'level'
p70
I5
ssS'parent'
p71
Nsg64
(lp72
g57
(cgluon.html
TR
p73
g59
NtRp74
(dp75
g62
(dp76
sg71
g67
sg64
(lp77
g57
(cgluon.html
TD
p78
g59
NtRp79
(dp80
g62
(dp81
S'_style'
p82
S'font-weight:bold;vertical-align:top'
p83
ssg71
g74
sg64
(lp84
S'ajax'
p85
asbag57
(g78
g59
NtRp86
(dp87
g62
(dp88
S'_valign'
p89
S'top'
p90
ssg71
g74
sg64
(lp91
S':'
asbag57
(g78
g59
NtRp92
(dp93
g62
(dp94
sg71
g74
sg64
(lp95
g57
(g58
g59
NtRp96
(dp97
g62
(dp98
g70
I5
ssg71
g92
sg64
(lp99
S'False'
p100
asbasbasbag57
(g73
g59
NtRp101
(dp102
g62
(dp103
sg71
g67
sg64
(lp104
g57
(g78
g59
NtRp105
(dp106
g62
(dp107
g82
g83
ssg71
g101
sg64
(lp108
S'application'
p109
asbag57
(g78
g59
NtRp110
(dp111
g62
(dp112
g89
g90
ssg71
g101
sg64
(lp113
S':'
asbag57
(g78
g59
NtRp114
(dp115
g62
(dp116
sg71
g101
sg64
(lp117
g57
(g58
g59
NtRp118
(dp119
g62
(dp120
g70
I5
ssg71
g114
sg64
(lp121
S'rosan'
p122
asbasbasbag57
(g73
g59
NtRp123
(dp124
g62
(dp125
sg71
g67
sg64
(lp126
g57
(g78
g59
NtRp127
(dp128
g62
(dp129
g82
g83
ssg71
g123
sg64
(lp130
g42
asbag57
(g78
g59
NtRp131
(dp132
g62
(dp133
g89
g90
ssg71
g123
sg64
(lp134
S':'
asbag57
(g78
g59
NtRp135
(dp136
g62
(dp137
sg71
g123
sg64
(lp138
g57
(g58
g59
NtRp139
(dp140
g62
(dp141
g70
I5
ssg71
g135
sg64
(lp142
g57
(g66
g59
NtRp143
(dp144
g62
(dp145
g70
I4
ssg71
Nsg64
(lp146
g57
(g73
g59
NtRp147
(dp148
g62
(dp149
sg71
g143
sg64
(lp150
g57
(g78
g59
NtRp151
(dp152
g62
(dp153
sg71
g147
sg64
(lp154
g57
(g58
g59
NtRp155
(dp156
g62
(dp157
g70
I4
ssg71
g151
sg64
(lp158
S'3'
asbasbasbasbasbasbasbag57
(g73
g59
NtRp159
(dp160
g62
(dp161
sg71
g67
sg64
(lp162
g57
(g78
g59
NtRp163
(dp164
g62
(dp165
g82
g83
ssg71
g159
sg64
(lp166
S'body'
p167
asbag57
(g78
g59
NtRp168
(dp169
g62
(dp170
g89
g90
ssg71
g159
sg64
(lp171
S':'
asbag57
(g78
g59
NtRp172
(dp173
g62
(dp174
sg71
g159
sg64
(lp175
g57
(g58
g59
NtRp176
(dp177
g62
(dp178
g70
I5
ssg71
g172
sg64
(lp179
S'<cStringIO.StringO object at 0x182b0540>'
p180
asbasbasbag57
(g73
g59
NtRp181
(dp182
g62
(dp183
sg71
g67
sg64
(lp184
g57
(g78
g59
NtRp185
(dp186
g62
(dp187
g82
g83
ssg71
g181
sg64
(lp188
S'cid'
p189
asbag57
(g78
g59
NtRp190
(dp191
g62
(dp192
g89
g90
ssg71
g181
sg64
(lp193
S':'
asbag57
(g78
g59
NtRp194
(dp195
g62
(dp196
sg71
g181
sg64
(lp197
g57
(g58
g59
NtRp198
(dp199
g62
(dp200
g70
I5
ssg71
g194
sg64
(lp201
S'None'
p202
asbasbasbag57
(g73
g59
NtRp203
(dp204
g62
(dp205
sg71
g67
sg64
(lp206
g57
(g78
g59
NtRp207
(dp208
g62
(dp209
g82
g83
ssg71
g203
sg64
(lp210
S'client'
p211
asbag57
(g78
g59
NtRp212
(dp213
g62
(dp214
g89
g90
ssg71
g203
sg64
(lp215
S':'
asbag57
(g78
g59
NtRp216
(dp217
g62
(dp218
sg71
g203
sg64
(lp219
g57
(g58
g59
NtRp220
(dp221
g62
(dp222
g70
I5
ssg71
g216
sg64
(lp223
S'127.0.0.1'
p224
asbasbasbag57
(g73
g59
NtRp225
(dp226
g62
(dp227
sg71
g67
sg64
(lp228
g57
(g78
g59
NtRp229
(dp230
g62
(dp231
g82
g83
ssg71
g225
sg64
(lp232
S'controller'
p233
asbag57
(g78
g59
NtRp234
(dp235
g62
(dp236
g89
g90
ssg71
g225
sg64
(lp237
S':'
asbag57
(g78
g59
NtRp238
(dp239
g62
(dp240
sg71
g225
sg64
(lp241
g57
(g58
g59
NtRp242
(dp243
g62
(dp244
g70
I5
ssg71
g238
sg64
(lp245
S'clientes'
p246
asbasbasbag57
(g73
g59
NtRp247
(dp248
g62
(dp249
sg71
g67
sg64
(lp250
g57
(g78
g59
NtRp251
(dp252
g62
(dp253
g82
g83
ssg71
g247
sg64
(lp254
S'cookies'
p255
asbag57
(g78
g59
NtRp256
(dp257
g62
(dp258
g89
g90
ssg71
g247
sg64
(lp259
S':'
asbag57
(g78
g59
NtRp260
(dp261
g62
(dp262
sg71
g247
sg64
(lp263
g57
(g58
g59
NtRp264
(dp265
g62
(dp266
g70
I5
ssg71
g260
sg64
(lp267
g57
(g66
g59
NtRp268
(dp269
g62
(dp270
g70
I4
ssg71
Nsg64
(lp271
g57
(g73
g59
NtRp272
(dp273
g62
(dp274
sg71
g268
sg64
(lp275
g57
(g78
g59
NtRp276
(dp277
g62
(dp278
g82
g83
ssg71
g272
sg64
(lp279
S'session_id_admin'
p280
asbag57
(g78
g59
NtRp281
(dp282
g62
(dp283
g89
g90
ssg71
g272
sg64
(lp284
S':'
asbag57
(g78
g59
NtRp285
(dp286
g62
(dp287
sg71
g272
sg64
(lp288
g57
(g58
g59
NtRp289
(dp290
g62
(dp291
g70
I4
ssg71
g285
sg64
(lp292
S'127.0.0.1-6e934a6a-b7eb-4d02-8ce3-00c38085d6eb'
p293
ag57
(g66
g59
NtRp294
(dp295
g62
(dp296
g70
I3
ssg71
Nsg64
(lp297
g57
(g73
g59
NtRp298
(dp299
g62
(dp300
sg71
g294
sg64
(lp301
g57
(g78
g59
NtRp302
(dp303
g62
(dp304
g82
g83
ssg71
g298
sg64
(lp305
S'comment'
p306
asbag57
(g78
g59
NtRp307
(dp308
g62
(dp309
g89
g90
ssg71
g298
sg64
(lp310
S':'
asbag57
(g78
g59
NtRp311
(dp312
g62
(dp313
sg71
g298
sg64
(lp314
g57
(g58
g59
NtRp315
(dp316
g62
(dp317
g70
I3
ssg71
g311
sg64
(lp318
S''
asbasbasbag57
(g73
g59
NtRp319
(dp320
g62
(dp321
sg71
g294
sg64
(lp322
g57
(g78
g59
NtRp323
(dp324
g62
(dp325
g82
g83
ssg71
g319
sg64
(lp326
S'domain'
p327
asbag57
(g78
g59
NtRp328
(dp329
g62
(dp330
g89
g90
ssg71
g319
sg64
(lp331
S':'
asbag57
(g78
g59
NtRp332
(dp333
g62
(dp334
sg71
g319
sg64
(lp335
g57
(g58
g59
NtRp336
(dp337
g62
(dp338
g70
I3
ssg71
g332
sg64
(lp339
S''
asbasbasbag57
(g73
g59
NtRp340
(dp341
g62
(dp342
sg71
g294
sg64
(lp343
g57
(g78
g59
NtRp344
(dp345
g62
(dp346
g82
g83
ssg71
g340
sg64
(lp347
S'expires'
p348
asbag57
(g78
g59
NtRp349
(dp350
g62
(dp351
g89
g90
ssg71
g340
sg64
(lp352
S':'
asbag57
(g78
g59
NtRp353
(dp354
g62
(dp355
sg71
g340
sg64
(lp356
g57
(g58
g59
NtRp357
(dp358
g62
(dp359
g70
I3
ssg71
g353
sg64
(lp360
S''
asbasbasbag57
(g73
g59
NtRp361
(dp362
g62
(dp363
sg71
g294
sg64
(lp364
g57
(g78
g59
NtRp365
(dp366
g62
(dp367
g82
g83
ssg71
g361
sg64
(lp368
S'httponly'
p369
asbag57
(g78
g59
NtRp370
(dp371
g62
(dp372
g89
g90
ssg71
g361
sg64
(lp373
S':'
asbag57
(g78
g59
NtRp374
(dp375
g62
(dp376
sg71
g361
sg64
(lp377
g57
(g58
g59
NtRp378
(dp379
g62
(dp380
g70
I3
ssg71
g374
sg64
(lp381
S''
asbasbasbag57
(g73
g59
NtRp382
(dp383
g62
(dp384
sg71
g294
sg64
(lp385
g57
(g78
g59
NtRp386
(dp387
g62
(dp388
g82
g83
ssg71
g382
sg64
(lp389
S'max-age'
p390
asbag57
(g78
g59
NtRp391
(dp392
g62
(dp393
g89
g90
ssg71
g382
sg64
(lp394
S':'
asbag57
(g78
g59
NtRp395
(dp396
g62
(dp397
sg71
g382
sg64
(lp398
g57
(g58
g59
NtRp399
(dp400
g62
(dp401
g70
I3
ssg71
g395
sg64
(lp402
S''
asbasbasbag57
(g73
g59
NtRp403
(dp404
g62
(dp405
sg71
g294
sg64
(lp406
g57
(g78
g59
NtRp407
(dp408
g62
(dp409
g82
g83
ssg71
g403
sg64
(lp410
S'path'
p411
asbag57
(g78
g59
NtRp412
(dp413
g62
(dp414
g89
g90
ssg71
g403
sg64
(lp415
S':'
asbag57
(g78
g59
NtRp416
(dp417
g62
(dp418
sg71
g403
sg64
(lp419
g57
(g58
g59
NtRp420
(dp421
g62
(dp422
g70
I3
ssg71
g416
sg64
(lp423
S''
asbasbasbag57
(g73
g59
NtRp424
(dp425
g62
(dp426
sg71
g294
sg64
(lp427
g57
(g78
g59
NtRp428
(dp429
g62
(dp430
g82
g83
ssg71
g424
sg64
(lp431
S'secure'
p432
asbag57
(g78
g59
NtRp433
(dp434
g62
(dp435
g89
g90
ssg71
g424
sg64
(lp436
S':'
asbag57
(g78
g59
NtRp437
(dp438
g62
(dp439
sg71
g424
sg64
(lp440
g57
(g58
g59
NtRp441
(dp442
g62
(dp443
g70
I3
ssg71
g437
sg64
(lp444
S''
asbasbasbag57
(g73
g59
NtRp445
(dp446
g62
(dp447
sg71
g294
sg64
(lp448
g57
(g78
g59
NtRp449
(dp450
g62
(dp451
g82
g83
ssg71
g445
sg64
(lp452
S'version'
p453
asbag57
(g78
g59
NtRp454
(dp455
g62
(dp456
g89
g90
ssg71
g445
sg64
(lp457
S':'
asbag57
(g78
g59
NtRp458
(dp459
g62
(dp460
sg71
g445
sg64
(lp461
g57
(g58
g59
NtRp462
(dp463
g62
(dp464
g70
I3
ssg71
g458
sg64
(lp465
S''
asbasbasbasbasbasbasbag57
(g73
g59
NtRp466
(dp467
g62
(dp468
sg71
g268
sg64
(lp469
g57
(g78
g59
NtRp470
(dp471
g62
(dp472
g82
g83
ssg71
g466
sg64
(lp473
S'session_id_rosan'
p474
asbag57
(g78
g59
NtRp475
(dp476
g62
(dp477
g89
g90
ssg71
g466
sg64
(lp478
S':'
asbag57
(g78
g59
NtRp479
(dp480
g62
(dp481
sg71
g466
sg64
(lp482
g57
(g58
g59
NtRp483
(dp484
g62
(dp485
g70
I4
ssg71
g479
sg64
(lp486
S'127.0.0.1-7f26bdf4-3ca9-4fdc-87e8-ce55bec35287'
p487
ag57
(g66
g59
NtRp488
(dp489
g62
(dp490
g70
I3
ssg71
Nsg64
(lp491
g57
(g73
g59
NtRp492
(dp493
g62
(dp494
sg71
g488
sg64
(lp495
g57
(g78
g59
NtRp496
(dp497
g62
(dp498
g82
g83
ssg71
g492
sg64
(lp499
g306
asbag57
(g78
g59
NtRp500
(dp501
g62
(dp502
g89
g90
ssg71
g492
sg64
(lp503
S':'
asbag57
(g78
g59
NtRp504
(dp505
g62
(dp506
sg71
g492
sg64
(lp507
g57
(g58
g59
NtRp508
(dp509
g62
(dp510
g70
I3
ssg71
g504
sg64
(lp511
S''
asbasbasbag57
(g73
g59
NtRp512
(dp513
g62
(dp514
sg71
g488
sg64
(lp515
g57
(g78
g59
NtRp516
(dp517
g62
(dp518
g82
g83
ssg71
g512
sg64
(lp519
g327
asbag57
(g78
g59
NtRp520
(dp521
g62
(dp522
g89
g90
ssg71
g512
sg64
(lp523
S':'
asbag57
(g78
g59
NtRp524
(dp525
g62
(dp526
sg71
g512
sg64
(lp527
g57
(g58
g59
NtRp528
(dp529
g62
(dp530
g70
I3
ssg71
g524
sg64
(lp531
S''
asbasbasbag57
(g73
g59
NtRp532
(dp533
g62
(dp534
sg71
g488
sg64
(lp535
g57
(g78
g59
NtRp536
(dp537
g62
(dp538
g82
g83
ssg71
g532
sg64
(lp539
g348
asbag57
(g78
g59
NtRp540
(dp541
g62
(dp542
g89
g90
ssg71
g532
sg64
(lp543
S':'
asbag57
(g78
g59
NtRp544
(dp545
g62
(dp546
sg71
g532
sg64
(lp547
g57
(g58
g59
NtRp548
(dp549
g62
(dp550
g70
I3
ssg71
g544
sg64
(lp551
S''
asbasbasbag57
(g73
g59
NtRp552
(dp553
g62
(dp554
sg71
g488
sg64
(lp555
g57
(g78
g59
NtRp556
(dp557
g62
(dp558
g82
g83
ssg71
g552
sg64
(lp559
g369
asbag57
(g78
g59
NtRp560
(dp561
g62
(dp562
g89
g90
ssg71
g552
sg64
(lp563
S':'
asbag57
(g78
g59
NtRp564
(dp565
g62
(dp566
sg71
g552
sg64
(lp567
g57
(g58
g59
NtRp568
(dp569
g62
(dp570
g70
I3
ssg71
g564
sg64
(lp571
S''
asbasbasbag57
(g73
g59
NtRp572
(dp573
g62
(dp574
sg71
g488
sg64
(lp575
g57
(g78
g59
NtRp576
(dp577
g62
(dp578
g82
g83
ssg71
g572
sg64
(lp579
g390
asbag57
(g78
g59
NtRp580
(dp581
g62
(dp582
g89
g90
ssg71
g572
sg64
(lp583
S':'
asbag57
(g78
g59
NtRp584
(dp585
g62
(dp586
sg71
g572
sg64
(lp587
g57
(g58
g59
NtRp588
(dp589
g62
(dp590
g70
I3
ssg71
g584
sg64
(lp591
S''
asbasbasbag57
(g73
g59
NtRp592
(dp593
g62
(dp594
sg71
g488
sg64
(lp595
g57
(g78
g59
NtRp596
(dp597
g62
(dp598
g82
g83
ssg71
g592
sg64
(lp599
g411
asbag57
(g78
g59
NtRp600
(dp601
g62
(dp602
g89
g90
ssg71
g592
sg64
(lp603
S':'
asbag57
(g78
g59
NtRp604
(dp605
g62
(dp606
sg71
g592
sg64
(lp607
g57
(g58
g59
NtRp608
(dp609
g62
(dp610
g70
I3
ssg71
g604
sg64
(lp611
S''
asbasbasbag57
(g73
g59
NtRp612
(dp613
g62
(dp614
sg71
g488
sg64
(lp615
g57
(g78
g59
NtRp616
(dp617
g62
(dp618
g82
g83
ssg71
g612
sg64
(lp619
g432
asbag57
(g78
g59
NtRp620
(dp621
g62
(dp622
g89
g90
ssg71
g612
sg64
(lp623
S':'
asbag57
(g78
g59
NtRp624
(dp625
g62
(dp626
sg71
g612
sg64
(lp627
g57
(g58
g59
NtRp628
(dp629
g62
(dp630
g70
I3
ssg71
g624
sg64
(lp631
S''
asbasbasbag57
(g73
g59
NtRp632
(dp633
g62
(dp634
sg71
g488
sg64
(lp635
g57
(g78
g59
NtRp636
(dp637
g62
(dp638
g82
g83
ssg71
g632
sg64
(lp639
g453
asbag57
(g78
g59
NtRp640
(dp641
g62
(dp642
g89
g90
ssg71
g632
sg64
(lp643
S':'
asbag57
(g78
g59
NtRp644
(dp645
g62
(dp646
sg71
g632
sg64
(lp647
g57
(g58
g59
NtRp648
(dp649
g62
(dp650
g70
I3
ssg71
g644
sg64
(lp651
S''
asbasbasbasbasbasbasbag57
(g73
g59
NtRp652
(dp653
g62
(dp654
sg71
g268
sg64
(lp655
g57
(g78
g59
NtRp656
(dp657
g62
(dp658
g82
g83
ssg71
g652
sg64
(lp659
S'session_id_welcome'
p660
asbag57
(g78
g59
NtRp661
(dp662
g62
(dp663
g89
g90
ssg71
g652
sg64
(lp664
S':'
asbag57
(g78
g59
NtRp665
(dp666
g62
(dp667
sg71
g652
sg64
(lp668
g57
(g58
g59
NtRp669
(dp670
g62
(dp671
g70
I4
ssg71
g665
sg64
(lp672
S'127.0.0.1-8f90e8a3-eddc-453c-854f-2f5c6c04811a'
p673
ag57
(g66
g59
NtRp674
(dp675
g62
(dp676
g70
I3
ssg71
Nsg64
(lp677
g57
(g73
g59
NtRp678
(dp679
g62
(dp680
sg71
g674
sg64
(lp681
g57
(g78
g59
NtRp682
(dp683
g62
(dp684
g82
g83
ssg71
g678
sg64
(lp685
g306
asbag57
(g78
g59
NtRp686
(dp687
g62
(dp688
g89
g90
ssg71
g678
sg64
(lp689
S':'
asbag57
(g78
g59
NtRp690
(dp691
g62
(dp692
sg71
g678
sg64
(lp693
g57
(g58
g59
NtRp694
(dp695
g62
(dp696
g70
I3
ssg71
g690
sg64
(lp697
S''
asbasbasbag57
(g73
g59
NtRp698
(dp699
g62
(dp700
sg71
g674
sg64
(lp701
g57
(g78
g59
NtRp702
(dp703
g62
(dp704
g82
g83
ssg71
g698
sg64
(lp705
g327
asbag57
(g78
g59
NtRp706
(dp707
g62
(dp708
g89
g90
ssg71
g698
sg64
(lp709
S':'
asbag57
(g78
g59
NtRp710
(dp711
g62
(dp712
sg71
g698
sg64
(lp713
g57
(g58
g59
NtRp714
(dp715
g62
(dp716
g70
I3
ssg71
g710
sg64
(lp717
S''
asbasbasbag57
(g73
g59
NtRp718
(dp719
g62
(dp720
sg71
g674
sg64
(lp721
g57
(g78
g59
NtRp722
(dp723
g62
(dp724
g82
g83
ssg71
g718
sg64
(lp725
g348
asbag57
(g78
g59
NtRp726
(dp727
g62
(dp728
g89
g90
ssg71
g718
sg64
(lp729
S':'
asbag57
(g78
g59
NtRp730
(dp731
g62
(dp732
sg71
g718
sg64
(lp733
g57
(g58
g59
NtRp734
(dp735
g62
(dp736
g70
I3
ssg71
g730
sg64
(lp737
S''
asbasbasbag57
(g73
g59
NtRp738
(dp739
g62
(dp740
sg71
g674
sg64
(lp741
g57
(g78
g59
NtRp742
(dp743
g62
(dp744
g82
g83
ssg71
g738
sg64
(lp745
g369
asbag57
(g78
g59
NtRp746
(dp747
g62
(dp748
g89
g90
ssg71
g738
sg64
(lp749
S':'
asbag57
(g78
g59
NtRp750
(dp751
g62
(dp752
sg71
g738
sg64
(lp753
g57
(g58
g59
NtRp754
(dp755
g62
(dp756
g70
I3
ssg71
g750
sg64
(lp757
S''
asbasbasbag57
(g73
g59
NtRp758
(dp759
g62
(dp760
sg71
g674
sg64
(lp761
g57
(g78
g59
NtRp762
(dp763
g62
(dp764
g82
g83
ssg71
g758
sg64
(lp765
g390
asbag57
(g78
g59
NtRp766
(dp767
g62
(dp768
g89
g90
ssg71
g758
sg64
(lp769
S':'
asbag57
(g78
g59
NtRp770
(dp771
g62
(dp772
sg71
g758
sg64
(lp773
g57
(g58
g59
NtRp774
(dp775
g62
(dp776
g70
I3
ssg71
g770
sg64
(lp777
S''
asbasbasbag57
(g73
g59
NtRp778
(dp779
g62
(dp780
sg71
g674
sg64
(lp781
g57
(g78
g59
NtRp782
(dp783
g62
(dp784
g82
g83
ssg71
g778
sg64
(lp785
g411
asbag57
(g78
g59
NtRp786
(dp787
g62
(dp788
g89
g90
ssg71
g778
sg64
(lp789
S':'
asbag57
(g78
g59
NtRp790
(dp791
g62
(dp792
sg71
g778
sg64
(lp793
g57
(g58
g59
NtRp794
(dp795
g62
(dp796
g70
I3
ssg71
g790
sg64
(lp797
S''
asbasbasbag57
(g73
g59
NtRp798
(dp799
g62
(dp800
sg71
g674
sg64
(lp801
g57
(g78
g59
NtRp802
(dp803
g62
(dp804
g82
g83
ssg71
g798
sg64
(lp805
g432
asbag57
(g78
g59
NtRp806
(dp807
g62
(dp808
g89
g90
ssg71
g798
sg64
(lp809
S':'
asbag57
(g78
g59
NtRp810
(dp811
g62
(dp812
sg71
g798
sg64
(lp813
g57
(g58
g59
NtRp814
(dp815
g62
(dp816
g70
I3
ssg71
g810
sg64
(lp817
S''
asbasbasbag57
(g73
g59
NtRp818
(dp819
g62
(dp820
sg71
g674
sg64
(lp821
g57
(g78
g59
NtRp822
(dp823
g62
(dp824
g82
g83
ssg71
g818
sg64
(lp825
g453
asbag57
(g78
g59
NtRp826
(dp827
g62
(dp828
g89
g90
ssg71
g818
sg64
(lp829
S':'
asbag57
(g78
g59
NtRp830
(dp831
g62
(dp832
sg71
g818
sg64
(lp833
g57
(g58
g59
NtRp834
(dp835
g62
(dp836
g70
I3
ssg71
g830
sg64
(lp837
S''
asbasbasbasbasbasbasbasbasbasbasbag57
(g73
g59
NtRp838
(dp839
g62
(dp840
sg71
g67
sg64
(lp841
g57
(g78
g59
NtRp842
(dp843
g62
(dp844
g82
g83
ssg71
g838
sg64
(lp845
S'env'
p846
asbag57
(g78
g59
NtRp847
(dp848
g62
(dp849
g89
g90
ssg71
g838
sg64
(lp850
S':'
asbag57
(g78
g59
NtRp851
(dp852
g62
(dp853
sg71
g838
sg64
(lp854
g57
(g58
g59
NtRp855
(dp856
g62
(dp857
g70
I5
ssg71
g851
sg64
(lp858
g57
(g66
g59
NtRp859
(dp860
g62
(dp861
g70
I4
ssg71
Nsg64
(lp862
g57
(g73
g59
NtRp863
(dp864
g62
(dp865
sg71
g859
sg64
(lp866
g57
(g78
g59
NtRp867
(dp868
g62
(dp869
g82
g83
ssg71
g863
sg64
(lp870
S'app_folders'
p871
asbag57
(g78
g59
NtRp872
(dp873
g62
(dp874
g89
g90
ssg71
g863
sg64
(lp875
S':'
asbag57
(g78
g59
NtRp876
(dp877
g62
(dp878
sg71
g863
sg64
(lp879
g57
(g58
g59
NtRp880
(dp881
g62
(dp882
g70
I4
ssg71
g876
sg64
(lp883
S"set(['/Users/Truki/web2py/applications/welcome/', '/Users/Truki/web2py/applications/admin/', '/Users/Truki/web2py/applications/rosan/'])"
p884
asbasbasbag57
(g73
g59
NtRp885
(dp886
g62
(dp887
sg71
g859
sg64
(lp888
g57
(g78
g59
NtRp889
(dp890
g62
(dp891
g82
g83
ssg71
g885
sg64
(lp892
S'applications_parent'
p893
asbag57
(g78
g59
NtRp894
(dp895
g62
(dp896
g89
g90
ssg71
g885
sg64
(lp897
S':'
asbag57
(g78
g59
NtRp898
(dp899
g62
(dp900
sg71
g885
sg64
(lp901
g57
(g58
g59
NtRp902
(dp903
g62
(dp904
g70
I4
ssg71
g898
sg64
(lp905
S'/Users/Truki/web2py'
p906
asbasbasbag57
(g73
g59
NtRp907
(dp908
g62
(dp909
sg71
g859
sg64
(lp910
g57
(g78
g59
NtRp911
(dp912
g62
(dp913
g82
g83
ssg71
g907
sg64
(lp914
S'cmd_args'
p915
asbag57
(g78
g59
NtRp916
(dp917
g62
(dp918
g89
g90
ssg71
g907
sg64
(lp919
S':'
asbag57
(g78
g59
NtRp920
(dp921
g62
(dp922
sg71
g907
sg64
(lp923
g57
(g58
g59
NtRp924
(dp925
g62
(dp926
g70
I4
ssg71
g920
sg64
(lp927
g57
(g66
g59
NtRp928
(dp929
g62
(dp930
g70
I3
ssg71
Nsg64
(lp931
sbasbasbasbag57
(g73
g59
NtRp932
(dp933
g62
(dp934
sg71
g859
sg64
(lp935
g57
(g78
g59
NtRp936
(dp937
g62
(dp938
g82
g83
ssg71
g932
sg64
(lp939
S'cmd_options'
p940
asbag57
(g78
g59
NtRp941
(dp942
g62
(dp943
g89
g90
ssg71
g932
sg64
(lp944
S':'
asbag57
(g78
g59
NtRp945
(dp946
g62
(dp947
sg71
g932
sg64
(lp948
g57
(g58
g59
NtRp949
(dp950
g62
(dp951
g70
I4
ssg71
g945
sg64
(lp952
S"<Values at 0x19b2418: {'verbose': False, 'ip': '127.0.0.1', 'with_scheduler': False, 'ips': ['192.168.1.33'], 'shutdown_timeout': 5, 'taskbar': False, 'port': 8000, 'maxthreads': None, 'softcron': False, 'server_name': 'MBT.local', 'bpython': False, 'nogui': False, 'pid_filename': 'httpserver.pid', 'extcron': False, 'runcron': False, 'run_system_tests': False, 'test': None, 'folder': '/Users/Truki/web2py', 'config': '', 'import_models': False, 'winservice': '', 'shell': None, 'run': '', 'log_filename': 'httpserver.log', 'debuglevel': 30, 'args': [''], 'socket_timeout': 5, 'ssl_ca_certificate': None, 'scheduler': None, 'profiler_filename': None, 'ssl_private_key': '', 'scheduler_groups': None, 'password': '<ask>', 'request_queue_size': 5, 'ssl_certificate': '', 'cronjob': False, 'numthreads': None, 'quiet': False, 'interfaces': None, 'minthreads': None, 'timeout': 10, 'plain': False, 'nobanner': False}>"
p953
asbasbasbag57
(g73
g59
NtRp954
(dp955
g62
(dp956
sg71
g859
sg64
(lp957
g57
(g78
g59
NtRp958
(dp959
g62
(dp960
g82
g83
ssg71
g954
sg64
(lp961
S'db_sessions'
p962
asbag57
(g78
g59
NtRp963
(dp964
g62
(dp965
g89
g90
ssg71
g954
sg64
(lp966
S':'
asbag57
(g78
g59
NtRp967
(dp968
g62
(dp969
sg71
g954
sg64
(lp970
g57
(g58
g59
NtRp971
(dp972
g62
(dp973
g70
I4
ssg71
g967
sg64
(lp974
S'set([])'
p975
asbasbasbag57
(g73
g59
NtRp976
(dp977
g62
(dp978
sg71
g859
sg64
(lp979
g57
(g78
g59
NtRp980
(dp981
g62
(dp982
g82
g83
ssg71
g976
sg64
(lp983
S'debugging'
p984
asbag57
(g78
g59
NtRp985
(dp986
g62
(dp987
g89
g90
ssg71
g976
sg64
(lp988
S':'
asbag57
(g78
g59
NtRp989
(dp990
g62
(dp991
sg71
g976
sg64
(lp992
g57
(g58
g59
NtRp993
(dp994
g62
(dp995
g70
I4
ssg71
g989
sg64
(lp996
g100
asbasbasbag57
(g73
g59
NtRp997
(dp998
g62
(dp999
sg71
g859
sg64
(lp1000
g57
(g78
g59
NtRp1001
(dp1002
g62
(dp1003
g82
g83
ssg71
g997
sg64
(lp1004
S'gluon_parent'
p1005
asbag57
(g78
g59
NtRp1006
(dp1007
g62
(dp1008
g89
g90
ssg71
g997
sg64
(lp1009
S':'
asbag57
(g78
g59
NtRp1010
(dp1011
g62
(dp1012
sg71
g997
sg64
(lp1013
g57
(g58
g59
NtRp1014
(dp1015
g62
(dp1016
g70
I4
ssg71
g1010
sg64
(lp1017
S'/Users/Truki/web2py'
p1018
asbasbasbag57
(g73
g59
NtRp1019
(dp1020
g62
(dp1021
sg71
g859
sg64
(lp1022
g57
(g78
g59
NtRp1023
(dp1024
g62
(dp1025
g82
g83
ssg71
g1019
sg64
(lp1026
S'http_accept'
p1027
asbag57
(g78
g59
NtRp1028
(dp1029
g62
(dp1030
g89
g90
ssg71
g1019
sg64
(lp1031
S':'
asbag57
(g78
g59
NtRp1032
(dp1033
g62
(dp1034
sg71
g1019
sg64
(lp1035
g57
(g58
g59
NtRp1036
(dp1037
g62
(dp1038
g70
I4
ssg71
g1032
sg64
(lp1039
S'text/html,application/xhtml+xml,application/xml;q=0.9,*/*;q=0.8'
p1040
asbasbasbag57
(g73
g59
NtRp1041
(dp1042
g62
(dp1043
sg71
g859
sg64
(lp1044
g57
(g78
g59
NtRp1045
(dp1046
g62
(dp1047
g82
g83
ssg71
g1041
sg64
(lp1048
S'http_accept_charset'
p1049
asbag57
(g78
g59
NtRp1050
(dp1051
g62
(dp1052
g89
g90
ssg71
g1041
sg64
(lp1053
S':'
asbag57
(g78
g59
NtRp1054
(dp1055
g62
(dp1056
sg71
g1041
sg64
(lp1057
g57
(g58
g59
NtRp1058
(dp1059
g62
(dp1060
g70
I4
ssg71
g1054
sg64
(lp1061
S'ISO-8859-1,utf-8;q=0.7,*;q=0.3'
p1062
asbasbasbag57
(g73
g59
NtRp1063
(dp1064
g62
(dp1065
sg71
g859
sg64
(lp1066
g57
(g78
g59
NtRp1067
(dp1068
g62
(dp1069
g82
g83
ssg71
g1063
sg64
(lp1070
S'http_accept_encoding'
p1071
asbag57
(g78
g59
NtRp1072
(dp1073
g62
(dp1074
g89
g90
ssg71
g1063
sg64
(lp1075
S':'
asbag57
(g78
g59
NtRp1076
(dp1077
g62
(dp1078
sg71
g1063
sg64
(lp1079
g57
(g58
g59
NtRp1080
(dp1081
g62
(dp1082
g70
I4
ssg71
g1076
sg64
(lp1083
S'gzip,deflate,sdch'
p1084
asbasbasbag57
(g73
g59
NtRp1085
(dp1086
g62
(dp1087
sg71
g859
sg64
(lp1088
g57
(g78
g59
NtRp1089
(dp1090
g62
(dp1091
g82
g83
ssg71
g1085
sg64
(lp1092
S'http_accept_language'
p1093
asbag57
(g78
g59
NtRp1094
(dp1095
g62
(dp1096
g89
g90
ssg71
g1085
sg64
(lp1097
S':'
asbag57
(g78
g59
NtRp1098
(dp1099
g62
(dp1100
sg71
g1085
sg64
(lp1101
g57
(g58
g59
NtRp1102
(dp1103
g62
(dp1104
g70
I4
ssg71
g1098
sg64
(lp1105
S'es-ES,es;q=0.8'
p1106
asbasbasbag57
(g73
g59
NtRp1107
(dp1108
g62
(dp1109
sg71
g859
sg64
(lp1110
g57
(g78
g59
NtRp1111
(dp1112
g62
(dp1113
g82
g83
ssg71
g1107
sg64
(lp1114
S'http_connection'
p1115
asbag57
(g78
g59
NtRp1116
(dp1117
g62
(dp1118
g89
g90
ssg71
g1107
sg64
(lp1119
S':'
asbag57
(g78
g59
NtRp1120
(dp1121
g62
(dp1122
sg71
g1107
sg64
(lp1123
g57
(g58
g59
NtRp1124
(dp1125
g62
(dp1126
g70
I4
ssg71
g1120
sg64
(lp1127
S'keep-alive'
p1128
asbasbasbag57
(g73
g59
NtRp1129
(dp1130
g62
(dp1131
sg71
g859
sg64
(lp1132
g57
(g78
g59
NtRp1133
(dp1134
g62
(dp1135
g82
g83
ssg71
g1129
sg64
(lp1136
S'http_cookie'
p1137
asbag57
(g78
g59
NtRp1138
(dp1139
g62
(dp1140
g89
g90
ssg71
g1129
sg64
(lp1141
S':'
asbag57
(g78
g59
NtRp1142
(dp1143
g62
(dp1144
sg71
g1129
sg64
(lp1145
g57
(g58
g59
NtRp1146
(dp1147
g62
(dp1148
g70
I4
ssg71
g1142
sg64
(lp1149
S'session_id_welcome=127.0.0.1-8f90e8a3-eddc-453c-854f-2f5c6c04811a; session_id_admin=127.0.0.1-6e934a6a-b7eb-4d02-8ce3-00c38085d6eb; session_id_rosan=127.0.0.1-7f26bdf4-3ca9-4fdc-87e8-ce55bec35287'
p1150
asbasbasbag57
(g73
g59
NtRp1151
(dp1152
g62
(dp1153
sg71
g859
sg64
(lp1154
g57
(g78
g59
NtRp1155
(dp1156
g62
(dp1157
g82
g83
ssg71
g1151
sg64
(lp1158
S'http_host'
p1159
asbag57
(g78
g59
NtRp1160
(dp1161
g62
(dp1162
g89
g90
ssg71
g1151
sg64
(lp1163
S':'
asbag57
(g78
g59
NtRp1164
(dp1165
g62
(dp1166
sg71
g1151
sg64
(lp1167
g57
(g58
g59
NtRp1168
(dp1169
g62
(dp1170
g70
I4
ssg71
g1164
sg64
(lp1171
S'127.0.0.1:8000'
p1172
asbasbasbag57
(g73
g59
NtRp1173
(dp1174
g62
(dp1175
sg71
g859
sg64
(lp1176
g57
(g78
g59
NtRp1177
(dp1178
g62
(dp1179
g82
g83
ssg71
g1173
sg64
(lp1180
S'http_referer'
p1181
asbag57
(g78
g59
NtRp1182
(dp1183
g62
(dp1184
g89
g90
ssg71
g1173
sg64
(lp1185
S':'
asbag57
(g78
g59
NtRp1186
(dp1187
g62
(dp1188
sg71
g1173
sg64
(lp1189
g57
(g58
g59
NtRp1190
(dp1191
g62
(dp1192
g70
I4
ssg71
g1186
sg64
(lp1193
S'http://127.0.0.1:8000/rosan/clientes/index'
p1194
asbasbasbag57
(g73
g59
NtRp1195
(dp1196
g62
(dp1197
sg71
g859
sg64
(lp1198
g57
(g78
g59
NtRp1199
(dp1200
g62
(dp1201
g82
g83
ssg71
g1195
sg64
(lp1202
S'http_user_agent'
p1203
asbag57
(g78
g59
NtRp1204
(dp1205
g62
(dp1206
g89
g90
ssg71
g1195
sg64
(lp1207
S':'
asbag57
(g78
g59
NtRp1208
(dp1209
g62
(dp1210
sg71
g1195
sg64
(lp1211
g57
(g58
g59
NtRp1212
(dp1213
g62
(dp1214
g70
I4
ssg71
g1208
sg64
(lp1215
S'Mozilla/5.0 (Macintosh; Intel Mac OS X 10_6_6) AppleWebKit/537.17 (KHTML, like Gecko) Chrome/24.0.1312.52 Safari/537.17'
p1216
asbasbasbag57
(g73
g59
NtRp1217
(dp1218
g62
(dp1219
sg71
g859
sg64
(lp1220
g57
(g78
g59
NtRp1221
(dp1222
g62
(dp1223
g82
g83
ssg71
g1217
sg64
(lp1224
S'is_jython'
p1225
asbag57
(g78
g59
NtRp1226
(dp1227
g62
(dp1228
g89
g90
ssg71
g1217
sg64
(lp1229
S':'
asbag57
(g78
g59
NtRp1230
(dp1231
g62
(dp1232
sg71
g1217
sg64
(lp1233
g57
(g58
g59
NtRp1234
(dp1235
g62
(dp1236
g70
I4
ssg71
g1230
sg64
(lp1237
g100
asbasbasbag57
(g73
g59
NtRp1238
(dp1239
g62
(dp1240
sg71
g859
sg64
(lp1241
g57
(g78
g59
NtRp1242
(dp1243
g62
(dp1244
g82
g83
ssg71
g1238
sg64
(lp1245
S'is_pypy'
p1246
asbag57
(g78
g59
NtRp1247
(dp1248
g62
(dp1249
g89
g90
ssg71
g1238
sg64
(lp1250
S':'
asbag57
(g78
g59
NtRp1251
(dp1252
g62
(dp1253
sg71
g1238
sg64
(lp1254
g57
(g58
g59
NtRp1255
(dp1256
g62
(dp1257
g70
I4
ssg71
g1251
sg64
(lp1258
g100
asbasbasbag57
(g73
g59
NtRp1259
(dp1260
g62
(dp1261
sg71
g859
sg64
(lp1262
g57
(g78
g59
NtRp1263
(dp1264
g62
(dp1265
g82
g83
ssg71
g1259
sg64
(lp1266
S'local_hosts'
p1267
asbag57
(g78
g59
NtRp1268
(dp1269
g62
(dp1270
g89
g90
ssg71
g1259
sg64
(lp1271
S':'
asbag57
(g78
g59
NtRp1272
(dp1273
g62
(dp1274
sg71
g1259
sg64
(lp1275
g57
(g58
g59
NtRp1276
(dp1277
g62
(dp1278
g70
I4
ssg71
g1272
sg64
(lp1279
g57
(g66
g59
NtRp1280
(dp1281
g62
(dp1282
g70
I3
ssg71
Nsg64
(lp1283
g57
(g73
g59
NtRp1284
(dp1285
g62
(dp1286
sg71
g1280
sg64
(lp1287
g57
(g78
g59
NtRp1288
(dp1289
g62
(dp1290
sg71
g1284
sg64
(lp1291
g57
(g58
g59
NtRp1292
(dp1293
g62
(dp1294
g70
I3
ssg71
g1288
sg64
(lp1295
S'127.0.0.1'
p1296
asbasbasbag57
(g73
g59
NtRp1297
(dp1298
g62
(dp1299
sg71
g1280
sg64
(lp1300
g57
(g78
g59
NtRp1301
(dp1302
g62
(dp1303
sg71
g1297
sg64
(lp1304
g57
(g58
g59
NtRp1305
(dp1306
g62
(dp1307
g70
I3
ssg71
g1301
sg64
(lp1308
S'::ffff:127.0.0.1'
p1309
asbasbasbag57
(g73
g59
NtRp1310
(dp1311
g62
(dp1312
sg71
g1280
sg64
(lp1313
g57
(g78
g59
NtRp1314
(dp1315
g62
(dp1316
sg71
g1310
sg64
(lp1317
g57
(g58
g59
NtRp1318
(dp1319
g62
(dp1320
g70
I3
ssg71
g1314
sg64
(lp1321
S'MBT.local'
p1322
asbasbasbag57
(g73
g59
NtRp1323
(dp1324
g62
(dp1325
sg71
g1280
sg64
(lp1326
g57
(g78
g59
NtRp1327
(dp1328
g62
(dp1329
sg71
g1323
sg64
(lp1330
g57
(g58
g59
NtRp1331
(dp1332
g62
(dp1333
g70
I3
ssg71
g1327
sg64
(lp1334
S'MBT.local'
p1335
asbasbasbag57
(g73
g59
NtRp1336
(dp1337
g62
(dp1338
sg71
g1280
sg64
(lp1339
g57
(g78
g59
NtRp1340
(dp1341
g62
(dp1342
sg71
g1336
sg64
(lp1343
g57
(g58
g59
NtRp1344
(dp1345
g62
(dp1346
g70
I3
ssg71
g1340
sg64
(lp1347
S'192.168.1.33'
p1348
asbasbasbasbasbasbasbag57
(g73
g59
NtRp1349
(dp1350
g62
(dp1351
sg71
g859
sg64
(lp1352
g57
(g78
g59
NtRp1353
(dp1354
g62
(dp1355
g82
g83
ssg71
g1349
sg64
(lp1356
S'path_info'
p1357
asbag57
(g78
g59
NtRp1358
(dp1359
g62
(dp1360
g89
g90
ssg71
g1349
sg64
(lp1361
S':'
asbag57
(g78
g59
NtRp1362
(dp1363
g62
(dp1364
sg71
g1349
sg64
(lp1365
g57
(g58
g59
NtRp1366
(dp1367
g62
(dp1368
g70
I4
ssg71
g1362
sg64
(lp1369
S'/rosan/clientes/eliminar/3'
p1370
asbasbasbag57
(g73
g59
NtRp1371
(dp1372
g62
(dp1373
sg71
g859
sg64
(lp1374
g57
(g78
g59
NtRp1375
(dp1376
g62
(dp1377
g82
g83
ssg71
g1371
sg64
(lp1378
S'query_string'
p1379
asbag57
(g78
g59
NtRp1380
(dp1381
g62
(dp1382
g89
g90
ssg71
g1371
sg64
(lp1383
S':'
asbag57
(g78
g59
NtRp1384
(dp1385
g62
(dp1386
sg71
g1371
sg64
(lp1387
g57
(g58
g59
NtRp1388
(dp1389
g62
(dp1390
g70
I4
ssg71
g1384
sg64
(lp1391
S''
asbasbasbag57
(g73
g59
NtRp1392
(dp1393
g62
(dp1394
sg71
g859
sg64
(lp1395
g57
(g78
g59
NtRp1396
(dp1397
g62
(dp1398
g82
g83
ssg71
g1392
sg64
(lp1399
S'remote_addr'
p1400
asbag57
(g78
g59
NtRp1401
(dp1402
g62
(dp1403
g89
g90
ssg71
g1392
sg64
(lp1404
S':'
asbag57
(g78
g59
NtRp1405
(dp1406
g62
(dp1407
sg71
g1392
sg64
(lp1408
g57
(g58
g59
NtRp1409
(dp1410
g62
(dp1411
g70
I4
ssg71
g1405
sg64
(lp1412
g224
asbasbasbag57
(g73
g59
NtRp1413
(dp1414
g62
(dp1415
sg71
g859
sg64
(lp1416
g57
(g78
g59
NtRp1417
(dp1418
g62
(dp1419
g82
g83
ssg71
g1413
sg64
(lp1420
S'remote_port'
p1421
asbag57
(g78
g59
NtRp1422
(dp1423
g62
(dp1424
g89
g90
ssg71
g1413
sg64
(lp1425
S':'
asbag57
(g78
g59
NtRp1426
(dp1427
g62
(dp1428
sg71
g1413
sg64
(lp1429
g57
(g58
g59
NtRp1430
(dp1431
g62
(dp1432
g70
I4
ssg71
g1426
sg64
(lp1433
S'50560'
p1434
asbasbasbag57
(g73
g59
NtRp1435
(dp1436
g62
(dp1437
sg71
g859
sg64
(lp1438
g57
(g78
g59
NtRp1439
(dp1440
g62
(dp1441
g82
g83
ssg71
g1435
sg64
(lp1442
S'request_method'
p1443
asbag57
(g78
g59
NtRp1444
(dp1445
g62
(dp1446
g89
g90
ssg71
g1435
sg64
(lp1447
S':'
asbag57
(g78
g59
NtRp1448
(dp1449
g62
(dp1450
sg71
g1435
sg64
(lp1451
g57
(g58
g59
NtRp1452
(dp1453
g62
(dp1454
g70
I4
ssg71
g1448
sg64
(lp1455
S'GET'
p1456
asbasbasbag57
(g73
g59
NtRp1457
(dp1458
g62
(dp1459
sg71
g859
sg64
(lp1460
g57
(g78
g59
NtRp1461
(dp1462
g62
(dp1463
g82
g83
ssg71
g1457
sg64
(lp1464
S'request_uri'
p1465
asbag57
(g78
g59
NtRp1466
(dp1467
g62
(dp1468
g89
g90
ssg71
g1457
sg64
(lp1469
S':'
asbag57
(g78
g59
NtRp1470
(dp1471
g62
(dp1472
sg71
g1457
sg64
(lp1473
g57
(g58
g59
NtRp1474
(dp1475
g62
(dp1476
g70
I4
ssg71
g1470
sg64
(lp1477
g1370
asbasbasbag57
(g73
g59
NtRp1478
(dp1479
g62
(dp1480
sg71
g859
sg64
(lp1481
g57
(g78
g59
NtRp1482
(dp1483
g62
(dp1484
g82
g83
ssg71
g1478
sg64
(lp1485
S'script_name'
p1486
asbag57
(g78
g59
NtRp1487
(dp1488
g62
(dp1489
g89
g90
ssg71
g1478
sg64
(lp1490
S':'
asbag57
(g78
g59
NtRp1491
(dp1492
g62
(dp1493
sg71
g1478
sg64
(lp1494
g57
(g58
g59
NtRp1495
(dp1496
g62
(dp1497
g70
I4
ssg71
g1491
sg64
(lp1498
S''
asbasbasbag57
(g73
g59
NtRp1499
(dp1500
g62
(dp1501
sg71
g859
sg64
(lp1502
g57
(g78
g59
NtRp1503
(dp1504
g62
(dp1505
g82
g83
ssg71
g1499
sg64
(lp1506
S'server_name'
p1507
asbag57
(g78
g59
NtRp1508
(dp1509
g62
(dp1510
g89
g90
ssg71
g1499
sg64
(lp1511
S':'
asbag57
(g78
g59
NtRp1512
(dp1513
g62
(dp1514
sg71
g1499
sg64
(lp1515
g57
(g58
g59
NtRp1516
(dp1517
g62
(dp1518
g70
I4
ssg71
g1512
sg64
(lp1519
g1335
asbasbasbag57
(g73
g59
NtRp1520
(dp1521
g62
(dp1522
sg71
g859
sg64
(lp1523
g57
(g78
g59
NtRp1524
(dp1525
g62
(dp1526
g82
g83
ssg71
g1520
sg64
(lp1527
S'server_port'
p1528
asbag57
(g78
g59
NtRp1529
(dp1530
g62
(dp1531
g89
g90
ssg71
g1520
sg64
(lp1532
S':'
asbag57
(g78
g59
NtRp1533
(dp1534
g62
(dp1535
sg71
g1520
sg64
(lp1536
g57
(g58
g59
NtRp1537
(dp1538
g62
(dp1539
g70
I4
ssg71
g1533
sg64
(lp1540
S'8000'
p1541
asbasbasbag57
(g73
g59
NtRp1542
(dp1543
g62
(dp1544
sg71
g859
sg64
(lp1545
g57
(g78
g59
NtRp1546
(dp1547
g62
(dp1548
g82
g83
ssg71
g1542
sg64
(lp1549
S'server_protocol'
p1550
asbag57
(g78
g59
NtRp1551
(dp1552
g62
(dp1553
g89
g90
ssg71
g1542
sg64
(lp1554
S':'
asbag57
(g78
g59
NtRp1555
(dp1556
g62
(dp1557
sg71
g1542
sg64
(lp1558
g57
(g58
g59
NtRp1559
(dp1560
g62
(dp1561
g70
I4
ssg71
g1555
sg64
(lp1562
S'HTTP/1.1'
p1563
asbasbasbag57
(g73
g59
NtRp1564
(dp1565
g62
(dp1566
sg71
g859
sg64
(lp1567
g57
(g78
g59
NtRp1568
(dp1569
g62
(dp1570
g82
g83
ssg71
g1564
sg64
(lp1571
S'server_software'
p1572
asbag57
(g78
g59
NtRp1573
(dp1574
g62
(dp1575
g89
g90
ssg71
g1564
sg64
(lp1576
S':'
asbag57
(g78
g59
NtRp1577
(dp1578
g62
(dp1579
sg71
g1564
sg64
(lp1580
g57
(g58
g59
NtRp1581
(dp1582
g62
(dp1583
g70
I4
ssg71
g1577
sg64
(lp1584
S'Rocket 1.2.5'
p1585
asbasbasbag57
(g73
g59
NtRp1586
(dp1587
g62
(dp1588
sg71
g859
sg64
(lp1589
g57
(g78
g59
NtRp1590
(dp1591
g62
(dp1592
g82
g83
ssg71
g1586
sg64
(lp1593
S'web2py_path'
p1594
asbag57
(g78
g59
NtRp1595
(dp1596
g62
(dp1597
g89
g90
ssg71
g1586
sg64
(lp1598
S':'
asbag57
(g78
g59
NtRp1599
(dp1600
g62
(dp1601
sg71
g1586
sg64
(lp1602
g57
(g58
g59
NtRp1603
(dp1604
g62
(dp1605
g70
I4
ssg71
g1599
sg64
(lp1606
g906
asbasbasbag57
(g73
g59
NtRp1607
(dp1608
g62
(dp1609
sg71
g859
sg64
(lp1610
g57
(g78
g59
NtRp1611
(dp1612
g62
(dp1613
g82
g83
ssg71
g1607
sg64
(lp1614
S'web2py_version'
p1615
asbag57
(g78
g59
NtRp1616
(dp1617
g62
(dp1618
g89
g90
ssg71
g1607
sg64
(lp1619
S':'
asbag57
(g78
g59
NtRp1620
(dp1621
g62
(dp1622
sg71
g1607
sg64
(lp1623
g57
(g58
g59
NtRp1624
(dp1625
g62
(dp1626
g70
I4
ssg71
g1620
sg64
(lp1627
g57
(g66
g59
NtRp1628
(dp1629
g62
(dp1630
g70
I3
ssg71
Nsg64
(lp1631
g57
(g73
g59
NtRp1632
(dp1633
g62
(dp1634
sg71
g1628
sg64
(lp1635
g57
(g78
g59
NtRp1636
(dp1637
g62
(dp1638
sg71
g1632
sg64
(lp1639
g57
(g58
g59
NtRp1640
(dp1641
g62
(dp1642
g70
I3
ssg71
g1636
sg64
(lp1643
S'2'
asbasbasbag57
(g73
g59
NtRp1644
(dp1645
g62
(dp1646
sg71
g1628
sg64
(lp1647
g57
(g78
g59
NtRp1648
(dp1649
g62
(dp1650
sg71
g1644
sg64
(lp1651
g57
(g58
g59
NtRp1652
(dp1653
g62
(dp1654
g70
I3
ssg71
g1648
sg64
(lp1655
S'2'
asbasbasbag57
(g73
g59
NtRp1656
(dp1657
g62
(dp1658
sg71
g1628
sg64
(lp1659
g57
(g78
g59
NtRp1660
(dp1661
g62
(dp1662
sg71
g1656
sg64
(lp1663
g57
(g58
g59
NtRp1664
(dp1665
g62
(dp1666
g70
I3
ssg71
g1660
sg64
(lp1667
S'1'
asbasbasbag57
(g73
g59
NtRp1668
(dp1669
g62
(dp1670
sg71
g1628
sg64
(lp1671
g57
(g78
g59
NtRp1672
(dp1673
g62
(dp1674
sg71
g1668
sg64
(lp1675
g57
(g58
g59
NtRp1676
(dp1677
g62
(dp1678
g70
I3
ssg71
g1672
sg64
(lp1679
S'datetime.datetime(2012, 10, 21, 16, 57, 4)'
p1680
asbasbasbag57
(g73
g59
NtRp1681
(dp1682
g62
(dp1683
sg71
g1628
sg64
(lp1684
g57
(g78
g59
NtRp1685
(dp1686
g62
(dp1687
sg71
g1681
sg64
(lp1688
g57
(g58
g59
NtRp1689
(dp1690
g62
(dp1691
g70
I3
ssg71
g1685
sg64
(lp1692
S'stable'
p1693
asbasbasbasbasbasbasbag57
(g73
g59
NtRp1694
(dp1695
g62
(dp1696
sg71
g859
sg64
(lp1697
g57
(g78
g59
NtRp1698
(dp1699
g62
(dp1700
g82
g83
ssg71
g1694
sg64
(lp1701
S'wsgi_errors'
p1702
asbag57
(g78
g59
NtRp1703
(dp1704
g62
(dp1705
g89
g90
ssg71
g1694
sg64
(lp1706
S':'
asbag57
(g78
g59
NtRp1707
(dp1708
g62
(dp1709
sg71
g1694
sg64
(lp1710
g57
(g58
g59
NtRp1711
(dp1712
g62
(dp1713
g70
I4
ssg71
g1707
sg64
(lp1714
S"<open file '<stderr>', mode 'w' at 0x25a0d0>"
p1715
asbasbasbag57
(g73
g59
NtRp1716
(dp1717
g62
(dp1718
sg71
g859
sg64
(lp1719
g57
(g78
g59
NtRp1720
(dp1721
g62
(dp1722
g82
g83
ssg71
g1716
sg64
(lp1723
S'wsgi_file_wrapper'
p1724
asbag57
(g78
g59
NtRp1725
(dp1726
g62
(dp1727
g89
g90
ssg71
g1716
sg64
(lp1728
S':'
asbag57
(g78
g59
NtRp1729
(dp1730
g62
(dp1731
sg71
g1716
sg64
(lp1732
g57
(g58
g59
NtRp1733
(dp1734
g62
(dp1735
g70
I4
ssg71
g1729
sg64
(lp1736
S'<class wsgiref.util.FileWrapper at 0x1968d50>'
p1737
asbasbasbag57
(g73
g59
NtRp1738
(dp1739
g62
(dp1740
sg71
g859
sg64
(lp1741
g57
(g78
g59
NtRp1742
(dp1743
g62
(dp1744
g82
g83
ssg71
g1738
sg64
(lp1745
S'wsgi_input'
p1746
asbag57
(g78
g59
NtRp1747
(dp1748
g62
(dp1749
g89
g90
ssg71
g1738
sg64
(lp1750
S':'
asbag57
(g78
g59
NtRp1751
(dp1752
g62
(dp1753
sg71
g1738
sg64
(lp1754
g57
(g58
g59
NtRp1755
(dp1756
g62
(dp1757
g70
I4
ssg71
g1751
sg64
(lp1758
S'<socket._fileobject object at 0x17ee37b0>'
p1759
asbasbasbag57
(g73
g59
NtRp1760
(dp1761
g62
(dp1762
sg71
g859
sg64
(lp1763
g57
(g78
g59
NtRp1764
(dp1765
g62
(dp1766
g82
g83
ssg71
g1760
sg64
(lp1767
S'wsgi_multiprocess'
p1768
asbag57
(g78
g59
NtRp1769
(dp1770
g62
(dp1771
g89
g90
ssg71
g1760
sg64
(lp1772
S':'
asbag57
(g78
g59
NtRp1773
(dp1774
g62
(dp1775
sg71
g1760
sg64
(lp1776
g57
(g58
g59
NtRp1777
(dp1778
g62
(dp1779
g70
I4
ssg71
g1773
sg64
(lp1780
g100
asbasbasbag57
(g73
g59
NtRp1781
(dp1782
g62
(dp1783
sg71
g859
sg64
(lp1784
g57
(g78
g59
NtRp1785
(dp1786
g62
(dp1787
g82
g83
ssg71
g1781
sg64
(lp1788
S'wsgi_multithread'
p1789
asbag57
(g78
g59
NtRp1790
(dp1791
g62
(dp1792
g89
g90
ssg71
g1781
sg64
(lp1793
S':'
asbag57
(g78
g59
NtRp1794
(dp1795
g62
(dp1796
sg71
g1781
sg64
(lp1797
g57
(g58
g59
NtRp1798
(dp1799
g62
(dp1800
g70
I4
ssg71
g1794
sg64
(lp1801
S'True'
p1802
asbasbasbag57
(g73
g59
NtRp1803
(dp1804
g62
(dp1805
sg71
g859
sg64
(lp1806
g57
(g78
g59
NtRp1807
(dp1808
g62
(dp1809
g82
g83
ssg71
g1803
sg64
(lp1810
S'wsgi_run_once'
p1811
asbag57
(g78
g59
NtRp1812
(dp1813
g62
(dp1814
g89
g90
ssg71
g1803
sg64
(lp1815
S':'
asbag57
(g78
g59
NtRp1816
(dp1817
g62
(dp1818
sg71
g1803
sg64
(lp1819
g57
(g58
g59
NtRp1820
(dp1821
g62
(dp1822
g70
I4
ssg71
g1816
sg64
(lp1823
g100
asbasbasbag57
(g73
g59
NtRp1824
(dp1825
g62
(dp1826
sg71
g859
sg64
(lp1827
g57
(g78
g59
NtRp1828
(dp1829
g62
(dp1830
g82
g83
ssg71
g1824
sg64
(lp1831
S'wsgi_url_scheme'
p1832
asbag57
(g78
g59
NtRp1833
(dp1834
g62
(dp1835
g89
g90
ssg71
g1824
sg64
(lp1836
S':'
asbag57
(g78
g59
NtRp1837
(dp1838
g62
(dp1839
sg71
g1824
sg64
(lp1840
g57
(g58
g59
NtRp1841
(dp1842
g62
(dp1843
g70
I4
ssg71
g1837
sg64
(lp1844
S'http'
p1845
asbasbasbag57
(g73
g59
NtRp1846
(dp1847
g62
(dp1848
sg71
g859
sg64
(lp1849
g57
(g78
g59
NtRp1850
(dp1851
g62
(dp1852
g82
g83
ssg71
g1846
sg64
(lp1853
S'wsgi_version'
p1854
asbag57
(g78
g59
NtRp1855
(dp1856
g62
(dp1857
g89
g90
ssg71
g1846
sg64
(lp1858
S':'
asbag57
(g78
g59
NtRp1859
(dp1860
g62
(dp1861
sg71
g1846
sg64
(lp1862
g57
(g58
g59
NtRp1863
(dp1864
g62
(dp1865
g70
I4
ssg71
g1859
sg64
(lp1866
g57
(g66
g59
NtRp1867
(dp1868
g62
(dp1869
g70
I3
ssg71
Nsg64
(lp1870
g57
(g73
g59
NtRp1871
(dp1872
g62
(dp1873
sg71
g1867
sg64
(lp1874
g57
(g78
g59
NtRp1875
(dp1876
g62
(dp1877
sg71
g1871
sg64
(lp1878
g57
(g58
g59
NtRp1879
(dp1880
g62
(dp1881
g70
I3
ssg71
g1875
sg64
(lp1882
S'1'
asbasbasbag57
(g73
g59
NtRp1883
(dp1884
g62
(dp1885
sg71
g1867
sg64
(lp1886
g57
(g78
g59
NtRp1887
(dp1888
g62
(dp1889
sg71
g1883
sg64
(lp1890
g57
(g58
g59
NtRp1891
(dp1892
g62
(dp1893
g70
I3
ssg71
g1887
sg64
(lp1894
S'0'
asbasbasbasbasbasbasbasbasbasbasbag57
(g73
g59
NtRp1895
(dp1896
g62
(dp1897
sg71
g67
sg64
(lp1898
g57
(g78
g59
NtRp1899
(dp1900
g62
(dp1901
g82
g83
ssg71
g1895
sg64
(lp1902
S'extension'
p1903
asbag57
(g78
g59
NtRp1904
(dp1905
g62
(dp1906
g89
g90
ssg71
g1895
sg64
(lp1907
S':'
asbag57
(g78
g59
NtRp1908
(dp1909
g62
(dp1910
sg71
g1895
sg64
(lp1911
g57
(g58
g59
NtRp1912
(dp1913
g62
(dp1914
g70
I5
ssg71
g1908
sg64
(lp1915
S'html'
p1916
asbasbasbag57
(g73
g59
NtRp1917
(dp1918
g62
(dp1919
sg71
g67
sg64
(lp1920
g57
(g78
g59
NtRp1921
(dp1922
g62
(dp1923
g82
g83
ssg71
g1917
sg64
(lp1924
S'folder'
p1925
asbag57
(g78
g59
NtRp1926
(dp1927
g62
(dp1928
g89
g90
ssg71
g1917
sg64
(lp1929
S':'
asbag57
(g78
g59
NtRp1930
(dp1931
g62
(dp1932
sg71
g1917
sg64
(lp1933
g57
(g58
g59
NtRp1934
(dp1935
g62
(dp1936
g70
I5
ssg71
g1930
sg64
(lp1937
S'/Users/Truki/web2py/applications/rosan/'
p1938
asbasbasbag57
(g73
g59
NtRp1939
(dp1940
g62
(dp1941
sg71
g67
sg64
(lp1942
g57
(g78
g59
NtRp1943
(dp1944
g62
(dp1945
g82
g83
ssg71
g1939
sg64
(lp1946
S'function'
p1947
asbag57
(g78
g59
NtRp1948
(dp1949
g62
(dp1950
g89
g90
ssg71
g1939
sg64
(lp1951
S':'
asbag57
(g78
g59
NtRp1952
(dp1953
g62
(dp1954
sg71
g1939
sg64
(lp1955
g57
(g58
g59
NtRp1956
(dp1957
g62
(dp1958
g70
I5
ssg71
g1952
sg64
(lp1959
S'eliminar'
p1960
asbasbasbag57
(g73
g59
NtRp1961
(dp1962
g62
(dp1963
sg71
g67
sg64
(lp1964
g57
(g78
g59
NtRp1965
(dp1966
g62
(dp1967
g82
g83
ssg71
g1961
sg64
(lp1968
S'get_vars'
p1969
asbag57
(g78
g59
NtRp1970
(dp1971
g62
(dp1972
g89
g90
ssg71
g1961
sg64
(lp1973
S':'
asbag57
(g78
g59
NtRp1974
(dp1975
g62
(dp1976
sg71
g1961
sg64
(lp1977
g57
(g58
g59
NtRp1978
(dp1979
g62
(dp1980
g70
I5
ssg71
g1974
sg64
(lp1981
g57
(g66
g59
NtRp1982
(dp1983
g62
(dp1984
g70
I4
ssg71
Nsg64
(lp1985
sbasbasbasbag57
(g73
g59
NtRp1986
(dp1987
g62
(dp1988
sg71
g67
sg64
(lp1989
g57
(g78
g59
NtRp1990
(dp1991
g62
(dp1992
g82
g83
ssg71
g1986
sg64
(lp1993
S'global_settings'
p1994
asbag57
(g78
g59
NtRp1995
(dp1996
g62
(dp1997
g89
g90
ssg71
g1986
sg64
(lp1998
S':'
asbag57
(g78
g59
NtRp1999
(dp2000
g62
(dp2001
sg71
g1986
sg64
(lp2002
g57
(g58
g59
NtRp2003
(dp2004
g62
(dp2005
g70
I5
ssg71
g1999
sg64
(lp2006
g57
(g66
g59
NtRp2007
(dp2008
g62
(dp2009
g70
I4
ssg71
Nsg64
(lp2010
g57
(g73
g59
NtRp2011
(dp2012
g62
(dp2013
sg71
g2007
sg64
(lp2014
g57
(g78
g59
NtRp2015
(dp2016
g62
(dp2017
g82
g83
ssg71
g2011
sg64
(lp2018
g871
asbag57
(g78
g59
NtRp2019
(dp2020
g62
(dp2021
g89
g90
ssg71
g2011
sg64
(lp2022
S':'
asbag57
(g78
g59
NtRp2023
(dp2024
g62
(dp2025
sg71
g2011
sg64
(lp2026
g57
(g58
g59
NtRp2027
(dp2028
g62
(dp2029
g70
I4
ssg71
g2023
sg64
(lp2030
S"set(['/Users/Truki/web2py/applications/welcome/', '/Users/Truki/web2py/applications/admin/', '/Users/Truki/web2py/applications/rosan/'])"
p2031
asbasbasbag57
(g73
g59
NtRp2032
(dp2033
g62
(dp2034
sg71
g2007
sg64
(lp2035
g57
(g78
g59
NtRp2036
(dp2037
g62
(dp2038
g82
g83
ssg71
g2032
sg64
(lp2039
g893
asbag57
(g78
g59
NtRp2040
(dp2041
g62
(dp2042
g89
g90
ssg71
g2032
sg64
(lp2043
S':'
asbag57
(g78
g59
NtRp2044
(dp2045
g62
(dp2046
sg71
g2032
sg64
(lp2047
g57
(g58
g59
NtRp2048
(dp2049
g62
(dp2050
g70
I4
ssg71
g2044
sg64
(lp2051
g906
asbasbasbag57
(g73
g59
NtRp2052
(dp2053
g62
(dp2054
sg71
g2007
sg64
(lp2055
g57
(g78
g59
NtRp2056
(dp2057
g62
(dp2058
g82
g83
ssg71
g2052
sg64
(lp2059
g915
asbag57
(g78
g59
NtRp2060
(dp2061
g62
(dp2062
g89
g90
ssg71
g2052
sg64
(lp2063
S':'
asbag57
(g78
g59
NtRp2064
(dp2065
g62
(dp2066
sg71
g2052
sg64
(lp2067
g57
(g58
g59
NtRp2068
(dp2069
g62
(dp2070
g70
I4
ssg71
g2064
sg64
(lp2071
g57
(g66
g59
NtRp2072
(dp2073
g62
(dp2074
g70
I3
ssg71
Nsg64
(lp2075
sbasbasbasbag57
(g73
g59
NtRp2076
(dp2077
g62
(dp2078
sg71
g2007
sg64
(lp2079
g57
(g78
g59
NtRp2080
(dp2081
g62
(dp2082
g82
g83
ssg71
g2076
sg64
(lp2083
g940
asbag57
(g78
g59
NtRp2084
(dp2085
g62
(dp2086
g89
g90
ssg71
g2076
sg64
(lp2087
S':'
asbag57
(g78
g59
NtRp2088
(dp2089
g62
(dp2090
sg71
g2076
sg64
(lp2091
g57
(g58
g59
NtRp2092
(dp2093
g62
(dp2094
g70
I4
ssg71
g2088
sg64
(lp2095
S"<Values at 0x19b2418: {'verbose': False, 'ip': '127.0.0.1', 'with_scheduler': False, 'ips': ['192.168.1.33'], 'shutdown_timeout': 5, 'taskbar': False, 'port': 8000, 'maxthreads': None, 'softcron': False, 'server_name': 'MBT.local', 'bpython': False, 'nogui': False, 'pid_filename': 'httpserver.pid', 'extcron': False, 'runcron': False, 'run_system_tests': False, 'test': None, 'folder': '/Users/Truki/web2py', 'config': '', 'import_models': False, 'winservice': '', 'shell': None, 'run': '', 'log_filename': 'httpserver.log', 'debuglevel': 30, 'args': [''], 'socket_timeout': 5, 'ssl_ca_certificate': None, 'scheduler': None, 'profiler_filename': None, 'ssl_private_key': '', 'scheduler_groups': None, 'password': '<ask>', 'request_queue_size': 5, 'ssl_certificate': '', 'cronjob': False, 'numthreads': None, 'quiet': False, 'interfaces': None, 'minthreads': None, 'timeout': 10, 'plain': False, 'nobanner': False}>"
p2096
asbasbasbag57
(g73
g59
NtRp2097
(dp2098
g62
(dp2099
sg71
g2007
sg64
(lp2100
g57
(g78
g59
NtRp2101
(dp2102
g62
(dp2103
g82
g83
ssg71
g2097
sg64
(lp2104
g962
asbag57
(g78
g59
NtRp2105
(dp2106
g62
(dp2107
g89
g90
ssg71
g2097
sg64
(lp2108
S':'
asbag57
(g78
g59
NtRp2109
(dp2110
g62
(dp2111
sg71
g2097
sg64
(lp2112
g57
(g58
g59
NtRp2113
(dp2114
g62
(dp2115
g70
I4
ssg71
g2109
sg64
(lp2116
S'set([])'
p2117
asbasbasbag57
(g73
g59
NtRp2118
(dp2119
g62
(dp2120
sg71
g2007
sg64
(lp2121
g57
(g78
g59
NtRp2122
(dp2123
g62
(dp2124
g82
g83
ssg71
g2118
sg64
(lp2125
g984
asbag57
(g78
g59
NtRp2126
(dp2127
g62
(dp2128
g89
g90
ssg71
g2118
sg64
(lp2129
S':'
asbag57
(g78
g59
NtRp2130
(dp2131
g62
(dp2132
sg71
g2118
sg64
(lp2133
g57
(g58
g59
NtRp2134
(dp2135
g62
(dp2136
g70
I4
ssg71
g2130
sg64
(lp2137
g100
asbasbasbag57
(g73
g59
NtRp2138
(dp2139
g62
(dp2140
sg71
g2007
sg64
(lp2141
g57
(g78
g59
NtRp2142
(dp2143
g62
(dp2144
g82
g83
ssg71
g2138
sg64
(lp2145
g1005
asbag57
(g78
g59
NtRp2146
(dp2147
g62
(dp2148
g89
g90
ssg71
g2138
sg64
(lp2149
S':'
asbag57
(g78
g59
NtRp2150
(dp2151
g62
(dp2152
sg71
g2138
sg64
(lp2153
g57
(g58
g59
NtRp2154
(dp2155
g62
(dp2156
g70
I4
ssg71
g2150
sg64
(lp2157
g1018
asbasbasbag57
(g73
g59
NtRp2158
(dp2159
g62
(dp2160
sg71
g2007
sg64
(lp2161
g57
(g78
g59
NtRp2162
(dp2163
g62
(dp2164
g82
g83
ssg71
g2158
sg64
(lp2165
g1225
asbag57
(g78
g59
NtRp2166
(dp2167
g62
(dp2168
g89
g90
ssg71
g2158
sg64
(lp2169
S':'
asbag57
(g78
g59
NtRp2170
(dp2171
g62
(dp2172
sg71
g2158
sg64
(lp2173
g57
(g58
g59
NtRp2174
(dp2175
g62
(dp2176
g70
I4
ssg71
g2170
sg64
(lp2177
g100
asbasbasbag57
(g73
g59
NtRp2178
(dp2179
g62
(dp2180
sg71
g2007
sg64
(lp2181
g57
(g78
g59
NtRp2182
(dp2183
g62
(dp2184
g82
g83
ssg71
g2178
sg64
(lp2185
g1246
asbag57
(g78
g59
NtRp2186
(dp2187
g62
(dp2188
g89
g90
ssg71
g2178
sg64
(lp2189
S':'
asbag57
(g78
g59
NtRp2190
(dp2191
g62
(dp2192
sg71
g2178
sg64
(lp2193
g57
(g58
g59
NtRp2194
(dp2195
g62
(dp2196
g70
I4
ssg71
g2190
sg64
(lp2197
g100
asbasbasbag57
(g73
g59
NtRp2198
(dp2199
g62
(dp2200
sg71
g2007
sg64
(lp2201
g57
(g78
g59
NtRp2202
(dp2203
g62
(dp2204
g82
g83
ssg71
g2198
sg64
(lp2205
g1267
asbag57
(g78
g59
NtRp2206
(dp2207
g62
(dp2208
g89
g90
ssg71
g2198
sg64
(lp2209
S':'
asbag57
(g78
g59
NtRp2210
(dp2211
g62
(dp2212
sg71
g2198
sg64
(lp2213
g57
(g58
g59
NtRp2214
(dp2215
g62
(dp2216
g70
I4
ssg71
g2210
sg64
(lp2217
g57
(g66
g59
NtRp2218
(dp2219
g62
(dp2220
g70
I3
ssg71
Nsg64
(lp2221
g57
(g73
g59
NtRp2222
(dp2223
g62
(dp2224
sg71
g2218
sg64
(lp2225
g57
(g78
g59
NtRp2226
(dp2227
g62
(dp2228
sg71
g2222
sg64
(lp2229
g57
(g58
g59
NtRp2230
(dp2231
g62
(dp2232
g70
I3
ssg71
g2226
sg64
(lp2233
g1296
asbasbasbag57
(g73
g59
NtRp2234
(dp2235
g62
(dp2236
sg71
g2218
sg64
(lp2237
g57
(g78
g59
NtRp2238
(dp2239
g62
(dp2240
sg71
g2234
sg64
(lp2241
g57
(g58
g59
NtRp2242
(dp2243
g62
(dp2244
g70
I3
ssg71
g2238
sg64
(lp2245
g1309
asbasbasbag57
(g73
g59
NtRp2246
(dp2247
g62
(dp2248
sg71
g2218
sg64
(lp2249
g57
(g78
g59
NtRp2250
(dp2251
g62
(dp2252
sg71
g2246
sg64
(lp2253
g57
(g58
g59
NtRp2254
(dp2255
g62
(dp2256
g70
I3
ssg71
g2250
sg64
(lp2257
g1322
asbasbasbag57
(g73
g59
NtRp2258
(dp2259
g62
(dp2260
sg71
g2218
sg64
(lp2261
g57
(g78
g59
NtRp2262
(dp2263
g62
(dp2264
sg71
g2258
sg64
(lp2265
g57
(g58
g59
NtRp2266
(dp2267
g62
(dp2268
g70
I3
ssg71
g2262
sg64
(lp2269
g1335
asbasbasbag57
(g73
g59
NtRp2270
(dp2271
g62
(dp2272
sg71
g2218
sg64
(lp2273
g57
(g78
g59
NtRp2274
(dp2275
g62
(dp2276
sg71
g2270
sg64
(lp2277
g57
(g58
g59
NtRp2278
(dp2279
g62
(dp2280
g70
I3
ssg71
g2274
sg64
(lp2281
g1348
asbasbasbasbasbasbasbag57
(g73
g59
NtRp2282
(dp2283
g62
(dp2284
sg71
g2007
sg64
(lp2285
g57
(g78
g59
NtRp2286
(dp2287
g62
(dp2288
g82
g83
ssg71
g2282
sg64
(lp2289
g1615
asbag57
(g78
g59
NtRp2290
(dp2291
g62
(dp2292
g89
g90
ssg71
g2282
sg64
(lp2293
S':'
asbag57
(g78
g59
NtRp2294
(dp2295
g62
(dp2296
sg71
g2282
sg64
(lp2297
g57
(g58
g59
NtRp2298
(dp2299
g62
(dp2300
g70
I4
ssg71
g2294
sg64
(lp2301
g57
(g66
g59
NtRp2302
(dp2303
g62
(dp2304
g70
I3
ssg71
Nsg64
(lp2305
g57
(g73
g59
NtRp2306
(dp2307
g62
(dp2308
sg71
g2302
sg64
(lp2309
g57
(g78
g59
NtRp2310
(dp2311
g62
(dp2312
sg71
g2306
sg64
(lp2313
g57
(g58
g59
NtRp2314
(dp2315
g62
(dp2316
g70
I3
ssg71
g2310
sg64
(lp2317
S'2'
asbasbasbag57
(g73
g59
NtRp2318
(dp2319
g62
(dp2320
sg71
g2302
sg64
(lp2321
g57
(g78
g59
NtRp2322
(dp2323
g62
(dp2324
sg71
g2318
sg64
(lp2325
g57
(g58
g59
NtRp2326
(dp2327
g62
(dp2328
g70
I3
ssg71
g2322
sg64
(lp2329
S'2'
asbasbasbag57
(g73
g59
NtRp2330
(dp2331
g62
(dp2332
sg71
g2302
sg64
(lp2333
g57
(g78
g59
NtRp2334
(dp2335
g62
(dp2336
sg71
g2330
sg64
(lp2337
g57
(g58
g59
NtRp2338
(dp2339
g62
(dp2340
g70
I3
ssg71
g2334
sg64
(lp2341
S'1'
asbasbasbag57
(g73
g59
NtRp2342
(dp2343
g62
(dp2344
sg71
g2302
sg64
(lp2345
g57
(g78
g59
NtRp2346
(dp2347
g62
(dp2348
sg71
g2342
sg64
(lp2349
g57
(g58
g59
NtRp2350
(dp2351
g62
(dp2352
g70
I3
ssg71
g2346
sg64
(lp2353
S'datetime.datetime(2012, 10, 21, 16, 57, 4)'
p2354
asbasbasbag57
(g73
g59
NtRp2355
(dp2356
g62
(dp2357
sg71
g2302
sg64
(lp2358
g57
(g78
g59
NtRp2359
(dp2360
g62
(dp2361
sg71
g2355
sg64
(lp2362
g57
(g58
g59
NtRp2363
(dp2364
g62
(dp2365
g70
I3
ssg71
g2359
sg64
(lp2366
g1693
asbasbasbasbasbasbasbasbasbasbasbag57
(g73
g59
NtRp2367
(dp2368
g62
(dp2369
sg71
g67
sg64
(lp2370
g57
(g78
g59
NtRp2371
(dp2372
g62
(dp2373
g82
g83
ssg71
g2367
sg64
(lp2374
S'is_https'
p2375
asbag57
(g78
g59
NtRp2376
(dp2377
g62
(dp2378
g89
g90
ssg71
g2367
sg64
(lp2379
S':'
asbag57
(g78
g59
NtRp2380
(dp2381
g62
(dp2382
sg71
g2367
sg64
(lp2383
g57
(g58
g59
NtRp2384
(dp2385
g62
(dp2386
g70
I5
ssg71
g2380
sg64
(lp2387
g100
asbasbasbag57
(g73
g59
NtRp2388
(dp2389
g62
(dp2390
sg71
g67
sg64
(lp2391
g57
(g78
g59
NtRp2392
(dp2393
g62
(dp2394
g82
g83
ssg71
g2388
sg64
(lp2395
S'is_local'
p2396
asbag57
(g78
g59
NtRp2397
(dp2398
g62
(dp2399
g89
g90
ssg71
g2388
sg64
(lp2400
S':'
asbag57
(g78
g59
NtRp2401
(dp2402
g62
(dp2403
sg71
g2388
sg64
(lp2404
g57
(g58
g59
NtRp2405
(dp2406
g62
(dp2407
g70
I5
ssg71
g2401
sg64
(lp2408
g1802
asbasbasbag57
(g73
g59
NtRp2409
(dp2410
g62
(dp2411
sg71
g67
sg64
(lp2412
g57
(g78
g59
NtRp2413
(dp2414
g62
(dp2415
g82
g83
ssg71
g2409
sg64
(lp2416
S'is_restful'
p2417
asbag57
(g78
g59
NtRp2418
(dp2419
g62
(dp2420
g89
g90
ssg71
g2409
sg64
(lp2421
S':'
asbag57
(g78
g59
NtRp2422
(dp2423
g62
(dp2424
sg71
g2409
sg64
(lp2425
g57
(g58
g59
NtRp2426
(dp2427
g62
(dp2428
g70
I5
ssg71
g2422
sg64
(lp2429
g100
asbasbasbag57
(g73
g59
NtRp2430
(dp2431
g62
(dp2432
sg71
g67
sg64
(lp2433
g57
(g78
g59
NtRp2434
(dp2435
g62
(dp2436
g82
g83
ssg71
g2430
sg64
(lp2437
S'now'
p2438
asbag57
(g78
g59
NtRp2439
(dp2440
g62
(dp2441
g89
g90
ssg71
g2430
sg64
(lp2442
S':'
asbag57
(g78
g59
NtRp2443
(dp2444
g62
(dp2445
sg71
g2430
sg64
(lp2446
g57
(g58
g59
NtRp2447
(dp2448
g62
(dp2449
g70
I5
ssg71
g2443
sg64
(lp2450
S'datetime.datetime(2013, 1, 20, 18, 31, 19, 555529)'
p2451
asbasbasbag57
(g73
g59
NtRp2452
(dp2453
g62
(dp2454
sg71
g67
sg64
(lp2455
g57
(g78
g59
NtRp2456
(dp2457
g62
(dp2458
g82
g83
ssg71
g2452
sg64
(lp2459
S'post_vars'
p2460
asbag57
(g78
g59
NtRp2461
(dp2462
g62
(dp2463
g89
g90
ssg71
g2452
sg64
(lp2464
S':'
asbag57
(g78
g59
NtRp2465
(dp2466
g62
(dp2467
sg71
g2452
sg64
(lp2468
g57
(g58
g59
NtRp2469
(dp2470
g62
(dp2471
g70
I5
ssg71
g2465
sg64
(lp2472
g57
(g66
g59
NtRp2473
(dp2474
g62
(dp2475
g70
I4
ssg71
Nsg64
(lp2476
sbasbasbasbag57
(g73
g59
NtRp2477
(dp2478
g62
(dp2479
sg71
g67
sg64
(lp2480
g57
(g78
g59
NtRp2481
(dp2482
g62
(dp2483
g82
g83
ssg71
g2477
sg64
(lp2484
S'raw_args'
p2485
asbag57
(g78
g59
NtRp2486
(dp2487
g62
(dp2488
g89
g90
ssg71
g2477
sg64
(lp2489
S':'
asbag57
(g78
g59
NtRp2490
(dp2491
g62
(dp2492
sg71
g2477
sg64
(lp2493
g57
(g58
g59
NtRp2494
(dp2495
g62
(dp2496
g70
I5
ssg71
g2490
sg64
(lp2497
S'/3'
p2498
asbasbasbag57
(g73
g59
NtRp2499
(dp2500
g62
(dp2501
sg71
g67
sg64
(lp2502
g57
(g78
g59
NtRp2503
(dp2504
g62
(dp2505
g82
g83
ssg71
g2499
sg64
(lp2506
S'raw_extension'
p2507
asbag57
(g78
g59
NtRp2508
(dp2509
g62
(dp2510
g89
g90
ssg71
g2499
sg64
(lp2511
S':'
asbag57
(g78
g59
NtRp2512
(dp2513
g62
(dp2514
sg71
g2499
sg64
(lp2515
g57
(g58
g59
NtRp2516
(dp2517
g62
(dp2518
g70
I5
ssg71
g2512
sg64
(lp2519
S'None'
p2520
asbasbasbag57
(g73
g59
NtRp2521
(dp2522
g62
(dp2523
sg71
g67
sg64
(lp2524
g57
(g78
g59
NtRp2525
(dp2526
g62
(dp2527
g82
g83
ssg71
g2521
sg64
(lp2528
S'url'
p2529
asbag57
(g78
g59
NtRp2530
(dp2531
g62
(dp2532
g89
g90
ssg71
g2521
sg64
(lp2533
S':'
asbag57
(g78
g59
NtRp2534
(dp2535
g62
(dp2536
sg71
g2521
sg64
(lp2537
g57
(g58
g59
NtRp2538
(dp2539
g62
(dp2540
g70
I5
ssg71
g2534
sg64
(lp2541
g1370
asbasbasbag57
(g73
g59
NtRp2542
(dp2543
g62
(dp2544
sg71
g67
sg64
(lp2545
g57
(g78
g59
NtRp2546
(dp2547
g62
(dp2548
g82
g83
ssg71
g2542
sg64
(lp2549
S'utcnow'
p2550
asbag57
(g78
g59
NtRp2551
(dp2552
g62
(dp2553
g89
g90
ssg71
g2542
sg64
(lp2554
S':'
asbag57
(g78
g59
NtRp2555
(dp2556
g62
(dp2557
sg71
g2542
sg64
(lp2558
g57
(g58
g59
NtRp2559
(dp2560
g62
(dp2561
g70
I5
ssg71
g2555
sg64
(lp2562
S'datetime.datetime(2013, 1, 20, 17, 31, 19, 555541)'
p2563
asbasbasbag57
(g73
g59
NtRp2564
(dp2565
g62
(dp2566
sg71
g67
sg64
(lp2567
g57
(g78
g59
NtRp2568
(dp2569
g62
(dp2570
g82
g83
ssg71
g2564
sg64
(lp2571
S'uuid'
p2572
asbag57
(g78
g59
NtRp2573
(dp2574
g62
(dp2575
g89
g90
ssg71
g2564
sg64
(lp2576
S':'
asbag57
(g78
g59
NtRp2577
(dp2578
g62
(dp2579
sg71
g2564
sg64
(lp2580
g57
(g58
g59
NtRp2581
(dp2582
g62
(dp2583
g70
I5
ssg71
g2577
sg64
(lp2584
S'rosan/127.0.0.1.2013-01-20.18-31-19.b1eeea58-a6e9-4c2a-a0c9-da3b4a854cf8'
p2585
asbasbasbag57
(g73
g59
NtRp2586
(dp2587
g62
(dp2588
sg71
g67
sg64
(lp2589
g57
(g78
g59
NtRp2590
(dp2591
g62
(dp2592
g82
g83
ssg71
g2586
sg64
(lp2593
S'vars'
p2594
asbag57
(g78
g59
NtRp2595
(dp2596
g62
(dp2597
g89
g90
ssg71
g2586
sg64
(lp2598
S':'
asbag57
(g78
g59
NtRp2599
(dp2600
g62
(dp2601
sg71
g2586
sg64
(lp2602
g57
(g58
g59
NtRp2603
(dp2604
g62
(dp2605
g70
I5
ssg71
g2599
sg64
(lp2606
g57
(g66
g59
NtRp2607
(dp2608
g62
(dp2609
g70
I4
ssg71
Nsg64
(lp2610
sbasbasbasbag57
(g73
g59
NtRp2611
(dp2612
g62
(dp2613
sg71
g67
sg64
(lp2614
g57
(g78
g59
NtRp2615
(dp2616
g62
(dp2617
g82
g83
ssg71
g2611
sg64
(lp2618
S'wsgi'
p2619
asbag57
(g78
g59
NtRp2620
(dp2621
g62
(dp2622
g89
g90
ssg71
g2611
sg64
(lp2623
S':'
asbag57
(g78
g59
NtRp2624
(dp2625
g62
(dp2626
sg71
g2611
sg64
(lp2627
g57
(g58
g59
NtRp2628
(dp2629
g62
(dp2630
g70
I5
ssg71
g2624
sg64
(lp2631
g57
(g66
g59
NtRp2632
(dp2633
g62
(dp2634
g70
I4
ssg71
Nsg64
(lp2635
g57
(g73
g59
NtRp2636
(dp2637
g62
(dp2638
sg71
g2632
sg64
(lp2639
g57
(g78
g59
NtRp2640
(dp2641
g62
(dp2642
g82
g83
ssg71
g2636
sg64
(lp2643
S'environ'
p2644
asbag57
(g78
g59
NtRp2645
(dp2646
g62
(dp2647
g89
g90
ssg71
g2636
sg64
(lp2648
S':'
asbag57
(g78
g59
NtRp2649
(dp2650
g62
(dp2651
sg71
g2636
sg64
(lp2652
g57
(g58
g59
NtRp2653
(dp2654
g62
(dp2655
g70
I4
ssg71
g2649
sg64
(lp2656
g57
(g66
g59
NtRp2657
(dp2658
g62
(dp2659
g70
I3
ssg71
Nsg64
(lp2660
g57
(g73
g59
NtRp2661
(dp2662
g62
(dp2663
sg71
g2657
sg64
(lp2664
g57
(g78
g59
NtRp2665
(dp2666
g62
(dp2667
g82
g83
ssg71
g2661
sg64
(lp2668
S'HTTP_ACCEPT'
p2669
asbag57
(g78
g59
NtRp2670
(dp2671
g62
(dp2672
g89
g90
ssg71
g2661
sg64
(lp2673
S':'
asbag57
(g78
g59
NtRp2674
(dp2675
g62
(dp2676
sg71
g2661
sg64
(lp2677
g57
(g58
g59
NtRp2678
(dp2679
g62
(dp2680
g70
I3
ssg71
g2674
sg64
(lp2681
g1040
asbasbasbag57
(g73
g59
NtRp2682
(dp2683
g62
(dp2684
sg71
g2657
sg64
(lp2685
g57
(g78
g59
NtRp2686
(dp2687
g62
(dp2688
g82
g83
ssg71
g2682
sg64
(lp2689
S'HTTP_ACCEPT_CHARSET'
p2690
asbag57
(g78
g59
NtRp2691
(dp2692
g62
(dp2693
g89
g90
ssg71
g2682
sg64
(lp2694
S':'
asbag57
(g78
g59
NtRp2695
(dp2696
g62
(dp2697
sg71
g2682
sg64
(lp2698
g57
(g58
g59
NtRp2699
(dp2700
g62
(dp2701
g70
I3
ssg71
g2695
sg64
(lp2702
g1062
asbasbasbag57
(g73
g59
NtRp2703
(dp2704
g62
(dp2705
sg71
g2657
sg64
(lp2706
g57
(g78
g59
NtRp2707
(dp2708
g62
(dp2709
g82
g83
ssg71
g2703
sg64
(lp2710
S'HTTP_ACCEPT_ENCODING'
p2711
asbag57
(g78
g59
NtRp2712
(dp2713
g62
(dp2714
g89
g90
ssg71
g2703
sg64
(lp2715
S':'
asbag57
(g78
g59
NtRp2716
(dp2717
g62
(dp2718
sg71
g2703
sg64
(lp2719
g57
(g58
g59
NtRp2720
(dp2721
g62
(dp2722
g70
I3
ssg71
g2716
sg64
(lp2723
g1084
asbasbasbag57
(g73
g59
NtRp2724
(dp2725
g62
(dp2726
sg71
g2657
sg64
(lp2727
g57
(g78
g59
NtRp2728
(dp2729
g62
(dp2730
g82
g83
ssg71
g2724
sg64
(lp2731
S'HTTP_ACCEPT_LANGUAGE'
p2732
asbag57
(g78
g59
NtRp2733
(dp2734
g62
(dp2735
g89
g90
ssg71
g2724
sg64
(lp2736
S':'
asbag57
(g78
g59
NtRp2737
(dp2738
g62
(dp2739
sg71
g2724
sg64
(lp2740
g57
(g58
g59
NtRp2741
(dp2742
g62
(dp2743
g70
I3
ssg71
g2737
sg64
(lp2744
g1106
asbasbasbag57
(g73
g59
NtRp2745
(dp2746
g62
(dp2747
sg71
g2657
sg64
(lp2748
g57
(g78
g59
NtRp2749
(dp2750
g62
(dp2751
g82
g83
ssg71
g2745
sg64
(lp2752
S'HTTP_CONNECTION'
p2753
asbag57
(g78
g59
NtRp2754
(dp2755
g62
(dp2756
g89
g90
ssg71
g2745
sg64
(lp2757
S':'
asbag57
(g78
g59
NtRp2758
(dp2759
g62
(dp2760
sg71
g2745
sg64
(lp2761
g57
(g58
g59
NtRp2762
(dp2763
g62
(dp2764
g70
I3
ssg71
g2758
sg64
(lp2765
g1128
asbasbasbag57
(g73
g59
NtRp2766
(dp2767
g62
(dp2768
sg71
g2657
sg64
(lp2769
g57
(g78
g59
NtRp2770
(dp2771
g62
(dp2772
g82
g83
ssg71
g2766
sg64
(lp2773
S'HTTP_COOKIE'
p2774
asbag57
(g78
g59
NtRp2775
(dp2776
g62
(dp2777
g89
g90
ssg71
g2766
sg64
(lp2778
S':'
asbag57
(g78
g59
NtRp2779
(dp2780
g62
(dp2781
sg71
g2766
sg64
(lp2782
g57
(g58
g59
NtRp2783
(dp2784
g62
(dp2785
g70
I3
ssg71
g2779
sg64
(lp2786
g1150
asbasbasbag57
(g73
g59
NtRp2787
(dp2788
g62
(dp2789
sg71
g2657
sg64
(lp2790
g57
(g78
g59
NtRp2791
(dp2792
g62
(dp2793
g82
g83
ssg71
g2787
sg64
(lp2794
S'HTTP_HOST'
p2795
asbag57
(g78
g59
NtRp2796
(dp2797
g62
(dp2798
g89
g90
ssg71
g2787
sg64
(lp2799
S':'
asbag57
(g78
g59
NtRp2800
(dp2801
g62
(dp2802
sg71
g2787
sg64
(lp2803
g57
(g58
g59
NtRp2804
(dp2805
g62
(dp2806
g70
I3
ssg71
g2800
sg64
(lp2807
g1172
asbasbasbag57
(g73
g59
NtRp2808
(dp2809
g62
(dp2810
sg71
g2657
sg64
(lp2811
g57
(g78
g59
NtRp2812
(dp2813
g62
(dp2814
g82
g83
ssg71
g2808
sg64
(lp2815
S'HTTP_REFERER'
p2816
asbag57
(g78
g59
NtRp2817
(dp2818
g62
(dp2819
g89
g90
ssg71
g2808
sg64
(lp2820
S':'
asbag57
(g78
g59
NtRp2821
(dp2822
g62
(dp2823
sg71
g2808
sg64
(lp2824
g57
(g58
g59
NtRp2825
(dp2826
g62
(dp2827
g70
I3
ssg71
g2821
sg64
(lp2828
g1194
asbasbasbag57
(g73
g59
NtRp2829
(dp2830
g62
(dp2831
sg71
g2657
sg64
(lp2832
g57
(g78
g59
NtRp2833
(dp2834
g62
(dp2835
g82
g83
ssg71
g2829
sg64
(lp2836
S'HTTP_USER_AGENT'
p2837
asbag57
(g78
g59
NtRp2838
(dp2839
g62
(dp2840
g89
g90
ssg71
g2829
sg64
(lp2841
S':'
asbag57
(g78
g59
NtRp2842
(dp2843
g62
(dp2844
sg71
g2829
sg64
(lp2845
g57
(g58
g59
NtRp2846
(dp2847
g62
(dp2848
g70
I3
ssg71
g2842
sg64
(lp2849
g1216
asbasbasbag57
(g73
g59
NtRp2850
(dp2851
g62
(dp2852
sg71
g2657
sg64
(lp2853
g57
(g78
g59
NtRp2854
(dp2855
g62
(dp2856
g82
g83
ssg71
g2850
sg64
(lp2857
S'PATH_INFO'
p2858
asbag57
(g78
g59
NtRp2859
(dp2860
g62
(dp2861
g89
g90
ssg71
g2850
sg64
(lp2862
S':'
asbag57
(g78
g59
NtRp2863
(dp2864
g62
(dp2865
sg71
g2850
sg64
(lp2866
g57
(g58
g59
NtRp2867
(dp2868
g62
(dp2869
g70
I3
ssg71
g2863
sg64
(lp2870
g1370
asbasbasbag57
(g73
g59
NtRp2871
(dp2872
g62
(dp2873
sg71
g2657
sg64
(lp2874
g57
(g78
g59
NtRp2875
(dp2876
g62
(dp2877
g82
g83
ssg71
g2871
sg64
(lp2878
S'QUERY_STRING'
p2879
asbag57
(g78
g59
NtRp2880
(dp2881
g62
(dp2882
g89
g90
ssg71
g2871
sg64
(lp2883
S':'
asbag57
(g78
g59
NtRp2884
(dp2885
g62
(dp2886
sg71
g2871
sg64
(lp2887
g57
(g58
g59
NtRp2888
(dp2889
g62
(dp2890
g70
I3
ssg71
g2884
sg64
(lp2891
S''
asbasbasbag57
(g73
g59
NtRp2892
(dp2893
g62
(dp2894
sg71
g2657
sg64
(lp2895
g57
(g78
g59
NtRp2896
(dp2897
g62
(dp2898
g82
g83
ssg71
g2892
sg64
(lp2899
S'REMOTE_ADDR'
p2900
asbag57
(g78
g59
NtRp2901
(dp2902
g62
(dp2903
g89
g90
ssg71
g2892
sg64
(lp2904
S':'
asbag57
(g78
g59
NtRp2905
(dp2906
g62
(dp2907
sg71
g2892
sg64
(lp2908
g57
(g58
g59
NtRp2909
(dp2910
g62
(dp2911
g70
I3
ssg71
g2905
sg64
(lp2912
g224
asbasbasbag57
(g73
g59
NtRp2913
(dp2914
g62
(dp2915
sg71
g2657
sg64
(lp2916
g57
(g78
g59
NtRp2917
(dp2918
g62
(dp2919
g82
g83
ssg71
g2913
sg64
(lp2920
S'REMOTE_PORT'
p2921
asbag57
(g78
g59
NtRp2922
(dp2923
g62
(dp2924
g89
g90
ssg71
g2913
sg64
(lp2925
S':'
asbag57
(g78
g59
NtRp2926
(dp2927
g62
(dp2928
sg71
g2913
sg64
(lp2929
g57
(g58
g59
NtRp2930
(dp2931
g62
(dp2932
g70
I3
ssg71
g2926
sg64
(lp2933
g1434
asbasbasbag57
(g73
g59
NtRp2934
(dp2935
g62
(dp2936
sg71
g2657
sg64
(lp2937
g57
(g78
g59
NtRp2938
(dp2939
g62
(dp2940
g82
g83
ssg71
g2934
sg64
(lp2941
S'REQUEST_METHOD'
p2942
asbag57
(g78
g59
NtRp2943
(dp2944
g62
(dp2945
g89
g90
ssg71
g2934
sg64
(lp2946
S':'
asbag57
(g78
g59
NtRp2947
(dp2948
g62
(dp2949
sg71
g2934
sg64
(lp2950
g57
(g58
g59
NtRp2951
(dp2952
g62
(dp2953
g70
I3
ssg71
g2947
sg64
(lp2954
g1456
asbasbasbag57
(g73
g59
NtRp2955
(dp2956
g62
(dp2957
sg71
g2657
sg64
(lp2958
g57
(g78
g59
NtRp2959
(dp2960
g62
(dp2961
g82
g83
ssg71
g2955
sg64
(lp2962
S'REQUEST_URI'
p2963
asbag57
(g78
g59
NtRp2964
(dp2965
g62
(dp2966
g89
g90
ssg71
g2955
sg64
(lp2967
S':'
asbag57
(g78
g59
NtRp2968
(dp2969
g62
(dp2970
sg71
g2955
sg64
(lp2971
g57
(g58
g59
NtRp2972
(dp2973
g62
(dp2974
g70
I3
ssg71
g2968
sg64
(lp2975
g1370
asbasbasbag57
(g73
g59
NtRp2976
(dp2977
g62
(dp2978
sg71
g2657
sg64
(lp2979
g57
(g78
g59
NtRp2980
(dp2981
g62
(dp2982
g82
g83
ssg71
g2976
sg64
(lp2983
S'SCRIPT_NAME'
p2984
asbag57
(g78
g59
NtRp2985
(dp2986
g62
(dp2987
g89
g90
ssg71
g2976
sg64
(lp2988
S':'
asbag57
(g78
g59
NtRp2989
(dp2990
g62
(dp2991
sg71
g2976
sg64
(lp2992
g57
(g58
g59
NtRp2993
(dp2994
g62
(dp2995
g70
I3
ssg71
g2989
sg64
(lp2996
S''
asbasbasbag57
(g73
g59
NtRp2997
(dp2998
g62
(dp2999
sg71
g2657
sg64
(lp3000
g57
(g78
g59
NtRp3001
(dp3002
g62
(dp3003
g82
g83
ssg71
g2997
sg64
(lp3004
S'SERVER_NAME'
p3005
asbag57
(g78
g59
NtRp3006
(dp3007
g62
(dp3008
g89
g90
ssg71
g2997
sg64
(lp3009
S':'
asbag57
(g78
g59
NtRp3010
(dp3011
g62
(dp3012
sg71
g2997
sg64
(lp3013
g57
(g58
g59
NtRp3014
(dp3015
g62
(dp3016
g70
I3
ssg71
g3010
sg64
(lp3017
g1335
asbasbasbag57
(g73
g59
NtRp3018
(dp3019
g62
(dp3020
sg71
g2657
sg64
(lp3021
g57
(g78
g59
NtRp3022
(dp3023
g62
(dp3024
g82
g83
ssg71
g3018
sg64
(lp3025
S'SERVER_PORT'
p3026
asbag57
(g78
g59
NtRp3027
(dp3028
g62
(dp3029
g89
g90
ssg71
g3018
sg64
(lp3030
S':'
asbag57
(g78
g59
NtRp3031
(dp3032
g62
(dp3033
sg71
g3018
sg64
(lp3034
g57
(g58
g59
NtRp3035
(dp3036
g62
(dp3037
g70
I3
ssg71
g3031
sg64
(lp3038
g1541
asbasbasbag57
(g73
g59
NtRp3039
(dp3040
g62
(dp3041
sg71
g2657
sg64
(lp3042
g57
(g78
g59
NtRp3043
(dp3044
g62
(dp3045
g82
g83
ssg71
g3039
sg64
(lp3046
S'SERVER_PROTOCOL'
p3047
asbag57
(g78
g59
NtRp3048
(dp3049
g62
(dp3050
g89
g90
ssg71
g3039
sg64
(lp3051
S':'
asbag57
(g78
g59
NtRp3052
(dp3053
g62
(dp3054
sg71
g3039
sg64
(lp3055
g57
(g58
g59
NtRp3056
(dp3057
g62
(dp3058
g70
I3
ssg71
g3052
sg64
(lp3059
g1563
asbasbasbag57
(g73
g59
NtRp3060
(dp3061
g62
(dp3062
sg71
g2657
sg64
(lp3063
g57
(g78
g59
NtRp3064
(dp3065
g62
(dp3066
g82
g83
ssg71
g3060
sg64
(lp3067
S'SERVER_SOFTWARE'
p3068
asbag57
(g78
g59
NtRp3069
(dp3070
g62
(dp3071
g89
g90
ssg71
g3060
sg64
(lp3072
S':'
asbag57
(g78
g59
NtRp3073
(dp3074
g62
(dp3075
sg71
g3060
sg64
(lp3076
g57
(g58
g59
NtRp3077
(dp3078
g62
(dp3079
g70
I3
ssg71
g3073
sg64
(lp3080
g1585
asbasbasbag57
(g73
g59
NtRp3081
(dp3082
g62
(dp3083
sg71
g2657
sg64
(lp3084
g57
(g78
g59
NtRp3085
(dp3086
g62
(dp3087
g82
g83
ssg71
g3081
sg64
(lp3088
S'wsgi.errors'
p3089
asbag57
(g78
g59
NtRp3090
(dp3091
g62
(dp3092
g89
g90
ssg71
g3081
sg64
(lp3093
S':'
asbag57
(g78
g59
NtRp3094
(dp3095
g62
(dp3096
sg71
g3081
sg64
(lp3097
g57
(g58
g59
NtRp3098
(dp3099
g62
(dp3100
g70
I3
ssg71
g3094
sg64
(lp3101
S"<open file '<stderr>', mode 'w' at 0x25a0d0>"
p3102
asbasbasbag57
(g73
g59
NtRp3103
(dp3104
g62
(dp3105
sg71
g2657
sg64
(lp3106
g57
(g78
g59
NtRp3107
(dp3108
g62
(dp3109
g82
g83
ssg71
g3103
sg64
(lp3110
S'wsgi.file_wrapper'
p3111
asbag57
(g78
g59
NtRp3112
(dp3113
g62
(dp3114
g89
g90
ssg71
g3103
sg64
(lp3115
S':'
asbag57
(g78
g59
NtRp3116
(dp3117
g62
(dp3118
sg71
g3103
sg64
(lp3119
g57
(g58
g59
NtRp3120
(dp3121
g62
(dp3122
g70
I3
ssg71
g3116
sg64
(lp3123
S'<class wsgiref.util.FileWrapper at 0x1968d50>'
p3124
asbasbasbag57
(g73
g59
NtRp3125
(dp3126
g62
(dp3127
sg71
g2657
sg64
(lp3128
g57
(g78
g59
NtRp3129
(dp3130
g62
(dp3131
g82
g83
ssg71
g3125
sg64
(lp3132
S'wsgi.input'
p3133
asbag57
(g78
g59
NtRp3134
(dp3135
g62
(dp3136
g89
g90
ssg71
g3125
sg64
(lp3137
S':'
asbag57
(g78
g59
NtRp3138
(dp3139
g62
(dp3140
sg71
g3125
sg64
(lp3141
g57
(g58
g59
NtRp3142
(dp3143
g62
(dp3144
g70
I3
ssg71
g3138
sg64
(lp3145
S'<cStringIO.StringO object at 0x182b0540>'
p3146
asbasbasbag57
(g73
g59
NtRp3147
(dp3148
g62
(dp3149
sg71
g2657
sg64
(lp3150
g57
(g78
g59
NtRp3151
(dp3152
g62
(dp3153
g82
g83
ssg71
g3147
sg64
(lp3154
S'wsgi.multiprocess'
p3155
asbag57
(g78
g59
NtRp3156
(dp3157
g62
(dp3158
g89
g90
ssg71
g3147
sg64
(lp3159
S':'
asbag57
(g78
g59
NtRp3160
(dp3161
g62
(dp3162
sg71
g3147
sg64
(lp3163
g57
(g58
g59
NtRp3164
(dp3165
g62
(dp3166
g70
I3
ssg71
g3160
sg64
(lp3167
g100
asbasbasbag57
(g73
g59
NtRp3168
(dp3169
g62
(dp3170
sg71
g2657
sg64
(lp3171
g57
(g78
g59
NtRp3172
(dp3173
g62
(dp3174
g82
g83
ssg71
g3168
sg64
(lp3175
S'wsgi.multithread'
p3176
asbag57
(g78
g59
NtRp3177
(dp3178
g62
(dp3179
g89
g90
ssg71
g3168
sg64
(lp3180
S':'
asbag57
(g78
g59
NtRp3181
(dp3182
g62
(dp3183
sg71
g3168
sg64
(lp3184
g57
(g58
g59
NtRp3185
(dp3186
g62
(dp3187
g70
I3
ssg71
g3181
sg64
(lp3188
g1802
asbasbasbag57
(g73
g59
NtRp3189
(dp3190
g62
(dp3191
sg71
g2657
sg64
(lp3192
g57
(g78
g59
NtRp3193
(dp3194
g62
(dp3195
g82
g83
ssg71
g3189
sg64
(lp3196
S'wsgi.run_once'
p3197
asbag57
(g78
g59
NtRp3198
(dp3199
g62
(dp3200
g89
g90
ssg71
g3189
sg64
(lp3201
S':'
asbag57
(g78
g59
NtRp3202
(dp3203
g62
(dp3204
sg71
g3189
sg64
(lp3205
g57
(g58
g59
NtRp3206
(dp3207
g62
(dp3208
g70
I3
ssg71
g3202
sg64
(lp3209
g100
asbasbasbag57
(g73
g59
NtRp3210
(dp3211
g62
(dp3212
sg71
g2657
sg64
(lp3213
g57
(g78
g59
NtRp3214
(dp3215
g62
(dp3216
g82
g83
ssg71
g3210
sg64
(lp3217
S'wsgi.url_scheme'
p3218
asbag57
(g78
g59
NtRp3219
(dp3220
g62
(dp3221
g89
g90
ssg71
g3210
sg64
(lp3222
S':'
asbag57
(g78
g59
NtRp3223
(dp3224
g62
(dp3225
sg71
g3210
sg64
(lp3226
g57
(g58
g59
NtRp3227
(dp3228
g62
(dp3229
g70
I3
ssg71
g3223
sg64
(lp3230
g1845
asbasbasbag57
(g73
g59
NtRp3231
(dp3232
g62
(dp3233
sg71
g2657
sg64
(lp3234
g57
(g78
g59
NtRp3235
(dp3236
g62
(dp3237
g82
g83
ssg71
g3231
sg64
(lp3238
S'wsgi.version'
p3239
asbag57
(g78
g59
NtRp3240
(dp3241
g62
(dp3242
g89
g90
ssg71
g3231
sg64
(lp3243
S':'
asbag57
(g78
g59
NtRp3244
(dp3245
g62
(dp3246
sg71
g3231
sg64
(lp3247
g57
(g58
g59
NtRp3248
(dp3249
g62
(dp3250
g70
I3
ssg71
g3244
sg64
(lp3251
S'1'
asbasbasbasbasbasbasbasbasbasbasbasbasbsS'frames'
p3252
(lp3253
(dp3254
S'file'
p3255
S'/Users/Truki/web2py/gluon/restricted.py'
p3256
sS'dump'
p3257
(dp3258
S'environment'
p3259
S"{'A': <class 'gluon.html.A'>, 'Auth': <class 'gluon.tools.Auth'>, 'B': <class 'gluon.html.B'>, 'BEAUTIFY': <class 'gluon.html.BEAUTIFY'>, 'BODY': <class 'gluon.html.BODY'>, 'BR': <class 'gluon.html.BR'>, 'BUTTON': <class 'gluon.html.BUTTON'>, 'CAT': <class 'gluon.html.CAT'>, 'CENTER': <class 'gluon.html.CENTER'>, 'CLEANUP': <class 'gluon.validators.CLEANUP'>, ...}"
p3260
sS'ccode'
p3261
S'<code object <module> at 0x182b5ba8, file "/User...lications/rosan/controllers/clientes.py", line 3>'
p3262
ssS'lnum'
p3263
I212
sS'lines'
p3264
(dp3265
I207
S'    try:'
p3266
sI208
S'        if isinstance(code, types.CodeType):'
p3267
sI209
S'            ccode = code'
p3268
sI210
S'        else:'
p3269
sI211
S'            ccode = compile2(code, layer)'
p3270
sI212
S'        exec ccode in environment'
p3271
sI213
S'    except HTTP:'
p3272
sI214
S'        raise'
p3273
sI215
S'    except RestrictedError:'
p3274
sI216
S'        # do not encapsulate (obfuscate) the original RestrictedError'
p3275
ssS'call'
p3276
S"(code='# -*- coding: utf-8 -*-\\n### required - do no del...)  \\n  \\nresponse._vars=response._caller(eliminar)\\n', environment={'A': <class 'gluon.html.A'>, 'Auth': <class 'gluon.tools.Auth'>, 'B': <class 'gluon.html.B'>, 'BEAUTIFY': <class 'gluon.html.BEAUTIFY'>, 'BODY': <class 'gluon.html.BODY'>, 'BR': <class 'gluon.html.BR'>, 'BUTTON': <class 'gluon.html.BUTTON'>, 'CAT': <class 'gluon.html.CAT'>, 'CENTER': <class 'gluon.html.CENTER'>, 'CLEANUP': <class 'gluon.validators.CLEANUP'>, ...}, layer='/Users/Truki/web2py/applications/rosan/controllers/clientes.py')"
p3277
sS'func'
p3278
S'restricted'
p3279
sa(dp3280
g3255
S'/Users/Truki/web2py/applications/rosan/controllers/clientes.py'
p3281
sg3257
(dp3282
sg3263
I27
sg3264
(dp3283
I17
S'    return dict(id=id, nombre=nombre)'
p3284
sI18
S''
sI19
S''
sI20
S''
sI21
S'def clientes():'
p3285
sI22
S'    form = SQLFORM(dbRosan.cliente)'
p3286
sI23
S'    if form.process().accepted:'
p3287
sI24
S"        response.flash = 'cliente insertado'"
p3288
sI25
S'    return dict(form=form)'
p3289
sI26
S''
ssg3276
S'()'
p3290
sg3278
S'<module>'
p3291
sa(dp3292
g3255
S'/Users/Truki/web2py/gluon/globals.py'
p3293
sg3257
(dp3294
S'self'
p3295
S'undefined'
p3296
sS'f'
S'<function eliminar>'
p3297
ssg3263
I188
sg3264
(dp3298
I192
S''
sI183
S'        self.menu = []             # used by the default view layout'
p3299
sI184
S'        self.files = []            # used by web2py_ajax.html'
p3300
sI185
S'        self.generic_patterns = []  # patterns to allow generic views'
p3301
sI186
S"        self.delimiters = ('{{', '}}')"
p3302
sI187
S'        self._vars = None'
p3303
sI188
S'        self._caller = lambda f: f()'
p3304
sI189
S'        self._view_environment = None'
p3305
sI190
S'        self._custom_commit = None'
p3306
sI191
S'        self._custom_rollback = None'
p3307
ssg3276
S'(f=<function eliminar>)'
p3308
sg3278
S'<lambda>'
p3309
sa(dp3310
g3255
S'/Users/Truki/web2py/applications/rosan/controllers/clientes.py'
p3311
sg3257
(dp3312
S'clienteEliminado'
p3313
g3296
sS'global dbRosan'
p3314
S'<DAL uri="sqlite://dbRosan.db">'
p3315
sS').select'
p3316
g3296
sS'dbRosan.cliente'
p3317
S'<Table cliente (id,cif,nombre,direccion,localidad,cod_postal,email,www)>'
p3318
sS'dbRosan.cliente.ALL'
p3319
S'<gluon.dal.SQLALL object>'
p3320
sS'id'
p3321
S"'3'"
p3322
ssg3263
I14
sg3264
(dp3323
I9
S'    return dict(clientes=clientes)'
p3324
sI10
S''
sI11
S''
sI12
S'def eliminar():'
p3325
sI13
S'    id = request.args[0]'
p3326
sI14
S'    clienteEliminado = dbRosan.cliente(id).select(dbRosan.cliente.ALL)'
p3327
sI15
S'    nombre = clienteEliminado.nombre'
p3328
sI16
S'    dbRosan(dbRosan.cliente.id==id).delete'
p3329
sI17
S'    return dict(id=id, nombre=nombre)'
p3330
sI18
S''
ssg3276
S'()'
p3331
sg3278
S'eliminar'
p3332
sasS'pyver'
p3333
S'Python 2.7.3: /Library/Frameworks/Python.framework/Versions/2.7/Resources/Python.app/Contents/MacOS/Python'
p3334
sS'session'
p3335
g57
(g58
g59
NtRp3336
(dp3337
g62
(dp3338
sg64
(lp3339
g57
(g66
g59
NtRp3340
(dp3341
g62
(dp3342
g70
I5
ssg71
Nsg64
(lp3343
g57
(g73
g59
NtRp3344
(dp3345
g62
(dp3346
sg71
g3340
sg64
(lp3347
g57
(g78
g59
NtRp3348
(dp3349
g62
(dp3350
g82
g83
ssg71
g3344
sg64
(lp3351
S'last_orderby'
p3352
asbag57
(g78
g59
NtRp3353
(dp3354
g62
(dp3355
g89
g90
ssg71
g3344
sg64
(lp3356
S':'
asbag57
(g78
g59
NtRp3357
(dp3358
g62
(dp3359
sg71
g3344
sg64
(lp3360
g57
(g58
g59
NtRp3361
(dp3362
g62
(dp3363
g70
I5
ssg71
g3357
sg64
(lp3364
S'None'
p3365
asbasbasbag57
(g73
g59
NtRp3366
(dp3367
g62
(dp3368
sg71
g3340
sg64
(lp3369
g57
(g78
g59
NtRp3370
(dp3371
g62
(dp3372
g82
g83
ssg71
g3366
sg64
(lp3373
S'last_query'
p3374
asbag57
(g78
g59
NtRp3375
(dp3376
g62
(dp3377
g89
g90
ssg71
g3366
sg64
(lp3378
S':'
asbag57
(g78
g59
NtRp3379
(dp3380
g62
(dp3381
sg71
g3366
sg64
(lp3382
g57
(g58
g59
NtRp3383
(dp3384
g62
(dp3385
g70
I5
ssg71
g3379
sg64
(lp3386
S'dbRosan.cliente.id>0'
p3387
asbasbasbasbasbsS'etype'
p3388
S"<type 'exceptions.AttributeError'>"
p3389
sS'date'
p3390
S'Sun Jan 20 18:31:19 2013'
p3391
sS'response'
p3392
g57
(g58
g59
NtRp3393
(dp3394
g62
(dp3395
sg64
(lp3396
g57
(g66
g59
NtRp3397
(dp3398
g62
(dp3399
g70
I5
ssg71
Nsg64
(lp3400
g57
(g73
g59
NtRp3401
(dp3402
g62
(dp3403
sg71
g3397
sg64
(lp3404
g57
(g78
g59
NtRp3405
(dp3406
g62
(dp3407
g82
g83
ssg71
g3401
sg64
(lp3408
g167
asbag57
(g78
g59
NtRp3409
(dp3410
g62
(dp3411
g89
g90
ssg71
g3401
sg64
(lp3412
S':'
asbag57
(g78
g59
NtRp3413
(dp3414
g62
(dp3415
sg71
g3401
sg64
(lp3416
g57
(g58
g59
NtRp3417
(dp3418
g62
(dp3419
g70
I5
ssg71
g3413
sg64
(lp3420
S'<cStringIO.StringO object at 0x18658800>'
p3421
asbasbasbag57
(g73
g59
NtRp3422
(dp3423
g62
(dp3424
sg71
g3397
sg64
(lp3425
g57
(g78
g59
NtRp3426
(dp3427
g62
(dp3428
g82
g83
ssg71
g3422
sg64
(lp3429
g255
asbag57
(g78
g59
NtRp3430
(dp3431
g62
(dp3432
g89
g90
ssg71
g3422
sg64
(lp3433
S':'
asbag57
(g78
g59
NtRp3434
(dp3435
g62
(dp3436
sg71
g3422
sg64
(lp3437
g57
(g58
g59
NtRp3438
(dp3439
g62
(dp3440
g70
I5
ssg71
g3434
sg64
(lp3441
g57
(g66
g59
NtRp3442
(dp3443
g62
(dp3444
g70
I4
ssg71
Nsg64
(lp3445
g57
(g73
g59
NtRp3446
(dp3447
g62
(dp3448
sg71
g3442
sg64
(lp3449
g57
(g78
g59
NtRp3450
(dp3451
g62
(dp3452
g82
g83
ssg71
g3446
sg64
(lp3453
S'session_id_rosan'
p3454
asbag57
(g78
g59
NtRp3455
(dp3456
g62
(dp3457
g89
g90
ssg71
g3446
sg64
(lp3458
S':'
asbag57
(g78
g59
NtRp3459
(dp3460
g62
(dp3461
sg71
g3446
sg64
(lp3462
g57
(g58
g59
NtRp3463
(dp3464
g62
(dp3465
g70
I4
ssg71
g3459
sg64
(lp3466
g487
ag57
(g66
g59
NtRp3467
(dp3468
g62
(dp3469
g70
I3
ssg71
Nsg64
(lp3470
g57
(g73
g59
NtRp3471
(dp3472
g62
(dp3473
sg71
g3467
sg64
(lp3474
g57
(g78
g59
NtRp3475
(dp3476
g62
(dp3477
g82
g83
ssg71
g3471
sg64
(lp3478
g306
asbag57
(g78
g59
NtRp3479
(dp3480
g62
(dp3481
g89
g90
ssg71
g3471
sg64
(lp3482
S':'
asbag57
(g78
g59
NtRp3483
(dp3484
g62
(dp3485
sg71
g3471
sg64
(lp3486
g57
(g58
g59
NtRp3487
(dp3488
g62
(dp3489
g70
I3
ssg71
g3483
sg64
(lp3490
S''
asbasbasbag57
(g73
g59
NtRp3491
(dp3492
g62
(dp3493
sg71
g3467
sg64
(lp3494
g57
(g78
g59
NtRp3495
(dp3496
g62
(dp3497
g82
g83
ssg71
g3491
sg64
(lp3498
g327
asbag57
(g78
g59
NtRp3499
(dp3500
g62
(dp3501
g89
g90
ssg71
g3491
sg64
(lp3502
S':'
asbag57
(g78
g59
NtRp3503
(dp3504
g62
(dp3505
sg71
g3491
sg64
(lp3506
g57
(g58
g59
NtRp3507
(dp3508
g62
(dp3509
g70
I3
ssg71
g3503
sg64
(lp3510
S''
asbasbasbag57
(g73
g59
NtRp3511
(dp3512
g62
(dp3513
sg71
g3467
sg64
(lp3514
g57
(g78
g59
NtRp3515
(dp3516
g62
(dp3517
g82
g83
ssg71
g3511
sg64
(lp3518
g348
asbag57
(g78
g59
NtRp3519
(dp3520
g62
(dp3521
g89
g90
ssg71
g3511
sg64
(lp3522
S':'
asbag57
(g78
g59
NtRp3523
(dp3524
g62
(dp3525
sg71
g3511
sg64
(lp3526
g57
(g58
g59
NtRp3527
(dp3528
g62
(dp3529
g70
I3
ssg71
g3523
sg64
(lp3530
S''
asbasbasbag57
(g73
g59
NtRp3531
(dp3532
g62
(dp3533
sg71
g3467
sg64
(lp3534
g57
(g78
g59
NtRp3535
(dp3536
g62
(dp3537
g82
g83
ssg71
g3531
sg64
(lp3538
g369
asbag57
(g78
g59
NtRp3539
(dp3540
g62
(dp3541
g89
g90
ssg71
g3531
sg64
(lp3542
S':'
asbag57
(g78
g59
NtRp3543
(dp3544
g62
(dp3545
sg71
g3531
sg64
(lp3546
g57
(g58
g59
NtRp3547
(dp3548
g62
(dp3549
g70
I3
ssg71
g3543
sg64
(lp3550
S''
asbasbasbag57
(g73
g59
NtRp3551
(dp3552
g62
(dp3553
sg71
g3467
sg64
(lp3554
g57
(g78
g59
NtRp3555
(dp3556
g62
(dp3557
g82
g83
ssg71
g3551
sg64
(lp3558
g390
asbag57
(g78
g59
NtRp3559
(dp3560
g62
(dp3561
g89
g90
ssg71
g3551
sg64
(lp3562
S':'
asbag57
(g78
g59
NtRp3563
(dp3564
g62
(dp3565
sg71
g3551
sg64
(lp3566
g57
(g58
g59
NtRp3567
(dp3568
g62
(dp3569
g70
I3
ssg71
g3563
sg64
(lp3570
S''
asbasbasbag57
(g73
g59
NtRp3571
(dp3572
g62
(dp3573
sg71
g3467
sg64
(lp3574
g57
(g78
g59
NtRp3575
(dp3576
g62
(dp3577
g82
g83
ssg71
g3571
sg64
(lp3578
g411
asbag57
(g78
g59
NtRp3579
(dp3580
g62
(dp3581
g89
g90
ssg71
g3571
sg64
(lp3582
S':'
asbag57
(g78
g59
NtRp3583
(dp3584
g62
(dp3585
sg71
g3571
sg64
(lp3586
g57
(g58
g59
NtRp3587
(dp3588
g62
(dp3589
g70
I3
ssg71
g3583
sg64
(lp3590
S'/'
asbasbasbag57
(g73
g59
NtRp3591
(dp3592
g62
(dp3593
sg71
g3467
sg64
(lp3594
g57
(g78
g59
NtRp3595
(dp3596
g62
(dp3597
g82
g83
ssg71
g3591
sg64
(lp3598
g432
asbag57
(g78
g59
NtRp3599
(dp3600
g62
(dp3601
g89
g90
ssg71
g3591
sg64
(lp3602
S':'
asbag57
(g78
g59
NtRp3603
(dp3604
g62
(dp3605
sg71
g3591
sg64
(lp3606
g57
(g58
g59
NtRp3607
(dp3608
g62
(dp3609
g70
I3
ssg71
g3603
sg64
(lp3610
S''
asbasbasbag57
(g73
g59
NtRp3611
(dp3612
g62
(dp3613
sg71
g3467
sg64
(lp3614
g57
(g78
g59
NtRp3615
(dp3616
g62
(dp3617
g82
g83
ssg71
g3611
sg64
(lp3618
g453
asbag57
(g78
g59
NtRp3619
(dp3620
g62
(dp3621
g89
g90
ssg71
g3611
sg64
(lp3622
S':'
asbag57
(g78
g59
NtRp3623
(dp3624
g62
(dp3625
sg71
g3611
sg64
(lp3626
g57
(g58
g59
NtRp3627
(dp3628
g62
(dp3629
g70
I3
ssg71
g3623
sg64
(lp3630
S''
asbasbasbasbasbasbasbasbasbasbasbag57
(g73
g59
NtRp3631
(dp3632
g62
(dp3633
sg71
g3397
sg64
(lp3634
g57
(g78
g59
NtRp3635
(dp3636
g62
(dp3637
g82
g83
ssg71
g3631
sg64
(lp3638
S'delimiters'
p3639
asbag57
(g78
g59
NtRp3640
(dp3641
g62
(dp3642
g89
g90
ssg71
g3631
sg64
(lp3643
S':'
asbag57
(g78
g59
NtRp3644
(dp3645
g62
(dp3646
sg71
g3631
sg64
(lp3647
g57
(g58
g59
NtRp3648
(dp3649
g62
(dp3650
g70
I5
ssg71
g3644
sg64
(lp3651
g57
(g66
g59
NtRp3652
(dp3653
g62
(dp3654
g70
I4
ssg71
Nsg64
(lp3655
g57
(g73
g59
NtRp3656
(dp3657
g62
(dp3658
sg71
g3652
sg64
(lp3659
g57
(g78
g59
NtRp3660
(dp3661
g62
(dp3662
sg71
g3656
sg64
(lp3663
g57
(g58
g59
NtRp3664
(dp3665
g62
(dp3666
g70
I4
ssg71
g3660
sg64
(lp3667
S'{{'
p3668
asbasbasbag57
(g73
g59
NtRp3669
(dp3670
g62
(dp3671
sg71
g3652
sg64
(lp3672
g57
(g78
g59
NtRp3673
(dp3674
g62
(dp3675
sg71
g3669
sg64
(lp3676
g57
(g58
g59
NtRp3677
(dp3678
g62
(dp3679
g70
I4
ssg71
g3673
sg64
(lp3680
S'}}'
p3681
asbasbasbasbasbasbasbag57
(g73
g59
NtRp3682
(dp3683
g62
(dp3684
sg71
g3397
sg64
(lp3685
g57
(g78
g59
NtRp3686
(dp3687
g62
(dp3688
g82
g83
ssg71
g3682
sg64
(lp3689
S'files'
p3690
asbag57
(g78
g59
NtRp3691
(dp3692
g62
(dp3693
g89
g90
ssg71
g3682
sg64
(lp3694
S':'
asbag57
(g78
g59
NtRp3695
(dp3696
g62
(dp3697
sg71
g3682
sg64
(lp3698
g57
(g58
g59
NtRp3699
(dp3700
g62
(dp3701
g70
I5
ssg71
g3695
sg64
(lp3702
g57
(g66
g59
NtRp3703
(dp3704
g62
(dp3705
g70
I4
ssg71
Nsg64
(lp3706
sbasbasbasbag57
(g73
g59
NtRp3707
(dp3708
g62
(dp3709
sg71
g3397
sg64
(lp3710
g57
(g78
g59
NtRp3711
(dp3712
g62
(dp3713
g82
g83
ssg71
g3707
sg64
(lp3714
S'flash'
p3715
asbag57
(g78
g59
NtRp3716
(dp3717
g62
(dp3718
g89
g90
ssg71
g3707
sg64
(lp3719
S':'
asbag57
(g78
g59
NtRp3720
(dp3721
g62
(dp3722
sg71
g3707
sg64
(lp3723
g57
(g58
g59
NtRp3724
(dp3725
g62
(dp3726
g70
I5
ssg71
g3720
sg64
(lp3727
S''
asbasbasbag57
(g73
g59
NtRp3728
(dp3729
g62
(dp3730
sg71
g3397
sg64
(lp3731
g57
(g78
g59
NtRp3732
(dp3733
g62
(dp3734
g82
g83
ssg71
g3728
sg64
(lp3735
S'generic_patterns'
p3736
asbag57
(g78
g59
NtRp3737
(dp3738
g62
(dp3739
g89
g90
ssg71
g3728
sg64
(lp3740
S':'
asbag57
(g78
g59
NtRp3741
(dp3742
g62
(dp3743
sg71
g3728
sg64
(lp3744
g57
(g58
g59
NtRp3745
(dp3746
g62
(dp3747
g70
I5
ssg71
g3741
sg64
(lp3748
g57
(g66
g59
NtRp3749
(dp3750
g62
(dp3751
g70
I4
ssg71
Nsg64
(lp3752
g57
(g73
g59
NtRp3753
(dp3754
g62
(dp3755
sg71
g3749
sg64
(lp3756
g57
(g78
g59
NtRp3757
(dp3758
g62
(dp3759
sg71
g3753
sg64
(lp3760
g57
(g58
g59
NtRp3761
(dp3762
g62
(dp3763
g70
I4
ssg71
g3757
sg64
(lp3764
S'*'
asbasbasbasbasbasbasbag57
(g73
g59
NtRp3765
(dp3766
g62
(dp3767
sg71
g3397
sg64
(lp3768
g57
(g78
g59
NtRp3769
(dp3770
g62
(dp3771
g82
g83
ssg71
g3765
sg64
(lp3772
S'headers'
p3773
asbag57
(g78
g59
NtRp3774
(dp3775
g62
(dp3776
g89
g90
ssg71
g3765
sg64
(lp3777
S':'
asbag57
(g78
g59
NtRp3778
(dp3779
g62
(dp3780
sg71
g3765
sg64
(lp3781
g57
(g58
g59
NtRp3782
(dp3783
g62
(dp3784
g70
I5
ssg71
g3778
sg64
(lp3785
g57
(g66
g59
NtRp3786
(dp3787
g62
(dp3788
g70
I4
ssg71
Nsg64
(lp3789
g57
(g73
g59
NtRp3790
(dp3791
g62
(dp3792
sg71
g3786
sg64
(lp3793
g57
(g78
g59
NtRp3794
(dp3795
g62
(dp3796
g82
g83
ssg71
g3790
sg64
(lp3797
S'X-Powered-By'
p3798
asbag57
(g78
g59
NtRp3799
(dp3800
g62
(dp3801
g89
g90
ssg71
g3790
sg64
(lp3802
S':'
asbag57
(g78
g59
NtRp3803
(dp3804
g62
(dp3805
sg71
g3790
sg64
(lp3806
g57
(g58
g59
NtRp3807
(dp3808
g62
(dp3809
g70
I4
ssg71
g3803
sg64
(lp3810
S'web2py'
p3811
asbasbasbasbasbasbasbag57
(g73
g59
NtRp3812
(dp3813
g62
(dp3814
sg71
g3397
sg64
(lp3815
g57
(g78
g59
NtRp3816
(dp3817
g62
(dp3818
g82
g83
ssg71
g3812
sg64
(lp3819
S'menu'
p3820
asbag57
(g78
g59
NtRp3821
(dp3822
g62
(dp3823
g89
g90
ssg71
g3812
sg64
(lp3824
S':'
asbag57
(g78
g59
NtRp3825
(dp3826
g62
(dp3827
sg71
g3812
sg64
(lp3828
g57
(g58
g59
NtRp3829
(dp3830
g62
(dp3831
g70
I5
ssg71
g3825
sg64
(lp3832
g57
(g66
g59
NtRp3833
(dp3834
g62
(dp3835
g70
I4
ssg71
Nsg64
(lp3836
g57
(g73
g59
NtRp3837
(dp3838
g62
(dp3839
sg71
g3833
sg64
(lp3840
g57
(g78
g59
NtRp3841
(dp3842
g62
(dp3843
sg71
g3837
sg64
(lp3844
g57
(g58
g59
NtRp3845
(dp3846
g62
(dp3847
g70
I4
ssg71
g3841
sg64
(lp3848
g57
(g66
g59
NtRp3849
(dp3850
g62
(dp3851
g70
I3
ssg71
Nsg64
(lp3852
g57
(g73
g59
NtRp3853
(dp3854
g62
(dp3855
sg71
g3849
sg64
(lp3856
g57
(g78
g59
NtRp3857
(dp3858
g62
(dp3859
sg71
g3853
sg64
(lp3860
g57
(g58
g59
NtRp3861
(dp3862
g62
(dp3863
g70
I3
ssg71
g3857
sg64
(lp3864
cgluon.languages
lazyT_unpickle
p3865
(S's\x06\x00\x00\x00Indice'
tRp3866
asbasbasbag57
(g73
g59
NtRp3867
(dp3868
g62
(dp3869
sg71
g3849
sg64
(lp3870
g57
(g78
g59
NtRp3871
(dp3872
g62
(dp3873
sg71
g3867
sg64
(lp3874
g57
(g58
g59
NtRp3875
(dp3876
g62
(dp3877
g70
I3
ssg71
g3871
sg64
(lp3878
g100
asbasbasbag57
(g73
g59
NtRp3879
(dp3880
g62
(dp3881
sg71
g3849
sg64
(lp3882
g57
(g78
g59
NtRp3883
(dp3884
g62
(dp3885
sg71
g3879
sg64
(lp3886
g57
(g58
g59
NtRp3887
(dp3888
g62
(dp3889
g70
I3
ssg71
g3883
sg64
(lp3890
S'/rosan/default/index'
p3891
asbasbasbag57
(g73
g59
NtRp3892
(dp3893
g62
(dp3894
sg71
g3849
sg64
(lp3895
g57
(g78
g59
NtRp3896
(dp3897
g62
(dp3898
sg71
g3892
sg64
(lp3899
g57
(g58
g59
NtRp3900
(dp3901
g62
(dp3902
g70
I3
ssg71
g3896
sg64
(lp3903
g57
(g66
g59
NtRp3904
(dp3905
g62
(dp3906
g70
I2
ssg71
Nsg64
(lp3907
sbasbasbasbasbasbasbasbag57
(g73
g59
NtRp3908
(dp3909
g62
(dp3910
sg71
g3833
sg64
(lp3911
g57
(g78
g59
NtRp3912
(dp3913
g62
(dp3914
sg71
g3908
sg64
(lp3915
g57
(g58
g59
NtRp3916
(dp3917
g62
(dp3918
g70
I4
ssg71
g3912
sg64
(lp3919
g57
(g66
g59
NtRp3920
(dp3921
g62
(dp3922
g70
I3
ssg71
Nsg64
(lp3923
g57
(g73
g59
NtRp3924
(dp3925
g62
(dp3926
sg71
g3920
sg64
(lp3927
g57
(g78
g59
NtRp3928
(dp3929
g62
(dp3930
sg71
g3924
sg64
(lp3931
g57
(g58
g59
NtRp3932
(dp3933
g62
(dp3934
g70
I3
ssg71
g3928
sg64
(lp3935
g3865
(S's\x08\x00\x00\x00Clientes'
tRp3936
asbasbasbag57
(g73
g59
NtRp3937
(dp3938
g62
(dp3939
sg71
g3920
sg64
(lp3940
g57
(g78
g59
NtRp3941
(dp3942
g62
(dp3943
sg71
g3937
sg64
(lp3944
g57
(g58
g59
NtRp3945
(dp3946
g62
(dp3947
g70
I3
ssg71
g3941
sg64
(lp3948
g100
asbasbasbag57
(g73
g59
NtRp3949
(dp3950
g62
(dp3951
sg71
g3920
sg64
(lp3952
g57
(g78
g59
NtRp3953
(dp3954
g62
(dp3955
sg71
g3949
sg64
(lp3956
g57
(g58
g59
NtRp3957
(dp3958
g62
(dp3959
g70
I3
ssg71
g3953
sg64
(lp3960
S'/rosan/default/nuevoCliente'
p3961
asbasbasbag57
(g73
g59
NtRp3962
(dp3963
g62
(dp3964
sg71
g3920
sg64
(lp3965
g57
(g78
g59
NtRp3966
(dp3967
g62
(dp3968
sg71
g3962
sg64
(lp3969
g57
(g58
g59
NtRp3970
(dp3971
g62
(dp3972
g70
I3
ssg71
g3966
sg64
(lp3973
g57
(g66
g59
NtRp3974
(dp3975
g62
(dp3976
g70
I2
ssg71
Nsg64
(lp3977
sbasbasbasbasbasbasbasbag57
(g73
g59
NtRp3978
(dp3979
g62
(dp3980
sg71
g3833
sg64
(lp3981
g57
(g78
g59
NtRp3982
(dp3983
g62
(dp3984
sg71
g3978
sg64
(lp3985
g57
(g58
g59
NtRp3986
(dp3987
g62
(dp3988
g70
I4
ssg71
g3982
sg64
(lp3989
g57
(g66
g59
NtRp3990
(dp3991
g62
(dp3992
g70
I3
ssg71
Nsg64
(lp3993
g57
(g73
g59
NtRp3994
(dp3995
g62
(dp3996
sg71
g3990
sg64
(lp3997
g57
(g78
g59
NtRp3998
(dp3999
g62
(dp4000
sg71
g3994
sg64
(lp4001
g57
(g58
g59
NtRp4002
(dp4003
g62
(dp4004
g70
I3
ssg71
g3998
sg64
(lp4005
g3865
(S's\x08\x00\x00\x00Facturas'
tRp4006
asbasbasbag57
(g73
g59
NtRp4007
(dp4008
g62
(dp4009
sg71
g3990
sg64
(lp4010
g57
(g78
g59
NtRp4011
(dp4012
g62
(dp4013
sg71
g4007
sg64
(lp4014
g57
(g58
g59
NtRp4015
(dp4016
g62
(dp4017
g70
I3
ssg71
g4011
sg64
(lp4018
g100
asbasbasbag57
(g73
g59
NtRp4019
(dp4020
g62
(dp4021
sg71
g3990
sg64
(lp4022
g57
(g78
g59
NtRp4023
(dp4024
g62
(dp4025
sg71
g4019
sg64
(lp4026
g57
(g58
g59
NtRp4027
(dp4028
g62
(dp4029
g70
I3
ssg71
g4023
sg64
(lp4030
S'/rosan/default/nuevaFactura'
p4031
asbasbasbag57
(g73
g59
NtRp4032
(dp4033
g62
(dp4034
sg71
g3990
sg64
(lp4035
g57
(g78
g59
NtRp4036
(dp4037
g62
(dp4038
sg71
g4032
sg64
(lp4039
g57
(g58
g59
NtRp4040
(dp4041
g62
(dp4042
g70
I3
ssg71
g4036
sg64
(lp4043
g57
(g66
g59
NtRp4044
(dp4045
g62
(dp4046
g70
I2
ssg71
Nsg64
(lp4047
sbasbasbasbasbasbasbasbag57
(g73
g59
NtRp4048
(dp4049
g62
(dp4050
sg71
g3833
sg64
(lp4051
g57
(g78
g59
NtRp4052
(dp4053
g62
(dp4054
sg71
g4048
sg64
(lp4055
g57
(g58
g59
NtRp4056
(dp4057
g62
(dp4058
g70
I4
ssg71
g4052
sg64
(lp4059
g57
(g66
g59
NtRp4060
(dp4061
g62
(dp4062
g70
I3
ssg71
Nsg64
(lp4063
g57
(g73
g59
NtRp4064
(dp4065
g62
(dp4066
sg71
g4060
sg64
(lp4067
g57
(g78
g59
NtRp4068
(dp4069
g62
(dp4070
sg71
g4064
sg64
(lp4071
g57
(g58
g59
NtRp4072
(dp4073
g62
(dp4074
g70
I3
ssg71
g4068
sg64
(lp4075
g3865
(S's\x0c\x00\x00\x00Presupuestos'
tRp4076
asbasbasbag57
(g73
g59
NtRp4077
(dp4078
g62
(dp4079
sg71
g4060
sg64
(lp4080
g57
(g78
g59
NtRp4081
(dp4082
g62
(dp4083
sg71
g4077
sg64
(lp4084
g57
(g58
g59
NtRp4085
(dp4086
g62
(dp4087
g70
I3
ssg71
g4081
sg64
(lp4088
g100
asbasbasbag57
(g73
g59
NtRp4089
(dp4090
g62
(dp4091
sg71
g4060
sg64
(lp4092
g57
(g78
g59
NtRp4093
(dp4094
g62
(dp4095
sg71
g4089
sg64
(lp4096
g57
(g58
g59
NtRp4097
(dp4098
g62
(dp4099
g70
I3
ssg71
g4093
sg64
(lp4100
S'/rosan/default/nuevoPresupuesto'
p4101
asbasbasbag57
(g73
g59
NtRp4102
(dp4103
g62
(dp4104
sg71
g4060
sg64
(lp4105
g57
(g78
g59
NtRp4106
(dp4107
g62
(dp4108
sg71
g4102
sg64
(lp4109
g57
(g58
g59
NtRp4110
(dp4111
g62
(dp4112
g70
I3
ssg71
g4106
sg64
(lp4113
g57
(g66
g59
NtRp4114
(dp4115
g62
(dp4116
g70
I2
ssg71
Nsg64
(lp4117
sbasbasbasbasbasbasbasbasbasbasbasbag57
(g73
g59
NtRp4118
(dp4119
g62
(dp4120
sg71
g3397
sg64
(lp4121
g57
(g78
g59
NtRp4122
(dp4123
g62
(dp4124
g82
g83
ssg71
g4118
sg64
(lp4125
S'meta'
p4126
asbag57
(g78
g59
NtRp4127
(dp4128
g62
(dp4129
g89
g90
ssg71
g4118
sg64
(lp4130
S':'
asbag57
(g78
g59
NtRp4131
(dp4132
g62
(dp4133
sg71
g4118
sg64
(lp4134
g57
(g58
g59
NtRp4135
(dp4136
g62
(dp4137
g70
I5
ssg71
g4131
sg64
(lp4138
g57
(g66
g59
NtRp4139
(dp4140
g62
(dp4141
g70
I4
ssg71
Nsg64
(lp4142
g57
(g73
g59
NtRp4143
(dp4144
g62
(dp4145
sg71
g4139
sg64
(lp4146
g57
(g78
g59
NtRp4147
(dp4148
g62
(dp4149
g82
g83
ssg71
g4143
sg64
(lp4150
S'author'
p4151
asbag57
(g78
g59
NtRp4152
(dp4153
g62
(dp4154
g89
g90
ssg71
g4143
sg64
(lp4155
S':'
asbag57
(g78
g59
NtRp4156
(dp4157
g62
(dp4158
sg71
g4143
sg64
(lp4159
g57
(g58
g59
NtRp4160
(dp4161
g62
(dp4162
g70
I4
ssg71
g4156
sg64
(lp4163
S'@trukise <trukise@gmail.com>'
p4164
asbasbasbag57
(g73
g59
NtRp4165
(dp4166
g62
(dp4167
sg71
g4139
sg64
(lp4168
g57
(g78
g59
NtRp4169
(dp4170
g62
(dp4171
g82
g83
ssg71
g4165
sg64
(lp4172
S'description'
p4173
asbag57
(g78
g59
NtRp4174
(dp4175
g62
(dp4176
g89
g90
ssg71
g4165
sg64
(lp4177
S':'
asbag57
(g78
g59
NtRp4178
(dp4179
g62
(dp4180
sg71
g4165
sg64
(lp4181
g57
(g58
g59
NtRp4182
(dp4183
g62
(dp4184
g70
I4
ssg71
g4178
sg64
(lp4185
S'Gesti\xc3\xb3n intengral de Fontaner\xc3\xada Rosa y S\xc3\xa1nchez'
p4186
asbasbasbag57
(g73
g59
NtRp4187
(dp4188
g62
(dp4189
sg71
g4139
sg64
(lp4190
g57
(g78
g59
NtRp4191
(dp4192
g62
(dp4193
g82
g83
ssg71
g4187
sg64
(lp4194
S'keywords'
p4195
asbag57
(g78
g59
NtRp4196
(dp4197
g62
(dp4198
g89
g90
ssg71
g4187
sg64
(lp4199
S':'
asbag57
(g78
g59
NtRp4200
(dp4201
g62
(dp4202
sg71
g4187
sg64
(lp4203
g57
(g58
g59
NtRp4204
(dp4205
g62
(dp4206
g70
I4
ssg71
g4200
sg64
(lp4207
S'Rosan, facturacion'
p4208
asbasbasbasbasbasbasbag57
(g73
g59
NtRp4209
(dp4210
g62
(dp4211
sg71
g3397
sg64
(lp4212
g57
(g78
g59
NtRp4213
(dp4214
g62
(dp4215
g82
g83
ssg71
g4209
sg64
(lp4216
S'models_to_run'
p4217
asbag57
(g78
g59
NtRp4218
(dp4219
g62
(dp4220
g89
g90
ssg71
g4209
sg64
(lp4221
S':'
asbag57
(g78
g59
NtRp4222
(dp4223
g62
(dp4224
sg71
g4209
sg64
(lp4225
g57
(g58
g59
NtRp4226
(dp4227
g62
(dp4228
g70
I5
ssg71
g4222
sg64
(lp4229
g57
(g66
g59
NtRp4230
(dp4231
g62
(dp4232
g70
I4
ssg71
Nsg64
(lp4233
g57
(g73
g59
NtRp4234
(dp4235
g62
(dp4236
sg71
g4230
sg64
(lp4237
g57
(g78
g59
NtRp4238
(dp4239
g62
(dp4240
sg71
g4234
sg64
(lp4241
g57
(g58
g59
NtRp4242
(dp4243
g62
(dp4244
g70
I4
ssg71
g4238
sg64
(lp4245
S'^\\w+\\.py$'
p4246
asbasbasbag57
(g73
g59
NtRp4247
(dp4248
g62
(dp4249
sg71
g4230
sg64
(lp4250
g57
(g78
g59
NtRp4251
(dp4252
g62
(dp4253
sg71
g4247
sg64
(lp4254
g57
(g58
g59
NtRp4255
(dp4256
g62
(dp4257
g70
I4
ssg71
g4251
sg64
(lp4258
S'^clientes/\\w+\\.py$'
p4259
asbasbasbag57
(g73
g59
NtRp4260
(dp4261
g62
(dp4262
sg71
g4230
sg64
(lp4263
g57
(g78
g59
NtRp4264
(dp4265
g62
(dp4266
sg71
g4260
sg64
(lp4267
g57
(g58
g59
NtRp4268
(dp4269
g62
(dp4270
g70
I4
ssg71
g4264
sg64
(lp4271
S'^clientes/eliminar/\\w+\\.py$'
p4272
asbasbasbasbasbasbasbag57
(g73
g59
NtRp4273
(dp4274
g62
(dp4275
sg71
g3397
sg64
(lp4276
g57
(g78
g59
NtRp4277
(dp4278
g62
(dp4279
g82
g83
ssg71
g4273
sg64
(lp4280
S'postprocessing'
p4281
asbag57
(g78
g59
NtRp4282
(dp4283
g62
(dp4284
g89
g90
ssg71
g4273
sg64
(lp4285
S':'
asbag57
(g78
g59
NtRp4286
(dp4287
g62
(dp4288
sg71
g4273
sg64
(lp4289
g57
(g58
g59
NtRp4290
(dp4291
g62
(dp4292
g70
I5
ssg71
g4286
sg64
(lp4293
g57
(g66
g59
NtRp4294
(dp4295
g62
(dp4296
g70
I4
ssg71
Nsg64
(lp4297
sbasbasbasbag57
(g73
g59
NtRp4298
(dp4299
g62
(dp4300
sg71
g3397
sg64
(lp4301
g57
(g78
g59
NtRp4302
(dp4303
g62
(dp4304
g82
g83
ssg71
g4298
sg64
(lp4305
S'session_cookie_expires'
p4306
asbag57
(g78
g59
NtRp4307
(dp4308
g62
(dp4309
g89
g90
ssg71
g4298
sg64
(lp4310
S':'
asbag57
(g78
g59
NtRp4311
(dp4312
g62
(dp4313
sg71
g4298
sg64
(lp4314
g57
(g58
g59
NtRp4315
(dp4316
g62
(dp4317
g70
I5
ssg71
g4311
sg64
(lp4318
S'None'
p4319
asbasbasbag57
(g73
g59
NtRp4320
(dp4321
g62
(dp4322
sg71
g3397
sg64
(lp4323
g57
(g78
g59
NtRp4324
(dp4325
g62
(dp4326
g82
g83
ssg71
g4320
sg64
(lp4327
S'session_data_name'
p4328
asbag57
(g78
g59
NtRp4329
(dp4330
g62
(dp4331
g89
g90
ssg71
g4320
sg64
(lp4332
S':'
asbag57
(g78
g59
NtRp4333
(dp4334
g62
(dp4335
sg71
g4320
sg64
(lp4336
g57
(g58
g59
NtRp4337
(dp4338
g62
(dp4339
g70
I5
ssg71
g4333
sg64
(lp4340
S'session_data_rosan'
p4341
asbasbasbag57
(g73
g59
NtRp4342
(dp4343
g62
(dp4344
sg71
g3397
sg64
(lp4345
g57
(g78
g59
NtRp4346
(dp4347
g62
(dp4348
g82
g83
ssg71
g4342
sg64
(lp4349
S'session_file'
p4350
asbag57
(g78
g59
NtRp4351
(dp4352
g62
(dp4353
g89
g90
ssg71
g4342
sg64
(lp4354
S':'
asbag57
(g78
g59
NtRp4355
(dp4356
g62
(dp4357
sg71
g4342
sg64
(lp4358
g57
(g58
g59
NtRp4359
(dp4360
g62
(dp4361
g70
I5
ssg71
g4355
sg64
(lp4362
S"<open file '/Users/Truki/web2py/applications/rosan/sessions/127.0.0.1-7f26bdf4-3ca9-4fdc-87e8-ce55bec35287', mode 'rb+' at 0x18645a18>"
p4363
asbasbasbag57
(g73
g59
NtRp4364
(dp4365
g62
(dp4366
sg71
g3397
sg64
(lp4367
g57
(g78
g59
NtRp4368
(dp4369
g62
(dp4370
g82
g83
ssg71
g4364
sg64
(lp4371
S'session_filename'
p4372
asbag57
(g78
g59
NtRp4373
(dp4374
g62
(dp4375
g89
g90
ssg71
g4364
sg64
(lp4376
S':'
asbag57
(g78
g59
NtRp4377
(dp4378
g62
(dp4379
sg71
g4364
sg64
(lp4380
g57
(g58
g59
NtRp4381
(dp4382
g62
(dp4383
g70
I5
ssg71
g4377
sg64
(lp4384
S'/Users/Truki/web2py/applications/rosan/sessions/127.0.0.1-7f26bdf4-3ca9-4fdc-87e8-ce55bec35287'
p4385
asbasbasbag57
(g73
g59
NtRp4386
(dp4387
g62
(dp4388
sg71
g3397
sg64
(lp4389
g57
(g78
g59
NtRp4390
(dp4391
g62
(dp4392
g82
g83
ssg71
g4386
sg64
(lp4393
S'session_id'
p4394
asbag57
(g78
g59
NtRp4395
(dp4396
g62
(dp4397
g89
g90
ssg71
g4386
sg64
(lp4398
S':'
asbag57
(g78
g59
NtRp4399
(dp4400
g62
(dp4401
sg71
g4386
sg64
(lp4402
g57
(g58
g59
NtRp4403
(dp4404
g62
(dp4405
g70
I5
ssg71
g4399
sg64
(lp4406
g487
asbasbasbag57
(g73
g59
NtRp4407
(dp4408
g62
(dp4409
sg71
g3397
sg64
(lp4410
g57
(g78
g59
NtRp4411
(dp4412
g62
(dp4413
g82
g83
ssg71
g4407
sg64
(lp4414
S'session_id_name'
p4415
asbag57
(g78
g59
NtRp4416
(dp4417
g62
(dp4418
g89
g90
ssg71
g4407
sg64
(lp4419
S':'
asbag57
(g78
g59
NtRp4420
(dp4421
g62
(dp4422
sg71
g4407
sg64
(lp4423
g57
(g58
g59
NtRp4424
(dp4425
g62
(dp4426
g70
I5
ssg71
g4420
sg64
(lp4427
g3454
asbasbasbag57
(g73
g59
NtRp4428
(dp4429
g62
(dp4430
sg71
g3397
sg64
(lp4431
g57
(g78
g59
NtRp4432
(dp4433
g62
(dp4434
g82
g83
ssg71
g4428
sg64
(lp4435
S'session_locked'
p4436
asbag57
(g78
g59
NtRp4437
(dp4438
g62
(dp4439
g89
g90
ssg71
g4428
sg64
(lp4440
S':'
asbag57
(g78
g59
NtRp4441
(dp4442
g62
(dp4443
sg71
g4428
sg64
(lp4444
g57
(g58
g59
NtRp4445
(dp4446
g62
(dp4447
g70
I5
ssg71
g4441
sg64
(lp4448
g1802
asbasbasbag57
(g73
g59
NtRp4449
(dp4450
g62
(dp4451
sg71
g3397
sg64
(lp4452
g57
(g78
g59
NtRp4453
(dp4454
g62
(dp4455
g82
g83
ssg71
g4449
sg64
(lp4456
S'session_new'
p4457
asbag57
(g78
g59
NtRp4458
(dp4459
g62
(dp4460
g89
g90
ssg71
g4449
sg64
(lp4461
S':'
asbag57
(g78
g59
NtRp4462
(dp4463
g62
(dp4464
sg71
g4449
sg64
(lp4465
g57
(g58
g59
NtRp4466
(dp4467
g62
(dp4468
g70
I5
ssg71
g4462
sg64
(lp4469
g100
asbasbasbag57
(g73
g59
NtRp4470
(dp4471
g62
(dp4472
sg71
g3397
sg64
(lp4473
g57
(g78
g59
NtRp4474
(dp4475
g62
(dp4476
g82
g83
ssg71
g4470
sg64
(lp4477
S'session_storage_type'
p4478
asbag57
(g78
g59
NtRp4479
(dp4480
g62
(dp4481
g89
g90
ssg71
g4470
sg64
(lp4482
S':'
asbag57
(g78
g59
NtRp4483
(dp4484
g62
(dp4485
sg71
g4470
sg64
(lp4486
g57
(g58
g59
NtRp4487
(dp4488
g62
(dp4489
g70
I5
ssg71
g4483
sg64
(lp4490
g3255
asbasbasbag57
(g73
g59
NtRp4491
(dp4492
g62
(dp4493
sg71
g3397
sg64
(lp4494
g57
(g78
g59
NtRp4495
(dp4496
g62
(dp4497
g82
g83
ssg71
g4491
sg64
(lp4498
S'status'
p4499
asbag57
(g78
g59
NtRp4500
(dp4501
g62
(dp4502
g89
g90
ssg71
g4491
sg64
(lp4503
S':'
asbag57
(g78
g59
NtRp4504
(dp4505
g62
(dp4506
sg71
g4491
sg64
(lp4507
g57
(g58
g59
NtRp4508
(dp4509
g62
(dp4510
g70
I5
ssg71
g4504
sg64
(lp4511
S'200'
p4512
asbasbasbag57
(g73
g59
NtRp4513
(dp4514
g62
(dp4515
sg71
g3397
sg64
(lp4516
g57
(g78
g59
NtRp4517
(dp4518
g62
(dp4519
g82
g83
ssg71
g4513
sg64
(lp4520
S'subtitle'
p4521
asbag57
(g78
g59
NtRp4522
(dp4523
g62
(dp4524
g89
g90
ssg71
g4513
sg64
(lp4525
S':'
asbag57
(g78
g59
NtRp4526
(dp4527
g62
(dp4528
sg71
g4513
sg64
(lp4529
g57
(g58
g59
NtRp4530
(dp4531
g62
(dp4532
g70
I5
ssg71
g4526
sg64
(lp4533
S'by @trukise'
p4534
asbasbasbag57
(g73
g59
NtRp4535
(dp4536
g62
(dp4537
sg71
g3397
sg64
(lp4538
g57
(g78
g59
NtRp4539
(dp4540
g62
(dp4541
g82
g83
ssg71
g4535
sg64
(lp4542
S'title'
p4543
asbag57
(g78
g59
NtRp4544
(dp4545
g62
(dp4546
g89
g90
ssg71
g4535
sg64
(lp4547
S':'
asbag57
(g78
g59
NtRp4548
(dp4549
g62
(dp4550
sg71
g4535
sg64
(lp4551
g57
(g58
g59
NtRp4552
(dp4553
g62
(dp4554
g70
I5
ssg71
g4548
sg64
(lp4555
S'Rosan'
p4556
asbasbasbag57
(g73
g59
NtRp4557
(dp4558
g62
(dp4559
sg71
g3397
sg64
(lp4560
g57
(g78
g59
NtRp4561
(dp4562
g62
(dp4563
g82
g83
ssg71
g4557
sg64
(lp4564
S'view'
p4565
asbag57
(g78
g59
NtRp4566
(dp4567
g62
(dp4568
g89
g90
ssg71
g4557
sg64
(lp4569
S':'
asbag57
(g78
g59
NtRp4570
(dp4571
g62
(dp4572
sg71
g4557
sg64
(lp4573
g57
(g58
g59
NtRp4574
(dp4575
g62
(dp4576
g70
I5
ssg71
g4570
sg64
(lp4577
S'clientes/eliminar.html'
p4578
asbasbasbasbasbsS'locals'
p4579
(dp4580
S'id'
p4581
S"'3'"
p4582
sssS'traceback'
p4583
S'Traceback (most recent call last):\n  File "/Users/Truki/web2py/gluon/restricted.py", line 212, in restricted\n    exec ccode in environment\n  File "/Users/Truki/web2py/applications/rosan/controllers/clientes.py", line 27, in <module>\n  File "/Users/Truki/web2py/gluon/globals.py", line 188, in <lambda>\n    self._caller = lambda f: f()\n  File "/Users/Truki/web2py/applications/rosan/controllers/clientes.py", line 14, in eliminar\n    clienteEliminado = dbRosan.cliente(id).select(dbRosan.cliente.ALL)\nAttributeError: \'Row\' object has no attribute \'select\'\n'
p4584
s.