(dp1
S'output'
p2
S"<class 'sqlite3.OperationalError'> table empresa already exists"
p3
sS'layer'
p4
S'/Users/Truki/Desarrollo/web2py/applications/rosan/models/db_rosan.py'
p5
sS'code'
p6
S'# coding: utf8\n"""\njust copy paste this code into your model and replace dbRosan to something\nyou prefer or what is used in your code, another thing that should be known is that\nthis code still cannot distinguish what exactly should be in reference title - name\nwhen you use generic appadmin so please remove all fiealds you don\'t need not require \n"""\n"""\ndatabase class object creation\n"""\ndbRosan = SQLDB("sqlite://dbRosan.db")\n\n\n"""\n    Tabla empresa\n"""\ndbRosan.define_table("empresa",\n      SQLField("nombre", "string", length=100, notnull=False, default=None),\n      SQLField("descripcion", "text", notnull=True, default=None),\n      SQLField("direccion", "string", length=250, notnull=True, default=None),\n      SQLField("localidad", "string", length=100, notnull=True, default=None),\n      SQLField("cod_postal", "string", length=5, notnull=True, default=None),\n      SQLField("email", "string", length=100, notnull=True, default=None),\n      SQLField("www", "string", length=200, notnull=True, default=None)\n      ) \n\n"""\nTabla de clientes\n"""\ndbRosan.define_table("cliente",\n      SQLField("cif", "string", length=9, notnull=True, default=None),\n      SQLField("nombre", "string", length=200, notnull=True, default=None),\n      SQLField("direccion", "string", length=200, notnull=True, default=None),\n      SQLField("localidad", "string", length=100, notnull=True, default=None),\n      SQLField("cod_postal", "string", length=5, notnull=True, default=None),\n      SQLField("email", "string", length=100, notnull=True, default=None),\n      SQLField("www", "string", length=200, notnull=True, default=None)\n      ) \n\n"""\nTabla con los proveedores\n"""\ndbRosan.define_table("proveedor",\n      SQLField("nombre", "string", length=100, notnull=False, default=None),\n      SQLField("cif", "string", length=9, notnull=True, default=None),\n      SQLField("direccion", "string", length=200, notnull=True, default=None),\n      SQLField("email", "string", length=100, notnull=True, default=None))\n\n\n"""\nTabla articulos\n"""\ndbRosan.define_table("articulo",\n      SQLField("titulo", "string", length=100, notnull=False, default=None),\n      SQLField("descripcion", "text", notnull=True, default=None),\n      SQLField("precio", "double", notnull=True, default=None),\n      SQLField("id_proveedor", dbRosan.proveedor)) \n\n"""\nTabla iva\n"""\ndbRosan.define_table("iva",\n      SQLField("descripcion", "string", length=100, notnull=False, default=None),\n      SQLField("valor", "double", notnull=True, default=None),\n      SQLField("activo", "boolean", notnull=True, default=True)) \n         \n"""\nTabla retencion\n"""\ndbRosan.define_table("retencion",\n      SQLField("descripcion", "string", length=100, notnull=False, default=None),\n      SQLField("valor", "double", notnull=True, default=None),\n      SQLField("activo", "boolean", notnull=True, default=True)) \n         \n\n"""\nTabla facturas\n"""\ndbRosan.define_table("factura",\n      SQLField("numero", "integer", notnull=False, default=None),\n      SQLField("fecha", "date", notnull=True, default=None),\n      SQLField("titulo", "string", length=255, notnull=False, default=None),\n      SQLField("id_cliente", dbRosan.cliente),\n      SQLField("tipo_iva", "double", notnull=True, default=None),\n      SQLField("neto", "double", notnull=True, default=None),\n      SQLField("retencion", "double", notnull=True, default=None),\n      SQLField("descuento", "integer", notnull=True, default=None),\n      SQLField("total_iva", "double", notnull=True, default=None),\n      SQLField("total_bruto", "double", notnull=True, default=None),\n      SQLField("pagada", "boolean", notnull=True, default=False),\n      SQLField("anulada", "boolean", notnull=True, default=False)) \n\n\n\n"""\nTable con el detalle de las facturas\n"""\ndbRosan.define_table("factura_detalle",\n      SQLField("id_factura", dbRosan.factura),\n      SQLField("id_articulo", dbRosan.articulo),\n      SQLField("articulo", "text", notnull=True, default=None),\n      SQLField("precio", "double", notnull=True, default=None),\n      SQLField("cantidad", "integer", notnull=True, default=None),\n      SQLField("total_articulo", "double", notnull=True, default=None))  \n           \n\n"""\nTabla facturas temporal\n"""\ndbRosan.define_table("factura_temp",\n      SQLField("fecha", "date", notnull=True, default=None),\n      SQLField("id_cliente", dbRosan.cliente),\n      SQLField("tipo_iva", "double", notnull=True, default=None),\n      SQLField("neto", "double", notnull=True, default=None),\n      SQLField("retencion", "double", notnull=True, default=None),\n      SQLField("descuento", "integer", notnull=True, default=None),\n      SQLField("total_iva", "double", notnull=True, default=None),\n      SQLField("total_bruto", "double", notnull=True, default=None),\n      SQLField("pagada", "boolean", notnull=True, default=False)) \n\n\n\n"""\nTable con el detalle de las facturas temporales\n"""\ndbRosan.define_table("factura_detalle_temp",\n      SQLField("id_factura", dbRosan.factura_temp),\n      SQLField("id_articulo", dbRosan.articulo),\n      SQLField("articulo", "text", notnull=True, default=None),\n      SQLField("precio", "double", notnull=True, default=None),\n      SQLField("cantidad", "integer", notnull=True, default=None),\n      SQLField("total_articulo", "double", notnull=True, default=None)) \n           \n"""\nTabla con borradores de facturas por guardar\n"""\ndbRosan.define_table("factura_borrador",\n      SQLField("fecha", "date", notnull=True, default=None),\n      SQLField("id_cliente", dbRosan.cliente),\n      SQLField("tipo_iva", "double", notnull=True, default=None),\n      SQLField("neto", "double", notnull=True, default=None),\n      SQLField("retencion", "double", notnull=True, default=None),\n      SQLField("descuento", "integer", notnull=True, default=None),\n      SQLField("total_iva", "double", notnull=True, default=None),\n      SQLField("total_bruto", "double", notnull=True, default=None),\n      SQLField("pagada", "boolean", notnull=True, default=False)) \n           \n"""\nTable con el detalle de las facturas en borradores\n"""\ndbRosan.define_table("factura_detalle_borrador",\n      SQLField("id_factura", dbRosan.factura_borrador),\n      SQLField("id_articulo", dbRosan.articulo),\n      SQLField("articulo", "text", notnull=True, default=None),\n      SQLField("precio", "double", notnull=True, default=None),\n      SQLField("cantidad", "integer", notnull=True, default=None),\n      SQLField("total_articulo", "double", notnull=True, default=None)) \n      \n"""\nTabla almacen, contiene los stocks de los articulos\n"""\ndbRosan.define_table("almacen", \n      SQLField("id_articulo", dbRosan.articulo),\n      SQLField("cantidad", "integer", notnull=True, default=0),\n      SQLField("max", "integer", notnull=True, default=0),\n      SQLField("min", "integer", notnull=True, default=0))\n      \n      \n\n"""\nRelations between tables (remove fields you don\'t need from requires)\n"""\ndbRosan.factura.id_cliente.requires=IS_IN_DB(dbRosan, \'cliente.id\', \'%(nombre)s\')\n\ndbRosan.factura_detalle.id_factura.requires=IS_IN_DB(dbRosan, \'factura.id\')\n\ndbRosan.almacen.id_articulo.requires=IS_IN_DB(dbRosan, \'articulo.id\', \'%(nombre)s\')\n\ndbRosan.articulo.id_proveedor.requires=IS_IN_DB(dbRosan, \'proveedor.id\', \'%(nombre)s\')\n'
p7
sS'snapshot'
p8
(dp9
S'exception'
p10
(dp11
S'__module__'
p12
S"'sqlite3'"
p13
sS'__getslice__'
p14
S"<method-wrapper '__getslice__' of OperationalError object>"
p15
sS'__str__'
p16
S"<method-wrapper '__str__' of OperationalError object>"
p17
sS'__reduce__'
p18
S'<built-in method __reduce__ of OperationalError object>'
p19
sS'__dict__'
p20
S'{}'
p21
sS'__sizeof__'
p22
S'<built-in method __sizeof__ of OperationalError object>'
p23
sS'__weakref__'
p24
S'None'
p25
sS'__init__'
p26
S"<method-wrapper '__init__' of OperationalError object>"
p27
sS'__setattr__'
p28
S"<method-wrapper '__setattr__' of OperationalError object>"
p29
sS'__reduce_ex__'
p30
S'<built-in method __reduce_ex__ of OperationalError object>'
p31
sS'__new__'
p32
S'<built-in method __new__ of type object>'
p33
sS'__format__'
p34
S'<built-in method __format__ of OperationalError object>'
p35
sS'__class__'
p36
S"<class 'sqlite3.OperationalError'>"
p37
sS'__doc__'
p38
S'None'
p39
sS'__getitem__'
p40
S"<method-wrapper '__getitem__' of OperationalError object>"
p41
sS'__setstate__'
p42
S'<built-in method __setstate__ of OperationalError object>'
p43
sS'__getattribute__'
p44
S"<method-wrapper '__getattribute__' of OperationalError object>"
p45
sS'args'
p46
S"('table empresa already exists',)"
p47
sS'__subclasshook__'
p48
S'<built-in method __subclasshook__ of type object>'
p49
sS'__unicode__'
p50
S'<built-in method __unicode__ of OperationalError object>'
p51
sS'__delattr__'
p52
S"<method-wrapper '__delattr__' of OperationalError object>"
p53
sS'__repr__'
p54
S"<method-wrapper '__repr__' of OperationalError object>"
p55
sS'__hash__'
p56
S"<method-wrapper '__hash__' of OperationalError object>"
p57
ssS'evalue'
p58
S'table empresa already exists'
p59
sS'request'
p60
ccopy_reg
_reconstructor
p61
(cgluon.html
BEAUTIFY
p62
c__builtin__
object
p63
NtRp64
(dp65
S'attributes'
p66
(dp67
sS'components'
p68
(lp69
g61
(cgluon.html
TABLE
p70
g63
NtRp71
(dp72
g66
(dp73
S'level'
p74
I5
ssS'parent'
p75
Nsg68
(lp76
g61
(cgluon.html
TR
p77
g63
NtRp78
(dp79
g66
(dp80
sg75
g71
sg68
(lp81
g61
(cgluon.html
TD
p82
g63
NtRp83
(dp84
g66
(dp85
S'_style'
p86
S'font-weight:bold;vertical-align:top'
p87
ssg75
g78
sg68
(lp88
S'ajax'
p89
asbag61
(g82
g63
NtRp90
(dp91
g66
(dp92
S'_valign'
p93
S'top'
p94
ssg75
g78
sg68
(lp95
S':'
asbag61
(g82
g63
NtRp96
(dp97
g66
(dp98
sg75
g78
sg68
(lp99
g61
(g62
g63
NtRp100
(dp101
g66
(dp102
g74
I5
ssg75
g96
sg68
(lp103
S'False'
p104
asbasbasbag61
(g77
g63
NtRp105
(dp106
g66
(dp107
sg75
g71
sg68
(lp108
g61
(g82
g63
NtRp109
(dp110
g66
(dp111
g86
g87
ssg75
g105
sg68
(lp112
S'application'
p113
asbag61
(g82
g63
NtRp114
(dp115
g66
(dp116
g93
g94
ssg75
g105
sg68
(lp117
S':'
asbag61
(g82
g63
NtRp118
(dp119
g66
(dp120
sg75
g105
sg68
(lp121
g61
(g62
g63
NtRp122
(dp123
g66
(dp124
g74
I5
ssg75
g118
sg68
(lp125
S'rosan'
p126
asbasbasbag61
(g77
g63
NtRp127
(dp128
g66
(dp129
sg75
g71
sg68
(lp130
g61
(g82
g63
NtRp131
(dp132
g66
(dp133
g86
g87
ssg75
g127
sg68
(lp134
g46
asbag61
(g82
g63
NtRp135
(dp136
g66
(dp137
g93
g94
ssg75
g127
sg68
(lp138
S':'
asbag61
(g82
g63
NtRp139
(dp140
g66
(dp141
sg75
g127
sg68
(lp142
g61
(g62
g63
NtRp143
(dp144
g66
(dp145
g74
I5
ssg75
g139
sg68
(lp146
g61
(g70
g63
NtRp147
(dp148
g66
(dp149
g74
I4
ssg75
Nsg68
(lp150
sbasbasbasbag61
(g77
g63
NtRp151
(dp152
g66
(dp153
sg75
g71
sg68
(lp154
g61
(g82
g63
NtRp155
(dp156
g66
(dp157
g86
g87
ssg75
g151
sg68
(lp158
S'body'
p159
asbag61
(g82
g63
NtRp160
(dp161
g66
(dp162
g93
g94
ssg75
g151
sg68
(lp163
S':'
asbag61
(g82
g63
NtRp164
(dp165
g66
(dp166
sg75
g151
sg68
(lp167
g61
(g62
g63
NtRp168
(dp169
g66
(dp170
g74
I5
ssg75
g164
sg68
(lp171
S'<cStringIO.StringO object at 0x112b7de30>'
p172
asbasbasbag61
(g77
g63
NtRp173
(dp174
g66
(dp175
sg75
g71
sg68
(lp176
g61
(g82
g63
NtRp177
(dp178
g66
(dp179
g86
g87
ssg75
g173
sg68
(lp180
S'cid'
p181
asbag61
(g82
g63
NtRp182
(dp183
g66
(dp184
g93
g94
ssg75
g173
sg68
(lp185
S':'
asbag61
(g82
g63
NtRp186
(dp187
g66
(dp188
sg75
g173
sg68
(lp189
g61
(g62
g63
NtRp190
(dp191
g66
(dp192
g74
I5
ssg75
g186
sg68
(lp193
S'None'
p194
asbasbasbag61
(g77
g63
NtRp195
(dp196
g66
(dp197
sg75
g71
sg68
(lp198
g61
(g82
g63
NtRp199
(dp200
g66
(dp201
g86
g87
ssg75
g195
sg68
(lp202
S'client'
p203
asbag61
(g82
g63
NtRp204
(dp205
g66
(dp206
g93
g94
ssg75
g195
sg68
(lp207
S':'
asbag61
(g82
g63
NtRp208
(dp209
g66
(dp210
sg75
g195
sg68
(lp211
g61
(g62
g63
NtRp212
(dp213
g66
(dp214
g74
I5
ssg75
g208
sg68
(lp215
S'127.0.0.1'
p216
asbasbasbag61
(g77
g63
NtRp217
(dp218
g66
(dp219
sg75
g71
sg68
(lp220
g61
(g82
g63
NtRp221
(dp222
g66
(dp223
g86
g87
ssg75
g217
sg68
(lp224
S'controller'
p225
asbag61
(g82
g63
NtRp226
(dp227
g66
(dp228
g93
g94
ssg75
g217
sg68
(lp229
S':'
asbag61
(g82
g63
NtRp230
(dp231
g66
(dp232
sg75
g217
sg68
(lp233
g61
(g62
g63
NtRp234
(dp235
g66
(dp236
g74
I5
ssg75
g230
sg68
(lp237
S'appadmin'
p238
asbasbasbag61
(g77
g63
NtRp239
(dp240
g66
(dp241
sg75
g71
sg68
(lp242
g61
(g82
g63
NtRp243
(dp244
g66
(dp245
g86
g87
ssg75
g239
sg68
(lp246
S'cookies'
p247
asbag61
(g82
g63
NtRp248
(dp249
g66
(dp250
g93
g94
ssg75
g239
sg68
(lp251
S':'
asbag61
(g82
g63
NtRp252
(dp253
g66
(dp254
sg75
g239
sg68
(lp255
g61
(g62
g63
NtRp256
(dp257
g66
(dp258
g74
I5
ssg75
g252
sg68
(lp259
g61
(g70
g63
NtRp260
(dp261
g66
(dp262
g74
I4
ssg75
Nsg68
(lp263
g61
(g77
g63
NtRp264
(dp265
g66
(dp266
sg75
g260
sg68
(lp267
g61
(g82
g63
NtRp268
(dp269
g66
(dp270
g86
g87
ssg75
g264
sg68
(lp271
S'session_id_admin'
p272
asbag61
(g82
g63
NtRp273
(dp274
g66
(dp275
g93
g94
ssg75
g264
sg68
(lp276
S':'
asbag61
(g82
g63
NtRp277
(dp278
g66
(dp279
sg75
g264
sg68
(lp280
g61
(g62
g63
NtRp281
(dp282
g66
(dp283
g74
I4
ssg75
g277
sg68
(lp284
S'127.0.0.1-9faf0013-53a5-44d6-a7c3-67a69f50fe43'
p285
ag61
(g70
g63
NtRp286
(dp287
g66
(dp288
g74
I3
ssg75
Nsg68
(lp289
g61
(g77
g63
NtRp290
(dp291
g66
(dp292
sg75
g286
sg68
(lp293
g61
(g82
g63
NtRp294
(dp295
g66
(dp296
g86
g87
ssg75
g290
sg68
(lp297
S'comment'
p298
asbag61
(g82
g63
NtRp299
(dp300
g66
(dp301
g93
g94
ssg75
g290
sg68
(lp302
S':'
asbag61
(g82
g63
NtRp303
(dp304
g66
(dp305
sg75
g290
sg68
(lp306
g61
(g62
g63
NtRp307
(dp308
g66
(dp309
g74
I3
ssg75
g303
sg68
(lp310
S''
asbasbasbag61
(g77
g63
NtRp311
(dp312
g66
(dp313
sg75
g286
sg68
(lp314
g61
(g82
g63
NtRp315
(dp316
g66
(dp317
g86
g87
ssg75
g311
sg68
(lp318
S'domain'
p319
asbag61
(g82
g63
NtRp320
(dp321
g66
(dp322
g93
g94
ssg75
g311
sg68
(lp323
S':'
asbag61
(g82
g63
NtRp324
(dp325
g66
(dp326
sg75
g311
sg68
(lp327
g61
(g62
g63
NtRp328
(dp329
g66
(dp330
g74
I3
ssg75
g324
sg68
(lp331
S''
asbasbasbag61
(g77
g63
NtRp332
(dp333
g66
(dp334
sg75
g286
sg68
(lp335
g61
(g82
g63
NtRp336
(dp337
g66
(dp338
g86
g87
ssg75
g332
sg68
(lp339
S'expires'
p340
asbag61
(g82
g63
NtRp341
(dp342
g66
(dp343
g93
g94
ssg75
g332
sg68
(lp344
S':'
asbag61
(g82
g63
NtRp345
(dp346
g66
(dp347
sg75
g332
sg68
(lp348
g61
(g62
g63
NtRp349
(dp350
g66
(dp351
g74
I3
ssg75
g345
sg68
(lp352
S''
asbasbasbag61
(g77
g63
NtRp353
(dp354
g66
(dp355
sg75
g286
sg68
(lp356
g61
(g82
g63
NtRp357
(dp358
g66
(dp359
g86
g87
ssg75
g353
sg68
(lp360
S'httponly'
p361
asbag61
(g82
g63
NtRp362
(dp363
g66
(dp364
g93
g94
ssg75
g353
sg68
(lp365
S':'
asbag61
(g82
g63
NtRp366
(dp367
g66
(dp368
sg75
g353
sg68
(lp369
g61
(g62
g63
NtRp370
(dp371
g66
(dp372
g74
I3
ssg75
g366
sg68
(lp373
S''
asbasbasbag61
(g77
g63
NtRp374
(dp375
g66
(dp376
sg75
g286
sg68
(lp377
g61
(g82
g63
NtRp378
(dp379
g66
(dp380
g86
g87
ssg75
g374
sg68
(lp381
S'max-age'
p382
asbag61
(g82
g63
NtRp383
(dp384
g66
(dp385
g93
g94
ssg75
g374
sg68
(lp386
S':'
asbag61
(g82
g63
NtRp387
(dp388
g66
(dp389
sg75
g374
sg68
(lp390
g61
(g62
g63
NtRp391
(dp392
g66
(dp393
g74
I3
ssg75
g387
sg68
(lp394
S''
asbasbasbag61
(g77
g63
NtRp395
(dp396
g66
(dp397
sg75
g286
sg68
(lp398
g61
(g82
g63
NtRp399
(dp400
g66
(dp401
g86
g87
ssg75
g395
sg68
(lp402
S'path'
p403
asbag61
(g82
g63
NtRp404
(dp405
g66
(dp406
g93
g94
ssg75
g395
sg68
(lp407
S':'
asbag61
(g82
g63
NtRp408
(dp409
g66
(dp410
sg75
g395
sg68
(lp411
g61
(g62
g63
NtRp412
(dp413
g66
(dp414
g74
I3
ssg75
g408
sg68
(lp415
S''
asbasbasbag61
(g77
g63
NtRp416
(dp417
g66
(dp418
sg75
g286
sg68
(lp419
g61
(g82
g63
NtRp420
(dp421
g66
(dp422
g86
g87
ssg75
g416
sg68
(lp423
S'secure'
p424
asbag61
(g82
g63
NtRp425
(dp426
g66
(dp427
g93
g94
ssg75
g416
sg68
(lp428
S':'
asbag61
(g82
g63
NtRp429
(dp430
g66
(dp431
sg75
g416
sg68
(lp432
g61
(g62
g63
NtRp433
(dp434
g66
(dp435
g74
I3
ssg75
g429
sg68
(lp436
S''
asbasbasbag61
(g77
g63
NtRp437
(dp438
g66
(dp439
sg75
g286
sg68
(lp440
g61
(g82
g63
NtRp441
(dp442
g66
(dp443
g86
g87
ssg75
g437
sg68
(lp444
S'version'
p445
asbag61
(g82
g63
NtRp446
(dp447
g66
(dp448
g93
g94
ssg75
g437
sg68
(lp449
S':'
asbag61
(g82
g63
NtRp450
(dp451
g66
(dp452
sg75
g437
sg68
(lp453
g61
(g62
g63
NtRp454
(dp455
g66
(dp456
g74
I3
ssg75
g450
sg68
(lp457
S''
asbasbasbasbasbasbasbag61
(g77
g63
NtRp458
(dp459
g66
(dp460
sg75
g260
sg68
(lp461
g61
(g82
g63
NtRp462
(dp463
g66
(dp464
g86
g87
ssg75
g458
sg68
(lp465
S'session_id_welcome'
p466
asbag61
(g82
g63
NtRp467
(dp468
g66
(dp469
g93
g94
ssg75
g458
sg68
(lp470
S':'
asbag61
(g82
g63
NtRp471
(dp472
g66
(dp473
sg75
g458
sg68
(lp474
g61
(g62
g63
NtRp475
(dp476
g66
(dp477
g74
I4
ssg75
g471
sg68
(lp478
S'127.0.0.1-f23668cb-3155-4efb-9496-62fc383d1128'
p479
ag61
(g70
g63
NtRp480
(dp481
g66
(dp482
g74
I3
ssg75
Nsg68
(lp483
g61
(g77
g63
NtRp484
(dp485
g66
(dp486
sg75
g480
sg68
(lp487
g61
(g82
g63
NtRp488
(dp489
g66
(dp490
g86
g87
ssg75
g484
sg68
(lp491
g298
asbag61
(g82
g63
NtRp492
(dp493
g66
(dp494
g93
g94
ssg75
g484
sg68
(lp495
S':'
asbag61
(g82
g63
NtRp496
(dp497
g66
(dp498
sg75
g484
sg68
(lp499
g61
(g62
g63
NtRp500
(dp501
g66
(dp502
g74
I3
ssg75
g496
sg68
(lp503
S''
asbasbasbag61
(g77
g63
NtRp504
(dp505
g66
(dp506
sg75
g480
sg68
(lp507
g61
(g82
g63
NtRp508
(dp509
g66
(dp510
g86
g87
ssg75
g504
sg68
(lp511
g319
asbag61
(g82
g63
NtRp512
(dp513
g66
(dp514
g93
g94
ssg75
g504
sg68
(lp515
S':'
asbag61
(g82
g63
NtRp516
(dp517
g66
(dp518
sg75
g504
sg68
(lp519
g61
(g62
g63
NtRp520
(dp521
g66
(dp522
g74
I3
ssg75
g516
sg68
(lp523
S''
asbasbasbag61
(g77
g63
NtRp524
(dp525
g66
(dp526
sg75
g480
sg68
(lp527
g61
(g82
g63
NtRp528
(dp529
g66
(dp530
g86
g87
ssg75
g524
sg68
(lp531
g340
asbag61
(g82
g63
NtRp532
(dp533
g66
(dp534
g93
g94
ssg75
g524
sg68
(lp535
S':'
asbag61
(g82
g63
NtRp536
(dp537
g66
(dp538
sg75
g524
sg68
(lp539
g61
(g62
g63
NtRp540
(dp541
g66
(dp542
g74
I3
ssg75
g536
sg68
(lp543
S''
asbasbasbag61
(g77
g63
NtRp544
(dp545
g66
(dp546
sg75
g480
sg68
(lp547
g61
(g82
g63
NtRp548
(dp549
g66
(dp550
g86
g87
ssg75
g544
sg68
(lp551
g361
asbag61
(g82
g63
NtRp552
(dp553
g66
(dp554
g93
g94
ssg75
g544
sg68
(lp555
S':'
asbag61
(g82
g63
NtRp556
(dp557
g66
(dp558
sg75
g544
sg68
(lp559
g61
(g62
g63
NtRp560
(dp561
g66
(dp562
g74
I3
ssg75
g556
sg68
(lp563
S''
asbasbasbag61
(g77
g63
NtRp564
(dp565
g66
(dp566
sg75
g480
sg68
(lp567
g61
(g82
g63
NtRp568
(dp569
g66
(dp570
g86
g87
ssg75
g564
sg68
(lp571
g382
asbag61
(g82
g63
NtRp572
(dp573
g66
(dp574
g93
g94
ssg75
g564
sg68
(lp575
S':'
asbag61
(g82
g63
NtRp576
(dp577
g66
(dp578
sg75
g564
sg68
(lp579
g61
(g62
g63
NtRp580
(dp581
g66
(dp582
g74
I3
ssg75
g576
sg68
(lp583
S''
asbasbasbag61
(g77
g63
NtRp584
(dp585
g66
(dp586
sg75
g480
sg68
(lp587
g61
(g82
g63
NtRp588
(dp589
g66
(dp590
g86
g87
ssg75
g584
sg68
(lp591
g403
asbag61
(g82
g63
NtRp592
(dp593
g66
(dp594
g93
g94
ssg75
g584
sg68
(lp595
S':'
asbag61
(g82
g63
NtRp596
(dp597
g66
(dp598
sg75
g584
sg68
(lp599
g61
(g62
g63
NtRp600
(dp601
g66
(dp602
g74
I3
ssg75
g596
sg68
(lp603
S''
asbasbasbag61
(g77
g63
NtRp604
(dp605
g66
(dp606
sg75
g480
sg68
(lp607
g61
(g82
g63
NtRp608
(dp609
g66
(dp610
g86
g87
ssg75
g604
sg68
(lp611
g424
asbag61
(g82
g63
NtRp612
(dp613
g66
(dp614
g93
g94
ssg75
g604
sg68
(lp615
S':'
asbag61
(g82
g63
NtRp616
(dp617
g66
(dp618
sg75
g604
sg68
(lp619
g61
(g62
g63
NtRp620
(dp621
g66
(dp622
g74
I3
ssg75
g616
sg68
(lp623
S''
asbasbasbag61
(g77
g63
NtRp624
(dp625
g66
(dp626
sg75
g480
sg68
(lp627
g61
(g82
g63
NtRp628
(dp629
g66
(dp630
g86
g87
ssg75
g624
sg68
(lp631
g445
asbag61
(g82
g63
NtRp632
(dp633
g66
(dp634
g93
g94
ssg75
g624
sg68
(lp635
S':'
asbag61
(g82
g63
NtRp636
(dp637
g66
(dp638
sg75
g624
sg68
(lp639
g61
(g62
g63
NtRp640
(dp641
g66
(dp642
g74
I3
ssg75
g636
sg68
(lp643
S''
asbasbasbasbasbasbasbasbasbasbasbag61
(g77
g63
NtRp644
(dp645
g66
(dp646
sg75
g71
sg68
(lp647
g61
(g82
g63
NtRp648
(dp649
g66
(dp650
g86
g87
ssg75
g644
sg68
(lp651
S'env'
p652
asbag61
(g82
g63
NtRp653
(dp654
g66
(dp655
g93
g94
ssg75
g644
sg68
(lp656
S':'
asbag61
(g82
g63
NtRp657
(dp658
g66
(dp659
sg75
g644
sg68
(lp660
g61
(g62
g63
NtRp661
(dp662
g66
(dp663
g74
I5
ssg75
g657
sg68
(lp664
g61
(g70
g63
NtRp665
(dp666
g66
(dp667
g74
I4
ssg75
Nsg68
(lp668
g61
(g77
g63
NtRp669
(dp670
g66
(dp671
sg75
g665
sg68
(lp672
g61
(g82
g63
NtRp673
(dp674
g66
(dp675
g86
g87
ssg75
g669
sg68
(lp676
S'app_folders'
p677
asbag61
(g82
g63
NtRp678
(dp679
g66
(dp680
g93
g94
ssg75
g669
sg68
(lp681
S':'
asbag61
(g82
g63
NtRp682
(dp683
g66
(dp684
sg75
g669
sg68
(lp685
g61
(g62
g63
NtRp686
(dp687
g66
(dp688
g74
I4
ssg75
g682
sg68
(lp689
S"set(['/Users/Truki/Desarrollo/web2py/applications/welcome/', '/Users/Truki/Desarrollo/web2py/applications/rosan/', '/Users/Truki/Desarrollo/web2py/applications/admin/'])"
p690
asbasbasbag61
(g77
g63
NtRp691
(dp692
g66
(dp693
sg75
g665
sg68
(lp694
g61
(g82
g63
NtRp695
(dp696
g66
(dp697
g86
g87
ssg75
g691
sg68
(lp698
S'applications_parent'
p699
asbag61
(g82
g63
NtRp700
(dp701
g66
(dp702
g93
g94
ssg75
g691
sg68
(lp703
S':'
asbag61
(g82
g63
NtRp704
(dp705
g66
(dp706
sg75
g691
sg68
(lp707
g61
(g62
g63
NtRp708
(dp709
g66
(dp710
g74
I4
ssg75
g704
sg68
(lp711
S'/Users/Truki/Desarrollo/web2py'
p712
asbasbasbag61
(g77
g63
NtRp713
(dp714
g66
(dp715
sg75
g665
sg68
(lp716
g61
(g82
g63
NtRp717
(dp718
g66
(dp719
g86
g87
ssg75
g713
sg68
(lp720
S'cmd_args'
p721
asbag61
(g82
g63
NtRp722
(dp723
g66
(dp724
g93
g94
ssg75
g713
sg68
(lp725
S':'
asbag61
(g82
g63
NtRp726
(dp727
g66
(dp728
sg75
g713
sg68
(lp729
g61
(g62
g63
NtRp730
(dp731
g66
(dp732
g74
I4
ssg75
g726
sg68
(lp733
g61
(g70
g63
NtRp734
(dp735
g66
(dp736
g74
I3
ssg75
Nsg68
(lp737
sbasbasbasbag61
(g77
g63
NtRp738
(dp739
g66
(dp740
sg75
g665
sg68
(lp741
g61
(g82
g63
NtRp742
(dp743
g66
(dp744
g86
g87
ssg75
g738
sg68
(lp745
S'cmd_options'
p746
asbag61
(g82
g63
NtRp747
(dp748
g66
(dp749
g93
g94
ssg75
g738
sg68
(lp750
S':'
asbag61
(g82
g63
NtRp751
(dp752
g66
(dp753
sg75
g738
sg68
(lp754
g61
(g62
g63
NtRp755
(dp756
g66
(dp757
g74
I4
ssg75
g751
sg68
(lp758
S"<Values at 0x10b011440: {'verbose': False, 'ip': '127.0.0.1', 'with_scheduler': False, 'ips': ['fe80::8e2d:aaff:fe4a:3d35%en1', '192.168.1.35'], 'shutdown_timeout': 5, 'taskbar': False, 'port': 8000, 'maxthreads': None, 'softcron': False, 'server_name': 'PeritoMascao.local', 'bpython': False, 'nogui': False, 'pid_filename': 'httpserver.pid', 'extcron': False, 'runcron': False, 'run_system_tests': False, 'test': None, 'folder': '/Users/Truki/Desarrollo/web2py', 'config': '', 'minthreads': None, 'winservice': '', 'shell': None, 'run': '', 'log_filename': 'httpserver.log', 'debuglevel': 30, 'args': [''], 'socket_timeout': 5, 'ssl_ca_certificate': None, 'scheduler': None, 'profiler_filename': None, 'ssl_private_key': '', 'scheduler_groups': None, 'password': '<ask>', 'request_queue_size': 5, 'ssl_certificate': '', 'cronjob': False, 'numthreads': None, 'quiet': False, 'interfaces': None, 'import_models': False, 'timeout': 10, 'plain': False, 'nobanner': False}>"
p759
asbasbasbag61
(g77
g63
NtRp760
(dp761
g66
(dp762
sg75
g665
sg68
(lp763
g61
(g82
g63
NtRp764
(dp765
g66
(dp766
g86
g87
ssg75
g760
sg68
(lp767
S'db_sessions'
p768
asbag61
(g82
g63
NtRp769
(dp770
g66
(dp771
g93
g94
ssg75
g760
sg68
(lp772
S':'
asbag61
(g82
g63
NtRp773
(dp774
g66
(dp775
sg75
g760
sg68
(lp776
g61
(g62
g63
NtRp777
(dp778
g66
(dp779
g74
I4
ssg75
g773
sg68
(lp780
S'set([])'
p781
asbasbasbag61
(g77
g63
NtRp782
(dp783
g66
(dp784
sg75
g665
sg68
(lp785
g61
(g82
g63
NtRp786
(dp787
g66
(dp788
g86
g87
ssg75
g782
sg68
(lp789
S'debugging'
p790
asbag61
(g82
g63
NtRp791
(dp792
g66
(dp793
g93
g94
ssg75
g782
sg68
(lp794
S':'
asbag61
(g82
g63
NtRp795
(dp796
g66
(dp797
sg75
g782
sg68
(lp798
g61
(g62
g63
NtRp799
(dp800
g66
(dp801
g74
I4
ssg75
g795
sg68
(lp802
g104
asbasbasbag61
(g77
g63
NtRp803
(dp804
g66
(dp805
sg75
g665
sg68
(lp806
g61
(g82
g63
NtRp807
(dp808
g66
(dp809
g86
g87
ssg75
g803
sg68
(lp810
S'gluon_parent'
p811
asbag61
(g82
g63
NtRp812
(dp813
g66
(dp814
g93
g94
ssg75
g803
sg68
(lp815
S':'
asbag61
(g82
g63
NtRp816
(dp817
g66
(dp818
sg75
g803
sg68
(lp819
g61
(g62
g63
NtRp820
(dp821
g66
(dp822
g74
I4
ssg75
g816
sg68
(lp823
S'/Users/Truki/Desarrollo/web2py'
p824
asbasbasbag61
(g77
g63
NtRp825
(dp826
g66
(dp827
sg75
g665
sg68
(lp828
g61
(g82
g63
NtRp829
(dp830
g66
(dp831
g86
g87
ssg75
g825
sg68
(lp832
S'http_accept'
p833
asbag61
(g82
g63
NtRp834
(dp835
g66
(dp836
g93
g94
ssg75
g825
sg68
(lp837
S':'
asbag61
(g82
g63
NtRp838
(dp839
g66
(dp840
sg75
g825
sg68
(lp841
g61
(g62
g63
NtRp842
(dp843
g66
(dp844
g74
I4
ssg75
g838
sg68
(lp845
S'text/html,application/xhtml+xml,application/xml;q=0.9,*/*;q=0.8'
p846
asbasbasbag61
(g77
g63
NtRp847
(dp848
g66
(dp849
sg75
g665
sg68
(lp850
g61
(g82
g63
NtRp851
(dp852
g66
(dp853
g86
g87
ssg75
g847
sg68
(lp854
S'http_accept_charset'
p855
asbag61
(g82
g63
NtRp856
(dp857
g66
(dp858
g93
g94
ssg75
g847
sg68
(lp859
S':'
asbag61
(g82
g63
NtRp860
(dp861
g66
(dp862
sg75
g847
sg68
(lp863
g61
(g62
g63
NtRp864
(dp865
g66
(dp866
g74
I4
ssg75
g860
sg68
(lp867
S'ISO-8859-1,utf-8;q=0.7,*;q=0.3'
p868
asbasbasbag61
(g77
g63
NtRp869
(dp870
g66
(dp871
sg75
g665
sg68
(lp872
g61
(g82
g63
NtRp873
(dp874
g66
(dp875
g86
g87
ssg75
g869
sg68
(lp876
S'http_accept_encoding'
p877
asbag61
(g82
g63
NtRp878
(dp879
g66
(dp880
g93
g94
ssg75
g869
sg68
(lp881
S':'
asbag61
(g82
g63
NtRp882
(dp883
g66
(dp884
sg75
g869
sg68
(lp885
g61
(g62
g63
NtRp886
(dp887
g66
(dp888
g74
I4
ssg75
g882
sg68
(lp889
S'gzip,deflate,sdch'
p890
asbasbasbag61
(g77
g63
NtRp891
(dp892
g66
(dp893
sg75
g665
sg68
(lp894
g61
(g82
g63
NtRp895
(dp896
g66
(dp897
g86
g87
ssg75
g891
sg68
(lp898
S'http_accept_language'
p899
asbag61
(g82
g63
NtRp900
(dp901
g66
(dp902
g93
g94
ssg75
g891
sg68
(lp903
S':'
asbag61
(g82
g63
NtRp904
(dp905
g66
(dp906
sg75
g891
sg68
(lp907
g61
(g62
g63
NtRp908
(dp909
g66
(dp910
g74
I4
ssg75
g904
sg68
(lp911
S'es-ES,es;q=0.8'
p912
asbasbasbag61
(g77
g63
NtRp913
(dp914
g66
(dp915
sg75
g665
sg68
(lp916
g61
(g82
g63
NtRp917
(dp918
g66
(dp919
g86
g87
ssg75
g913
sg68
(lp920
S'http_connection'
p921
asbag61
(g82
g63
NtRp922
(dp923
g66
(dp924
g93
g94
ssg75
g913
sg68
(lp925
S':'
asbag61
(g82
g63
NtRp926
(dp927
g66
(dp928
sg75
g913
sg68
(lp929
g61
(g62
g63
NtRp930
(dp931
g66
(dp932
g74
I4
ssg75
g926
sg68
(lp933
S'keep-alive'
p934
asbasbasbag61
(g77
g63
NtRp935
(dp936
g66
(dp937
sg75
g665
sg68
(lp938
g61
(g82
g63
NtRp939
(dp940
g66
(dp941
g86
g87
ssg75
g935
sg68
(lp942
S'http_cookie'
p943
asbag61
(g82
g63
NtRp944
(dp945
g66
(dp946
g93
g94
ssg75
g935
sg68
(lp947
S':'
asbag61
(g82
g63
NtRp948
(dp949
g66
(dp950
sg75
g935
sg68
(lp951
g61
(g62
g63
NtRp952
(dp953
g66
(dp954
g74
I4
ssg75
g948
sg68
(lp955
S'session_id_welcome=127.0.0.1-f23668cb-3155-4efb-9496-62fc383d1128; session_id_admin=127.0.0.1-9faf0013-53a5-44d6-a7c3-67a69f50fe43'
p956
asbasbasbag61
(g77
g63
NtRp957
(dp958
g66
(dp959
sg75
g665
sg68
(lp960
g61
(g82
g63
NtRp961
(dp962
g66
(dp963
g86
g87
ssg75
g957
sg68
(lp964
S'http_host'
p965
asbag61
(g82
g63
NtRp966
(dp967
g66
(dp968
g93
g94
ssg75
g957
sg68
(lp969
S':'
asbag61
(g82
g63
NtRp970
(dp971
g66
(dp972
sg75
g957
sg68
(lp973
g61
(g62
g63
NtRp974
(dp975
g66
(dp976
g74
I4
ssg75
g970
sg68
(lp977
S'127.0.0.1:8000'
p978
asbasbasbag61
(g77
g63
NtRp979
(dp980
g66
(dp981
sg75
g665
sg68
(lp982
g61
(g82
g63
NtRp983
(dp984
g66
(dp985
g86
g87
ssg75
g979
sg68
(lp986
S'http_referer'
p987
asbag61
(g82
g63
NtRp988
(dp989
g66
(dp990
g93
g94
ssg75
g979
sg68
(lp991
S':'
asbag61
(g82
g63
NtRp992
(dp993
g66
(dp994
sg75
g979
sg68
(lp995
g61
(g62
g63
NtRp996
(dp997
g66
(dp998
g74
I4
ssg75
g992
sg68
(lp999
S'http://127.0.0.1:8000/admin/default/design/rosan'
p1000
asbasbasbag61
(g77
g63
NtRp1001
(dp1002
g66
(dp1003
sg75
g665
sg68
(lp1004
g61
(g82
g63
NtRp1005
(dp1006
g66
(dp1007
g86
g87
ssg75
g1001
sg68
(lp1008
S'http_user_agent'
p1009
asbag61
(g82
g63
NtRp1010
(dp1011
g66
(dp1012
g93
g94
ssg75
g1001
sg68
(lp1013
S':'
asbag61
(g82
g63
NtRp1014
(dp1015
g66
(dp1016
sg75
g1001
sg68
(lp1017
g61
(g62
g63
NtRp1018
(dp1019
g66
(dp1020
g74
I4
ssg75
g1014
sg68
(lp1021
S'Mozilla/5.0 (Macintosh; Intel Mac OS X 10_8_2) AppleWebKit/537.17 (KHTML, like Gecko) Chrome/24.0.1312.57 Safari/537.17'
p1022
asbasbasbag61
(g77
g63
NtRp1023
(dp1024
g66
(dp1025
sg75
g665
sg68
(lp1026
g61
(g82
g63
NtRp1027
(dp1028
g66
(dp1029
g86
g87
ssg75
g1023
sg68
(lp1030
S'is_jython'
p1031
asbag61
(g82
g63
NtRp1032
(dp1033
g66
(dp1034
g93
g94
ssg75
g1023
sg68
(lp1035
S':'
asbag61
(g82
g63
NtRp1036
(dp1037
g66
(dp1038
sg75
g1023
sg68
(lp1039
g61
(g62
g63
NtRp1040
(dp1041
g66
(dp1042
g74
I4
ssg75
g1036
sg68
(lp1043
g104
asbasbasbag61
(g77
g63
NtRp1044
(dp1045
g66
(dp1046
sg75
g665
sg68
(lp1047
g61
(g82
g63
NtRp1048
(dp1049
g66
(dp1050
g86
g87
ssg75
g1044
sg68
(lp1051
S'is_pypy'
p1052
asbag61
(g82
g63
NtRp1053
(dp1054
g66
(dp1055
g93
g94
ssg75
g1044
sg68
(lp1056
S':'
asbag61
(g82
g63
NtRp1057
(dp1058
g66
(dp1059
sg75
g1044
sg68
(lp1060
g61
(g62
g63
NtRp1061
(dp1062
g66
(dp1063
g74
I4
ssg75
g1057
sg68
(lp1064
g104
asbasbasbag61
(g77
g63
NtRp1065
(dp1066
g66
(dp1067
sg75
g665
sg68
(lp1068
g61
(g82
g63
NtRp1069
(dp1070
g66
(dp1071
g86
g87
ssg75
g1065
sg68
(lp1072
S'local_hosts'
p1073
asbag61
(g82
g63
NtRp1074
(dp1075
g66
(dp1076
g93
g94
ssg75
g1065
sg68
(lp1077
S':'
asbag61
(g82
g63
NtRp1078
(dp1079
g66
(dp1080
sg75
g1065
sg68
(lp1081
g61
(g62
g63
NtRp1082
(dp1083
g66
(dp1084
g74
I4
ssg75
g1078
sg68
(lp1085
g61
(g70
g63
NtRp1086
(dp1087
g66
(dp1088
g74
I3
ssg75
Nsg68
(lp1089
g61
(g77
g63
NtRp1090
(dp1091
g66
(dp1092
sg75
g1086
sg68
(lp1093
g61
(g82
g63
NtRp1094
(dp1095
g66
(dp1096
sg75
g1090
sg68
(lp1097
g61
(g62
g63
NtRp1098
(dp1099
g66
(dp1100
g74
I3
ssg75
g1094
sg68
(lp1101
S'fe80::8e2d:aaff:fe4a:3d35%en1'
p1102
asbasbasbag61
(g77
g63
NtRp1103
(dp1104
g66
(dp1105
sg75
g1086
sg68
(lp1106
g61
(g82
g63
NtRp1107
(dp1108
g66
(dp1109
sg75
g1103
sg68
(lp1110
g61
(g62
g63
NtRp1111
(dp1112
g66
(dp1113
g74
I3
ssg75
g1107
sg68
(lp1114
S'192.168.1.35'
p1115
asbasbasbag61
(g77
g63
NtRp1116
(dp1117
g66
(dp1118
sg75
g1086
sg68
(lp1119
g61
(g82
g63
NtRp1120
(dp1121
g66
(dp1122
sg75
g1116
sg68
(lp1123
g61
(g62
g63
NtRp1124
(dp1125
g66
(dp1126
g74
I3
ssg75
g1120
sg68
(lp1127
S'::ffff:127.0.0.1'
p1128
asbasbasbag61
(g77
g63
NtRp1129
(dp1130
g66
(dp1131
sg75
g1086
sg68
(lp1132
g61
(g82
g63
NtRp1133
(dp1134
g66
(dp1135
sg75
g1129
sg68
(lp1136
g61
(g62
g63
NtRp1137
(dp1138
g66
(dp1139
g74
I3
ssg75
g1133
sg68
(lp1140
S'::1'
p1141
asbasbasbag61
(g77
g63
NtRp1142
(dp1143
g66
(dp1144
sg75
g1086
sg68
(lp1145
g61
(g82
g63
NtRp1146
(dp1147
g66
(dp1148
sg75
g1142
sg68
(lp1149
g61
(g62
g63
NtRp1150
(dp1151
g66
(dp1152
g74
I3
ssg75
g1146
sg68
(lp1153
S'PeritoMascao.local'
p1154
asbasbasbag61
(g77
g63
NtRp1155
(dp1156
g66
(dp1157
sg75
g1086
sg68
(lp1158
g61
(g82
g63
NtRp1159
(dp1160
g66
(dp1161
sg75
g1155
sg68
(lp1162
g61
(g62
g63
NtRp1163
(dp1164
g66
(dp1165
g74
I3
ssg75
g1159
sg68
(lp1166
S'127.0.0.1'
p1167
asbasbasbasbasbasbasbag61
(g77
g63
NtRp1168
(dp1169
g66
(dp1170
sg75
g665
sg68
(lp1171
g61
(g82
g63
NtRp1172
(dp1173
g66
(dp1174
g86
g87
ssg75
g1168
sg68
(lp1175
S'path_info'
p1176
asbag61
(g82
g63
NtRp1177
(dp1178
g66
(dp1179
g93
g94
ssg75
g1168
sg68
(lp1180
S':'
asbag61
(g82
g63
NtRp1181
(dp1182
g66
(dp1183
sg75
g1168
sg68
(lp1184
g61
(g62
g63
NtRp1185
(dp1186
g66
(dp1187
g74
I4
ssg75
g1181
sg68
(lp1188
S'/rosan/appadmin/index'
p1189
asbasbasbag61
(g77
g63
NtRp1190
(dp1191
g66
(dp1192
sg75
g665
sg68
(lp1193
g61
(g82
g63
NtRp1194
(dp1195
g66
(dp1196
g86
g87
ssg75
g1190
sg68
(lp1197
S'query_string'
p1198
asbag61
(g82
g63
NtRp1199
(dp1200
g66
(dp1201
g93
g94
ssg75
g1190
sg68
(lp1202
S':'
asbag61
(g82
g63
NtRp1203
(dp1204
g66
(dp1205
sg75
g1190
sg68
(lp1206
g61
(g62
g63
NtRp1207
(dp1208
g66
(dp1209
g74
I4
ssg75
g1203
sg68
(lp1210
S''
asbasbasbag61
(g77
g63
NtRp1211
(dp1212
g66
(dp1213
sg75
g665
sg68
(lp1214
g61
(g82
g63
NtRp1215
(dp1216
g66
(dp1217
g86
g87
ssg75
g1211
sg68
(lp1218
S'remote_addr'
p1219
asbag61
(g82
g63
NtRp1220
(dp1221
g66
(dp1222
g93
g94
ssg75
g1211
sg68
(lp1223
S':'
asbag61
(g82
g63
NtRp1224
(dp1225
g66
(dp1226
sg75
g1211
sg68
(lp1227
g61
(g62
g63
NtRp1228
(dp1229
g66
(dp1230
g74
I4
ssg75
g1224
sg68
(lp1231
g216
asbasbasbag61
(g77
g63
NtRp1232
(dp1233
g66
(dp1234
sg75
g665
sg68
(lp1235
g61
(g82
g63
NtRp1236
(dp1237
g66
(dp1238
g86
g87
ssg75
g1232
sg68
(lp1239
S'remote_port'
p1240
asbag61
(g82
g63
NtRp1241
(dp1242
g66
(dp1243
g93
g94
ssg75
g1232
sg68
(lp1244
S':'
asbag61
(g82
g63
NtRp1245
(dp1246
g66
(dp1247
sg75
g1232
sg68
(lp1248
g61
(g62
g63
NtRp1249
(dp1250
g66
(dp1251
g74
I4
ssg75
g1245
sg68
(lp1252
S'49267'
p1253
asbasbasbag61
(g77
g63
NtRp1254
(dp1255
g66
(dp1256
sg75
g665
sg68
(lp1257
g61
(g82
g63
NtRp1258
(dp1259
g66
(dp1260
g86
g87
ssg75
g1254
sg68
(lp1261
S'request_method'
p1262
asbag61
(g82
g63
NtRp1263
(dp1264
g66
(dp1265
g93
g94
ssg75
g1254
sg68
(lp1266
S':'
asbag61
(g82
g63
NtRp1267
(dp1268
g66
(dp1269
sg75
g1254
sg68
(lp1270
g61
(g62
g63
NtRp1271
(dp1272
g66
(dp1273
g74
I4
ssg75
g1267
sg68
(lp1274
S'GET'
p1275
asbasbasbag61
(g77
g63
NtRp1276
(dp1277
g66
(dp1278
sg75
g665
sg68
(lp1279
g61
(g82
g63
NtRp1280
(dp1281
g66
(dp1282
g86
g87
ssg75
g1276
sg68
(lp1283
S'request_uri'
p1284
asbag61
(g82
g63
NtRp1285
(dp1286
g66
(dp1287
g93
g94
ssg75
g1276
sg68
(lp1288
S':'
asbag61
(g82
g63
NtRp1289
(dp1290
g66
(dp1291
sg75
g1276
sg68
(lp1292
g61
(g62
g63
NtRp1293
(dp1294
g66
(dp1295
g74
I4
ssg75
g1289
sg68
(lp1296
g1189
asbasbasbag61
(g77
g63
NtRp1297
(dp1298
g66
(dp1299
sg75
g665
sg68
(lp1300
g61
(g82
g63
NtRp1301
(dp1302
g66
(dp1303
g86
g87
ssg75
g1297
sg68
(lp1304
S'script_name'
p1305
asbag61
(g82
g63
NtRp1306
(dp1307
g66
(dp1308
g93
g94
ssg75
g1297
sg68
(lp1309
S':'
asbag61
(g82
g63
NtRp1310
(dp1311
g66
(dp1312
sg75
g1297
sg68
(lp1313
g61
(g62
g63
NtRp1314
(dp1315
g66
(dp1316
g74
I4
ssg75
g1310
sg68
(lp1317
S''
asbasbasbag61
(g77
g63
NtRp1318
(dp1319
g66
(dp1320
sg75
g665
sg68
(lp1321
g61
(g82
g63
NtRp1322
(dp1323
g66
(dp1324
g86
g87
ssg75
g1318
sg68
(lp1325
S'server_name'
p1326
asbag61
(g82
g63
NtRp1327
(dp1328
g66
(dp1329
g93
g94
ssg75
g1318
sg68
(lp1330
S':'
asbag61
(g82
g63
NtRp1331
(dp1332
g66
(dp1333
sg75
g1318
sg68
(lp1334
g61
(g62
g63
NtRp1335
(dp1336
g66
(dp1337
g74
I4
ssg75
g1331
sg68
(lp1338
S'PeritoMascao.local'
p1339
asbasbasbag61
(g77
g63
NtRp1340
(dp1341
g66
(dp1342
sg75
g665
sg68
(lp1343
g61
(g82
g63
NtRp1344
(dp1345
g66
(dp1346
g86
g87
ssg75
g1340
sg68
(lp1347
S'server_port'
p1348
asbag61
(g82
g63
NtRp1349
(dp1350
g66
(dp1351
g93
g94
ssg75
g1340
sg68
(lp1352
S':'
asbag61
(g82
g63
NtRp1353
(dp1354
g66
(dp1355
sg75
g1340
sg68
(lp1356
g61
(g62
g63
NtRp1357
(dp1358
g66
(dp1359
g74
I4
ssg75
g1353
sg68
(lp1360
S'8000'
p1361
asbasbasbag61
(g77
g63
NtRp1362
(dp1363
g66
(dp1364
sg75
g665
sg68
(lp1365
g61
(g82
g63
NtRp1366
(dp1367
g66
(dp1368
g86
g87
ssg75
g1362
sg68
(lp1369
S'server_protocol'
p1370
asbag61
(g82
g63
NtRp1371
(dp1372
g66
(dp1373
g93
g94
ssg75
g1362
sg68
(lp1374
S':'
asbag61
(g82
g63
NtRp1375
(dp1376
g66
(dp1377
sg75
g1362
sg68
(lp1378
g61
(g62
g63
NtRp1379
(dp1380
g66
(dp1381
g74
I4
ssg75
g1375
sg68
(lp1382
S'HTTP/1.1'
p1383
asbasbasbag61
(g77
g63
NtRp1384
(dp1385
g66
(dp1386
sg75
g665
sg68
(lp1387
g61
(g82
g63
NtRp1388
(dp1389
g66
(dp1390
g86
g87
ssg75
g1384
sg68
(lp1391
S'server_software'
p1392
asbag61
(g82
g63
NtRp1393
(dp1394
g66
(dp1395
g93
g94
ssg75
g1384
sg68
(lp1396
S':'
asbag61
(g82
g63
NtRp1397
(dp1398
g66
(dp1399
sg75
g1384
sg68
(lp1400
g61
(g62
g63
NtRp1401
(dp1402
g66
(dp1403
g74
I4
ssg75
g1397
sg68
(lp1404
S'Rocket 1.2.6'
p1405
asbasbasbag61
(g77
g63
NtRp1406
(dp1407
g66
(dp1408
sg75
g665
sg68
(lp1409
g61
(g82
g63
NtRp1410
(dp1411
g66
(dp1412
g86
g87
ssg75
g1406
sg68
(lp1413
S'web2py_path'
p1414
asbag61
(g82
g63
NtRp1415
(dp1416
g66
(dp1417
g93
g94
ssg75
g1406
sg68
(lp1418
S':'
asbag61
(g82
g63
NtRp1419
(dp1420
g66
(dp1421
sg75
g1406
sg68
(lp1422
g61
(g62
g63
NtRp1423
(dp1424
g66
(dp1425
g74
I4
ssg75
g1419
sg68
(lp1426
g712
asbasbasbag61
(g77
g63
NtRp1427
(dp1428
g66
(dp1429
sg75
g665
sg68
(lp1430
g61
(g82
g63
NtRp1431
(dp1432
g66
(dp1433
g86
g87
ssg75
g1427
sg68
(lp1434
S'web2py_version'
p1435
asbag61
(g82
g63
NtRp1436
(dp1437
g66
(dp1438
g93
g94
ssg75
g1427
sg68
(lp1439
S':'
asbag61
(g82
g63
NtRp1440
(dp1441
g66
(dp1442
sg75
g1427
sg68
(lp1443
g61
(g62
g63
NtRp1444
(dp1445
g66
(dp1446
g74
I4
ssg75
g1440
sg68
(lp1447
g61
(g70
g63
NtRp1448
(dp1449
g66
(dp1450
g74
I3
ssg75
Nsg68
(lp1451
g61
(g77
g63
NtRp1452
(dp1453
g66
(dp1454
sg75
g1448
sg68
(lp1455
g61
(g82
g63
NtRp1456
(dp1457
g66
(dp1458
sg75
g1452
sg68
(lp1459
g61
(g62
g63
NtRp1460
(dp1461
g66
(dp1462
g74
I3
ssg75
g1456
sg68
(lp1463
S'2'
asbasbasbag61
(g77
g63
NtRp1464
(dp1465
g66
(dp1466
sg75
g1448
sg68
(lp1467
g61
(g82
g63
NtRp1468
(dp1469
g66
(dp1470
sg75
g1464
sg68
(lp1471
g61
(g62
g63
NtRp1472
(dp1473
g66
(dp1474
g74
I3
ssg75
g1468
sg68
(lp1475
S'3'
asbasbasbag61
(g77
g63
NtRp1476
(dp1477
g66
(dp1478
sg75
g1448
sg68
(lp1479
g61
(g82
g63
NtRp1480
(dp1481
g66
(dp1482
sg75
g1476
sg68
(lp1483
g61
(g62
g63
NtRp1484
(dp1485
g66
(dp1486
g74
I3
ssg75
g1480
sg68
(lp1487
S'2'
asbasbasbag61
(g77
g63
NtRp1488
(dp1489
g66
(dp1490
sg75
g1448
sg68
(lp1491
g61
(g82
g63
NtRp1492
(dp1493
g66
(dp1494
sg75
g1488
sg68
(lp1495
g61
(g62
g63
NtRp1496
(dp1497
g66
(dp1498
g74
I3
ssg75
g1492
sg68
(lp1499
S'datetime.datetime(2012, 12, 17, 15, 3, 30)'
p1500
asbasbasbag61
(g77
g63
NtRp1501
(dp1502
g66
(dp1503
sg75
g1448
sg68
(lp1504
g61
(g82
g63
NtRp1505
(dp1506
g66
(dp1507
sg75
g1501
sg68
(lp1508
g61
(g62
g63
NtRp1509
(dp1510
g66
(dp1511
g74
I3
ssg75
g1505
sg68
(lp1512
S'stable'
p1513
asbasbasbasbasbasbasbag61
(g77
g63
NtRp1514
(dp1515
g66
(dp1516
sg75
g665
sg68
(lp1517
g61
(g82
g63
NtRp1518
(dp1519
g66
(dp1520
g86
g87
ssg75
g1514
sg68
(lp1521
S'wsgi_errors'
p1522
asbag61
(g82
g63
NtRp1523
(dp1524
g66
(dp1525
g93
g94
ssg75
g1514
sg68
(lp1526
S':'
asbag61
(g82
g63
NtRp1527
(dp1528
g66
(dp1529
sg75
g1514
sg68
(lp1530
g61
(g62
g63
NtRp1531
(dp1532
g66
(dp1533
g74
I4
ssg75
g1527
sg68
(lp1534
S"<open file '<stderr>', mode 'w' at 0x10a244270>"
p1535
asbasbasbag61
(g77
g63
NtRp1536
(dp1537
g66
(dp1538
sg75
g665
sg68
(lp1539
g61
(g82
g63
NtRp1540
(dp1541
g66
(dp1542
g86
g87
ssg75
g1536
sg68
(lp1543
S'wsgi_file_wrapper'
p1544
asbag61
(g82
g63
NtRp1545
(dp1546
g66
(dp1547
g93
g94
ssg75
g1536
sg68
(lp1548
S':'
asbag61
(g82
g63
NtRp1549
(dp1550
g66
(dp1551
sg75
g1536
sg68
(lp1552
g61
(g62
g63
NtRp1553
(dp1554
g66
(dp1555
g74
I4
ssg75
g1549
sg68
(lp1556
S'<class wsgiref.util.FileWrapper at 0x10afb0ae0>'
p1557
asbasbasbag61
(g77
g63
NtRp1558
(dp1559
g66
(dp1560
sg75
g665
sg68
(lp1561
g61
(g82
g63
NtRp1562
(dp1563
g66
(dp1564
g86
g87
ssg75
g1558
sg68
(lp1565
S'wsgi_input'
p1566
asbag61
(g82
g63
NtRp1567
(dp1568
g66
(dp1569
g93
g94
ssg75
g1558
sg68
(lp1570
S':'
asbag61
(g82
g63
NtRp1571
(dp1572
g66
(dp1573
sg75
g1558
sg68
(lp1574
g61
(g62
g63
NtRp1575
(dp1576
g66
(dp1577
g74
I4
ssg75
g1571
sg68
(lp1578
S'<socket._fileobject object at 0x10f6e5950>'
p1579
asbasbasbag61
(g77
g63
NtRp1580
(dp1581
g66
(dp1582
sg75
g665
sg68
(lp1583
g61
(g82
g63
NtRp1584
(dp1585
g66
(dp1586
g86
g87
ssg75
g1580
sg68
(lp1587
S'wsgi_multiprocess'
p1588
asbag61
(g82
g63
NtRp1589
(dp1590
g66
(dp1591
g93
g94
ssg75
g1580
sg68
(lp1592
S':'
asbag61
(g82
g63
NtRp1593
(dp1594
g66
(dp1595
sg75
g1580
sg68
(lp1596
g61
(g62
g63
NtRp1597
(dp1598
g66
(dp1599
g74
I4
ssg75
g1593
sg68
(lp1600
g104
asbasbasbag61
(g77
g63
NtRp1601
(dp1602
g66
(dp1603
sg75
g665
sg68
(lp1604
g61
(g82
g63
NtRp1605
(dp1606
g66
(dp1607
g86
g87
ssg75
g1601
sg68
(lp1608
S'wsgi_multithread'
p1609
asbag61
(g82
g63
NtRp1610
(dp1611
g66
(dp1612
g93
g94
ssg75
g1601
sg68
(lp1613
S':'
asbag61
(g82
g63
NtRp1614
(dp1615
g66
(dp1616
sg75
g1601
sg68
(lp1617
g61
(g62
g63
NtRp1618
(dp1619
g66
(dp1620
g74
I4
ssg75
g1614
sg68
(lp1621
S'True'
p1622
asbasbasbag61
(g77
g63
NtRp1623
(dp1624
g66
(dp1625
sg75
g665
sg68
(lp1626
g61
(g82
g63
NtRp1627
(dp1628
g66
(dp1629
g86
g87
ssg75
g1623
sg68
(lp1630
S'wsgi_run_once'
p1631
asbag61
(g82
g63
NtRp1632
(dp1633
g66
(dp1634
g93
g94
ssg75
g1623
sg68
(lp1635
S':'
asbag61
(g82
g63
NtRp1636
(dp1637
g66
(dp1638
sg75
g1623
sg68
(lp1639
g61
(g62
g63
NtRp1640
(dp1641
g66
(dp1642
g74
I4
ssg75
g1636
sg68
(lp1643
g104
asbasbasbag61
(g77
g63
NtRp1644
(dp1645
g66
(dp1646
sg75
g665
sg68
(lp1647
g61
(g82
g63
NtRp1648
(dp1649
g66
(dp1650
g86
g87
ssg75
g1644
sg68
(lp1651
S'wsgi_url_scheme'
p1652
asbag61
(g82
g63
NtRp1653
(dp1654
g66
(dp1655
g93
g94
ssg75
g1644
sg68
(lp1656
S':'
asbag61
(g82
g63
NtRp1657
(dp1658
g66
(dp1659
sg75
g1644
sg68
(lp1660
g61
(g62
g63
NtRp1661
(dp1662
g66
(dp1663
g74
I4
ssg75
g1657
sg68
(lp1664
S'http'
p1665
asbasbasbag61
(g77
g63
NtRp1666
(dp1667
g66
(dp1668
sg75
g665
sg68
(lp1669
g61
(g82
g63
NtRp1670
(dp1671
g66
(dp1672
g86
g87
ssg75
g1666
sg68
(lp1673
S'wsgi_version'
p1674
asbag61
(g82
g63
NtRp1675
(dp1676
g66
(dp1677
g93
g94
ssg75
g1666
sg68
(lp1678
S':'
asbag61
(g82
g63
NtRp1679
(dp1680
g66
(dp1681
sg75
g1666
sg68
(lp1682
g61
(g62
g63
NtRp1683
(dp1684
g66
(dp1685
g74
I4
ssg75
g1679
sg68
(lp1686
g61
(g70
g63
NtRp1687
(dp1688
g66
(dp1689
g74
I3
ssg75
Nsg68
(lp1690
g61
(g77
g63
NtRp1691
(dp1692
g66
(dp1693
sg75
g1687
sg68
(lp1694
g61
(g82
g63
NtRp1695
(dp1696
g66
(dp1697
sg75
g1691
sg68
(lp1698
g61
(g62
g63
NtRp1699
(dp1700
g66
(dp1701
g74
I3
ssg75
g1695
sg68
(lp1702
S'1'
asbasbasbag61
(g77
g63
NtRp1703
(dp1704
g66
(dp1705
sg75
g1687
sg68
(lp1706
g61
(g82
g63
NtRp1707
(dp1708
g66
(dp1709
sg75
g1703
sg68
(lp1710
g61
(g62
g63
NtRp1711
(dp1712
g66
(dp1713
g74
I3
ssg75
g1707
sg68
(lp1714
S'0'
asbasbasbasbasbasbasbasbasbasbasbag61
(g77
g63
NtRp1715
(dp1716
g66
(dp1717
sg75
g71
sg68
(lp1718
g61
(g82
g63
NtRp1719
(dp1720
g66
(dp1721
g86
g87
ssg75
g1715
sg68
(lp1722
S'extension'
p1723
asbag61
(g82
g63
NtRp1724
(dp1725
g66
(dp1726
g93
g94
ssg75
g1715
sg68
(lp1727
S':'
asbag61
(g82
g63
NtRp1728
(dp1729
g66
(dp1730
sg75
g1715
sg68
(lp1731
g61
(g62
g63
NtRp1732
(dp1733
g66
(dp1734
g74
I5
ssg75
g1728
sg68
(lp1735
S'html'
p1736
asbasbasbag61
(g77
g63
NtRp1737
(dp1738
g66
(dp1739
sg75
g71
sg68
(lp1740
g61
(g82
g63
NtRp1741
(dp1742
g66
(dp1743
g86
g87
ssg75
g1737
sg68
(lp1744
S'folder'
p1745
asbag61
(g82
g63
NtRp1746
(dp1747
g66
(dp1748
g93
g94
ssg75
g1737
sg68
(lp1749
S':'
asbag61
(g82
g63
NtRp1750
(dp1751
g66
(dp1752
sg75
g1737
sg68
(lp1753
g61
(g62
g63
NtRp1754
(dp1755
g66
(dp1756
g74
I5
ssg75
g1750
sg68
(lp1757
S'/Users/Truki/Desarrollo/web2py/applications/rosan/'
p1758
asbasbasbag61
(g77
g63
NtRp1759
(dp1760
g66
(dp1761
sg75
g71
sg68
(lp1762
g61
(g82
g63
NtRp1763
(dp1764
g66
(dp1765
g86
g87
ssg75
g1759
sg68
(lp1766
S'function'
p1767
asbag61
(g82
g63
NtRp1768
(dp1769
g66
(dp1770
g93
g94
ssg75
g1759
sg68
(lp1771
S':'
asbag61
(g82
g63
NtRp1772
(dp1773
g66
(dp1774
sg75
g1759
sg68
(lp1775
g61
(g62
g63
NtRp1776
(dp1777
g66
(dp1778
g74
I5
ssg75
g1772
sg68
(lp1779
S'index'
p1780
asbasbasbag61
(g77
g63
NtRp1781
(dp1782
g66
(dp1783
sg75
g71
sg68
(lp1784
g61
(g82
g63
NtRp1785
(dp1786
g66
(dp1787
g86
g87
ssg75
g1781
sg68
(lp1788
S'get_vars'
p1789
asbag61
(g82
g63
NtRp1790
(dp1791
g66
(dp1792
g93
g94
ssg75
g1781
sg68
(lp1793
S':'
asbag61
(g82
g63
NtRp1794
(dp1795
g66
(dp1796
sg75
g1781
sg68
(lp1797
g61
(g62
g63
NtRp1798
(dp1799
g66
(dp1800
g74
I5
ssg75
g1794
sg68
(lp1801
g61
(g70
g63
NtRp1802
(dp1803
g66
(dp1804
g74
I4
ssg75
Nsg68
(lp1805
sbasbasbasbag61
(g77
g63
NtRp1806
(dp1807
g66
(dp1808
sg75
g71
sg68
(lp1809
g61
(g82
g63
NtRp1810
(dp1811
g66
(dp1812
g86
g87
ssg75
g1806
sg68
(lp1813
S'global_settings'
p1814
asbag61
(g82
g63
NtRp1815
(dp1816
g66
(dp1817
g93
g94
ssg75
g1806
sg68
(lp1818
S':'
asbag61
(g82
g63
NtRp1819
(dp1820
g66
(dp1821
sg75
g1806
sg68
(lp1822
g61
(g62
g63
NtRp1823
(dp1824
g66
(dp1825
g74
I5
ssg75
g1819
sg68
(lp1826
g61
(g70
g63
NtRp1827
(dp1828
g66
(dp1829
g74
I4
ssg75
Nsg68
(lp1830
g61
(g77
g63
NtRp1831
(dp1832
g66
(dp1833
sg75
g1827
sg68
(lp1834
g61
(g82
g63
NtRp1835
(dp1836
g66
(dp1837
g86
g87
ssg75
g1831
sg68
(lp1838
g677
asbag61
(g82
g63
NtRp1839
(dp1840
g66
(dp1841
g93
g94
ssg75
g1831
sg68
(lp1842
S':'
asbag61
(g82
g63
NtRp1843
(dp1844
g66
(dp1845
sg75
g1831
sg68
(lp1846
g61
(g62
g63
NtRp1847
(dp1848
g66
(dp1849
g74
I4
ssg75
g1843
sg68
(lp1850
S"set(['/Users/Truki/Desarrollo/web2py/applications/welcome/', '/Users/Truki/Desarrollo/web2py/applications/rosan/', '/Users/Truki/Desarrollo/web2py/applications/admin/'])"
p1851
asbasbasbag61
(g77
g63
NtRp1852
(dp1853
g66
(dp1854
sg75
g1827
sg68
(lp1855
g61
(g82
g63
NtRp1856
(dp1857
g66
(dp1858
g86
g87
ssg75
g1852
sg68
(lp1859
g699
asbag61
(g82
g63
NtRp1860
(dp1861
g66
(dp1862
g93
g94
ssg75
g1852
sg68
(lp1863
S':'
asbag61
(g82
g63
NtRp1864
(dp1865
g66
(dp1866
sg75
g1852
sg68
(lp1867
g61
(g62
g63
NtRp1868
(dp1869
g66
(dp1870
g74
I4
ssg75
g1864
sg68
(lp1871
g712
asbasbasbag61
(g77
g63
NtRp1872
(dp1873
g66
(dp1874
sg75
g1827
sg68
(lp1875
g61
(g82
g63
NtRp1876
(dp1877
g66
(dp1878
g86
g87
ssg75
g1872
sg68
(lp1879
g721
asbag61
(g82
g63
NtRp1880
(dp1881
g66
(dp1882
g93
g94
ssg75
g1872
sg68
(lp1883
S':'
asbag61
(g82
g63
NtRp1884
(dp1885
g66
(dp1886
sg75
g1872
sg68
(lp1887
g61
(g62
g63
NtRp1888
(dp1889
g66
(dp1890
g74
I4
ssg75
g1884
sg68
(lp1891
g61
(g70
g63
NtRp1892
(dp1893
g66
(dp1894
g74
I3
ssg75
Nsg68
(lp1895
sbasbasbasbag61
(g77
g63
NtRp1896
(dp1897
g66
(dp1898
sg75
g1827
sg68
(lp1899
g61
(g82
g63
NtRp1900
(dp1901
g66
(dp1902
g86
g87
ssg75
g1896
sg68
(lp1903
g746
asbag61
(g82
g63
NtRp1904
(dp1905
g66
(dp1906
g93
g94
ssg75
g1896
sg68
(lp1907
S':'
asbag61
(g82
g63
NtRp1908
(dp1909
g66
(dp1910
sg75
g1896
sg68
(lp1911
g61
(g62
g63
NtRp1912
(dp1913
g66
(dp1914
g74
I4
ssg75
g1908
sg68
(lp1915
S"<Values at 0x10b011440: {'verbose': False, 'ip': '127.0.0.1', 'with_scheduler': False, 'ips': ['fe80::8e2d:aaff:fe4a:3d35%en1', '192.168.1.35'], 'shutdown_timeout': 5, 'taskbar': False, 'port': 8000, 'maxthreads': None, 'softcron': False, 'server_name': 'PeritoMascao.local', 'bpython': False, 'nogui': False, 'pid_filename': 'httpserver.pid', 'extcron': False, 'runcron': False, 'run_system_tests': False, 'test': None, 'folder': '/Users/Truki/Desarrollo/web2py', 'config': '', 'minthreads': None, 'winservice': '', 'shell': None, 'run': '', 'log_filename': 'httpserver.log', 'debuglevel': 30, 'args': [''], 'socket_timeout': 5, 'ssl_ca_certificate': None, 'scheduler': None, 'profiler_filename': None, 'ssl_private_key': '', 'scheduler_groups': None, 'password': '<ask>', 'request_queue_size': 5, 'ssl_certificate': '', 'cronjob': False, 'numthreads': None, 'quiet': False, 'interfaces': None, 'import_models': False, 'timeout': 10, 'plain': False, 'nobanner': False}>"
p1916
asbasbasbag61
(g77
g63
NtRp1917
(dp1918
g66
(dp1919
sg75
g1827
sg68
(lp1920
g61
(g82
g63
NtRp1921
(dp1922
g66
(dp1923
g86
g87
ssg75
g1917
sg68
(lp1924
g768
asbag61
(g82
g63
NtRp1925
(dp1926
g66
(dp1927
g93
g94
ssg75
g1917
sg68
(lp1928
S':'
asbag61
(g82
g63
NtRp1929
(dp1930
g66
(dp1931
sg75
g1917
sg68
(lp1932
g61
(g62
g63
NtRp1933
(dp1934
g66
(dp1935
g74
I4
ssg75
g1929
sg68
(lp1936
S'set([])'
p1937
asbasbasbag61
(g77
g63
NtRp1938
(dp1939
g66
(dp1940
sg75
g1827
sg68
(lp1941
g61
(g82
g63
NtRp1942
(dp1943
g66
(dp1944
g86
g87
ssg75
g1938
sg68
(lp1945
g790
asbag61
(g82
g63
NtRp1946
(dp1947
g66
(dp1948
g93
g94
ssg75
g1938
sg68
(lp1949
S':'
asbag61
(g82
g63
NtRp1950
(dp1951
g66
(dp1952
sg75
g1938
sg68
(lp1953
g61
(g62
g63
NtRp1954
(dp1955
g66
(dp1956
g74
I4
ssg75
g1950
sg68
(lp1957
g104
asbasbasbag61
(g77
g63
NtRp1958
(dp1959
g66
(dp1960
sg75
g1827
sg68
(lp1961
g61
(g82
g63
NtRp1962
(dp1963
g66
(dp1964
g86
g87
ssg75
g1958
sg68
(lp1965
g811
asbag61
(g82
g63
NtRp1966
(dp1967
g66
(dp1968
g93
g94
ssg75
g1958
sg68
(lp1969
S':'
asbag61
(g82
g63
NtRp1970
(dp1971
g66
(dp1972
sg75
g1958
sg68
(lp1973
g61
(g62
g63
NtRp1974
(dp1975
g66
(dp1976
g74
I4
ssg75
g1970
sg68
(lp1977
g824
asbasbasbag61
(g77
g63
NtRp1978
(dp1979
g66
(dp1980
sg75
g1827
sg68
(lp1981
g61
(g82
g63
NtRp1982
(dp1983
g66
(dp1984
g86
g87
ssg75
g1978
sg68
(lp1985
g1031
asbag61
(g82
g63
NtRp1986
(dp1987
g66
(dp1988
g93
g94
ssg75
g1978
sg68
(lp1989
S':'
asbag61
(g82
g63
NtRp1990
(dp1991
g66
(dp1992
sg75
g1978
sg68
(lp1993
g61
(g62
g63
NtRp1994
(dp1995
g66
(dp1996
g74
I4
ssg75
g1990
sg68
(lp1997
g104
asbasbasbag61
(g77
g63
NtRp1998
(dp1999
g66
(dp2000
sg75
g1827
sg68
(lp2001
g61
(g82
g63
NtRp2002
(dp2003
g66
(dp2004
g86
g87
ssg75
g1998
sg68
(lp2005
g1052
asbag61
(g82
g63
NtRp2006
(dp2007
g66
(dp2008
g93
g94
ssg75
g1998
sg68
(lp2009
S':'
asbag61
(g82
g63
NtRp2010
(dp2011
g66
(dp2012
sg75
g1998
sg68
(lp2013
g61
(g62
g63
NtRp2014
(dp2015
g66
(dp2016
g74
I4
ssg75
g2010
sg68
(lp2017
g104
asbasbasbag61
(g77
g63
NtRp2018
(dp2019
g66
(dp2020
sg75
g1827
sg68
(lp2021
g61
(g82
g63
NtRp2022
(dp2023
g66
(dp2024
g86
g87
ssg75
g2018
sg68
(lp2025
g1073
asbag61
(g82
g63
NtRp2026
(dp2027
g66
(dp2028
g93
g94
ssg75
g2018
sg68
(lp2029
S':'
asbag61
(g82
g63
NtRp2030
(dp2031
g66
(dp2032
sg75
g2018
sg68
(lp2033
g61
(g62
g63
NtRp2034
(dp2035
g66
(dp2036
g74
I4
ssg75
g2030
sg68
(lp2037
g61
(g70
g63
NtRp2038
(dp2039
g66
(dp2040
g74
I3
ssg75
Nsg68
(lp2041
g61
(g77
g63
NtRp2042
(dp2043
g66
(dp2044
sg75
g2038
sg68
(lp2045
g61
(g82
g63
NtRp2046
(dp2047
g66
(dp2048
sg75
g2042
sg68
(lp2049
g61
(g62
g63
NtRp2050
(dp2051
g66
(dp2052
g74
I3
ssg75
g2046
sg68
(lp2053
g1102
asbasbasbag61
(g77
g63
NtRp2054
(dp2055
g66
(dp2056
sg75
g2038
sg68
(lp2057
g61
(g82
g63
NtRp2058
(dp2059
g66
(dp2060
sg75
g2054
sg68
(lp2061
g61
(g62
g63
NtRp2062
(dp2063
g66
(dp2064
g74
I3
ssg75
g2058
sg68
(lp2065
g1115
asbasbasbag61
(g77
g63
NtRp2066
(dp2067
g66
(dp2068
sg75
g2038
sg68
(lp2069
g61
(g82
g63
NtRp2070
(dp2071
g66
(dp2072
sg75
g2066
sg68
(lp2073
g61
(g62
g63
NtRp2074
(dp2075
g66
(dp2076
g74
I3
ssg75
g2070
sg68
(lp2077
g1128
asbasbasbag61
(g77
g63
NtRp2078
(dp2079
g66
(dp2080
sg75
g2038
sg68
(lp2081
g61
(g82
g63
NtRp2082
(dp2083
g66
(dp2084
sg75
g2078
sg68
(lp2085
g61
(g62
g63
NtRp2086
(dp2087
g66
(dp2088
g74
I3
ssg75
g2082
sg68
(lp2089
g1141
asbasbasbag61
(g77
g63
NtRp2090
(dp2091
g66
(dp2092
sg75
g2038
sg68
(lp2093
g61
(g82
g63
NtRp2094
(dp2095
g66
(dp2096
sg75
g2090
sg68
(lp2097
g61
(g62
g63
NtRp2098
(dp2099
g66
(dp2100
g74
I3
ssg75
g2094
sg68
(lp2101
g1154
asbasbasbag61
(g77
g63
NtRp2102
(dp2103
g66
(dp2104
sg75
g2038
sg68
(lp2105
g61
(g82
g63
NtRp2106
(dp2107
g66
(dp2108
sg75
g2102
sg68
(lp2109
g61
(g62
g63
NtRp2110
(dp2111
g66
(dp2112
g74
I3
ssg75
g2106
sg68
(lp2113
g1167
asbasbasbasbasbasbasbag61
(g77
g63
NtRp2114
(dp2115
g66
(dp2116
sg75
g1827
sg68
(lp2117
g61
(g82
g63
NtRp2118
(dp2119
g66
(dp2120
g86
g87
ssg75
g2114
sg68
(lp2121
g1435
asbag61
(g82
g63
NtRp2122
(dp2123
g66
(dp2124
g93
g94
ssg75
g2114
sg68
(lp2125
S':'
asbag61
(g82
g63
NtRp2126
(dp2127
g66
(dp2128
sg75
g2114
sg68
(lp2129
g61
(g62
g63
NtRp2130
(dp2131
g66
(dp2132
g74
I4
ssg75
g2126
sg68
(lp2133
g61
(g70
g63
NtRp2134
(dp2135
g66
(dp2136
g74
I3
ssg75
Nsg68
(lp2137
g61
(g77
g63
NtRp2138
(dp2139
g66
(dp2140
sg75
g2134
sg68
(lp2141
g61
(g82
g63
NtRp2142
(dp2143
g66
(dp2144
sg75
g2138
sg68
(lp2145
g61
(g62
g63
NtRp2146
(dp2147
g66
(dp2148
g74
I3
ssg75
g2142
sg68
(lp2149
S'2'
asbasbasbag61
(g77
g63
NtRp2150
(dp2151
g66
(dp2152
sg75
g2134
sg68
(lp2153
g61
(g82
g63
NtRp2154
(dp2155
g66
(dp2156
sg75
g2150
sg68
(lp2157
g61
(g62
g63
NtRp2158
(dp2159
g66
(dp2160
g74
I3
ssg75
g2154
sg68
(lp2161
S'3'
asbasbasbag61
(g77
g63
NtRp2162
(dp2163
g66
(dp2164
sg75
g2134
sg68
(lp2165
g61
(g82
g63
NtRp2166
(dp2167
g66
(dp2168
sg75
g2162
sg68
(lp2169
g61
(g62
g63
NtRp2170
(dp2171
g66
(dp2172
g74
I3
ssg75
g2166
sg68
(lp2173
S'2'
asbasbasbag61
(g77
g63
NtRp2174
(dp2175
g66
(dp2176
sg75
g2134
sg68
(lp2177
g61
(g82
g63
NtRp2178
(dp2179
g66
(dp2180
sg75
g2174
sg68
(lp2181
g61
(g62
g63
NtRp2182
(dp2183
g66
(dp2184
g74
I3
ssg75
g2178
sg68
(lp2185
S'datetime.datetime(2012, 12, 17, 15, 3, 30)'
p2186
asbasbasbag61
(g77
g63
NtRp2187
(dp2188
g66
(dp2189
sg75
g2134
sg68
(lp2190
g61
(g82
g63
NtRp2191
(dp2192
g66
(dp2193
sg75
g2187
sg68
(lp2194
g61
(g62
g63
NtRp2195
(dp2196
g66
(dp2197
g74
I3
ssg75
g2191
sg68
(lp2198
g1513
asbasbasbasbasbasbasbasbasbasbasbag61
(g77
g63
NtRp2199
(dp2200
g66
(dp2201
sg75
g71
sg68
(lp2202
g61
(g82
g63
NtRp2203
(dp2204
g66
(dp2205
g86
g87
ssg75
g2199
sg68
(lp2206
S'is_https'
p2207
asbag61
(g82
g63
NtRp2208
(dp2209
g66
(dp2210
g93
g94
ssg75
g2199
sg68
(lp2211
S':'
asbag61
(g82
g63
NtRp2212
(dp2213
g66
(dp2214
sg75
g2199
sg68
(lp2215
g61
(g62
g63
NtRp2216
(dp2217
g66
(dp2218
g74
I5
ssg75
g2212
sg68
(lp2219
g104
asbasbasbag61
(g77
g63
NtRp2220
(dp2221
g66
(dp2222
sg75
g71
sg68
(lp2223
g61
(g82
g63
NtRp2224
(dp2225
g66
(dp2226
g86
g87
ssg75
g2220
sg68
(lp2227
S'is_local'
p2228
asbag61
(g82
g63
NtRp2229
(dp2230
g66
(dp2231
g93
g94
ssg75
g2220
sg68
(lp2232
S':'
asbag61
(g82
g63
NtRp2233
(dp2234
g66
(dp2235
sg75
g2220
sg68
(lp2236
g61
(g62
g63
NtRp2237
(dp2238
g66
(dp2239
g74
I5
ssg75
g2233
sg68
(lp2240
g1622
asbasbasbag61
(g77
g63
NtRp2241
(dp2242
g66
(dp2243
sg75
g71
sg68
(lp2244
g61
(g82
g63
NtRp2245
(dp2246
g66
(dp2247
g86
g87
ssg75
g2241
sg68
(lp2248
S'is_restful'
p2249
asbag61
(g82
g63
NtRp2250
(dp2251
g66
(dp2252
g93
g94
ssg75
g2241
sg68
(lp2253
S':'
asbag61
(g82
g63
NtRp2254
(dp2255
g66
(dp2256
sg75
g2241
sg68
(lp2257
g61
(g62
g63
NtRp2258
(dp2259
g66
(dp2260
g74
I5
ssg75
g2254
sg68
(lp2261
g104
asbasbasbag61
(g77
g63
NtRp2262
(dp2263
g66
(dp2264
sg75
g71
sg68
(lp2265
g61
(g82
g63
NtRp2266
(dp2267
g66
(dp2268
g86
g87
ssg75
g2262
sg68
(lp2269
S'now'
p2270
asbag61
(g82
g63
NtRp2271
(dp2272
g66
(dp2273
g93
g94
ssg75
g2262
sg68
(lp2274
S':'
asbag61
(g82
g63
NtRp2275
(dp2276
g66
(dp2277
sg75
g2262
sg68
(lp2278
g61
(g62
g63
NtRp2279
(dp2280
g66
(dp2281
g74
I5
ssg75
g2275
sg68
(lp2282
S'datetime.datetime(2013, 2, 5, 16, 40, 22, 635121)'
p2283
asbasbasbag61
(g77
g63
NtRp2284
(dp2285
g66
(dp2286
sg75
g71
sg68
(lp2287
g61
(g82
g63
NtRp2288
(dp2289
g66
(dp2290
g86
g87
ssg75
g2284
sg68
(lp2291
S'post_vars'
p2292
asbag61
(g82
g63
NtRp2293
(dp2294
g66
(dp2295
g93
g94
ssg75
g2284
sg68
(lp2296
S':'
asbag61
(g82
g63
NtRp2297
(dp2298
g66
(dp2299
sg75
g2284
sg68
(lp2300
g61
(g62
g63
NtRp2301
(dp2302
g66
(dp2303
g74
I5
ssg75
g2297
sg68
(lp2304
g61
(g70
g63
NtRp2305
(dp2306
g66
(dp2307
g74
I4
ssg75
Nsg68
(lp2308
sbasbasbasbag61
(g77
g63
NtRp2309
(dp2310
g66
(dp2311
sg75
g71
sg68
(lp2312
g61
(g82
g63
NtRp2313
(dp2314
g66
(dp2315
g86
g87
ssg75
g2309
sg68
(lp2316
S'raw_args'
p2317
asbag61
(g82
g63
NtRp2318
(dp2319
g66
(dp2320
g93
g94
ssg75
g2309
sg68
(lp2321
S':'
asbag61
(g82
g63
NtRp2322
(dp2323
g66
(dp2324
sg75
g2309
sg68
(lp2325
g61
(g62
g63
NtRp2326
(dp2327
g66
(dp2328
g74
I5
ssg75
g2322
sg68
(lp2329
S''
asbasbasbag61
(g77
g63
NtRp2330
(dp2331
g66
(dp2332
sg75
g71
sg68
(lp2333
g61
(g82
g63
NtRp2334
(dp2335
g66
(dp2336
g86
g87
ssg75
g2330
sg68
(lp2337
S'raw_extension'
p2338
asbag61
(g82
g63
NtRp2339
(dp2340
g66
(dp2341
g93
g94
ssg75
g2330
sg68
(lp2342
S':'
asbag61
(g82
g63
NtRp2343
(dp2344
g66
(dp2345
sg75
g2330
sg68
(lp2346
g61
(g62
g63
NtRp2347
(dp2348
g66
(dp2349
g74
I5
ssg75
g2343
sg68
(lp2350
S'None'
p2351
asbasbasbag61
(g77
g63
NtRp2352
(dp2353
g66
(dp2354
sg75
g71
sg68
(lp2355
g61
(g82
g63
NtRp2356
(dp2357
g66
(dp2358
g86
g87
ssg75
g2352
sg68
(lp2359
S'url'
p2360
asbag61
(g82
g63
NtRp2361
(dp2362
g66
(dp2363
g93
g94
ssg75
g2352
sg68
(lp2364
S':'
asbag61
(g82
g63
NtRp2365
(dp2366
g66
(dp2367
sg75
g2352
sg68
(lp2368
g61
(g62
g63
NtRp2369
(dp2370
g66
(dp2371
g74
I5
ssg75
g2365
sg68
(lp2372
g1189
asbasbasbag61
(g77
g63
NtRp2373
(dp2374
g66
(dp2375
sg75
g71
sg68
(lp2376
g61
(g82
g63
NtRp2377
(dp2378
g66
(dp2379
g86
g87
ssg75
g2373
sg68
(lp2380
S'utcnow'
p2381
asbag61
(g82
g63
NtRp2382
(dp2383
g66
(dp2384
g93
g94
ssg75
g2373
sg68
(lp2385
S':'
asbag61
(g82
g63
NtRp2386
(dp2387
g66
(dp2388
sg75
g2373
sg68
(lp2389
g61
(g62
g63
NtRp2390
(dp2391
g66
(dp2392
g74
I5
ssg75
g2386
sg68
(lp2393
S'datetime.datetime(2013, 2, 5, 15, 40, 22, 635130)'
p2394
asbasbasbag61
(g77
g63
NtRp2395
(dp2396
g66
(dp2397
sg75
g71
sg68
(lp2398
g61
(g82
g63
NtRp2399
(dp2400
g66
(dp2401
g86
g87
ssg75
g2395
sg68
(lp2402
S'uuid'
p2403
asbag61
(g82
g63
NtRp2404
(dp2405
g66
(dp2406
g93
g94
ssg75
g2395
sg68
(lp2407
S':'
asbag61
(g82
g63
NtRp2408
(dp2409
g66
(dp2410
sg75
g2395
sg68
(lp2411
g61
(g62
g63
NtRp2412
(dp2413
g66
(dp2414
g74
I5
ssg75
g2408
sg68
(lp2415
S'rosan/127.0.0.1.2013-02-05.16-40-22.8fc476ea-b615-402a-95b4-6f9ed06bdc95'
p2416
asbasbasbag61
(g77
g63
NtRp2417
(dp2418
g66
(dp2419
sg75
g71
sg68
(lp2420
g61
(g82
g63
NtRp2421
(dp2422
g66
(dp2423
g86
g87
ssg75
g2417
sg68
(lp2424
S'vars'
p2425
asbag61
(g82
g63
NtRp2426
(dp2427
g66
(dp2428
g93
g94
ssg75
g2417
sg68
(lp2429
S':'
asbag61
(g82
g63
NtRp2430
(dp2431
g66
(dp2432
sg75
g2417
sg68
(lp2433
g61
(g62
g63
NtRp2434
(dp2435
g66
(dp2436
g74
I5
ssg75
g2430
sg68
(lp2437
g61
(g70
g63
NtRp2438
(dp2439
g66
(dp2440
g74
I4
ssg75
Nsg68
(lp2441
sbasbasbasbag61
(g77
g63
NtRp2442
(dp2443
g66
(dp2444
sg75
g71
sg68
(lp2445
g61
(g82
g63
NtRp2446
(dp2447
g66
(dp2448
g86
g87
ssg75
g2442
sg68
(lp2449
S'wsgi'
p2450
asbag61
(g82
g63
NtRp2451
(dp2452
g66
(dp2453
g93
g94
ssg75
g2442
sg68
(lp2454
S':'
asbag61
(g82
g63
NtRp2455
(dp2456
g66
(dp2457
sg75
g2442
sg68
(lp2458
g61
(g62
g63
NtRp2459
(dp2460
g66
(dp2461
g74
I5
ssg75
g2455
sg68
(lp2462
g61
(g70
g63
NtRp2463
(dp2464
g66
(dp2465
g74
I4
ssg75
Nsg68
(lp2466
g61
(g77
g63
NtRp2467
(dp2468
g66
(dp2469
sg75
g2463
sg68
(lp2470
g61
(g82
g63
NtRp2471
(dp2472
g66
(dp2473
g86
g87
ssg75
g2467
sg68
(lp2474
S'environ'
p2475
asbag61
(g82
g63
NtRp2476
(dp2477
g66
(dp2478
g93
g94
ssg75
g2467
sg68
(lp2479
S':'
asbag61
(g82
g63
NtRp2480
(dp2481
g66
(dp2482
sg75
g2467
sg68
(lp2483
g61
(g62
g63
NtRp2484
(dp2485
g66
(dp2486
g74
I4
ssg75
g2480
sg68
(lp2487
g61
(g70
g63
NtRp2488
(dp2489
g66
(dp2490
g74
I3
ssg75
Nsg68
(lp2491
g61
(g77
g63
NtRp2492
(dp2493
g66
(dp2494
sg75
g2488
sg68
(lp2495
g61
(g82
g63
NtRp2496
(dp2497
g66
(dp2498
g86
g87
ssg75
g2492
sg68
(lp2499
S'HTTP_ACCEPT'
p2500
asbag61
(g82
g63
NtRp2501
(dp2502
g66
(dp2503
g93
g94
ssg75
g2492
sg68
(lp2504
S':'
asbag61
(g82
g63
NtRp2505
(dp2506
g66
(dp2507
sg75
g2492
sg68
(lp2508
g61
(g62
g63
NtRp2509
(dp2510
g66
(dp2511
g74
I3
ssg75
g2505
sg68
(lp2512
g846
asbasbasbag61
(g77
g63
NtRp2513
(dp2514
g66
(dp2515
sg75
g2488
sg68
(lp2516
g61
(g82
g63
NtRp2517
(dp2518
g66
(dp2519
g86
g87
ssg75
g2513
sg68
(lp2520
S'HTTP_ACCEPT_CHARSET'
p2521
asbag61
(g82
g63
NtRp2522
(dp2523
g66
(dp2524
g93
g94
ssg75
g2513
sg68
(lp2525
S':'
asbag61
(g82
g63
NtRp2526
(dp2527
g66
(dp2528
sg75
g2513
sg68
(lp2529
g61
(g62
g63
NtRp2530
(dp2531
g66
(dp2532
g74
I3
ssg75
g2526
sg68
(lp2533
g868
asbasbasbag61
(g77
g63
NtRp2534
(dp2535
g66
(dp2536
sg75
g2488
sg68
(lp2537
g61
(g82
g63
NtRp2538
(dp2539
g66
(dp2540
g86
g87
ssg75
g2534
sg68
(lp2541
S'HTTP_ACCEPT_ENCODING'
p2542
asbag61
(g82
g63
NtRp2543
(dp2544
g66
(dp2545
g93
g94
ssg75
g2534
sg68
(lp2546
S':'
asbag61
(g82
g63
NtRp2547
(dp2548
g66
(dp2549
sg75
g2534
sg68
(lp2550
g61
(g62
g63
NtRp2551
(dp2552
g66
(dp2553
g74
I3
ssg75
g2547
sg68
(lp2554
g890
asbasbasbag61
(g77
g63
NtRp2555
(dp2556
g66
(dp2557
sg75
g2488
sg68
(lp2558
g61
(g82
g63
NtRp2559
(dp2560
g66
(dp2561
g86
g87
ssg75
g2555
sg68
(lp2562
S'HTTP_ACCEPT_LANGUAGE'
p2563
asbag61
(g82
g63
NtRp2564
(dp2565
g66
(dp2566
g93
g94
ssg75
g2555
sg68
(lp2567
S':'
asbag61
(g82
g63
NtRp2568
(dp2569
g66
(dp2570
sg75
g2555
sg68
(lp2571
g61
(g62
g63
NtRp2572
(dp2573
g66
(dp2574
g74
I3
ssg75
g2568
sg68
(lp2575
g912
asbasbasbag61
(g77
g63
NtRp2576
(dp2577
g66
(dp2578
sg75
g2488
sg68
(lp2579
g61
(g82
g63
NtRp2580
(dp2581
g66
(dp2582
g86
g87
ssg75
g2576
sg68
(lp2583
S'HTTP_CONNECTION'
p2584
asbag61
(g82
g63
NtRp2585
(dp2586
g66
(dp2587
g93
g94
ssg75
g2576
sg68
(lp2588
S':'
asbag61
(g82
g63
NtRp2589
(dp2590
g66
(dp2591
sg75
g2576
sg68
(lp2592
g61
(g62
g63
NtRp2593
(dp2594
g66
(dp2595
g74
I3
ssg75
g2589
sg68
(lp2596
g934
asbasbasbag61
(g77
g63
NtRp2597
(dp2598
g66
(dp2599
sg75
g2488
sg68
(lp2600
g61
(g82
g63
NtRp2601
(dp2602
g66
(dp2603
g86
g87
ssg75
g2597
sg68
(lp2604
S'HTTP_COOKIE'
p2605
asbag61
(g82
g63
NtRp2606
(dp2607
g66
(dp2608
g93
g94
ssg75
g2597
sg68
(lp2609
S':'
asbag61
(g82
g63
NtRp2610
(dp2611
g66
(dp2612
sg75
g2597
sg68
(lp2613
g61
(g62
g63
NtRp2614
(dp2615
g66
(dp2616
g74
I3
ssg75
g2610
sg68
(lp2617
g956
asbasbasbag61
(g77
g63
NtRp2618
(dp2619
g66
(dp2620
sg75
g2488
sg68
(lp2621
g61
(g82
g63
NtRp2622
(dp2623
g66
(dp2624
g86
g87
ssg75
g2618
sg68
(lp2625
S'HTTP_HOST'
p2626
asbag61
(g82
g63
NtRp2627
(dp2628
g66
(dp2629
g93
g94
ssg75
g2618
sg68
(lp2630
S':'
asbag61
(g82
g63
NtRp2631
(dp2632
g66
(dp2633
sg75
g2618
sg68
(lp2634
g61
(g62
g63
NtRp2635
(dp2636
g66
(dp2637
g74
I3
ssg75
g2631
sg68
(lp2638
g978
asbasbasbag61
(g77
g63
NtRp2639
(dp2640
g66
(dp2641
sg75
g2488
sg68
(lp2642
g61
(g82
g63
NtRp2643
(dp2644
g66
(dp2645
g86
g87
ssg75
g2639
sg68
(lp2646
S'HTTP_REFERER'
p2647
asbag61
(g82
g63
NtRp2648
(dp2649
g66
(dp2650
g93
g94
ssg75
g2639
sg68
(lp2651
S':'
asbag61
(g82
g63
NtRp2652
(dp2653
g66
(dp2654
sg75
g2639
sg68
(lp2655
g61
(g62
g63
NtRp2656
(dp2657
g66
(dp2658
g74
I3
ssg75
g2652
sg68
(lp2659
g1000
asbasbasbag61
(g77
g63
NtRp2660
(dp2661
g66
(dp2662
sg75
g2488
sg68
(lp2663
g61
(g82
g63
NtRp2664
(dp2665
g66
(dp2666
g86
g87
ssg75
g2660
sg68
(lp2667
S'HTTP_USER_AGENT'
p2668
asbag61
(g82
g63
NtRp2669
(dp2670
g66
(dp2671
g93
g94
ssg75
g2660
sg68
(lp2672
S':'
asbag61
(g82
g63
NtRp2673
(dp2674
g66
(dp2675
sg75
g2660
sg68
(lp2676
g61
(g62
g63
NtRp2677
(dp2678
g66
(dp2679
g74
I3
ssg75
g2673
sg68
(lp2680
g1022
asbasbasbag61
(g77
g63
NtRp2681
(dp2682
g66
(dp2683
sg75
g2488
sg68
(lp2684
g61
(g82
g63
NtRp2685
(dp2686
g66
(dp2687
g86
g87
ssg75
g2681
sg68
(lp2688
S'PATH_INFO'
p2689
asbag61
(g82
g63
NtRp2690
(dp2691
g66
(dp2692
g93
g94
ssg75
g2681
sg68
(lp2693
S':'
asbag61
(g82
g63
NtRp2694
(dp2695
g66
(dp2696
sg75
g2681
sg68
(lp2697
g61
(g62
g63
NtRp2698
(dp2699
g66
(dp2700
g74
I3
ssg75
g2694
sg68
(lp2701
g1189
asbasbasbag61
(g77
g63
NtRp2702
(dp2703
g66
(dp2704
sg75
g2488
sg68
(lp2705
g61
(g82
g63
NtRp2706
(dp2707
g66
(dp2708
g86
g87
ssg75
g2702
sg68
(lp2709
S'QUERY_STRING'
p2710
asbag61
(g82
g63
NtRp2711
(dp2712
g66
(dp2713
g93
g94
ssg75
g2702
sg68
(lp2714
S':'
asbag61
(g82
g63
NtRp2715
(dp2716
g66
(dp2717
sg75
g2702
sg68
(lp2718
g61
(g62
g63
NtRp2719
(dp2720
g66
(dp2721
g74
I3
ssg75
g2715
sg68
(lp2722
S''
asbasbasbag61
(g77
g63
NtRp2723
(dp2724
g66
(dp2725
sg75
g2488
sg68
(lp2726
g61
(g82
g63
NtRp2727
(dp2728
g66
(dp2729
g86
g87
ssg75
g2723
sg68
(lp2730
S'REMOTE_ADDR'
p2731
asbag61
(g82
g63
NtRp2732
(dp2733
g66
(dp2734
g93
g94
ssg75
g2723
sg68
(lp2735
S':'
asbag61
(g82
g63
NtRp2736
(dp2737
g66
(dp2738
sg75
g2723
sg68
(lp2739
g61
(g62
g63
NtRp2740
(dp2741
g66
(dp2742
g74
I3
ssg75
g2736
sg68
(lp2743
g216
asbasbasbag61
(g77
g63
NtRp2744
(dp2745
g66
(dp2746
sg75
g2488
sg68
(lp2747
g61
(g82
g63
NtRp2748
(dp2749
g66
(dp2750
g86
g87
ssg75
g2744
sg68
(lp2751
S'REMOTE_PORT'
p2752
asbag61
(g82
g63
NtRp2753
(dp2754
g66
(dp2755
g93
g94
ssg75
g2744
sg68
(lp2756
S':'
asbag61
(g82
g63
NtRp2757
(dp2758
g66
(dp2759
sg75
g2744
sg68
(lp2760
g61
(g62
g63
NtRp2761
(dp2762
g66
(dp2763
g74
I3
ssg75
g2757
sg68
(lp2764
g1253
asbasbasbag61
(g77
g63
NtRp2765
(dp2766
g66
(dp2767
sg75
g2488
sg68
(lp2768
g61
(g82
g63
NtRp2769
(dp2770
g66
(dp2771
g86
g87
ssg75
g2765
sg68
(lp2772
S'REQUEST_METHOD'
p2773
asbag61
(g82
g63
NtRp2774
(dp2775
g66
(dp2776
g93
g94
ssg75
g2765
sg68
(lp2777
S':'
asbag61
(g82
g63
NtRp2778
(dp2779
g66
(dp2780
sg75
g2765
sg68
(lp2781
g61
(g62
g63
NtRp2782
(dp2783
g66
(dp2784
g74
I3
ssg75
g2778
sg68
(lp2785
g1275
asbasbasbag61
(g77
g63
NtRp2786
(dp2787
g66
(dp2788
sg75
g2488
sg68
(lp2789
g61
(g82
g63
NtRp2790
(dp2791
g66
(dp2792
g86
g87
ssg75
g2786
sg68
(lp2793
S'REQUEST_URI'
p2794
asbag61
(g82
g63
NtRp2795
(dp2796
g66
(dp2797
g93
g94
ssg75
g2786
sg68
(lp2798
S':'
asbag61
(g82
g63
NtRp2799
(dp2800
g66
(dp2801
sg75
g2786
sg68
(lp2802
g61
(g62
g63
NtRp2803
(dp2804
g66
(dp2805
g74
I3
ssg75
g2799
sg68
(lp2806
g1189
asbasbasbag61
(g77
g63
NtRp2807
(dp2808
g66
(dp2809
sg75
g2488
sg68
(lp2810
g61
(g82
g63
NtRp2811
(dp2812
g66
(dp2813
g86
g87
ssg75
g2807
sg68
(lp2814
S'SCRIPT_NAME'
p2815
asbag61
(g82
g63
NtRp2816
(dp2817
g66
(dp2818
g93
g94
ssg75
g2807
sg68
(lp2819
S':'
asbag61
(g82
g63
NtRp2820
(dp2821
g66
(dp2822
sg75
g2807
sg68
(lp2823
g61
(g62
g63
NtRp2824
(dp2825
g66
(dp2826
g74
I3
ssg75
g2820
sg68
(lp2827
S''
asbasbasbag61
(g77
g63
NtRp2828
(dp2829
g66
(dp2830
sg75
g2488
sg68
(lp2831
g61
(g82
g63
NtRp2832
(dp2833
g66
(dp2834
g86
g87
ssg75
g2828
sg68
(lp2835
S'SERVER_NAME'
p2836
asbag61
(g82
g63
NtRp2837
(dp2838
g66
(dp2839
g93
g94
ssg75
g2828
sg68
(lp2840
S':'
asbag61
(g82
g63
NtRp2841
(dp2842
g66
(dp2843
sg75
g2828
sg68
(lp2844
g61
(g62
g63
NtRp2845
(dp2846
g66
(dp2847
g74
I3
ssg75
g2841
sg68
(lp2848
g1339
asbasbasbag61
(g77
g63
NtRp2849
(dp2850
g66
(dp2851
sg75
g2488
sg68
(lp2852
g61
(g82
g63
NtRp2853
(dp2854
g66
(dp2855
g86
g87
ssg75
g2849
sg68
(lp2856
S'SERVER_PORT'
p2857
asbag61
(g82
g63
NtRp2858
(dp2859
g66
(dp2860
g93
g94
ssg75
g2849
sg68
(lp2861
S':'
asbag61
(g82
g63
NtRp2862
(dp2863
g66
(dp2864
sg75
g2849
sg68
(lp2865
g61
(g62
g63
NtRp2866
(dp2867
g66
(dp2868
g74
I3
ssg75
g2862
sg68
(lp2869
g1361
asbasbasbag61
(g77
g63
NtRp2870
(dp2871
g66
(dp2872
sg75
g2488
sg68
(lp2873
g61
(g82
g63
NtRp2874
(dp2875
g66
(dp2876
g86
g87
ssg75
g2870
sg68
(lp2877
S'SERVER_PROTOCOL'
p2878
asbag61
(g82
g63
NtRp2879
(dp2880
g66
(dp2881
g93
g94
ssg75
g2870
sg68
(lp2882
S':'
asbag61
(g82
g63
NtRp2883
(dp2884
g66
(dp2885
sg75
g2870
sg68
(lp2886
g61
(g62
g63
NtRp2887
(dp2888
g66
(dp2889
g74
I3
ssg75
g2883
sg68
(lp2890
g1383
asbasbasbag61
(g77
g63
NtRp2891
(dp2892
g66
(dp2893
sg75
g2488
sg68
(lp2894
g61
(g82
g63
NtRp2895
(dp2896
g66
(dp2897
g86
g87
ssg75
g2891
sg68
(lp2898
S'SERVER_SOFTWARE'
p2899
asbag61
(g82
g63
NtRp2900
(dp2901
g66
(dp2902
g93
g94
ssg75
g2891
sg68
(lp2903
S':'
asbag61
(g82
g63
NtRp2904
(dp2905
g66
(dp2906
sg75
g2891
sg68
(lp2907
g61
(g62
g63
NtRp2908
(dp2909
g66
(dp2910
g74
I3
ssg75
g2904
sg68
(lp2911
g1405
asbasbasbag61
(g77
g63
NtRp2912
(dp2913
g66
(dp2914
sg75
g2488
sg68
(lp2915
g61
(g82
g63
NtRp2916
(dp2917
g66
(dp2918
g86
g87
ssg75
g2912
sg68
(lp2919
S'wsgi.errors'
p2920
asbag61
(g82
g63
NtRp2921
(dp2922
g66
(dp2923
g93
g94
ssg75
g2912
sg68
(lp2924
S':'
asbag61
(g82
g63
NtRp2925
(dp2926
g66
(dp2927
sg75
g2912
sg68
(lp2928
g61
(g62
g63
NtRp2929
(dp2930
g66
(dp2931
g74
I3
ssg75
g2925
sg68
(lp2932
S"<open file '<stderr>', mode 'w' at 0x10a244270>"
p2933
asbasbasbag61
(g77
g63
NtRp2934
(dp2935
g66
(dp2936
sg75
g2488
sg68
(lp2937
g61
(g82
g63
NtRp2938
(dp2939
g66
(dp2940
g86
g87
ssg75
g2934
sg68
(lp2941
S'wsgi.file_wrapper'
p2942
asbag61
(g82
g63
NtRp2943
(dp2944
g66
(dp2945
g93
g94
ssg75
g2934
sg68
(lp2946
S':'
asbag61
(g82
g63
NtRp2947
(dp2948
g66
(dp2949
sg75
g2934
sg68
(lp2950
g61
(g62
g63
NtRp2951
(dp2952
g66
(dp2953
g74
I3
ssg75
g2947
sg68
(lp2954
S'<class wsgiref.util.FileWrapper at 0x10afb0ae0>'
p2955
asbasbasbag61
(g77
g63
NtRp2956
(dp2957
g66
(dp2958
sg75
g2488
sg68
(lp2959
g61
(g82
g63
NtRp2960
(dp2961
g66
(dp2962
g86
g87
ssg75
g2956
sg68
(lp2963
S'wsgi.input'
p2964
asbag61
(g82
g63
NtRp2965
(dp2966
g66
(dp2967
g93
g94
ssg75
g2956
sg68
(lp2968
S':'
asbag61
(g82
g63
NtRp2969
(dp2970
g66
(dp2971
sg75
g2956
sg68
(lp2972
g61
(g62
g63
NtRp2973
(dp2974
g66
(dp2975
g74
I3
ssg75
g2969
sg68
(lp2976
S'<cStringIO.StringO object at 0x112b7de30>'
p2977
asbasbasbag61
(g77
g63
NtRp2978
(dp2979
g66
(dp2980
sg75
g2488
sg68
(lp2981
g61
(g82
g63
NtRp2982
(dp2983
g66
(dp2984
g86
g87
ssg75
g2978
sg68
(lp2985
S'wsgi.multiprocess'
p2986
asbag61
(g82
g63
NtRp2987
(dp2988
g66
(dp2989
g93
g94
ssg75
g2978
sg68
(lp2990
S':'
asbag61
(g82
g63
NtRp2991
(dp2992
g66
(dp2993
sg75
g2978
sg68
(lp2994
g61
(g62
g63
NtRp2995
(dp2996
g66
(dp2997
g74
I3
ssg75
g2991
sg68
(lp2998
g104
asbasbasbag61
(g77
g63
NtRp2999
(dp3000
g66
(dp3001
sg75
g2488
sg68
(lp3002
g61
(g82
g63
NtRp3003
(dp3004
g66
(dp3005
g86
g87
ssg75
g2999
sg68
(lp3006
S'wsgi.multithread'
p3007
asbag61
(g82
g63
NtRp3008
(dp3009
g66
(dp3010
g93
g94
ssg75
g2999
sg68
(lp3011
S':'
asbag61
(g82
g63
NtRp3012
(dp3013
g66
(dp3014
sg75
g2999
sg68
(lp3015
g61
(g62
g63
NtRp3016
(dp3017
g66
(dp3018
g74
I3
ssg75
g3012
sg68
(lp3019
g1622
asbasbasbag61
(g77
g63
NtRp3020
(dp3021
g66
(dp3022
sg75
g2488
sg68
(lp3023
g61
(g82
g63
NtRp3024
(dp3025
g66
(dp3026
g86
g87
ssg75
g3020
sg68
(lp3027
S'wsgi.run_once'
p3028
asbag61
(g82
g63
NtRp3029
(dp3030
g66
(dp3031
g93
g94
ssg75
g3020
sg68
(lp3032
S':'
asbag61
(g82
g63
NtRp3033
(dp3034
g66
(dp3035
sg75
g3020
sg68
(lp3036
g61
(g62
g63
NtRp3037
(dp3038
g66
(dp3039
g74
I3
ssg75
g3033
sg68
(lp3040
g104
asbasbasbag61
(g77
g63
NtRp3041
(dp3042
g66
(dp3043
sg75
g2488
sg68
(lp3044
g61
(g82
g63
NtRp3045
(dp3046
g66
(dp3047
g86
g87
ssg75
g3041
sg68
(lp3048
S'wsgi.url_scheme'
p3049
asbag61
(g82
g63
NtRp3050
(dp3051
g66
(dp3052
g93
g94
ssg75
g3041
sg68
(lp3053
S':'
asbag61
(g82
g63
NtRp3054
(dp3055
g66
(dp3056
sg75
g3041
sg68
(lp3057
g61
(g62
g63
NtRp3058
(dp3059
g66
(dp3060
g74
I3
ssg75
g3054
sg68
(lp3061
g1665
asbasbasbag61
(g77
g63
NtRp3062
(dp3063
g66
(dp3064
sg75
g2488
sg68
(lp3065
g61
(g82
g63
NtRp3066
(dp3067
g66
(dp3068
g86
g87
ssg75
g3062
sg68
(lp3069
S'wsgi.version'
p3070
asbag61
(g82
g63
NtRp3071
(dp3072
g66
(dp3073
g93
g94
ssg75
g3062
sg68
(lp3074
S':'
asbag61
(g82
g63
NtRp3075
(dp3076
g66
(dp3077
sg75
g3062
sg68
(lp3078
g61
(g62
g63
NtRp3079
(dp3080
g66
(dp3081
g74
I3
ssg75
g3075
sg68
(lp3082
S'1'
asbasbasbasbasbasbasbasbasbasbasbasbasbsS'frames'
p3083
(lp3084
(dp3085
S'file'
p3086
S'/Users/Truki/Desarrollo/web2py/gluon/restricted.py'
p3087
sS'dump'
p3088
(dp3089
S'environment'
p3090
S"{'A': <class 'gluon.html.A'>, 'Auth': <class 'gluon.tools.Auth'>, 'B': <class 'gluon.html.B'>, 'BEAUTIFY': <class 'gluon.html.BEAUTIFY'>, 'BODY': <class 'gluon.html.BODY'>, 'BR': <class 'gluon.html.BR'>, 'BUTTON': <class 'gluon.html.BUTTON'>, 'CAT': <class 'gluon.html.CAT'>, 'CENTER': <class 'gluon.html.CENTER'>, 'CLEANUP': <class 'gluon.validators.CLEANUP'>, ...}"
p3091
sS'ccode'
p3092
S'<code object <module> at 0x10f643030, file "/Use...y/applications/rosan/models/db_rosan.py", line 7>'
p3093
ssS'lnum'
p3094
I212
sS'lines'
p3095
(dp3096
I207
S'    try:'
p3097
sI208
S'        if isinstance(code, types.CodeType):'
p3098
sI209
S'            ccode = code'
p3099
sI210
S'        else:'
p3100
sI211
S'            ccode = compile2(code, layer)'
p3101
sI212
S'        exec ccode in environment'
p3102
sI213
S'    except HTTP:'
p3103
sI214
S'        raise'
p3104
sI215
S'    except RestrictedError:'
p3105
sI216
S'        # do not encapsulate (obfuscate) the original RestrictedError'
p3106
ssS'call'
p3107
S'(code=\'# coding: utf8\\n"""\\njust copy paste this code int...=IS_IN_DB(dbRosan, \\\'proveedor.id\\\', \\\'%(nombre)s\\\')\\n\', environment={\'A\': <class \'gluon.html.A\'>, \'Auth\': <class \'gluon.tools.Auth\'>, \'B\': <class \'gluon.html.B\'>, \'BEAUTIFY\': <class \'gluon.html.BEAUTIFY\'>, \'BODY\': <class \'gluon.html.BODY\'>, \'BR\': <class \'gluon.html.BR\'>, \'BUTTON\': <class \'gluon.html.BUTTON\'>, \'CAT\': <class \'gluon.html.CAT\'>, \'CENTER\': <class \'gluon.html.CENTER\'>, \'CLEANUP\': <class \'gluon.validators.CLEANUP\'>, ...}, layer=\'/Users/Truki/Desarrollo/web2py/applications/rosan/models/db_rosan.py\')'
p3108
sS'func'
p3109
S'restricted'
p3110
sa(dp3111
g3086
S'/Users/Truki/Desarrollo/web2py/applications/rosan/models/db_rosan.py'
p3112
sg3088
(dp3113
S'builtinNone'
p3114
S'None'
p3115
sS'default'
p3116
S'undefined'
p3117
sS'builtinTrue'
p3118
g1622
sS'length'
p3119
g3117
sS'notnull'
p3120
g3117
sS'SQLField'
p3121
S"<class 'gluon.dal.Field'>"
p3122
ssg3094
I24
sg3095
(dp3123
I19
S'      SQLField("descripcion", "text", notnull=True, default=None),'
p3124
sI20
S'      SQLField("direccion", "string", length=250, notnull=True, default=None),'
p3125
sI21
S'      SQLField("localidad", "string", length=100, notnull=True, default=None),'
p3126
sI22
S'      SQLField("cod_postal", "string", length=5, notnull=True, default=None),'
p3127
sI23
S'      SQLField("email", "string", length=100, notnull=True, default=None),'
p3128
sI24
S'      SQLField("www", "string", length=200, notnull=True, default=None)'
p3129
sI25
S'      )'
p3130
sI26
S''
sI27
S'"""'
p3131
sI28
S'Tabla de clientes'
p3132
ssg3107
S'()'
p3133
sg3109
S'<module>'
p3134
sa(dp3135
g3086
S'/Users/Truki/Desarrollo/web2py/gluon/dal.py'
p3136
sg3088
(dp3137
S'fields'
p3138
S'(<gluon.dal.Field object>, <gluon.dal.Field object>, <gluon.dal.Field object>, <gluon.dal.Field object>, <gluon.dal.Field object>, <gluon.dal.Field object>, <gluon.dal.Field object>)'
p3139
sS'self'
p3140
S'<DAL uri="sqlite://dbRosan.db">'
p3141
sS'args'
p3142
g21
sS'tablename'
p3143
S"'empresa'"
p3144
sS'table'
p3145
g3117
sS'self.lazy_define_table'
p3146
S'<bound method DAL.lazy_define_table of <DAL uri="sqlite://dbRosan.db">>'
p3147
ssg3094
I7186
sg3095
(dp3148
I7181
S'                    % (tablename,invalid_args))'
p3149
sI7182
S'        if self._lazy_tables and not tablename in self._LAZY_TABLES:'
p3150
sI7183
S'            self._LAZY_TABLES[tablename] = (tablename,fields,args)'
p3151
sI7184
S'            table = None'
p3152
sI7185
S'        else:'
p3153
sI7186
S'            table = self.lazy_define_table(tablename,*fields,**args)'
p3154
sI7187
S'        if not tablename in self.tables:'
p3155
sI7188
S'            self.tables.append(tablename)'
p3156
sI7189
S'        return table'
p3157
sI7190
S''
ssg3107
S'(self=<DAL uri="sqlite://dbRosan.db">, tablename=\'empresa\', *fields=(<gluon.dal.Field object>, <gluon.dal.Field object>, <gluon.dal.Field object>, <gluon.dal.Field object>, <gluon.dal.Field object>, <gluon.dal.Field object>, <gluon.dal.Field object>), **args={})'
p3158
sg3109
S'define_table'
p3159
sa(dp3160
g3086
S'/Users/Truki/Desarrollo/web2py/gluon/dal.py'
p3161
sg3088
(dp3162
S'polymodel'
p3163
S'None'
p3164
ssg3094
I7222
sg3095
(dp3165
I7217
S"            polymodel = args_get('polymodel',None)"
p3166
sI7218
S'            try:'
p3167
sI7219
S'                GLOBAL_LOCKER.acquire()'
p3168
sI7220
S'                self._adapter.create_table(table,migrate=migrate,'
p3169
sI7221
S'                                           fake_migrate=fake_migrate,'
p3170
sI7222
S'                                           polymodel=polymodel)'
p3171
sI7223
S'            finally:'
p3172
sI7224
S'                GLOBAL_LOCKER.release()'
p3173
sI7225
S'        else:'
p3174
sI7226
S'            table._dbt = None'
p3175
ssg3107
S'(self=<DAL uri="sqlite://dbRosan.db">, tablename=\'empresa\', *fields=(<gluon.dal.Field object>, <gluon.dal.Field object>, <gluon.dal.Field object>, <gluon.dal.Field object>, <gluon.dal.Field object>, <gluon.dal.Field object>, <gluon.dal.Field object>), **args={})'
p3176
sg3109
S'lazy_define_table'
p3177
sa(dp3178
g3086
S'/Users/Truki/Desarrollo/web2py/gluon/dal.py'
p3179
sg3088
(dp3180
S'query'
p3181
S"'CREATE TABLE empresa(\\n    id INTEGER PRIMARY KEY...CHAR(100) NOT NULL,\\n    www CHAR(200) NOT NULL\\n);'"
p3182
sS'self'
p3183
S'<gluon.dal.SQLiteAdapter object>'
p3184
sS'table'
p3185
S'<Table empresa (id,nombre,descripcion,direccion,localidad,cod_postal,email,www)>'
p3186
sS'self.create_sequence_and_triggers'
p3187
S'<bound method SQLiteAdapter.create_sequence_and_triggers of <gluon.dal.SQLiteAdapter object>>'
p3188
ssg3094
I935
sg3095
(dp3189
I930
S'            if table._dbt:'
p3190
sI931
S"                logfile.write('timestamp: %s\\n'"
p3191
sI932
S'                               % datetime.datetime.today().isoformat())'
p3192
sI933
S"                logfile.write(query + '\\n')"
p3193
sI934
S'            if not fake_migrate:'
p3194
sI935
S'                self.create_sequence_and_triggers(query,table)'
p3195
sI936
S'                table._db.commit()'
p3196
sI937
S'                # Postgres geom fields are added now,'
p3197
sI938
S'                # after the table has been created'
p3198
sI939
S'                for query in postcreation_fields:'
p3199
ssg3107
S'(self=<gluon.dal.SQLiteAdapter object>, table=<Table empresa (id,nombre,descripcion,direccion,localidad,cod_postal,email,www)>, migrate=True, fake_migrate=False, polymodel=None)'
p3200
sg3109
S'create_table'
p3201
sa(dp3202
g3086
S'/Users/Truki/Desarrollo/web2py/gluon/dal.py'
p3203
sg3088
(dp3204
S'query'
p3205
S"'CREATE TABLE empresa(\\n    id INTEGER PRIMARY KEY...CHAR(100) NOT NULL,\\n    www CHAR(200) NOT NULL\\n);'"
p3206
sS'self'
p3207
S'<gluon.dal.SQLiteAdapter object>'
p3208
sS'self.execute'
p3209
S'<bound method SQLiteAdapter.execute of <gluon.dal.SQLiteAdapter object>>'
p3210
ssg3094
I1694
sg3095
(dp3211
I1696
S'    def log_execute(self, *a, **b):'
p3212
sI1697
S'        if not self.connection: return None'
p3213
sI1698
S'        command = a[0]'
p3214
sI1689
S''
sI1690
S'    def constraint_name(self, table, fieldname):'
p3215
sI1691
S"        return '%s_%s__constraint' % (table,fieldname)"
p3216
sI1692
S''
sI1693
S'    def create_sequence_and_triggers(self, query, table, **args):'
p3217
sI1694
S'        self.execute(query)'
p3218
sI1695
S''
ssg3107
S"(self=<gluon.dal.SQLiteAdapter object>, query='CREATE TABLE empresa(\\n    id INTEGER PRIMARY KEY...CHAR(100) NOT NULL,\\n    www CHAR(200) NOT NULL\\n);', table=<Table empresa (id,nombre,descripcion,direccion,localidad,cod_postal,email,www)>, **args={})"
p3219
sg3109
S'create_sequence_and_triggers'
p3220
sa(dp3221
g3086
S'/Users/Truki/Desarrollo/web2py/gluon/dal.py'
p3222
sg3088
(dp3223
S'a'
S"('CREATE TABLE empresa(\\n    id INTEGER PRIMARY KEY...CHAR(100) NOT NULL,\\n    www CHAR(200) NOT NULL\\n);',)"
p3224
sS'self'
p3225
S'<gluon.dal.SQLiteAdapter object>'
p3226
sS'b'
g21
sS'self.log_execute'
p3227
S'<bound method SQLiteAdapter.log_execute of <gluon.dal.SQLiteAdapter object>>'
p3228
ssg3094
I1709
sg3095
(dp3229
I1704
S'        self.db._timings.append((command,time.time()-t0))'
p3230
sI1705
S'        del self.db._timings[:-TIMINGSSIZE]'
p3231
sI1706
S'        return ret'
p3232
sI1707
S''
sI1708
S'    def execute(self, *a, **b):'
p3233
sI1709
S'        return self.log_execute(*a, **b)'
p3234
sI1710
S''
sI1711
S'    def represent(self, obj, fieldtype):'
p3235
sI1712
S'        field_is_type = fieldtype.startswith'
p3236
sI1713
S'        if isinstance(obj, CALLABLETYPES):'
p3237
ssg3107
S"(self=<gluon.dal.SQLiteAdapter object>, *a=('CREATE TABLE empresa(\\n    id INTEGER PRIMARY KEY...CHAR(100) NOT NULL,\\n    www CHAR(200) NOT NULL\\n);',), **b={})"
p3238
sg3109
S'execute'
p3239
sa(dp3240
g3086
S'/Users/Truki/Desarrollo/web2py/gluon/dal.py'
p3241
sg3088
(dp3242
S'a'
S"('CREATE TABLE empresa(\\n    id INTEGER PRIMARY KEY...CHAR(100) NOT NULL,\\n    www CHAR(200) NOT NULL\\n);',)"
p3243
sS'b'
g21
sS'self'
p3244
S'<gluon.dal.SQLiteAdapter object>'
p3245
sS'ret'
p3246
g3117
sS'self.cursor'
p3247
S'<sqlite3.Cursor object>'
p3248
sS'self.cursor.execute'
p3249
S'<built-in method execute of sqlite3.Cursor object>'
p3250
ssg3094
I1703
sg3095
(dp3251
I1698
S'        command = a[0]'
p3252
sI1699
S'        if self.db._debug:'
p3253
sI1700
S"            LOGGER.debug('SQL: %s' % command)"
p3254
sI1701
S'        self.db._lastsql = command'
p3255
sI1702
S'        t0 = time.time()'
p3256
sI1703
S'        ret = self.cursor.execute(*a, **b)'
p3257
sI1704
S'        self.db._timings.append((command,time.time()-t0))'
p3258
sI1705
S'        del self.db._timings[:-TIMINGSSIZE]'
p3259
sI1706
S'        return ret'
p3260
sI1707
S''
ssg3107
S"(self=<gluon.dal.SQLiteAdapter object>, *a=('CREATE TABLE empresa(\\n    id INTEGER PRIMARY KEY...CHAR(100) NOT NULL,\\n    www CHAR(200) NOT NULL\\n);',), **b={})"
p3261
sg3109
S'log_execute'
p3262
sasS'pyver'
p3263
S'Python 2.7.2: /usr/bin/python'
p3264
sS'session'
p3265
g61
(g62
g63
NtRp3266
(dp3267
g66
(dp3268
sg68
(lp3269
g61
(g70
g63
NtRp3270
(dp3271
g66
(dp3272
g74
I5
ssg75
Nsg68
(lp3273
sbasbsS'etype'
p3274
S"<class 'sqlite3.OperationalError'>"
p3275
sS'date'
p3276
S'Tue Feb  5 16:40:22 2013'
p3277
sS'response'
p3278
g61
(g62
g63
NtRp3279
(dp3280
g66
(dp3281
sg68
(lp3282
g61
(g70
g63
NtRp3283
(dp3284
g66
(dp3285
g74
I5
ssg75
Nsg68
(lp3286
g61
(g77
g63
NtRp3287
(dp3288
g66
(dp3289
sg75
g3283
sg68
(lp3290
g61
(g82
g63
NtRp3291
(dp3292
g66
(dp3293
g86
g87
ssg75
g3287
sg68
(lp3294
g159
asbag61
(g82
g63
NtRp3295
(dp3296
g66
(dp3297
g93
g94
ssg75
g3287
sg68
(lp3298
S':'
asbag61
(g82
g63
NtRp3299
(dp3300
g66
(dp3301
sg75
g3287
sg68
(lp3302
g61
(g62
g63
NtRp3303
(dp3304
g66
(dp3305
g74
I5
ssg75
g3299
sg68
(lp3306
S'<cStringIO.StringO object at 0x10f90c688>'
p3307
asbasbasbag61
(g77
g63
NtRp3308
(dp3309
g66
(dp3310
sg75
g3283
sg68
(lp3311
g61
(g82
g63
NtRp3312
(dp3313
g66
(dp3314
g86
g87
ssg75
g3308
sg68
(lp3315
g247
asbag61
(g82
g63
NtRp3316
(dp3317
g66
(dp3318
g93
g94
ssg75
g3308
sg68
(lp3319
S':'
asbag61
(g82
g63
NtRp3320
(dp3321
g66
(dp3322
sg75
g3308
sg68
(lp3323
g61
(g62
g63
NtRp3324
(dp3325
g66
(dp3326
g74
I5
ssg75
g3320
sg68
(lp3327
g61
(g70
g63
NtRp3328
(dp3329
g66
(dp3330
g74
I4
ssg75
Nsg68
(lp3331
g61
(g77
g63
NtRp3332
(dp3333
g66
(dp3334
sg75
g3328
sg68
(lp3335
g61
(g82
g63
NtRp3336
(dp3337
g66
(dp3338
g86
g87
ssg75
g3332
sg68
(lp3339
S'session_id_rosan'
p3340
asbag61
(g82
g63
NtRp3341
(dp3342
g66
(dp3343
g93
g94
ssg75
g3332
sg68
(lp3344
S':'
asbag61
(g82
g63
NtRp3345
(dp3346
g66
(dp3347
sg75
g3332
sg68
(lp3348
g61
(g62
g63
NtRp3349
(dp3350
g66
(dp3351
g74
I4
ssg75
g3345
sg68
(lp3352
S'127.0.0.1-108e2c8f-f98c-46a9-a21a-2ccbea33f42e'
p3353
ag61
(g70
g63
NtRp3354
(dp3355
g66
(dp3356
g74
I3
ssg75
Nsg68
(lp3357
g61
(g77
g63
NtRp3358
(dp3359
g66
(dp3360
sg75
g3354
sg68
(lp3361
g61
(g82
g63
NtRp3362
(dp3363
g66
(dp3364
g86
g87
ssg75
g3358
sg68
(lp3365
g298
asbag61
(g82
g63
NtRp3366
(dp3367
g66
(dp3368
g93
g94
ssg75
g3358
sg68
(lp3369
S':'
asbag61
(g82
g63
NtRp3370
(dp3371
g66
(dp3372
sg75
g3358
sg68
(lp3373
g61
(g62
g63
NtRp3374
(dp3375
g66
(dp3376
g74
I3
ssg75
g3370
sg68
(lp3377
S''
asbasbasbag61
(g77
g63
NtRp3378
(dp3379
g66
(dp3380
sg75
g3354
sg68
(lp3381
g61
(g82
g63
NtRp3382
(dp3383
g66
(dp3384
g86
g87
ssg75
g3378
sg68
(lp3385
g319
asbag61
(g82
g63
NtRp3386
(dp3387
g66
(dp3388
g93
g94
ssg75
g3378
sg68
(lp3389
S':'
asbag61
(g82
g63
NtRp3390
(dp3391
g66
(dp3392
sg75
g3378
sg68
(lp3393
g61
(g62
g63
NtRp3394
(dp3395
g66
(dp3396
g74
I3
ssg75
g3390
sg68
(lp3397
S''
asbasbasbag61
(g77
g63
NtRp3398
(dp3399
g66
(dp3400
sg75
g3354
sg68
(lp3401
g61
(g82
g63
NtRp3402
(dp3403
g66
(dp3404
g86
g87
ssg75
g3398
sg68
(lp3405
g340
asbag61
(g82
g63
NtRp3406
(dp3407
g66
(dp3408
g93
g94
ssg75
g3398
sg68
(lp3409
S':'
asbag61
(g82
g63
NtRp3410
(dp3411
g66
(dp3412
sg75
g3398
sg68
(lp3413
g61
(g62
g63
NtRp3414
(dp3415
g66
(dp3416
g74
I3
ssg75
g3410
sg68
(lp3417
S''
asbasbasbag61
(g77
g63
NtRp3418
(dp3419
g66
(dp3420
sg75
g3354
sg68
(lp3421
g61
(g82
g63
NtRp3422
(dp3423
g66
(dp3424
g86
g87
ssg75
g3418
sg68
(lp3425
g361
asbag61
(g82
g63
NtRp3426
(dp3427
g66
(dp3428
g93
g94
ssg75
g3418
sg68
(lp3429
S':'
asbag61
(g82
g63
NtRp3430
(dp3431
g66
(dp3432
sg75
g3418
sg68
(lp3433
g61
(g62
g63
NtRp3434
(dp3435
g66
(dp3436
g74
I3
ssg75
g3430
sg68
(lp3437
S''
asbasbasbag61
(g77
g63
NtRp3438
(dp3439
g66
(dp3440
sg75
g3354
sg68
(lp3441
g61
(g82
g63
NtRp3442
(dp3443
g66
(dp3444
g86
g87
ssg75
g3438
sg68
(lp3445
g382
asbag61
(g82
g63
NtRp3446
(dp3447
g66
(dp3448
g93
g94
ssg75
g3438
sg68
(lp3449
S':'
asbag61
(g82
g63
NtRp3450
(dp3451
g66
(dp3452
sg75
g3438
sg68
(lp3453
g61
(g62
g63
NtRp3454
(dp3455
g66
(dp3456
g74
I3
ssg75
g3450
sg68
(lp3457
S''
asbasbasbag61
(g77
g63
NtRp3458
(dp3459
g66
(dp3460
sg75
g3354
sg68
(lp3461
g61
(g82
g63
NtRp3462
(dp3463
g66
(dp3464
g86
g87
ssg75
g3458
sg68
(lp3465
g403
asbag61
(g82
g63
NtRp3466
(dp3467
g66
(dp3468
g93
g94
ssg75
g3458
sg68
(lp3469
S':'
asbag61
(g82
g63
NtRp3470
(dp3471
g66
(dp3472
sg75
g3458
sg68
(lp3473
g61
(g62
g63
NtRp3474
(dp3475
g66
(dp3476
g74
I3
ssg75
g3470
sg68
(lp3477
S'/'
asbasbasbag61
(g77
g63
NtRp3478
(dp3479
g66
(dp3480
sg75
g3354
sg68
(lp3481
g61
(g82
g63
NtRp3482
(dp3483
g66
(dp3484
g86
g87
ssg75
g3478
sg68
(lp3485
g424
asbag61
(g82
g63
NtRp3486
(dp3487
g66
(dp3488
g93
g94
ssg75
g3478
sg68
(lp3489
S':'
asbag61
(g82
g63
NtRp3490
(dp3491
g66
(dp3492
sg75
g3478
sg68
(lp3493
g61
(g62
g63
NtRp3494
(dp3495
g66
(dp3496
g74
I3
ssg75
g3490
sg68
(lp3497
S''
asbasbasbag61
(g77
g63
NtRp3498
(dp3499
g66
(dp3500
sg75
g3354
sg68
(lp3501
g61
(g82
g63
NtRp3502
(dp3503
g66
(dp3504
g86
g87
ssg75
g3498
sg68
(lp3505
g445
asbag61
(g82
g63
NtRp3506
(dp3507
g66
(dp3508
g93
g94
ssg75
g3498
sg68
(lp3509
S':'
asbag61
(g82
g63
NtRp3510
(dp3511
g66
(dp3512
sg75
g3498
sg68
(lp3513
g61
(g62
g63
NtRp3514
(dp3515
g66
(dp3516
g74
I3
ssg75
g3510
sg68
(lp3517
S''
asbasbasbasbasbasbasbasbasbasbasbag61
(g77
g63
NtRp3518
(dp3519
g66
(dp3520
sg75
g3283
sg68
(lp3521
g61
(g82
g63
NtRp3522
(dp3523
g66
(dp3524
g86
g87
ssg75
g3518
sg68
(lp3525
S'delimiters'
p3526
asbag61
(g82
g63
NtRp3527
(dp3528
g66
(dp3529
g93
g94
ssg75
g3518
sg68
(lp3530
S':'
asbag61
(g82
g63
NtRp3531
(dp3532
g66
(dp3533
sg75
g3518
sg68
(lp3534
g61
(g62
g63
NtRp3535
(dp3536
g66
(dp3537
g74
I5
ssg75
g3531
sg68
(lp3538
g61
(g70
g63
NtRp3539
(dp3540
g66
(dp3541
g74
I4
ssg75
Nsg68
(lp3542
g61
(g77
g63
NtRp3543
(dp3544
g66
(dp3545
sg75
g3539
sg68
(lp3546
g61
(g82
g63
NtRp3547
(dp3548
g66
(dp3549
sg75
g3543
sg68
(lp3550
g61
(g62
g63
NtRp3551
(dp3552
g66
(dp3553
g74
I4
ssg75
g3547
sg68
(lp3554
S'{{'
p3555
asbasbasbag61
(g77
g63
NtRp3556
(dp3557
g66
(dp3558
sg75
g3539
sg68
(lp3559
g61
(g82
g63
NtRp3560
(dp3561
g66
(dp3562
sg75
g3556
sg68
(lp3563
g61
(g62
g63
NtRp3564
(dp3565
g66
(dp3566
g74
I4
ssg75
g3560
sg68
(lp3567
S'}}'
p3568
asbasbasbasbasbasbasbag61
(g77
g63
NtRp3569
(dp3570
g66
(dp3571
sg75
g3283
sg68
(lp3572
g61
(g82
g63
NtRp3573
(dp3574
g66
(dp3575
g86
g87
ssg75
g3569
sg68
(lp3576
S'files'
p3577
asbag61
(g82
g63
NtRp3578
(dp3579
g66
(dp3580
g93
g94
ssg75
g3569
sg68
(lp3581
S':'
asbag61
(g82
g63
NtRp3582
(dp3583
g66
(dp3584
sg75
g3569
sg68
(lp3585
g61
(g62
g63
NtRp3586
(dp3587
g66
(dp3588
g74
I5
ssg75
g3582
sg68
(lp3589
g61
(g70
g63
NtRp3590
(dp3591
g66
(dp3592
g74
I4
ssg75
Nsg68
(lp3593
sbasbasbasbag61
(g77
g63
NtRp3594
(dp3595
g66
(dp3596
sg75
g3283
sg68
(lp3597
g61
(g82
g63
NtRp3598
(dp3599
g66
(dp3600
g86
g87
ssg75
g3594
sg68
(lp3601
S'flash'
p3602
asbag61
(g82
g63
NtRp3603
(dp3604
g66
(dp3605
g93
g94
ssg75
g3594
sg68
(lp3606
S':'
asbag61
(g82
g63
NtRp3607
(dp3608
g66
(dp3609
sg75
g3594
sg68
(lp3610
g61
(g62
g63
NtRp3611
(dp3612
g66
(dp3613
g74
I5
ssg75
g3607
sg68
(lp3614
S''
asbasbasbag61
(g77
g63
NtRp3615
(dp3616
g66
(dp3617
sg75
g3283
sg68
(lp3618
g61
(g82
g63
NtRp3619
(dp3620
g66
(dp3621
g86
g87
ssg75
g3615
sg68
(lp3622
S'generic_patterns'
p3623
asbag61
(g82
g63
NtRp3624
(dp3625
g66
(dp3626
g93
g94
ssg75
g3615
sg68
(lp3627
S':'
asbag61
(g82
g63
NtRp3628
(dp3629
g66
(dp3630
sg75
g3615
sg68
(lp3631
g61
(g62
g63
NtRp3632
(dp3633
g66
(dp3634
g74
I5
ssg75
g3628
sg68
(lp3635
g61
(g70
g63
NtRp3636
(dp3637
g66
(dp3638
g74
I4
ssg75
Nsg68
(lp3639
g61
(g77
g63
NtRp3640
(dp3641
g66
(dp3642
sg75
g3636
sg68
(lp3643
g61
(g82
g63
NtRp3644
(dp3645
g66
(dp3646
sg75
g3640
sg68
(lp3647
g61
(g62
g63
NtRp3648
(dp3649
g66
(dp3650
g74
I4
ssg75
g3644
sg68
(lp3651
S'*'
asbasbasbasbasbasbasbag61
(g77
g63
NtRp3652
(dp3653
g66
(dp3654
sg75
g3283
sg68
(lp3655
g61
(g82
g63
NtRp3656
(dp3657
g66
(dp3658
g86
g87
ssg75
g3652
sg68
(lp3659
S'headers'
p3660
asbag61
(g82
g63
NtRp3661
(dp3662
g66
(dp3663
g93
g94
ssg75
g3652
sg68
(lp3664
S':'
asbag61
(g82
g63
NtRp3665
(dp3666
g66
(dp3667
sg75
g3652
sg68
(lp3668
g61
(g62
g63
NtRp3669
(dp3670
g66
(dp3671
g74
I5
ssg75
g3665
sg68
(lp3672
g61
(g70
g63
NtRp3673
(dp3674
g66
(dp3675
g74
I4
ssg75
Nsg68
(lp3676
g61
(g77
g63
NtRp3677
(dp3678
g66
(dp3679
sg75
g3673
sg68
(lp3680
g61
(g82
g63
NtRp3681
(dp3682
g66
(dp3683
g86
g87
ssg75
g3677
sg68
(lp3684
S'X-Powered-By'
p3685
asbag61
(g82
g63
NtRp3686
(dp3687
g66
(dp3688
g93
g94
ssg75
g3677
sg68
(lp3689
S':'
asbag61
(g82
g63
NtRp3690
(dp3691
g66
(dp3692
sg75
g3677
sg68
(lp3693
g61
(g62
g63
NtRp3694
(dp3695
g66
(dp3696
g74
I4
ssg75
g3690
sg68
(lp3697
S'web2py'
p3698
asbasbasbasbasbasbasbag61
(g77
g63
NtRp3699
(dp3700
g66
(dp3701
sg75
g3283
sg68
(lp3702
g61
(g82
g63
NtRp3703
(dp3704
g66
(dp3705
g86
g87
ssg75
g3699
sg68
(lp3706
S'menu'
p3707
asbag61
(g82
g63
NtRp3708
(dp3709
g66
(dp3710
g93
g94
ssg75
g3699
sg68
(lp3711
S':'
asbag61
(g82
g63
NtRp3712
(dp3713
g66
(dp3714
sg75
g3699
sg68
(lp3715
g61
(g62
g63
NtRp3716
(dp3717
g66
(dp3718
g74
I5
ssg75
g3712
sg68
(lp3719
g61
(g70
g63
NtRp3720
(dp3721
g66
(dp3722
g74
I4
ssg75
Nsg68
(lp3723
sbasbasbasbag61
(g77
g63
NtRp3724
(dp3725
g66
(dp3726
sg75
g3283
sg68
(lp3727
g61
(g82
g63
NtRp3728
(dp3729
g66
(dp3730
g86
g87
ssg75
g3724
sg68
(lp3731
S'meta'
p3732
asbag61
(g82
g63
NtRp3733
(dp3734
g66
(dp3735
g93
g94
ssg75
g3724
sg68
(lp3736
S':'
asbag61
(g82
g63
NtRp3737
(dp3738
g66
(dp3739
sg75
g3724
sg68
(lp3740
g61
(g62
g63
NtRp3741
(dp3742
g66
(dp3743
g74
I5
ssg75
g3737
sg68
(lp3744
g61
(g70
g63
NtRp3745
(dp3746
g66
(dp3747
g74
I4
ssg75
Nsg68
(lp3748
sbasbasbasbag61
(g77
g63
NtRp3749
(dp3750
g66
(dp3751
sg75
g3283
sg68
(lp3752
g61
(g82
g63
NtRp3753
(dp3754
g66
(dp3755
g86
g87
ssg75
g3749
sg68
(lp3756
S'models_to_run'
p3757
asbag61
(g82
g63
NtRp3758
(dp3759
g66
(dp3760
g93
g94
ssg75
g3749
sg68
(lp3761
S':'
asbag61
(g82
g63
NtRp3762
(dp3763
g66
(dp3764
sg75
g3749
sg68
(lp3765
g61
(g62
g63
NtRp3766
(dp3767
g66
(dp3768
g74
I5
ssg75
g3762
sg68
(lp3769
g61
(g70
g63
NtRp3770
(dp3771
g66
(dp3772
g74
I4
ssg75
Nsg68
(lp3773
g61
(g77
g63
NtRp3774
(dp3775
g66
(dp3776
sg75
g3770
sg68
(lp3777
g61
(g82
g63
NtRp3778
(dp3779
g66
(dp3780
sg75
g3774
sg68
(lp3781
g61
(g62
g63
NtRp3782
(dp3783
g66
(dp3784
g74
I4
ssg75
g3778
sg68
(lp3785
S'^\\w+\\.py$'
p3786
asbasbasbag61
(g77
g63
NtRp3787
(dp3788
g66
(dp3789
sg75
g3770
sg68
(lp3790
g61
(g82
g63
NtRp3791
(dp3792
g66
(dp3793
sg75
g3787
sg68
(lp3794
g61
(g62
g63
NtRp3795
(dp3796
g66
(dp3797
g74
I4
ssg75
g3791
sg68
(lp3798
S'^appadmin/\\w+\\.py$'
p3799
asbasbasbag61
(g77
g63
NtRp3800
(dp3801
g66
(dp3802
sg75
g3770
sg68
(lp3803
g61
(g82
g63
NtRp3804
(dp3805
g66
(dp3806
sg75
g3800
sg68
(lp3807
g61
(g62
g63
NtRp3808
(dp3809
g66
(dp3810
g74
I4
ssg75
g3804
sg68
(lp3811
S'^appadmin/index/\\w+\\.py$'
p3812
asbasbasbasbasbasbasbag61
(g77
g63
NtRp3813
(dp3814
g66
(dp3815
sg75
g3283
sg68
(lp3816
g61
(g82
g63
NtRp3817
(dp3818
g66
(dp3819
g86
g87
ssg75
g3813
sg68
(lp3820
S'postprocessing'
p3821
asbag61
(g82
g63
NtRp3822
(dp3823
g66
(dp3824
g93
g94
ssg75
g3813
sg68
(lp3825
S':'
asbag61
(g82
g63
NtRp3826
(dp3827
g66
(dp3828
sg75
g3813
sg68
(lp3829
g61
(g62
g63
NtRp3830
(dp3831
g66
(dp3832
g74
I5
ssg75
g3826
sg68
(lp3833
g61
(g70
g63
NtRp3834
(dp3835
g66
(dp3836
g74
I4
ssg75
Nsg68
(lp3837
sbasbasbasbag61
(g77
g63
NtRp3838
(dp3839
g66
(dp3840
sg75
g3283
sg68
(lp3841
g61
(g82
g63
NtRp3842
(dp3843
g66
(dp3844
g86
g87
ssg75
g3838
sg68
(lp3845
S'session_cookie_expires'
p3846
asbag61
(g82
g63
NtRp3847
(dp3848
g66
(dp3849
g93
g94
ssg75
g3838
sg68
(lp3850
S':'
asbag61
(g82
g63
NtRp3851
(dp3852
g66
(dp3853
sg75
g3838
sg68
(lp3854
g61
(g62
g63
NtRp3855
(dp3856
g66
(dp3857
g74
I5
ssg75
g3851
sg68
(lp3858
S'None'
p3859
asbasbasbag61
(g77
g63
NtRp3860
(dp3861
g66
(dp3862
sg75
g3283
sg68
(lp3863
g61
(g82
g63
NtRp3864
(dp3865
g66
(dp3866
g86
g87
ssg75
g3860
sg68
(lp3867
S'session_data_name'
p3868
asbag61
(g82
g63
NtRp3869
(dp3870
g66
(dp3871
g93
g94
ssg75
g3860
sg68
(lp3872
S':'
asbag61
(g82
g63
NtRp3873
(dp3874
g66
(dp3875
sg75
g3860
sg68
(lp3876
g61
(g62
g63
NtRp3877
(dp3878
g66
(dp3879
g74
I5
ssg75
g3873
sg68
(lp3880
S'session_data_rosan'
p3881
asbasbasbag61
(g77
g63
NtRp3882
(dp3883
g66
(dp3884
sg75
g3283
sg68
(lp3885
g61
(g82
g63
NtRp3886
(dp3887
g66
(dp3888
g86
g87
ssg75
g3882
sg68
(lp3889
S'session_filename'
p3890
asbag61
(g82
g63
NtRp3891
(dp3892
g66
(dp3893
g93
g94
ssg75
g3882
sg68
(lp3894
S':'
asbag61
(g82
g63
NtRp3895
(dp3896
g66
(dp3897
sg75
g3882
sg68
(lp3898
g61
(g62
g63
NtRp3899
(dp3900
g66
(dp3901
g74
I5
ssg75
g3895
sg68
(lp3902
S'/Users/Truki/Desarrollo/web2py/applications/rosan/sessions/127.0.0.1-108e2c8f-f98c-46a9-a21a-2ccbea33f42e'
p3903
asbasbasbag61
(g77
g63
NtRp3904
(dp3905
g66
(dp3906
sg75
g3283
sg68
(lp3907
g61
(g82
g63
NtRp3908
(dp3909
g66
(dp3910
g86
g87
ssg75
g3904
sg68
(lp3911
S'session_id'
p3912
asbag61
(g82
g63
NtRp3913
(dp3914
g66
(dp3915
g93
g94
ssg75
g3904
sg68
(lp3916
S':'
asbag61
(g82
g63
NtRp3917
(dp3918
g66
(dp3919
sg75
g3904
sg68
(lp3920
g61
(g62
g63
NtRp3921
(dp3922
g66
(dp3923
g74
I5
ssg75
g3917
sg68
(lp3924
g3353
asbasbasbag61
(g77
g63
NtRp3925
(dp3926
g66
(dp3927
sg75
g3283
sg68
(lp3928
g61
(g82
g63
NtRp3929
(dp3930
g66
(dp3931
g86
g87
ssg75
g3925
sg68
(lp3932
S'session_id_name'
p3933
asbag61
(g82
g63
NtRp3934
(dp3935
g66
(dp3936
g93
g94
ssg75
g3925
sg68
(lp3937
S':'
asbag61
(g82
g63
NtRp3938
(dp3939
g66
(dp3940
sg75
g3925
sg68
(lp3941
g61
(g62
g63
NtRp3942
(dp3943
g66
(dp3944
g74
I5
ssg75
g3938
sg68
(lp3945
g3340
asbasbasbag61
(g77
g63
NtRp3946
(dp3947
g66
(dp3948
sg75
g3283
sg68
(lp3949
g61
(g82
g63
NtRp3950
(dp3951
g66
(dp3952
g86
g87
ssg75
g3946
sg68
(lp3953
S'session_new'
p3954
asbag61
(g82
g63
NtRp3955
(dp3956
g66
(dp3957
g93
g94
ssg75
g3946
sg68
(lp3958
S':'
asbag61
(g82
g63
NtRp3959
(dp3960
g66
(dp3961
sg75
g3946
sg68
(lp3962
g61
(g62
g63
NtRp3963
(dp3964
g66
(dp3965
g74
I5
ssg75
g3959
sg68
(lp3966
g1622
asbasbasbag61
(g77
g63
NtRp3967
(dp3968
g66
(dp3969
sg75
g3283
sg68
(lp3970
g61
(g82
g63
NtRp3971
(dp3972
g66
(dp3973
g86
g87
ssg75
g3967
sg68
(lp3974
S'session_storage_type'
p3975
asbag61
(g82
g63
NtRp3976
(dp3977
g66
(dp3978
g93
g94
ssg75
g3967
sg68
(lp3979
S':'
asbag61
(g82
g63
NtRp3980
(dp3981
g66
(dp3982
sg75
g3967
sg68
(lp3983
g61
(g62
g63
NtRp3984
(dp3985
g66
(dp3986
g74
I5
ssg75
g3980
sg68
(lp3987
g3086
asbasbasbag61
(g77
g63
NtRp3988
(dp3989
g66
(dp3990
sg75
g3283
sg68
(lp3991
g61
(g82
g63
NtRp3992
(dp3993
g66
(dp3994
g86
g87
ssg75
g3988
sg68
(lp3995
S'status'
p3996
asbag61
(g82
g63
NtRp3997
(dp3998
g66
(dp3999
g93
g94
ssg75
g3988
sg68
(lp4000
S':'
asbag61
(g82
g63
NtRp4001
(dp4002
g66
(dp4003
sg75
g3988
sg68
(lp4004
g61
(g62
g63
NtRp4005
(dp4006
g66
(dp4007
g74
I5
ssg75
g4001
sg68
(lp4008
S'200'
p4009
asbasbasbag61
(g77
g63
NtRp4010
(dp4011
g66
(dp4012
sg75
g3283
sg68
(lp4013
g61
(g82
g63
NtRp4014
(dp4015
g66
(dp4016
g86
g87
ssg75
g4010
sg68
(lp4017
S'view'
p4018
asbag61
(g82
g63
NtRp4019
(dp4020
g66
(dp4021
g93
g94
ssg75
g4010
sg68
(lp4022
S':'
asbag61
(g82
g63
NtRp4023
(dp4024
g66
(dp4025
sg75
g4010
sg68
(lp4026
g61
(g62
g63
NtRp4027
(dp4028
g66
(dp4029
g74
I5
ssg75
g4023
sg68
(lp4030
S'appadmin/index.html'
p4031
asbasbasbasbasbsS'locals'
p4032
(dp4033
S'a'
S"('CREATE TABLE empresa(\\n    id INTEGER PRIMARY KEY...CHAR(100) NOT NULL,\\n    www CHAR(200) NOT NULL\\n);',)"
p4034
sS'self'
p4035
S'<gluon.dal.SQLiteAdapter object>'
p4036
sS'b'
g21
sS'command'
p4037
S"'CREATE TABLE empresa(\\n    id INTEGER PRIMARY KEY...CHAR(100) NOT NULL,\\n    www CHAR(200) NOT NULL\\n);'"
p4038
sS't0'
p4039
S'1360078822.644801'
p4040
sssS'traceback'
p4041
S'Traceback (most recent call last):\n  File "/Users/Truki/Desarrollo/web2py/gluon/restricted.py", line 212, in restricted\n    exec ccode in environment\n  File "/Users/Truki/Desarrollo/web2py/applications/rosan/models/db_rosan.py", line 24, in <module>\n    SQLField("www", "string", length=200, notnull=True, default=None)\n  File "/Users/Truki/Desarrollo/web2py/gluon/dal.py", line 7186, in define_table\n    table = self.lazy_define_table(tablename,*fields,**args)\n  File "/Users/Truki/Desarrollo/web2py/gluon/dal.py", line 7222, in lazy_define_table\n    polymodel=polymodel)\n  File "/Users/Truki/Desarrollo/web2py/gluon/dal.py", line 935, in create_table\n    self.create_sequence_and_triggers(query,table)\n  File "/Users/Truki/Desarrollo/web2py/gluon/dal.py", line 1694, in create_sequence_and_triggers\n    self.execute(query)\n  File "/Users/Truki/Desarrollo/web2py/gluon/dal.py", line 1709, in execute\n    return self.log_execute(*a, **b)\n  File "/Users/Truki/Desarrollo/web2py/gluon/dal.py", line 1703, in log_execute\n    ret = self.cursor.execute(*a, **b)\nOperationalError: table empresa already exists\n'
p4042
s.