(dp1
S'output'
p2
S"<class 'sqlite3.OperationalError'> Cannot add a NOT NULL column with default value NULL"
p3
sS'layer'
p4
S'/Users/Truki/web2py/applications/rosan/models/db_rosan.py'
p5
sS'code'
p6
S'# coding: utf8\n"""\njust copy paste this code into your model and replace dbRosan to something\nyou prefer or what is used in your code, another thing that should be known is that\nthis code still cannot distinguish what exactly should be in reference title - name\nwhen you use generic appadmin so please remove all fiealds you don\'t need not require \n"""\n"""\ndatabase class object creation\n"""\ndbRosan = SQLDB("sqlite://dbRosan.db")\n\n"""\nTabla de clientes\n"""\ndbRosan.define_table("cliente",\n      SQLField("cif", "string", length=9, notnull=True, default=None),\n      SQLField("nombre", "string", length=200, notnull=True, default=None),\n      SQLField("direccion", "string", length=200, notnull=True, default=None),\n      SQLField("localidad", "string", length=100, notnull=True, default=None),\n      SQLField("cod_postal", "string", length=5, notnull=True, default=None),\n      SQLField("email", "string", length=100, notnull=True, default=None),\n      SQLField("www","string", length=200, notnull=True, default=None)\n      ) \n\n"""\nTabla facturas\n"""\ndbRosan.define_table("factura",\n      SQLField("fecha", "date", notnull=True, default=None),\n      SQLField("id_cliente", dbRosan.cliente),\n      SQLField("tipo_iva", "double", notnull=True, default=None),\n      SQLField("neto", "double", notnull=True, default=None),\n      SQLField("retencion", "double", notnull=True, default=None),\n      SQLField("descuento", "integer", notnull=True, default=None),\n      SQLField("total_iva", "double", notnull=True, default=None),\n      SQLField("total_bruto", "double", notnull=True, default=None),\n      SQLField("pagada", "boolean", notnull=True, default=False)) \n\n\n\n"""\nTable con el detalle de las facturas\n"""\ndbRosan.define_table("factura_detalle",\n      SQLField("id_factura", dbRosan.factura),\n      SQLField("articulo", "text", notnull=True, default=None),\n      SQLField("precio", "double", notnull=True, default=None),\n      SQLField("cantidad", "integer", notnull=True, default=None),\n      SQLField("total_articulo", "double", notnull=True, default=None))  \n           \n"""\nTabla articulos\n"""\ndbRosan.define_table("articulo",\n      SQLField("descripcion", "text", notnull=True, default=None),\n      SQLField("precio", "double", notnull=True, default=None)) \n      \n"""\nTabla almacen, contiene los stocks de los articulos\n"""\ndbRosan.define_table("almacen", \n      SQLField("id_articulo", dbRosan.articulo),\n      SQLField("cantidad", "integer", notnull=True, default=0),\n      SQLField("max", "integer", notnull=True, default=0),\n      SQLField("min", "integer", notnull=True, default=0))\n      \n      \n\n"""\nRelations between tables (remove fields you don\'t need from requires)\n"""\ndbRosan.factura.id_cliente.requires=IS_IN_DB(dbRosan, \'cliente.id\', \'%(nombre)s\')\n\ndbRosan.factura_detalle.id_factura.requires=IS_IN_DB(dbRosan, \'factura.id\')\n\ndbRosan.almacen.id_articulo.requires=IS_IN_DB(dbRosan, \'articulo.id\' \'%(nombre)s\')\n'
p7
sS'snapshot'
p8
(dp9
S'exception'
p10
(dp11
S'__module__'
p12
S"'sqlite3'"
p13
sS'__getslice__'
p14
S"<method-wrapper '__getslice__' of OperationalError object>"
p15
sS'__str__'
p16
S"<method-wrapper '__str__' of OperationalError object>"
p17
sS'__reduce__'
p18
S'<built-in method __reduce__ of OperationalError object>'
p19
sS'__dict__'
p20
S'{}'
p21
sS'__sizeof__'
p22
S'<built-in method __sizeof__ of OperationalError object>'
p23
sS'__weakref__'
p24
S'None'
p25
sS'__init__'
p26
S"<method-wrapper '__init__' of OperationalError object>"
p27
sS'__setattr__'
p28
S"<method-wrapper '__setattr__' of OperationalError object>"
p29
sS'__reduce_ex__'
p30
S'<built-in method __reduce_ex__ of OperationalError object>'
p31
sS'__new__'
p32
S'<built-in method __new__ of type object>'
p33
sS'__format__'
p34
S'<built-in method __format__ of OperationalError object>'
p35
sS'__class__'
p36
S"<class 'sqlite3.OperationalError'>"
p37
sS'__doc__'
p38
S'None'
p39
sS'__getitem__'
p40
S"<method-wrapper '__getitem__' of OperationalError object>"
p41
sS'__setstate__'
p42
S'<built-in method __setstate__ of OperationalError object>'
p43
sS'__getattribute__'
p44
S"<method-wrapper '__getattribute__' of OperationalError object>"
p45
sS'args'
p46
S"('Cannot add a NOT NULL column with default value NULL',)"
p47
sS'__subclasshook__'
p48
S'<built-in method __subclasshook__ of type object>'
p49
sS'__unicode__'
p50
S'<built-in method __unicode__ of OperationalError object>'
p51
sS'__delattr__'
p52
S"<method-wrapper '__delattr__' of OperationalError object>"
p53
sS'__repr__'
p54
S"<method-wrapper '__repr__' of OperationalError object>"
p55
sS'__hash__'
p56
S"<method-wrapper '__hash__' of OperationalError object>"
p57
ssS'evalue'
p58
S'Cannot add a NOT NULL column with default value NULL'
p59
sS'request'
p60
ccopy_reg
_reconstructor
p61
(cgluon.html
BEAUTIFY
p62
c__builtin__
object
p63
NtRp64
(dp65
S'attributes'
p66
(dp67
sS'components'
p68
(lp69
g61
(cgluon.html
TABLE
p70
g63
NtRp71
(dp72
g66
(dp73
S'level'
p74
I5
ssS'parent'
p75
Nsg68
(lp76
g61
(cgluon.html
TR
p77
g63
NtRp78
(dp79
g66
(dp80
sg75
g71
sg68
(lp81
g61
(cgluon.html
TD
p82
g63
NtRp83
(dp84
g66
(dp85
S'_style'
p86
S'font-weight:bold;vertical-align:top'
p87
ssg75
g78
sg68
(lp88
S'ajax'
p89
asbag61
(g82
g63
NtRp90
(dp91
g66
(dp92
S'_valign'
p93
S'top'
p94
ssg75
g78
sg68
(lp95
S':'
asbag61
(g82
g63
NtRp96
(dp97
g66
(dp98
sg75
g78
sg68
(lp99
g61
(g62
g63
NtRp100
(dp101
g66
(dp102
g74
I5
ssg75
g96
sg68
(lp103
S'False'
p104
asbasbasbag61
(g77
g63
NtRp105
(dp106
g66
(dp107
sg75
g71
sg68
(lp108
g61
(g82
g63
NtRp109
(dp110
g66
(dp111
g86
g87
ssg75
g105
sg68
(lp112
S'application'
p113
asbag61
(g82
g63
NtRp114
(dp115
g66
(dp116
g93
g94
ssg75
g105
sg68
(lp117
S':'
asbag61
(g82
g63
NtRp118
(dp119
g66
(dp120
sg75
g105
sg68
(lp121
g61
(g62
g63
NtRp122
(dp123
g66
(dp124
g74
I5
ssg75
g118
sg68
(lp125
S'rosan'
p126
asbasbasbag61
(g77
g63
NtRp127
(dp128
g66
(dp129
sg75
g71
sg68
(lp130
g61
(g82
g63
NtRp131
(dp132
g66
(dp133
g86
g87
ssg75
g127
sg68
(lp134
g46
asbag61
(g82
g63
NtRp135
(dp136
g66
(dp137
g93
g94
ssg75
g127
sg68
(lp138
S':'
asbag61
(g82
g63
NtRp139
(dp140
g66
(dp141
sg75
g127
sg68
(lp142
g61
(g62
g63
NtRp143
(dp144
g66
(dp145
g74
I5
ssg75
g139
sg68
(lp146
g61
(g70
g63
NtRp147
(dp148
g66
(dp149
g74
I4
ssg75
Nsg68
(lp150
sbasbasbasbag61
(g77
g63
NtRp151
(dp152
g66
(dp153
sg75
g71
sg68
(lp154
g61
(g82
g63
NtRp155
(dp156
g66
(dp157
g86
g87
ssg75
g151
sg68
(lp158
S'body'
p159
asbag61
(g82
g63
NtRp160
(dp161
g66
(dp162
g93
g94
ssg75
g151
sg68
(lp163
S':'
asbag61
(g82
g63
NtRp164
(dp165
g66
(dp166
sg75
g151
sg68
(lp167
g61
(g62
g63
NtRp168
(dp169
g66
(dp170
g74
I5
ssg75
g164
sg68
(lp171
S'<cStringIO.StringO object at 0x180818c0>'
p172
asbasbasbag61
(g77
g63
NtRp173
(dp174
g66
(dp175
sg75
g71
sg68
(lp176
g61
(g82
g63
NtRp177
(dp178
g66
(dp179
g86
g87
ssg75
g173
sg68
(lp180
S'cid'
p181
asbag61
(g82
g63
NtRp182
(dp183
g66
(dp184
g93
g94
ssg75
g173
sg68
(lp185
S':'
asbag61
(g82
g63
NtRp186
(dp187
g66
(dp188
sg75
g173
sg68
(lp189
g61
(g62
g63
NtRp190
(dp191
g66
(dp192
g74
I5
ssg75
g186
sg68
(lp193
S'None'
p194
asbasbasbag61
(g77
g63
NtRp195
(dp196
g66
(dp197
sg75
g71
sg68
(lp198
g61
(g82
g63
NtRp199
(dp200
g66
(dp201
g86
g87
ssg75
g195
sg68
(lp202
S'client'
p203
asbag61
(g82
g63
NtRp204
(dp205
g66
(dp206
g93
g94
ssg75
g195
sg68
(lp207
S':'
asbag61
(g82
g63
NtRp208
(dp209
g66
(dp210
sg75
g195
sg68
(lp211
g61
(g62
g63
NtRp212
(dp213
g66
(dp214
g74
I5
ssg75
g208
sg68
(lp215
S'127.0.0.1'
p216
asbasbasbag61
(g77
g63
NtRp217
(dp218
g66
(dp219
sg75
g71
sg68
(lp220
g61
(g82
g63
NtRp221
(dp222
g66
(dp223
g86
g87
ssg75
g217
sg68
(lp224
S'controller'
p225
asbag61
(g82
g63
NtRp226
(dp227
g66
(dp228
g93
g94
ssg75
g217
sg68
(lp229
S':'
asbag61
(g82
g63
NtRp230
(dp231
g66
(dp232
sg75
g217
sg68
(lp233
g61
(g62
g63
NtRp234
(dp235
g66
(dp236
g74
I5
ssg75
g230
sg68
(lp237
S'default'
p238
asbasbasbag61
(g77
g63
NtRp239
(dp240
g66
(dp241
sg75
g71
sg68
(lp242
g61
(g82
g63
NtRp243
(dp244
g66
(dp245
g86
g87
ssg75
g239
sg68
(lp246
S'cookies'
p247
asbag61
(g82
g63
NtRp248
(dp249
g66
(dp250
g93
g94
ssg75
g239
sg68
(lp251
S':'
asbag61
(g82
g63
NtRp252
(dp253
g66
(dp254
sg75
g239
sg68
(lp255
g61
(g62
g63
NtRp256
(dp257
g66
(dp258
g74
I5
ssg75
g252
sg68
(lp259
g61
(g70
g63
NtRp260
(dp261
g66
(dp262
g74
I4
ssg75
Nsg68
(lp263
g61
(g77
g63
NtRp264
(dp265
g66
(dp266
sg75
g260
sg68
(lp267
g61
(g82
g63
NtRp268
(dp269
g66
(dp270
g86
g87
ssg75
g264
sg68
(lp271
S'session_id_admin'
p272
asbag61
(g82
g63
NtRp273
(dp274
g66
(dp275
g93
g94
ssg75
g264
sg68
(lp276
S':'
asbag61
(g82
g63
NtRp277
(dp278
g66
(dp279
sg75
g264
sg68
(lp280
g61
(g62
g63
NtRp281
(dp282
g66
(dp283
g74
I4
ssg75
g277
sg68
(lp284
S'127.0.0.1-5b23b637-2b4a-47c8-8a69-a74c05ba1f04'
p285
ag61
(g70
g63
NtRp286
(dp287
g66
(dp288
g74
I3
ssg75
Nsg68
(lp289
g61
(g77
g63
NtRp290
(dp291
g66
(dp292
sg75
g286
sg68
(lp293
g61
(g82
g63
NtRp294
(dp295
g66
(dp296
g86
g87
ssg75
g290
sg68
(lp297
S'comment'
p298
asbag61
(g82
g63
NtRp299
(dp300
g66
(dp301
g93
g94
ssg75
g290
sg68
(lp302
S':'
asbag61
(g82
g63
NtRp303
(dp304
g66
(dp305
sg75
g290
sg68
(lp306
g61
(g62
g63
NtRp307
(dp308
g66
(dp309
g74
I3
ssg75
g303
sg68
(lp310
S''
asbasbasbag61
(g77
g63
NtRp311
(dp312
g66
(dp313
sg75
g286
sg68
(lp314
g61
(g82
g63
NtRp315
(dp316
g66
(dp317
g86
g87
ssg75
g311
sg68
(lp318
S'domain'
p319
asbag61
(g82
g63
NtRp320
(dp321
g66
(dp322
g93
g94
ssg75
g311
sg68
(lp323
S':'
asbag61
(g82
g63
NtRp324
(dp325
g66
(dp326
sg75
g311
sg68
(lp327
g61
(g62
g63
NtRp328
(dp329
g66
(dp330
g74
I3
ssg75
g324
sg68
(lp331
S''
asbasbasbag61
(g77
g63
NtRp332
(dp333
g66
(dp334
sg75
g286
sg68
(lp335
g61
(g82
g63
NtRp336
(dp337
g66
(dp338
g86
g87
ssg75
g332
sg68
(lp339
S'expires'
p340
asbag61
(g82
g63
NtRp341
(dp342
g66
(dp343
g93
g94
ssg75
g332
sg68
(lp344
S':'
asbag61
(g82
g63
NtRp345
(dp346
g66
(dp347
sg75
g332
sg68
(lp348
g61
(g62
g63
NtRp349
(dp350
g66
(dp351
g74
I3
ssg75
g345
sg68
(lp352
S''
asbasbasbag61
(g77
g63
NtRp353
(dp354
g66
(dp355
sg75
g286
sg68
(lp356
g61
(g82
g63
NtRp357
(dp358
g66
(dp359
g86
g87
ssg75
g353
sg68
(lp360
S'httponly'
p361
asbag61
(g82
g63
NtRp362
(dp363
g66
(dp364
g93
g94
ssg75
g353
sg68
(lp365
S':'
asbag61
(g82
g63
NtRp366
(dp367
g66
(dp368
sg75
g353
sg68
(lp369
g61
(g62
g63
NtRp370
(dp371
g66
(dp372
g74
I3
ssg75
g366
sg68
(lp373
S''
asbasbasbag61
(g77
g63
NtRp374
(dp375
g66
(dp376
sg75
g286
sg68
(lp377
g61
(g82
g63
NtRp378
(dp379
g66
(dp380
g86
g87
ssg75
g374
sg68
(lp381
S'max-age'
p382
asbag61
(g82
g63
NtRp383
(dp384
g66
(dp385
g93
g94
ssg75
g374
sg68
(lp386
S':'
asbag61
(g82
g63
NtRp387
(dp388
g66
(dp389
sg75
g374
sg68
(lp390
g61
(g62
g63
NtRp391
(dp392
g66
(dp393
g74
I3
ssg75
g387
sg68
(lp394
S''
asbasbasbag61
(g77
g63
NtRp395
(dp396
g66
(dp397
sg75
g286
sg68
(lp398
g61
(g82
g63
NtRp399
(dp400
g66
(dp401
g86
g87
ssg75
g395
sg68
(lp402
S'path'
p403
asbag61
(g82
g63
NtRp404
(dp405
g66
(dp406
g93
g94
ssg75
g395
sg68
(lp407
S':'
asbag61
(g82
g63
NtRp408
(dp409
g66
(dp410
sg75
g395
sg68
(lp411
g61
(g62
g63
NtRp412
(dp413
g66
(dp414
g74
I3
ssg75
g408
sg68
(lp415
S''
asbasbasbag61
(g77
g63
NtRp416
(dp417
g66
(dp418
sg75
g286
sg68
(lp419
g61
(g82
g63
NtRp420
(dp421
g66
(dp422
g86
g87
ssg75
g416
sg68
(lp423
S'secure'
p424
asbag61
(g82
g63
NtRp425
(dp426
g66
(dp427
g93
g94
ssg75
g416
sg68
(lp428
S':'
asbag61
(g82
g63
NtRp429
(dp430
g66
(dp431
sg75
g416
sg68
(lp432
g61
(g62
g63
NtRp433
(dp434
g66
(dp435
g74
I3
ssg75
g429
sg68
(lp436
S''
asbasbasbag61
(g77
g63
NtRp437
(dp438
g66
(dp439
sg75
g286
sg68
(lp440
g61
(g82
g63
NtRp441
(dp442
g66
(dp443
g86
g87
ssg75
g437
sg68
(lp444
S'version'
p445
asbag61
(g82
g63
NtRp446
(dp447
g66
(dp448
g93
g94
ssg75
g437
sg68
(lp449
S':'
asbag61
(g82
g63
NtRp450
(dp451
g66
(dp452
sg75
g437
sg68
(lp453
g61
(g62
g63
NtRp454
(dp455
g66
(dp456
g74
I3
ssg75
g450
sg68
(lp457
S''
asbasbasbasbasbasbasbag61
(g77
g63
NtRp458
(dp459
g66
(dp460
sg75
g260
sg68
(lp461
g61
(g82
g63
NtRp462
(dp463
g66
(dp464
g86
g87
ssg75
g458
sg68
(lp465
S'session_id_welcome'
p466
asbag61
(g82
g63
NtRp467
(dp468
g66
(dp469
g93
g94
ssg75
g458
sg68
(lp470
S':'
asbag61
(g82
g63
NtRp471
(dp472
g66
(dp473
sg75
g458
sg68
(lp474
g61
(g62
g63
NtRp475
(dp476
g66
(dp477
g74
I4
ssg75
g471
sg68
(lp478
S'127.0.0.1-bd8d5808-606f-440d-b15e-45a2ed6c53dc'
p479
ag61
(g70
g63
NtRp480
(dp481
g66
(dp482
g74
I3
ssg75
Nsg68
(lp483
g61
(g77
g63
NtRp484
(dp485
g66
(dp486
sg75
g480
sg68
(lp487
g61
(g82
g63
NtRp488
(dp489
g66
(dp490
g86
g87
ssg75
g484
sg68
(lp491
g298
asbag61
(g82
g63
NtRp492
(dp493
g66
(dp494
g93
g94
ssg75
g484
sg68
(lp495
S':'
asbag61
(g82
g63
NtRp496
(dp497
g66
(dp498
sg75
g484
sg68
(lp499
g61
(g62
g63
NtRp500
(dp501
g66
(dp502
g74
I3
ssg75
g496
sg68
(lp503
S''
asbasbasbag61
(g77
g63
NtRp504
(dp505
g66
(dp506
sg75
g480
sg68
(lp507
g61
(g82
g63
NtRp508
(dp509
g66
(dp510
g86
g87
ssg75
g504
sg68
(lp511
g319
asbag61
(g82
g63
NtRp512
(dp513
g66
(dp514
g93
g94
ssg75
g504
sg68
(lp515
S':'
asbag61
(g82
g63
NtRp516
(dp517
g66
(dp518
sg75
g504
sg68
(lp519
g61
(g62
g63
NtRp520
(dp521
g66
(dp522
g74
I3
ssg75
g516
sg68
(lp523
S''
asbasbasbag61
(g77
g63
NtRp524
(dp525
g66
(dp526
sg75
g480
sg68
(lp527
g61
(g82
g63
NtRp528
(dp529
g66
(dp530
g86
g87
ssg75
g524
sg68
(lp531
g340
asbag61
(g82
g63
NtRp532
(dp533
g66
(dp534
g93
g94
ssg75
g524
sg68
(lp535
S':'
asbag61
(g82
g63
NtRp536
(dp537
g66
(dp538
sg75
g524
sg68
(lp539
g61
(g62
g63
NtRp540
(dp541
g66
(dp542
g74
I3
ssg75
g536
sg68
(lp543
S''
asbasbasbag61
(g77
g63
NtRp544
(dp545
g66
(dp546
sg75
g480
sg68
(lp547
g61
(g82
g63
NtRp548
(dp549
g66
(dp550
g86
g87
ssg75
g544
sg68
(lp551
g361
asbag61
(g82
g63
NtRp552
(dp553
g66
(dp554
g93
g94
ssg75
g544
sg68
(lp555
S':'
asbag61
(g82
g63
NtRp556
(dp557
g66
(dp558
sg75
g544
sg68
(lp559
g61
(g62
g63
NtRp560
(dp561
g66
(dp562
g74
I3
ssg75
g556
sg68
(lp563
S''
asbasbasbag61
(g77
g63
NtRp564
(dp565
g66
(dp566
sg75
g480
sg68
(lp567
g61
(g82
g63
NtRp568
(dp569
g66
(dp570
g86
g87
ssg75
g564
sg68
(lp571
g382
asbag61
(g82
g63
NtRp572
(dp573
g66
(dp574
g93
g94
ssg75
g564
sg68
(lp575
S':'
asbag61
(g82
g63
NtRp576
(dp577
g66
(dp578
sg75
g564
sg68
(lp579
g61
(g62
g63
NtRp580
(dp581
g66
(dp582
g74
I3
ssg75
g576
sg68
(lp583
S''
asbasbasbag61
(g77
g63
NtRp584
(dp585
g66
(dp586
sg75
g480
sg68
(lp587
g61
(g82
g63
NtRp588
(dp589
g66
(dp590
g86
g87
ssg75
g584
sg68
(lp591
g403
asbag61
(g82
g63
NtRp592
(dp593
g66
(dp594
g93
g94
ssg75
g584
sg68
(lp595
S':'
asbag61
(g82
g63
NtRp596
(dp597
g66
(dp598
sg75
g584
sg68
(lp599
g61
(g62
g63
NtRp600
(dp601
g66
(dp602
g74
I3
ssg75
g596
sg68
(lp603
S''
asbasbasbag61
(g77
g63
NtRp604
(dp605
g66
(dp606
sg75
g480
sg68
(lp607
g61
(g82
g63
NtRp608
(dp609
g66
(dp610
g86
g87
ssg75
g604
sg68
(lp611
g424
asbag61
(g82
g63
NtRp612
(dp613
g66
(dp614
g93
g94
ssg75
g604
sg68
(lp615
S':'
asbag61
(g82
g63
NtRp616
(dp617
g66
(dp618
sg75
g604
sg68
(lp619
g61
(g62
g63
NtRp620
(dp621
g66
(dp622
g74
I3
ssg75
g616
sg68
(lp623
S''
asbasbasbag61
(g77
g63
NtRp624
(dp625
g66
(dp626
sg75
g480
sg68
(lp627
g61
(g82
g63
NtRp628
(dp629
g66
(dp630
g86
g87
ssg75
g624
sg68
(lp631
g445
asbag61
(g82
g63
NtRp632
(dp633
g66
(dp634
g93
g94
ssg75
g624
sg68
(lp635
S':'
asbag61
(g82
g63
NtRp636
(dp637
g66
(dp638
sg75
g624
sg68
(lp639
g61
(g62
g63
NtRp640
(dp641
g66
(dp642
g74
I3
ssg75
g636
sg68
(lp643
S''
asbasbasbasbasbasbasbasbasbasbasbag61
(g77
g63
NtRp644
(dp645
g66
(dp646
sg75
g71
sg68
(lp647
g61
(g82
g63
NtRp648
(dp649
g66
(dp650
g86
g87
ssg75
g644
sg68
(lp651
S'env'
p652
asbag61
(g82
g63
NtRp653
(dp654
g66
(dp655
g93
g94
ssg75
g644
sg68
(lp656
S':'
asbag61
(g82
g63
NtRp657
(dp658
g66
(dp659
sg75
g644
sg68
(lp660
g61
(g62
g63
NtRp661
(dp662
g66
(dp663
g74
I5
ssg75
g657
sg68
(lp664
g61
(g70
g63
NtRp665
(dp666
g66
(dp667
g74
I4
ssg75
Nsg68
(lp668
g61
(g77
g63
NtRp669
(dp670
g66
(dp671
sg75
g665
sg68
(lp672
g61
(g82
g63
NtRp673
(dp674
g66
(dp675
g86
g87
ssg75
g669
sg68
(lp676
S'app_folders'
p677
asbag61
(g82
g63
NtRp678
(dp679
g66
(dp680
g93
g94
ssg75
g669
sg68
(lp681
S':'
asbag61
(g82
g63
NtRp682
(dp683
g66
(dp684
sg75
g669
sg68
(lp685
g61
(g62
g63
NtRp686
(dp687
g66
(dp688
g74
I4
ssg75
g682
sg68
(lp689
S"set(['/Users/Truki/web2py/applications/welcome/', '/Users/Truki/web2py/applications/admin/', '/Users/Truki/web2py/applications/rosan/'])"
p690
asbasbasbag61
(g77
g63
NtRp691
(dp692
g66
(dp693
sg75
g665
sg68
(lp694
g61
(g82
g63
NtRp695
(dp696
g66
(dp697
g86
g87
ssg75
g691
sg68
(lp698
S'applications_parent'
p699
asbag61
(g82
g63
NtRp700
(dp701
g66
(dp702
g93
g94
ssg75
g691
sg68
(lp703
S':'
asbag61
(g82
g63
NtRp704
(dp705
g66
(dp706
sg75
g691
sg68
(lp707
g61
(g62
g63
NtRp708
(dp709
g66
(dp710
g74
I4
ssg75
g704
sg68
(lp711
S'/Users/Truki/web2py'
p712
asbasbasbag61
(g77
g63
NtRp713
(dp714
g66
(dp715
sg75
g665
sg68
(lp716
g61
(g82
g63
NtRp717
(dp718
g66
(dp719
g86
g87
ssg75
g713
sg68
(lp720
S'cmd_args'
p721
asbag61
(g82
g63
NtRp722
(dp723
g66
(dp724
g93
g94
ssg75
g713
sg68
(lp725
S':'
asbag61
(g82
g63
NtRp726
(dp727
g66
(dp728
sg75
g713
sg68
(lp729
g61
(g62
g63
NtRp730
(dp731
g66
(dp732
g74
I4
ssg75
g726
sg68
(lp733
g61
(g70
g63
NtRp734
(dp735
g66
(dp736
g74
I3
ssg75
Nsg68
(lp737
sbasbasbasbag61
(g77
g63
NtRp738
(dp739
g66
(dp740
sg75
g665
sg68
(lp741
g61
(g82
g63
NtRp742
(dp743
g66
(dp744
g86
g87
ssg75
g738
sg68
(lp745
S'cmd_options'
p746
asbag61
(g82
g63
NtRp747
(dp748
g66
(dp749
g93
g94
ssg75
g738
sg68
(lp750
S':'
asbag61
(g82
g63
NtRp751
(dp752
g66
(dp753
sg75
g738
sg68
(lp754
g61
(g62
g63
NtRp755
(dp756
g66
(dp757
g74
I4
ssg75
g751
sg68
(lp758
S"<Values at 0x19b2418: {'verbose': False, 'ip': '127.0.0.1', 'with_scheduler': False, 'ips': ['192.168.1.33'], 'shutdown_timeout': 5, 'taskbar': False, 'port': 8000, 'maxthreads': None, 'softcron': False, 'server_name': 'MBT.local', 'bpython': False, 'nogui': False, 'pid_filename': 'httpserver.pid', 'extcron': False, 'runcron': False, 'run_system_tests': False, 'test': None, 'folder': '/Users/Truki/web2py', 'config': '', 'import_models': False, 'winservice': '', 'shell': None, 'run': '', 'log_filename': 'httpserver.log', 'debuglevel': 30, 'args': [''], 'socket_timeout': 5, 'ssl_ca_certificate': None, 'scheduler': None, 'profiler_filename': None, 'ssl_private_key': '', 'scheduler_groups': None, 'password': '<ask>', 'request_queue_size': 5, 'ssl_certificate': '', 'cronjob': False, 'numthreads': None, 'quiet': False, 'interfaces': None, 'minthreads': None, 'timeout': 10, 'plain': False, 'nobanner': False}>"
p759
asbasbasbag61
(g77
g63
NtRp760
(dp761
g66
(dp762
sg75
g665
sg68
(lp763
g61
(g82
g63
NtRp764
(dp765
g66
(dp766
g86
g87
ssg75
g760
sg68
(lp767
S'db_sessions'
p768
asbag61
(g82
g63
NtRp769
(dp770
g66
(dp771
g93
g94
ssg75
g760
sg68
(lp772
S':'
asbag61
(g82
g63
NtRp773
(dp774
g66
(dp775
sg75
g760
sg68
(lp776
g61
(g62
g63
NtRp777
(dp778
g66
(dp779
g74
I4
ssg75
g773
sg68
(lp780
S'set([])'
p781
asbasbasbag61
(g77
g63
NtRp782
(dp783
g66
(dp784
sg75
g665
sg68
(lp785
g61
(g82
g63
NtRp786
(dp787
g66
(dp788
g86
g87
ssg75
g782
sg68
(lp789
S'debugging'
p790
asbag61
(g82
g63
NtRp791
(dp792
g66
(dp793
g93
g94
ssg75
g782
sg68
(lp794
S':'
asbag61
(g82
g63
NtRp795
(dp796
g66
(dp797
sg75
g782
sg68
(lp798
g61
(g62
g63
NtRp799
(dp800
g66
(dp801
g74
I4
ssg75
g795
sg68
(lp802
g104
asbasbasbag61
(g77
g63
NtRp803
(dp804
g66
(dp805
sg75
g665
sg68
(lp806
g61
(g82
g63
NtRp807
(dp808
g66
(dp809
g86
g87
ssg75
g803
sg68
(lp810
S'gluon_parent'
p811
asbag61
(g82
g63
NtRp812
(dp813
g66
(dp814
g93
g94
ssg75
g803
sg68
(lp815
S':'
asbag61
(g82
g63
NtRp816
(dp817
g66
(dp818
sg75
g803
sg68
(lp819
g61
(g62
g63
NtRp820
(dp821
g66
(dp822
g74
I4
ssg75
g816
sg68
(lp823
S'/Users/Truki/web2py'
p824
asbasbasbag61
(g77
g63
NtRp825
(dp826
g66
(dp827
sg75
g665
sg68
(lp828
g61
(g82
g63
NtRp829
(dp830
g66
(dp831
g86
g87
ssg75
g825
sg68
(lp832
S'http_accept'
p833
asbag61
(g82
g63
NtRp834
(dp835
g66
(dp836
g93
g94
ssg75
g825
sg68
(lp837
S':'
asbag61
(g82
g63
NtRp838
(dp839
g66
(dp840
sg75
g825
sg68
(lp841
g61
(g62
g63
NtRp842
(dp843
g66
(dp844
g74
I4
ssg75
g838
sg68
(lp845
S'text/html,application/xhtml+xml,application/xml;q=0.9,*/*;q=0.8'
p846
asbasbasbag61
(g77
g63
NtRp847
(dp848
g66
(dp849
sg75
g665
sg68
(lp850
g61
(g82
g63
NtRp851
(dp852
g66
(dp853
g86
g87
ssg75
g847
sg68
(lp854
S'http_accept_charset'
p855
asbag61
(g82
g63
NtRp856
(dp857
g66
(dp858
g93
g94
ssg75
g847
sg68
(lp859
S':'
asbag61
(g82
g63
NtRp860
(dp861
g66
(dp862
sg75
g847
sg68
(lp863
g61
(g62
g63
NtRp864
(dp865
g66
(dp866
g74
I4
ssg75
g860
sg68
(lp867
S'ISO-8859-1,utf-8;q=0.7,*;q=0.3'
p868
asbasbasbag61
(g77
g63
NtRp869
(dp870
g66
(dp871
sg75
g665
sg68
(lp872
g61
(g82
g63
NtRp873
(dp874
g66
(dp875
g86
g87
ssg75
g869
sg68
(lp876
S'http_accept_encoding'
p877
asbag61
(g82
g63
NtRp878
(dp879
g66
(dp880
g93
g94
ssg75
g869
sg68
(lp881
S':'
asbag61
(g82
g63
NtRp882
(dp883
g66
(dp884
sg75
g869
sg68
(lp885
g61
(g62
g63
NtRp886
(dp887
g66
(dp888
g74
I4
ssg75
g882
sg68
(lp889
S'gzip,deflate,sdch'
p890
asbasbasbag61
(g77
g63
NtRp891
(dp892
g66
(dp893
sg75
g665
sg68
(lp894
g61
(g82
g63
NtRp895
(dp896
g66
(dp897
g86
g87
ssg75
g891
sg68
(lp898
S'http_accept_language'
p899
asbag61
(g82
g63
NtRp900
(dp901
g66
(dp902
g93
g94
ssg75
g891
sg68
(lp903
S':'
asbag61
(g82
g63
NtRp904
(dp905
g66
(dp906
sg75
g891
sg68
(lp907
g61
(g62
g63
NtRp908
(dp909
g66
(dp910
g74
I4
ssg75
g904
sg68
(lp911
S'es-ES,es;q=0.8'
p912
asbasbasbag61
(g77
g63
NtRp913
(dp914
g66
(dp915
sg75
g665
sg68
(lp916
g61
(g82
g63
NtRp917
(dp918
g66
(dp919
g86
g87
ssg75
g913
sg68
(lp920
S'http_connection'
p921
asbag61
(g82
g63
NtRp922
(dp923
g66
(dp924
g93
g94
ssg75
g913
sg68
(lp925
S':'
asbag61
(g82
g63
NtRp926
(dp927
g66
(dp928
sg75
g913
sg68
(lp929
g61
(g62
g63
NtRp930
(dp931
g66
(dp932
g74
I4
ssg75
g926
sg68
(lp933
S'keep-alive'
p934
asbasbasbag61
(g77
g63
NtRp935
(dp936
g66
(dp937
sg75
g665
sg68
(lp938
g61
(g82
g63
NtRp939
(dp940
g66
(dp941
g86
g87
ssg75
g935
sg68
(lp942
S'http_cookie'
p943
asbag61
(g82
g63
NtRp944
(dp945
g66
(dp946
g93
g94
ssg75
g935
sg68
(lp947
S':'
asbag61
(g82
g63
NtRp948
(dp949
g66
(dp950
sg75
g935
sg68
(lp951
g61
(g62
g63
NtRp952
(dp953
g66
(dp954
g74
I4
ssg75
g948
sg68
(lp955
S'session_id_welcome=127.0.0.1-bd8d5808-606f-440d-b15e-45a2ed6c53dc; session_id_admin=127.0.0.1-5b23b637-2b4a-47c8-8a69-a74c05ba1f04'
p956
asbasbasbag61
(g77
g63
NtRp957
(dp958
g66
(dp959
sg75
g665
sg68
(lp960
g61
(g82
g63
NtRp961
(dp962
g66
(dp963
g86
g87
ssg75
g957
sg68
(lp964
S'http_host'
p965
asbag61
(g82
g63
NtRp966
(dp967
g66
(dp968
g93
g94
ssg75
g957
sg68
(lp969
S':'
asbag61
(g82
g63
NtRp970
(dp971
g66
(dp972
sg75
g957
sg68
(lp973
g61
(g62
g63
NtRp974
(dp975
g66
(dp976
g74
I4
ssg75
g970
sg68
(lp977
S'127.0.0.1:8000'
p978
asbasbasbag61
(g77
g63
NtRp979
(dp980
g66
(dp981
sg75
g665
sg68
(lp982
g61
(g82
g63
NtRp983
(dp984
g66
(dp985
g86
g87
ssg75
g979
sg68
(lp986
S'http_referer'
p987
asbag61
(g82
g63
NtRp988
(dp989
g66
(dp990
g93
g94
ssg75
g979
sg68
(lp991
S':'
asbag61
(g82
g63
NtRp992
(dp993
g66
(dp994
sg75
g979
sg68
(lp995
g61
(g62
g63
NtRp996
(dp997
g66
(dp998
g74
I4
ssg75
g992
sg68
(lp999
S'http://127.0.0.1:8000/admin/default/site'
p1000
asbasbasbag61
(g77
g63
NtRp1001
(dp1002
g66
(dp1003
sg75
g665
sg68
(lp1004
g61
(g82
g63
NtRp1005
(dp1006
g66
(dp1007
g86
g87
ssg75
g1001
sg68
(lp1008
S'http_user_agent'
p1009
asbag61
(g82
g63
NtRp1010
(dp1011
g66
(dp1012
g93
g94
ssg75
g1001
sg68
(lp1013
S':'
asbag61
(g82
g63
NtRp1014
(dp1015
g66
(dp1016
sg75
g1001
sg68
(lp1017
g61
(g62
g63
NtRp1018
(dp1019
g66
(dp1020
g74
I4
ssg75
g1014
sg68
(lp1021
S'Mozilla/5.0 (Macintosh; Intel Mac OS X 10_6_6) AppleWebKit/537.11 (KHTML, like Gecko) Chrome/23.0.1271.64 Safari/537.11'
p1022
asbasbasbag61
(g77
g63
NtRp1023
(dp1024
g66
(dp1025
sg75
g665
sg68
(lp1026
g61
(g82
g63
NtRp1027
(dp1028
g66
(dp1029
g86
g87
ssg75
g1023
sg68
(lp1030
S'is_jython'
p1031
asbag61
(g82
g63
NtRp1032
(dp1033
g66
(dp1034
g93
g94
ssg75
g1023
sg68
(lp1035
S':'
asbag61
(g82
g63
NtRp1036
(dp1037
g66
(dp1038
sg75
g1023
sg68
(lp1039
g61
(g62
g63
NtRp1040
(dp1041
g66
(dp1042
g74
I4
ssg75
g1036
sg68
(lp1043
g104
asbasbasbag61
(g77
g63
NtRp1044
(dp1045
g66
(dp1046
sg75
g665
sg68
(lp1047
g61
(g82
g63
NtRp1048
(dp1049
g66
(dp1050
g86
g87
ssg75
g1044
sg68
(lp1051
S'is_pypy'
p1052
asbag61
(g82
g63
NtRp1053
(dp1054
g66
(dp1055
g93
g94
ssg75
g1044
sg68
(lp1056
S':'
asbag61
(g82
g63
NtRp1057
(dp1058
g66
(dp1059
sg75
g1044
sg68
(lp1060
g61
(g62
g63
NtRp1061
(dp1062
g66
(dp1063
g74
I4
ssg75
g1057
sg68
(lp1064
g104
asbasbasbag61
(g77
g63
NtRp1065
(dp1066
g66
(dp1067
sg75
g665
sg68
(lp1068
g61
(g82
g63
NtRp1069
(dp1070
g66
(dp1071
g86
g87
ssg75
g1065
sg68
(lp1072
S'local_hosts'
p1073
asbag61
(g82
g63
NtRp1074
(dp1075
g66
(dp1076
g93
g94
ssg75
g1065
sg68
(lp1077
S':'
asbag61
(g82
g63
NtRp1078
(dp1079
g66
(dp1080
sg75
g1065
sg68
(lp1081
g61
(g62
g63
NtRp1082
(dp1083
g66
(dp1084
g74
I4
ssg75
g1078
sg68
(lp1085
g61
(g70
g63
NtRp1086
(dp1087
g66
(dp1088
g74
I3
ssg75
Nsg68
(lp1089
g61
(g77
g63
NtRp1090
(dp1091
g66
(dp1092
sg75
g1086
sg68
(lp1093
g61
(g82
g63
NtRp1094
(dp1095
g66
(dp1096
sg75
g1090
sg68
(lp1097
g61
(g62
g63
NtRp1098
(dp1099
g66
(dp1100
g74
I3
ssg75
g1094
sg68
(lp1101
S'127.0.0.1'
p1102
asbasbasbag61
(g77
g63
NtRp1103
(dp1104
g66
(dp1105
sg75
g1086
sg68
(lp1106
g61
(g82
g63
NtRp1107
(dp1108
g66
(dp1109
sg75
g1103
sg68
(lp1110
g61
(g62
g63
NtRp1111
(dp1112
g66
(dp1113
g74
I3
ssg75
g1107
sg68
(lp1114
S'::ffff:127.0.0.1'
p1115
asbasbasbag61
(g77
g63
NtRp1116
(dp1117
g66
(dp1118
sg75
g1086
sg68
(lp1119
g61
(g82
g63
NtRp1120
(dp1121
g66
(dp1122
sg75
g1116
sg68
(lp1123
g61
(g62
g63
NtRp1124
(dp1125
g66
(dp1126
g74
I3
ssg75
g1120
sg68
(lp1127
S'MBT.local'
p1128
asbasbasbag61
(g77
g63
NtRp1129
(dp1130
g66
(dp1131
sg75
g1086
sg68
(lp1132
g61
(g82
g63
NtRp1133
(dp1134
g66
(dp1135
sg75
g1129
sg68
(lp1136
g61
(g62
g63
NtRp1137
(dp1138
g66
(dp1139
g74
I3
ssg75
g1133
sg68
(lp1140
S'MBT.local'
p1141
asbasbasbag61
(g77
g63
NtRp1142
(dp1143
g66
(dp1144
sg75
g1086
sg68
(lp1145
g61
(g82
g63
NtRp1146
(dp1147
g66
(dp1148
sg75
g1142
sg68
(lp1149
g61
(g62
g63
NtRp1150
(dp1151
g66
(dp1152
g74
I3
ssg75
g1146
sg68
(lp1153
S'192.168.1.33'
p1154
asbasbasbasbasbasbasbag61
(g77
g63
NtRp1155
(dp1156
g66
(dp1157
sg75
g665
sg68
(lp1158
g61
(g82
g63
NtRp1159
(dp1160
g66
(dp1161
g86
g87
ssg75
g1155
sg68
(lp1162
S'path_info'
p1163
asbag61
(g82
g63
NtRp1164
(dp1165
g66
(dp1166
g93
g94
ssg75
g1155
sg68
(lp1167
S':'
asbag61
(g82
g63
NtRp1168
(dp1169
g66
(dp1170
sg75
g1155
sg68
(lp1171
g61
(g62
g63
NtRp1172
(dp1173
g66
(dp1174
g74
I4
ssg75
g1168
sg68
(lp1175
S'/rosan/default/index'
p1176
asbasbasbag61
(g77
g63
NtRp1177
(dp1178
g66
(dp1179
sg75
g665
sg68
(lp1180
g61
(g82
g63
NtRp1181
(dp1182
g66
(dp1183
g86
g87
ssg75
g1177
sg68
(lp1184
S'query_string'
p1185
asbag61
(g82
g63
NtRp1186
(dp1187
g66
(dp1188
g93
g94
ssg75
g1177
sg68
(lp1189
S':'
asbag61
(g82
g63
NtRp1190
(dp1191
g66
(dp1192
sg75
g1177
sg68
(lp1193
g61
(g62
g63
NtRp1194
(dp1195
g66
(dp1196
g74
I4
ssg75
g1190
sg68
(lp1197
S''
asbasbasbag61
(g77
g63
NtRp1198
(dp1199
g66
(dp1200
sg75
g665
sg68
(lp1201
g61
(g82
g63
NtRp1202
(dp1203
g66
(dp1204
g86
g87
ssg75
g1198
sg68
(lp1205
S'remote_addr'
p1206
asbag61
(g82
g63
NtRp1207
(dp1208
g66
(dp1209
g93
g94
ssg75
g1198
sg68
(lp1210
S':'
asbag61
(g82
g63
NtRp1211
(dp1212
g66
(dp1213
sg75
g1198
sg68
(lp1214
g61
(g62
g63
NtRp1215
(dp1216
g66
(dp1217
g74
I4
ssg75
g1211
sg68
(lp1218
g216
asbasbasbag61
(g77
g63
NtRp1219
(dp1220
g66
(dp1221
sg75
g665
sg68
(lp1222
g61
(g82
g63
NtRp1223
(dp1224
g66
(dp1225
g86
g87
ssg75
g1219
sg68
(lp1226
S'remote_port'
p1227
asbag61
(g82
g63
NtRp1228
(dp1229
g66
(dp1230
g93
g94
ssg75
g1219
sg68
(lp1231
S':'
asbag61
(g82
g63
NtRp1232
(dp1233
g66
(dp1234
sg75
g1219
sg68
(lp1235
g61
(g62
g63
NtRp1236
(dp1237
g66
(dp1238
g74
I4
ssg75
g1232
sg68
(lp1239
S'49805'
p1240
asbasbasbag61
(g77
g63
NtRp1241
(dp1242
g66
(dp1243
sg75
g665
sg68
(lp1244
g61
(g82
g63
NtRp1245
(dp1246
g66
(dp1247
g86
g87
ssg75
g1241
sg68
(lp1248
S'request_method'
p1249
asbag61
(g82
g63
NtRp1250
(dp1251
g66
(dp1252
g93
g94
ssg75
g1241
sg68
(lp1253
S':'
asbag61
(g82
g63
NtRp1254
(dp1255
g66
(dp1256
sg75
g1241
sg68
(lp1257
g61
(g62
g63
NtRp1258
(dp1259
g66
(dp1260
g74
I4
ssg75
g1254
sg68
(lp1261
S'GET'
p1262
asbasbasbag61
(g77
g63
NtRp1263
(dp1264
g66
(dp1265
sg75
g665
sg68
(lp1266
g61
(g82
g63
NtRp1267
(dp1268
g66
(dp1269
g86
g87
ssg75
g1263
sg68
(lp1270
S'request_uri'
p1271
asbag61
(g82
g63
NtRp1272
(dp1273
g66
(dp1274
g93
g94
ssg75
g1263
sg68
(lp1275
S':'
asbag61
(g82
g63
NtRp1276
(dp1277
g66
(dp1278
sg75
g1263
sg68
(lp1279
g61
(g62
g63
NtRp1280
(dp1281
g66
(dp1282
g74
I4
ssg75
g1276
sg68
(lp1283
g1176
asbasbasbag61
(g77
g63
NtRp1284
(dp1285
g66
(dp1286
sg75
g665
sg68
(lp1287
g61
(g82
g63
NtRp1288
(dp1289
g66
(dp1290
g86
g87
ssg75
g1284
sg68
(lp1291
S'script_name'
p1292
asbag61
(g82
g63
NtRp1293
(dp1294
g66
(dp1295
g93
g94
ssg75
g1284
sg68
(lp1296
S':'
asbag61
(g82
g63
NtRp1297
(dp1298
g66
(dp1299
sg75
g1284
sg68
(lp1300
g61
(g62
g63
NtRp1301
(dp1302
g66
(dp1303
g74
I4
ssg75
g1297
sg68
(lp1304
S''
asbasbasbag61
(g77
g63
NtRp1305
(dp1306
g66
(dp1307
sg75
g665
sg68
(lp1308
g61
(g82
g63
NtRp1309
(dp1310
g66
(dp1311
g86
g87
ssg75
g1305
sg68
(lp1312
S'server_name'
p1313
asbag61
(g82
g63
NtRp1314
(dp1315
g66
(dp1316
g93
g94
ssg75
g1305
sg68
(lp1317
S':'
asbag61
(g82
g63
NtRp1318
(dp1319
g66
(dp1320
sg75
g1305
sg68
(lp1321
g61
(g62
g63
NtRp1322
(dp1323
g66
(dp1324
g74
I4
ssg75
g1318
sg68
(lp1325
g1141
asbasbasbag61
(g77
g63
NtRp1326
(dp1327
g66
(dp1328
sg75
g665
sg68
(lp1329
g61
(g82
g63
NtRp1330
(dp1331
g66
(dp1332
g86
g87
ssg75
g1326
sg68
(lp1333
S'server_port'
p1334
asbag61
(g82
g63
NtRp1335
(dp1336
g66
(dp1337
g93
g94
ssg75
g1326
sg68
(lp1338
S':'
asbag61
(g82
g63
NtRp1339
(dp1340
g66
(dp1341
sg75
g1326
sg68
(lp1342
g61
(g62
g63
NtRp1343
(dp1344
g66
(dp1345
g74
I4
ssg75
g1339
sg68
(lp1346
S'8000'
p1347
asbasbasbag61
(g77
g63
NtRp1348
(dp1349
g66
(dp1350
sg75
g665
sg68
(lp1351
g61
(g82
g63
NtRp1352
(dp1353
g66
(dp1354
g86
g87
ssg75
g1348
sg68
(lp1355
S'server_protocol'
p1356
asbag61
(g82
g63
NtRp1357
(dp1358
g66
(dp1359
g93
g94
ssg75
g1348
sg68
(lp1360
S':'
asbag61
(g82
g63
NtRp1361
(dp1362
g66
(dp1363
sg75
g1348
sg68
(lp1364
g61
(g62
g63
NtRp1365
(dp1366
g66
(dp1367
g74
I4
ssg75
g1361
sg68
(lp1368
S'HTTP/1.1'
p1369
asbasbasbag61
(g77
g63
NtRp1370
(dp1371
g66
(dp1372
sg75
g665
sg68
(lp1373
g61
(g82
g63
NtRp1374
(dp1375
g66
(dp1376
g86
g87
ssg75
g1370
sg68
(lp1377
S'server_software'
p1378
asbag61
(g82
g63
NtRp1379
(dp1380
g66
(dp1381
g93
g94
ssg75
g1370
sg68
(lp1382
S':'
asbag61
(g82
g63
NtRp1383
(dp1384
g66
(dp1385
sg75
g1370
sg68
(lp1386
g61
(g62
g63
NtRp1387
(dp1388
g66
(dp1389
g74
I4
ssg75
g1383
sg68
(lp1390
S'Rocket 1.2.5'
p1391
asbasbasbag61
(g77
g63
NtRp1392
(dp1393
g66
(dp1394
sg75
g665
sg68
(lp1395
g61
(g82
g63
NtRp1396
(dp1397
g66
(dp1398
g86
g87
ssg75
g1392
sg68
(lp1399
S'web2py_path'
p1400
asbag61
(g82
g63
NtRp1401
(dp1402
g66
(dp1403
g93
g94
ssg75
g1392
sg68
(lp1404
S':'
asbag61
(g82
g63
NtRp1405
(dp1406
g66
(dp1407
sg75
g1392
sg68
(lp1408
g61
(g62
g63
NtRp1409
(dp1410
g66
(dp1411
g74
I4
ssg75
g1405
sg68
(lp1412
g712
asbasbasbag61
(g77
g63
NtRp1413
(dp1414
g66
(dp1415
sg75
g665
sg68
(lp1416
g61
(g82
g63
NtRp1417
(dp1418
g66
(dp1419
g86
g87
ssg75
g1413
sg68
(lp1420
S'web2py_version'
p1421
asbag61
(g82
g63
NtRp1422
(dp1423
g66
(dp1424
g93
g94
ssg75
g1413
sg68
(lp1425
S':'
asbag61
(g82
g63
NtRp1426
(dp1427
g66
(dp1428
sg75
g1413
sg68
(lp1429
g61
(g62
g63
NtRp1430
(dp1431
g66
(dp1432
g74
I4
ssg75
g1426
sg68
(lp1433
g61
(g70
g63
NtRp1434
(dp1435
g66
(dp1436
g74
I3
ssg75
Nsg68
(lp1437
g61
(g77
g63
NtRp1438
(dp1439
g66
(dp1440
sg75
g1434
sg68
(lp1441
g61
(g82
g63
NtRp1442
(dp1443
g66
(dp1444
sg75
g1438
sg68
(lp1445
g61
(g62
g63
NtRp1446
(dp1447
g66
(dp1448
g74
I3
ssg75
g1442
sg68
(lp1449
S'2'
asbasbasbag61
(g77
g63
NtRp1450
(dp1451
g66
(dp1452
sg75
g1434
sg68
(lp1453
g61
(g82
g63
NtRp1454
(dp1455
g66
(dp1456
sg75
g1450
sg68
(lp1457
g61
(g62
g63
NtRp1458
(dp1459
g66
(dp1460
g74
I3
ssg75
g1454
sg68
(lp1461
S'2'
asbasbasbag61
(g77
g63
NtRp1462
(dp1463
g66
(dp1464
sg75
g1434
sg68
(lp1465
g61
(g82
g63
NtRp1466
(dp1467
g66
(dp1468
sg75
g1462
sg68
(lp1469
g61
(g62
g63
NtRp1470
(dp1471
g66
(dp1472
g74
I3
ssg75
g1466
sg68
(lp1473
S'1'
asbasbasbag61
(g77
g63
NtRp1474
(dp1475
g66
(dp1476
sg75
g1434
sg68
(lp1477
g61
(g82
g63
NtRp1478
(dp1479
g66
(dp1480
sg75
g1474
sg68
(lp1481
g61
(g62
g63
NtRp1482
(dp1483
g66
(dp1484
g74
I3
ssg75
g1478
sg68
(lp1485
S'datetime.datetime(2012, 10, 21, 16, 57, 4)'
p1486
asbasbasbag61
(g77
g63
NtRp1487
(dp1488
g66
(dp1489
sg75
g1434
sg68
(lp1490
g61
(g82
g63
NtRp1491
(dp1492
g66
(dp1493
sg75
g1487
sg68
(lp1494
g61
(g62
g63
NtRp1495
(dp1496
g66
(dp1497
g74
I3
ssg75
g1491
sg68
(lp1498
S'stable'
p1499
asbasbasbasbasbasbasbag61
(g77
g63
NtRp1500
(dp1501
g66
(dp1502
sg75
g665
sg68
(lp1503
g61
(g82
g63
NtRp1504
(dp1505
g66
(dp1506
g86
g87
ssg75
g1500
sg68
(lp1507
S'wsgi_errors'
p1508
asbag61
(g82
g63
NtRp1509
(dp1510
g66
(dp1511
g93
g94
ssg75
g1500
sg68
(lp1512
S':'
asbag61
(g82
g63
NtRp1513
(dp1514
g66
(dp1515
sg75
g1500
sg68
(lp1516
g61
(g62
g63
NtRp1517
(dp1518
g66
(dp1519
g74
I4
ssg75
g1513
sg68
(lp1520
S"<open file '<stderr>', mode 'w' at 0x25a0d0>"
p1521
asbasbasbag61
(g77
g63
NtRp1522
(dp1523
g66
(dp1524
sg75
g665
sg68
(lp1525
g61
(g82
g63
NtRp1526
(dp1527
g66
(dp1528
g86
g87
ssg75
g1522
sg68
(lp1529
S'wsgi_file_wrapper'
p1530
asbag61
(g82
g63
NtRp1531
(dp1532
g66
(dp1533
g93
g94
ssg75
g1522
sg68
(lp1534
S':'
asbag61
(g82
g63
NtRp1535
(dp1536
g66
(dp1537
sg75
g1522
sg68
(lp1538
g61
(g62
g63
NtRp1539
(dp1540
g66
(dp1541
g74
I4
ssg75
g1535
sg68
(lp1542
S'<class wsgiref.util.FileWrapper at 0x1968d50>'
p1543
asbasbasbag61
(g77
g63
NtRp1544
(dp1545
g66
(dp1546
sg75
g665
sg68
(lp1547
g61
(g82
g63
NtRp1548
(dp1549
g66
(dp1550
g86
g87
ssg75
g1544
sg68
(lp1551
S'wsgi_input'
p1552
asbag61
(g82
g63
NtRp1553
(dp1554
g66
(dp1555
g93
g94
ssg75
g1544
sg68
(lp1556
S':'
asbag61
(g82
g63
NtRp1557
(dp1558
g66
(dp1559
sg75
g1544
sg68
(lp1560
g61
(g62
g63
NtRp1561
(dp1562
g66
(dp1563
g74
I4
ssg75
g1557
sg68
(lp1564
S'<socket._fileobject object at 0x18107e30>'
p1565
asbasbasbag61
(g77
g63
NtRp1566
(dp1567
g66
(dp1568
sg75
g665
sg68
(lp1569
g61
(g82
g63
NtRp1570
(dp1571
g66
(dp1572
g86
g87
ssg75
g1566
sg68
(lp1573
S'wsgi_multiprocess'
p1574
asbag61
(g82
g63
NtRp1575
(dp1576
g66
(dp1577
g93
g94
ssg75
g1566
sg68
(lp1578
S':'
asbag61
(g82
g63
NtRp1579
(dp1580
g66
(dp1581
sg75
g1566
sg68
(lp1582
g61
(g62
g63
NtRp1583
(dp1584
g66
(dp1585
g74
I4
ssg75
g1579
sg68
(lp1586
g104
asbasbasbag61
(g77
g63
NtRp1587
(dp1588
g66
(dp1589
sg75
g665
sg68
(lp1590
g61
(g82
g63
NtRp1591
(dp1592
g66
(dp1593
g86
g87
ssg75
g1587
sg68
(lp1594
S'wsgi_multithread'
p1595
asbag61
(g82
g63
NtRp1596
(dp1597
g66
(dp1598
g93
g94
ssg75
g1587
sg68
(lp1599
S':'
asbag61
(g82
g63
NtRp1600
(dp1601
g66
(dp1602
sg75
g1587
sg68
(lp1603
g61
(g62
g63
NtRp1604
(dp1605
g66
(dp1606
g74
I4
ssg75
g1600
sg68
(lp1607
S'True'
p1608
asbasbasbag61
(g77
g63
NtRp1609
(dp1610
g66
(dp1611
sg75
g665
sg68
(lp1612
g61
(g82
g63
NtRp1613
(dp1614
g66
(dp1615
g86
g87
ssg75
g1609
sg68
(lp1616
S'wsgi_run_once'
p1617
asbag61
(g82
g63
NtRp1618
(dp1619
g66
(dp1620
g93
g94
ssg75
g1609
sg68
(lp1621
S':'
asbag61
(g82
g63
NtRp1622
(dp1623
g66
(dp1624
sg75
g1609
sg68
(lp1625
g61
(g62
g63
NtRp1626
(dp1627
g66
(dp1628
g74
I4
ssg75
g1622
sg68
(lp1629
g104
asbasbasbag61
(g77
g63
NtRp1630
(dp1631
g66
(dp1632
sg75
g665
sg68
(lp1633
g61
(g82
g63
NtRp1634
(dp1635
g66
(dp1636
g86
g87
ssg75
g1630
sg68
(lp1637
S'wsgi_url_scheme'
p1638
asbag61
(g82
g63
NtRp1639
(dp1640
g66
(dp1641
g93
g94
ssg75
g1630
sg68
(lp1642
S':'
asbag61
(g82
g63
NtRp1643
(dp1644
g66
(dp1645
sg75
g1630
sg68
(lp1646
g61
(g62
g63
NtRp1647
(dp1648
g66
(dp1649
g74
I4
ssg75
g1643
sg68
(lp1650
S'http'
p1651
asbasbasbag61
(g77
g63
NtRp1652
(dp1653
g66
(dp1654
sg75
g665
sg68
(lp1655
g61
(g82
g63
NtRp1656
(dp1657
g66
(dp1658
g86
g87
ssg75
g1652
sg68
(lp1659
S'wsgi_version'
p1660
asbag61
(g82
g63
NtRp1661
(dp1662
g66
(dp1663
g93
g94
ssg75
g1652
sg68
(lp1664
S':'
asbag61
(g82
g63
NtRp1665
(dp1666
g66
(dp1667
sg75
g1652
sg68
(lp1668
g61
(g62
g63
NtRp1669
(dp1670
g66
(dp1671
g74
I4
ssg75
g1665
sg68
(lp1672
g61
(g70
g63
NtRp1673
(dp1674
g66
(dp1675
g74
I3
ssg75
Nsg68
(lp1676
g61
(g77
g63
NtRp1677
(dp1678
g66
(dp1679
sg75
g1673
sg68
(lp1680
g61
(g82
g63
NtRp1681
(dp1682
g66
(dp1683
sg75
g1677
sg68
(lp1684
g61
(g62
g63
NtRp1685
(dp1686
g66
(dp1687
g74
I3
ssg75
g1681
sg68
(lp1688
S'1'
asbasbasbag61
(g77
g63
NtRp1689
(dp1690
g66
(dp1691
sg75
g1673
sg68
(lp1692
g61
(g82
g63
NtRp1693
(dp1694
g66
(dp1695
sg75
g1689
sg68
(lp1696
g61
(g62
g63
NtRp1697
(dp1698
g66
(dp1699
g74
I3
ssg75
g1693
sg68
(lp1700
S'0'
asbasbasbasbasbasbasbasbasbasbasbag61
(g77
g63
NtRp1701
(dp1702
g66
(dp1703
sg75
g71
sg68
(lp1704
g61
(g82
g63
NtRp1705
(dp1706
g66
(dp1707
g86
g87
ssg75
g1701
sg68
(lp1708
S'extension'
p1709
asbag61
(g82
g63
NtRp1710
(dp1711
g66
(dp1712
g93
g94
ssg75
g1701
sg68
(lp1713
S':'
asbag61
(g82
g63
NtRp1714
(dp1715
g66
(dp1716
sg75
g1701
sg68
(lp1717
g61
(g62
g63
NtRp1718
(dp1719
g66
(dp1720
g74
I5
ssg75
g1714
sg68
(lp1721
S'html'
p1722
asbasbasbag61
(g77
g63
NtRp1723
(dp1724
g66
(dp1725
sg75
g71
sg68
(lp1726
g61
(g82
g63
NtRp1727
(dp1728
g66
(dp1729
g86
g87
ssg75
g1723
sg68
(lp1730
S'folder'
p1731
asbag61
(g82
g63
NtRp1732
(dp1733
g66
(dp1734
g93
g94
ssg75
g1723
sg68
(lp1735
S':'
asbag61
(g82
g63
NtRp1736
(dp1737
g66
(dp1738
sg75
g1723
sg68
(lp1739
g61
(g62
g63
NtRp1740
(dp1741
g66
(dp1742
g74
I5
ssg75
g1736
sg68
(lp1743
S'/Users/Truki/web2py/applications/rosan/'
p1744
asbasbasbag61
(g77
g63
NtRp1745
(dp1746
g66
(dp1747
sg75
g71
sg68
(lp1748
g61
(g82
g63
NtRp1749
(dp1750
g66
(dp1751
g86
g87
ssg75
g1745
sg68
(lp1752
S'function'
p1753
asbag61
(g82
g63
NtRp1754
(dp1755
g66
(dp1756
g93
g94
ssg75
g1745
sg68
(lp1757
S':'
asbag61
(g82
g63
NtRp1758
(dp1759
g66
(dp1760
sg75
g1745
sg68
(lp1761
g61
(g62
g63
NtRp1762
(dp1763
g66
(dp1764
g74
I5
ssg75
g1758
sg68
(lp1765
S'index'
p1766
asbasbasbag61
(g77
g63
NtRp1767
(dp1768
g66
(dp1769
sg75
g71
sg68
(lp1770
g61
(g82
g63
NtRp1771
(dp1772
g66
(dp1773
g86
g87
ssg75
g1767
sg68
(lp1774
S'get_vars'
p1775
asbag61
(g82
g63
NtRp1776
(dp1777
g66
(dp1778
g93
g94
ssg75
g1767
sg68
(lp1779
S':'
asbag61
(g82
g63
NtRp1780
(dp1781
g66
(dp1782
sg75
g1767
sg68
(lp1783
g61
(g62
g63
NtRp1784
(dp1785
g66
(dp1786
g74
I5
ssg75
g1780
sg68
(lp1787
g61
(g70
g63
NtRp1788
(dp1789
g66
(dp1790
g74
I4
ssg75
Nsg68
(lp1791
sbasbasbasbag61
(g77
g63
NtRp1792
(dp1793
g66
(dp1794
sg75
g71
sg68
(lp1795
g61
(g82
g63
NtRp1796
(dp1797
g66
(dp1798
g86
g87
ssg75
g1792
sg68
(lp1799
S'global_settings'
p1800
asbag61
(g82
g63
NtRp1801
(dp1802
g66
(dp1803
g93
g94
ssg75
g1792
sg68
(lp1804
S':'
asbag61
(g82
g63
NtRp1805
(dp1806
g66
(dp1807
sg75
g1792
sg68
(lp1808
g61
(g62
g63
NtRp1809
(dp1810
g66
(dp1811
g74
I5
ssg75
g1805
sg68
(lp1812
g61
(g70
g63
NtRp1813
(dp1814
g66
(dp1815
g74
I4
ssg75
Nsg68
(lp1816
g61
(g77
g63
NtRp1817
(dp1818
g66
(dp1819
sg75
g1813
sg68
(lp1820
g61
(g82
g63
NtRp1821
(dp1822
g66
(dp1823
g86
g87
ssg75
g1817
sg68
(lp1824
g677
asbag61
(g82
g63
NtRp1825
(dp1826
g66
(dp1827
g93
g94
ssg75
g1817
sg68
(lp1828
S':'
asbag61
(g82
g63
NtRp1829
(dp1830
g66
(dp1831
sg75
g1817
sg68
(lp1832
g61
(g62
g63
NtRp1833
(dp1834
g66
(dp1835
g74
I4
ssg75
g1829
sg68
(lp1836
S"set(['/Users/Truki/web2py/applications/welcome/', '/Users/Truki/web2py/applications/admin/', '/Users/Truki/web2py/applications/rosan/'])"
p1837
asbasbasbag61
(g77
g63
NtRp1838
(dp1839
g66
(dp1840
sg75
g1813
sg68
(lp1841
g61
(g82
g63
NtRp1842
(dp1843
g66
(dp1844
g86
g87
ssg75
g1838
sg68
(lp1845
g699
asbag61
(g82
g63
NtRp1846
(dp1847
g66
(dp1848
g93
g94
ssg75
g1838
sg68
(lp1849
S':'
asbag61
(g82
g63
NtRp1850
(dp1851
g66
(dp1852
sg75
g1838
sg68
(lp1853
g61
(g62
g63
NtRp1854
(dp1855
g66
(dp1856
g74
I4
ssg75
g1850
sg68
(lp1857
g712
asbasbasbag61
(g77
g63
NtRp1858
(dp1859
g66
(dp1860
sg75
g1813
sg68
(lp1861
g61
(g82
g63
NtRp1862
(dp1863
g66
(dp1864
g86
g87
ssg75
g1858
sg68
(lp1865
g721
asbag61
(g82
g63
NtRp1866
(dp1867
g66
(dp1868
g93
g94
ssg75
g1858
sg68
(lp1869
S':'
asbag61
(g82
g63
NtRp1870
(dp1871
g66
(dp1872
sg75
g1858
sg68
(lp1873
g61
(g62
g63
NtRp1874
(dp1875
g66
(dp1876
g74
I4
ssg75
g1870
sg68
(lp1877
g61
(g70
g63
NtRp1878
(dp1879
g66
(dp1880
g74
I3
ssg75
Nsg68
(lp1881
sbasbasbasbag61
(g77
g63
NtRp1882
(dp1883
g66
(dp1884
sg75
g1813
sg68
(lp1885
g61
(g82
g63
NtRp1886
(dp1887
g66
(dp1888
g86
g87
ssg75
g1882
sg68
(lp1889
g746
asbag61
(g82
g63
NtRp1890
(dp1891
g66
(dp1892
g93
g94
ssg75
g1882
sg68
(lp1893
S':'
asbag61
(g82
g63
NtRp1894
(dp1895
g66
(dp1896
sg75
g1882
sg68
(lp1897
g61
(g62
g63
NtRp1898
(dp1899
g66
(dp1900
g74
I4
ssg75
g1894
sg68
(lp1901
S"<Values at 0x19b2418: {'verbose': False, 'ip': '127.0.0.1', 'with_scheduler': False, 'ips': ['192.168.1.33'], 'shutdown_timeout': 5, 'taskbar': False, 'port': 8000, 'maxthreads': None, 'softcron': False, 'server_name': 'MBT.local', 'bpython': False, 'nogui': False, 'pid_filename': 'httpserver.pid', 'extcron': False, 'runcron': False, 'run_system_tests': False, 'test': None, 'folder': '/Users/Truki/web2py', 'config': '', 'import_models': False, 'winservice': '', 'shell': None, 'run': '', 'log_filename': 'httpserver.log', 'debuglevel': 30, 'args': [''], 'socket_timeout': 5, 'ssl_ca_certificate': None, 'scheduler': None, 'profiler_filename': None, 'ssl_private_key': '', 'scheduler_groups': None, 'password': '<ask>', 'request_queue_size': 5, 'ssl_certificate': '', 'cronjob': False, 'numthreads': None, 'quiet': False, 'interfaces': None, 'minthreads': None, 'timeout': 10, 'plain': False, 'nobanner': False}>"
p1902
asbasbasbag61
(g77
g63
NtRp1903
(dp1904
g66
(dp1905
sg75
g1813
sg68
(lp1906
g61
(g82
g63
NtRp1907
(dp1908
g66
(dp1909
g86
g87
ssg75
g1903
sg68
(lp1910
g768
asbag61
(g82
g63
NtRp1911
(dp1912
g66
(dp1913
g93
g94
ssg75
g1903
sg68
(lp1914
S':'
asbag61
(g82
g63
NtRp1915
(dp1916
g66
(dp1917
sg75
g1903
sg68
(lp1918
g61
(g62
g63
NtRp1919
(dp1920
g66
(dp1921
g74
I4
ssg75
g1915
sg68
(lp1922
S'set([])'
p1923
asbasbasbag61
(g77
g63
NtRp1924
(dp1925
g66
(dp1926
sg75
g1813
sg68
(lp1927
g61
(g82
g63
NtRp1928
(dp1929
g66
(dp1930
g86
g87
ssg75
g1924
sg68
(lp1931
g790
asbag61
(g82
g63
NtRp1932
(dp1933
g66
(dp1934
g93
g94
ssg75
g1924
sg68
(lp1935
S':'
asbag61
(g82
g63
NtRp1936
(dp1937
g66
(dp1938
sg75
g1924
sg68
(lp1939
g61
(g62
g63
NtRp1940
(dp1941
g66
(dp1942
g74
I4
ssg75
g1936
sg68
(lp1943
g104
asbasbasbag61
(g77
g63
NtRp1944
(dp1945
g66
(dp1946
sg75
g1813
sg68
(lp1947
g61
(g82
g63
NtRp1948
(dp1949
g66
(dp1950
g86
g87
ssg75
g1944
sg68
(lp1951
g811
asbag61
(g82
g63
NtRp1952
(dp1953
g66
(dp1954
g93
g94
ssg75
g1944
sg68
(lp1955
S':'
asbag61
(g82
g63
NtRp1956
(dp1957
g66
(dp1958
sg75
g1944
sg68
(lp1959
g61
(g62
g63
NtRp1960
(dp1961
g66
(dp1962
g74
I4
ssg75
g1956
sg68
(lp1963
g824
asbasbasbag61
(g77
g63
NtRp1964
(dp1965
g66
(dp1966
sg75
g1813
sg68
(lp1967
g61
(g82
g63
NtRp1968
(dp1969
g66
(dp1970
g86
g87
ssg75
g1964
sg68
(lp1971
g1031
asbag61
(g82
g63
NtRp1972
(dp1973
g66
(dp1974
g93
g94
ssg75
g1964
sg68
(lp1975
S':'
asbag61
(g82
g63
NtRp1976
(dp1977
g66
(dp1978
sg75
g1964
sg68
(lp1979
g61
(g62
g63
NtRp1980
(dp1981
g66
(dp1982
g74
I4
ssg75
g1976
sg68
(lp1983
g104
asbasbasbag61
(g77
g63
NtRp1984
(dp1985
g66
(dp1986
sg75
g1813
sg68
(lp1987
g61
(g82
g63
NtRp1988
(dp1989
g66
(dp1990
g86
g87
ssg75
g1984
sg68
(lp1991
g1052
asbag61
(g82
g63
NtRp1992
(dp1993
g66
(dp1994
g93
g94
ssg75
g1984
sg68
(lp1995
S':'
asbag61
(g82
g63
NtRp1996
(dp1997
g66
(dp1998
sg75
g1984
sg68
(lp1999
g61
(g62
g63
NtRp2000
(dp2001
g66
(dp2002
g74
I4
ssg75
g1996
sg68
(lp2003
g104
asbasbasbag61
(g77
g63
NtRp2004
(dp2005
g66
(dp2006
sg75
g1813
sg68
(lp2007
g61
(g82
g63
NtRp2008
(dp2009
g66
(dp2010
g86
g87
ssg75
g2004
sg68
(lp2011
g1073
asbag61
(g82
g63
NtRp2012
(dp2013
g66
(dp2014
g93
g94
ssg75
g2004
sg68
(lp2015
S':'
asbag61
(g82
g63
NtRp2016
(dp2017
g66
(dp2018
sg75
g2004
sg68
(lp2019
g61
(g62
g63
NtRp2020
(dp2021
g66
(dp2022
g74
I4
ssg75
g2016
sg68
(lp2023
g61
(g70
g63
NtRp2024
(dp2025
g66
(dp2026
g74
I3
ssg75
Nsg68
(lp2027
g61
(g77
g63
NtRp2028
(dp2029
g66
(dp2030
sg75
g2024
sg68
(lp2031
g61
(g82
g63
NtRp2032
(dp2033
g66
(dp2034
sg75
g2028
sg68
(lp2035
g61
(g62
g63
NtRp2036
(dp2037
g66
(dp2038
g74
I3
ssg75
g2032
sg68
(lp2039
g1102
asbasbasbag61
(g77
g63
NtRp2040
(dp2041
g66
(dp2042
sg75
g2024
sg68
(lp2043
g61
(g82
g63
NtRp2044
(dp2045
g66
(dp2046
sg75
g2040
sg68
(lp2047
g61
(g62
g63
NtRp2048
(dp2049
g66
(dp2050
g74
I3
ssg75
g2044
sg68
(lp2051
g1115
asbasbasbag61
(g77
g63
NtRp2052
(dp2053
g66
(dp2054
sg75
g2024
sg68
(lp2055
g61
(g82
g63
NtRp2056
(dp2057
g66
(dp2058
sg75
g2052
sg68
(lp2059
g61
(g62
g63
NtRp2060
(dp2061
g66
(dp2062
g74
I3
ssg75
g2056
sg68
(lp2063
g1128
asbasbasbag61
(g77
g63
NtRp2064
(dp2065
g66
(dp2066
sg75
g2024
sg68
(lp2067
g61
(g82
g63
NtRp2068
(dp2069
g66
(dp2070
sg75
g2064
sg68
(lp2071
g61
(g62
g63
NtRp2072
(dp2073
g66
(dp2074
g74
I3
ssg75
g2068
sg68
(lp2075
g1141
asbasbasbag61
(g77
g63
NtRp2076
(dp2077
g66
(dp2078
sg75
g2024
sg68
(lp2079
g61
(g82
g63
NtRp2080
(dp2081
g66
(dp2082
sg75
g2076
sg68
(lp2083
g61
(g62
g63
NtRp2084
(dp2085
g66
(dp2086
g74
I3
ssg75
g2080
sg68
(lp2087
g1154
asbasbasbasbasbasbasbag61
(g77
g63
NtRp2088
(dp2089
g66
(dp2090
sg75
g1813
sg68
(lp2091
g61
(g82
g63
NtRp2092
(dp2093
g66
(dp2094
g86
g87
ssg75
g2088
sg68
(lp2095
g1421
asbag61
(g82
g63
NtRp2096
(dp2097
g66
(dp2098
g93
g94
ssg75
g2088
sg68
(lp2099
S':'
asbag61
(g82
g63
NtRp2100
(dp2101
g66
(dp2102
sg75
g2088
sg68
(lp2103
g61
(g62
g63
NtRp2104
(dp2105
g66
(dp2106
g74
I4
ssg75
g2100
sg68
(lp2107
g61
(g70
g63
NtRp2108
(dp2109
g66
(dp2110
g74
I3
ssg75
Nsg68
(lp2111
g61
(g77
g63
NtRp2112
(dp2113
g66
(dp2114
sg75
g2108
sg68
(lp2115
g61
(g82
g63
NtRp2116
(dp2117
g66
(dp2118
sg75
g2112
sg68
(lp2119
g61
(g62
g63
NtRp2120
(dp2121
g66
(dp2122
g74
I3
ssg75
g2116
sg68
(lp2123
S'2'
asbasbasbag61
(g77
g63
NtRp2124
(dp2125
g66
(dp2126
sg75
g2108
sg68
(lp2127
g61
(g82
g63
NtRp2128
(dp2129
g66
(dp2130
sg75
g2124
sg68
(lp2131
g61
(g62
g63
NtRp2132
(dp2133
g66
(dp2134
g74
I3
ssg75
g2128
sg68
(lp2135
S'2'
asbasbasbag61
(g77
g63
NtRp2136
(dp2137
g66
(dp2138
sg75
g2108
sg68
(lp2139
g61
(g82
g63
NtRp2140
(dp2141
g66
(dp2142
sg75
g2136
sg68
(lp2143
g61
(g62
g63
NtRp2144
(dp2145
g66
(dp2146
g74
I3
ssg75
g2140
sg68
(lp2147
S'1'
asbasbasbag61
(g77
g63
NtRp2148
(dp2149
g66
(dp2150
sg75
g2108
sg68
(lp2151
g61
(g82
g63
NtRp2152
(dp2153
g66
(dp2154
sg75
g2148
sg68
(lp2155
g61
(g62
g63
NtRp2156
(dp2157
g66
(dp2158
g74
I3
ssg75
g2152
sg68
(lp2159
S'datetime.datetime(2012, 10, 21, 16, 57, 4)'
p2160
asbasbasbag61
(g77
g63
NtRp2161
(dp2162
g66
(dp2163
sg75
g2108
sg68
(lp2164
g61
(g82
g63
NtRp2165
(dp2166
g66
(dp2167
sg75
g2161
sg68
(lp2168
g61
(g62
g63
NtRp2169
(dp2170
g66
(dp2171
g74
I3
ssg75
g2165
sg68
(lp2172
g1499
asbasbasbasbasbasbasbasbasbasbasbag61
(g77
g63
NtRp2173
(dp2174
g66
(dp2175
sg75
g71
sg68
(lp2176
g61
(g82
g63
NtRp2177
(dp2178
g66
(dp2179
g86
g87
ssg75
g2173
sg68
(lp2180
S'is_https'
p2181
asbag61
(g82
g63
NtRp2182
(dp2183
g66
(dp2184
g93
g94
ssg75
g2173
sg68
(lp2185
S':'
asbag61
(g82
g63
NtRp2186
(dp2187
g66
(dp2188
sg75
g2173
sg68
(lp2189
g61
(g62
g63
NtRp2190
(dp2191
g66
(dp2192
g74
I5
ssg75
g2186
sg68
(lp2193
g104
asbasbasbag61
(g77
g63
NtRp2194
(dp2195
g66
(dp2196
sg75
g71
sg68
(lp2197
g61
(g82
g63
NtRp2198
(dp2199
g66
(dp2200
g86
g87
ssg75
g2194
sg68
(lp2201
S'is_local'
p2202
asbag61
(g82
g63
NtRp2203
(dp2204
g66
(dp2205
g93
g94
ssg75
g2194
sg68
(lp2206
S':'
asbag61
(g82
g63
NtRp2207
(dp2208
g66
(dp2209
sg75
g2194
sg68
(lp2210
g61
(g62
g63
NtRp2211
(dp2212
g66
(dp2213
g74
I5
ssg75
g2207
sg68
(lp2214
g1608
asbasbasbag61
(g77
g63
NtRp2215
(dp2216
g66
(dp2217
sg75
g71
sg68
(lp2218
g61
(g82
g63
NtRp2219
(dp2220
g66
(dp2221
g86
g87
ssg75
g2215
sg68
(lp2222
S'is_restful'
p2223
asbag61
(g82
g63
NtRp2224
(dp2225
g66
(dp2226
g93
g94
ssg75
g2215
sg68
(lp2227
S':'
asbag61
(g82
g63
NtRp2228
(dp2229
g66
(dp2230
sg75
g2215
sg68
(lp2231
g61
(g62
g63
NtRp2232
(dp2233
g66
(dp2234
g74
I5
ssg75
g2228
sg68
(lp2235
g104
asbasbasbag61
(g77
g63
NtRp2236
(dp2237
g66
(dp2238
sg75
g71
sg68
(lp2239
g61
(g82
g63
NtRp2240
(dp2241
g66
(dp2242
g86
g87
ssg75
g2236
sg68
(lp2243
S'now'
p2244
asbag61
(g82
g63
NtRp2245
(dp2246
g66
(dp2247
g93
g94
ssg75
g2236
sg68
(lp2248
S':'
asbag61
(g82
g63
NtRp2249
(dp2250
g66
(dp2251
sg75
g2236
sg68
(lp2252
g61
(g62
g63
NtRp2253
(dp2254
g66
(dp2255
g74
I5
ssg75
g2249
sg68
(lp2256
S'datetime.datetime(2012, 11, 21, 17, 46, 33, 470490)'
p2257
asbasbasbag61
(g77
g63
NtRp2258
(dp2259
g66
(dp2260
sg75
g71
sg68
(lp2261
g61
(g82
g63
NtRp2262
(dp2263
g66
(dp2264
g86
g87
ssg75
g2258
sg68
(lp2265
S'post_vars'
p2266
asbag61
(g82
g63
NtRp2267
(dp2268
g66
(dp2269
g93
g94
ssg75
g2258
sg68
(lp2270
S':'
asbag61
(g82
g63
NtRp2271
(dp2272
g66
(dp2273
sg75
g2258
sg68
(lp2274
g61
(g62
g63
NtRp2275
(dp2276
g66
(dp2277
g74
I5
ssg75
g2271
sg68
(lp2278
g61
(g70
g63
NtRp2279
(dp2280
g66
(dp2281
g74
I4
ssg75
Nsg68
(lp2282
sbasbasbasbag61
(g77
g63
NtRp2283
(dp2284
g66
(dp2285
sg75
g71
sg68
(lp2286
g61
(g82
g63
NtRp2287
(dp2288
g66
(dp2289
g86
g87
ssg75
g2283
sg68
(lp2290
S'raw_args'
p2291
asbag61
(g82
g63
NtRp2292
(dp2293
g66
(dp2294
g93
g94
ssg75
g2283
sg68
(lp2295
S':'
asbag61
(g82
g63
NtRp2296
(dp2297
g66
(dp2298
sg75
g2283
sg68
(lp2299
g61
(g62
g63
NtRp2300
(dp2301
g66
(dp2302
g74
I5
ssg75
g2296
sg68
(lp2303
S''
asbasbasbag61
(g77
g63
NtRp2304
(dp2305
g66
(dp2306
sg75
g71
sg68
(lp2307
g61
(g82
g63
NtRp2308
(dp2309
g66
(dp2310
g86
g87
ssg75
g2304
sg68
(lp2311
S'raw_extension'
p2312
asbag61
(g82
g63
NtRp2313
(dp2314
g66
(dp2315
g93
g94
ssg75
g2304
sg68
(lp2316
S':'
asbag61
(g82
g63
NtRp2317
(dp2318
g66
(dp2319
sg75
g2304
sg68
(lp2320
g61
(g62
g63
NtRp2321
(dp2322
g66
(dp2323
g74
I5
ssg75
g2317
sg68
(lp2324
S'None'
p2325
asbasbasbag61
(g77
g63
NtRp2326
(dp2327
g66
(dp2328
sg75
g71
sg68
(lp2329
g61
(g82
g63
NtRp2330
(dp2331
g66
(dp2332
g86
g87
ssg75
g2326
sg68
(lp2333
S'url'
p2334
asbag61
(g82
g63
NtRp2335
(dp2336
g66
(dp2337
g93
g94
ssg75
g2326
sg68
(lp2338
S':'
asbag61
(g82
g63
NtRp2339
(dp2340
g66
(dp2341
sg75
g2326
sg68
(lp2342
g61
(g62
g63
NtRp2343
(dp2344
g66
(dp2345
g74
I5
ssg75
g2339
sg68
(lp2346
g1176
asbasbasbag61
(g77
g63
NtRp2347
(dp2348
g66
(dp2349
sg75
g71
sg68
(lp2350
g61
(g82
g63
NtRp2351
(dp2352
g66
(dp2353
g86
g87
ssg75
g2347
sg68
(lp2354
S'utcnow'
p2355
asbag61
(g82
g63
NtRp2356
(dp2357
g66
(dp2358
g93
g94
ssg75
g2347
sg68
(lp2359
S':'
asbag61
(g82
g63
NtRp2360
(dp2361
g66
(dp2362
sg75
g2347
sg68
(lp2363
g61
(g62
g63
NtRp2364
(dp2365
g66
(dp2366
g74
I5
ssg75
g2360
sg68
(lp2367
S'datetime.datetime(2012, 11, 21, 16, 46, 33, 470500)'
p2368
asbasbasbag61
(g77
g63
NtRp2369
(dp2370
g66
(dp2371
sg75
g71
sg68
(lp2372
g61
(g82
g63
NtRp2373
(dp2374
g66
(dp2375
g86
g87
ssg75
g2369
sg68
(lp2376
S'uuid'
p2377
asbag61
(g82
g63
NtRp2378
(dp2379
g66
(dp2380
g93
g94
ssg75
g2369
sg68
(lp2381
S':'
asbag61
(g82
g63
NtRp2382
(dp2383
g66
(dp2384
sg75
g2369
sg68
(lp2385
g61
(g62
g63
NtRp2386
(dp2387
g66
(dp2388
g74
I5
ssg75
g2382
sg68
(lp2389
S'rosan/127.0.0.1.2012-11-21.17-46-33.99bb7d7d-d245-4b7c-a9e1-3da1e3aaa386'
p2390
asbasbasbag61
(g77
g63
NtRp2391
(dp2392
g66
(dp2393
sg75
g71
sg68
(lp2394
g61
(g82
g63
NtRp2395
(dp2396
g66
(dp2397
g86
g87
ssg75
g2391
sg68
(lp2398
S'vars'
p2399
asbag61
(g82
g63
NtRp2400
(dp2401
g66
(dp2402
g93
g94
ssg75
g2391
sg68
(lp2403
S':'
asbag61
(g82
g63
NtRp2404
(dp2405
g66
(dp2406
sg75
g2391
sg68
(lp2407
g61
(g62
g63
NtRp2408
(dp2409
g66
(dp2410
g74
I5
ssg75
g2404
sg68
(lp2411
g61
(g70
g63
NtRp2412
(dp2413
g66
(dp2414
g74
I4
ssg75
Nsg68
(lp2415
sbasbasbasbag61
(g77
g63
NtRp2416
(dp2417
g66
(dp2418
sg75
g71
sg68
(lp2419
g61
(g82
g63
NtRp2420
(dp2421
g66
(dp2422
g86
g87
ssg75
g2416
sg68
(lp2423
S'wsgi'
p2424
asbag61
(g82
g63
NtRp2425
(dp2426
g66
(dp2427
g93
g94
ssg75
g2416
sg68
(lp2428
S':'
asbag61
(g82
g63
NtRp2429
(dp2430
g66
(dp2431
sg75
g2416
sg68
(lp2432
g61
(g62
g63
NtRp2433
(dp2434
g66
(dp2435
g74
I5
ssg75
g2429
sg68
(lp2436
g61
(g70
g63
NtRp2437
(dp2438
g66
(dp2439
g74
I4
ssg75
Nsg68
(lp2440
g61
(g77
g63
NtRp2441
(dp2442
g66
(dp2443
sg75
g2437
sg68
(lp2444
g61
(g82
g63
NtRp2445
(dp2446
g66
(dp2447
g86
g87
ssg75
g2441
sg68
(lp2448
S'environ'
p2449
asbag61
(g82
g63
NtRp2450
(dp2451
g66
(dp2452
g93
g94
ssg75
g2441
sg68
(lp2453
S':'
asbag61
(g82
g63
NtRp2454
(dp2455
g66
(dp2456
sg75
g2441
sg68
(lp2457
g61
(g62
g63
NtRp2458
(dp2459
g66
(dp2460
g74
I4
ssg75
g2454
sg68
(lp2461
g61
(g70
g63
NtRp2462
(dp2463
g66
(dp2464
g74
I3
ssg75
Nsg68
(lp2465
g61
(g77
g63
NtRp2466
(dp2467
g66
(dp2468
sg75
g2462
sg68
(lp2469
g61
(g82
g63
NtRp2470
(dp2471
g66
(dp2472
g86
g87
ssg75
g2466
sg68
(lp2473
S'HTTP_ACCEPT'
p2474
asbag61
(g82
g63
NtRp2475
(dp2476
g66
(dp2477
g93
g94
ssg75
g2466
sg68
(lp2478
S':'
asbag61
(g82
g63
NtRp2479
(dp2480
g66
(dp2481
sg75
g2466
sg68
(lp2482
g61
(g62
g63
NtRp2483
(dp2484
g66
(dp2485
g74
I3
ssg75
g2479
sg68
(lp2486
g846
asbasbasbag61
(g77
g63
NtRp2487
(dp2488
g66
(dp2489
sg75
g2462
sg68
(lp2490
g61
(g82
g63
NtRp2491
(dp2492
g66
(dp2493
g86
g87
ssg75
g2487
sg68
(lp2494
S'HTTP_ACCEPT_CHARSET'
p2495
asbag61
(g82
g63
NtRp2496
(dp2497
g66
(dp2498
g93
g94
ssg75
g2487
sg68
(lp2499
S':'
asbag61
(g82
g63
NtRp2500
(dp2501
g66
(dp2502
sg75
g2487
sg68
(lp2503
g61
(g62
g63
NtRp2504
(dp2505
g66
(dp2506
g74
I3
ssg75
g2500
sg68
(lp2507
g868
asbasbasbag61
(g77
g63
NtRp2508
(dp2509
g66
(dp2510
sg75
g2462
sg68
(lp2511
g61
(g82
g63
NtRp2512
(dp2513
g66
(dp2514
g86
g87
ssg75
g2508
sg68
(lp2515
S'HTTP_ACCEPT_ENCODING'
p2516
asbag61
(g82
g63
NtRp2517
(dp2518
g66
(dp2519
g93
g94
ssg75
g2508
sg68
(lp2520
S':'
asbag61
(g82
g63
NtRp2521
(dp2522
g66
(dp2523
sg75
g2508
sg68
(lp2524
g61
(g62
g63
NtRp2525
(dp2526
g66
(dp2527
g74
I3
ssg75
g2521
sg68
(lp2528
g890
asbasbasbag61
(g77
g63
NtRp2529
(dp2530
g66
(dp2531
sg75
g2462
sg68
(lp2532
g61
(g82
g63
NtRp2533
(dp2534
g66
(dp2535
g86
g87
ssg75
g2529
sg68
(lp2536
S'HTTP_ACCEPT_LANGUAGE'
p2537
asbag61
(g82
g63
NtRp2538
(dp2539
g66
(dp2540
g93
g94
ssg75
g2529
sg68
(lp2541
S':'
asbag61
(g82
g63
NtRp2542
(dp2543
g66
(dp2544
sg75
g2529
sg68
(lp2545
g61
(g62
g63
NtRp2546
(dp2547
g66
(dp2548
g74
I3
ssg75
g2542
sg68
(lp2549
g912
asbasbasbag61
(g77
g63
NtRp2550
(dp2551
g66
(dp2552
sg75
g2462
sg68
(lp2553
g61
(g82
g63
NtRp2554
(dp2555
g66
(dp2556
g86
g87
ssg75
g2550
sg68
(lp2557
S'HTTP_CONNECTION'
p2558
asbag61
(g82
g63
NtRp2559
(dp2560
g66
(dp2561
g93
g94
ssg75
g2550
sg68
(lp2562
S':'
asbag61
(g82
g63
NtRp2563
(dp2564
g66
(dp2565
sg75
g2550
sg68
(lp2566
g61
(g62
g63
NtRp2567
(dp2568
g66
(dp2569
g74
I3
ssg75
g2563
sg68
(lp2570
g934
asbasbasbag61
(g77
g63
NtRp2571
(dp2572
g66
(dp2573
sg75
g2462
sg68
(lp2574
g61
(g82
g63
NtRp2575
(dp2576
g66
(dp2577
g86
g87
ssg75
g2571
sg68
(lp2578
S'HTTP_COOKIE'
p2579
asbag61
(g82
g63
NtRp2580
(dp2581
g66
(dp2582
g93
g94
ssg75
g2571
sg68
(lp2583
S':'
asbag61
(g82
g63
NtRp2584
(dp2585
g66
(dp2586
sg75
g2571
sg68
(lp2587
g61
(g62
g63
NtRp2588
(dp2589
g66
(dp2590
g74
I3
ssg75
g2584
sg68
(lp2591
g956
asbasbasbag61
(g77
g63
NtRp2592
(dp2593
g66
(dp2594
sg75
g2462
sg68
(lp2595
g61
(g82
g63
NtRp2596
(dp2597
g66
(dp2598
g86
g87
ssg75
g2592
sg68
(lp2599
S'HTTP_HOST'
p2600
asbag61
(g82
g63
NtRp2601
(dp2602
g66
(dp2603
g93
g94
ssg75
g2592
sg68
(lp2604
S':'
asbag61
(g82
g63
NtRp2605
(dp2606
g66
(dp2607
sg75
g2592
sg68
(lp2608
g61
(g62
g63
NtRp2609
(dp2610
g66
(dp2611
g74
I3
ssg75
g2605
sg68
(lp2612
g978
asbasbasbag61
(g77
g63
NtRp2613
(dp2614
g66
(dp2615
sg75
g2462
sg68
(lp2616
g61
(g82
g63
NtRp2617
(dp2618
g66
(dp2619
g86
g87
ssg75
g2613
sg68
(lp2620
S'HTTP_REFERER'
p2621
asbag61
(g82
g63
NtRp2622
(dp2623
g66
(dp2624
g93
g94
ssg75
g2613
sg68
(lp2625
S':'
asbag61
(g82
g63
NtRp2626
(dp2627
g66
(dp2628
sg75
g2613
sg68
(lp2629
g61
(g62
g63
NtRp2630
(dp2631
g66
(dp2632
g74
I3
ssg75
g2626
sg68
(lp2633
g1000
asbasbasbag61
(g77
g63
NtRp2634
(dp2635
g66
(dp2636
sg75
g2462
sg68
(lp2637
g61
(g82
g63
NtRp2638
(dp2639
g66
(dp2640
g86
g87
ssg75
g2634
sg68
(lp2641
S'HTTP_USER_AGENT'
p2642
asbag61
(g82
g63
NtRp2643
(dp2644
g66
(dp2645
g93
g94
ssg75
g2634
sg68
(lp2646
S':'
asbag61
(g82
g63
NtRp2647
(dp2648
g66
(dp2649
sg75
g2634
sg68
(lp2650
g61
(g62
g63
NtRp2651
(dp2652
g66
(dp2653
g74
I3
ssg75
g2647
sg68
(lp2654
g1022
asbasbasbag61
(g77
g63
NtRp2655
(dp2656
g66
(dp2657
sg75
g2462
sg68
(lp2658
g61
(g82
g63
NtRp2659
(dp2660
g66
(dp2661
g86
g87
ssg75
g2655
sg68
(lp2662
S'PATH_INFO'
p2663
asbag61
(g82
g63
NtRp2664
(dp2665
g66
(dp2666
g93
g94
ssg75
g2655
sg68
(lp2667
S':'
asbag61
(g82
g63
NtRp2668
(dp2669
g66
(dp2670
sg75
g2655
sg68
(lp2671
g61
(g62
g63
NtRp2672
(dp2673
g66
(dp2674
g74
I3
ssg75
g2668
sg68
(lp2675
g1176
asbasbasbag61
(g77
g63
NtRp2676
(dp2677
g66
(dp2678
sg75
g2462
sg68
(lp2679
g61
(g82
g63
NtRp2680
(dp2681
g66
(dp2682
g86
g87
ssg75
g2676
sg68
(lp2683
S'QUERY_STRING'
p2684
asbag61
(g82
g63
NtRp2685
(dp2686
g66
(dp2687
g93
g94
ssg75
g2676
sg68
(lp2688
S':'
asbag61
(g82
g63
NtRp2689
(dp2690
g66
(dp2691
sg75
g2676
sg68
(lp2692
g61
(g62
g63
NtRp2693
(dp2694
g66
(dp2695
g74
I3
ssg75
g2689
sg68
(lp2696
S''
asbasbasbag61
(g77
g63
NtRp2697
(dp2698
g66
(dp2699
sg75
g2462
sg68
(lp2700
g61
(g82
g63
NtRp2701
(dp2702
g66
(dp2703
g86
g87
ssg75
g2697
sg68
(lp2704
S'REMOTE_ADDR'
p2705
asbag61
(g82
g63
NtRp2706
(dp2707
g66
(dp2708
g93
g94
ssg75
g2697
sg68
(lp2709
S':'
asbag61
(g82
g63
NtRp2710
(dp2711
g66
(dp2712
sg75
g2697
sg68
(lp2713
g61
(g62
g63
NtRp2714
(dp2715
g66
(dp2716
g74
I3
ssg75
g2710
sg68
(lp2717
g216
asbasbasbag61
(g77
g63
NtRp2718
(dp2719
g66
(dp2720
sg75
g2462
sg68
(lp2721
g61
(g82
g63
NtRp2722
(dp2723
g66
(dp2724
g86
g87
ssg75
g2718
sg68
(lp2725
S'REMOTE_PORT'
p2726
asbag61
(g82
g63
NtRp2727
(dp2728
g66
(dp2729
g93
g94
ssg75
g2718
sg68
(lp2730
S':'
asbag61
(g82
g63
NtRp2731
(dp2732
g66
(dp2733
sg75
g2718
sg68
(lp2734
g61
(g62
g63
NtRp2735
(dp2736
g66
(dp2737
g74
I3
ssg75
g2731
sg68
(lp2738
g1240
asbasbasbag61
(g77
g63
NtRp2739
(dp2740
g66
(dp2741
sg75
g2462
sg68
(lp2742
g61
(g82
g63
NtRp2743
(dp2744
g66
(dp2745
g86
g87
ssg75
g2739
sg68
(lp2746
S'REQUEST_METHOD'
p2747
asbag61
(g82
g63
NtRp2748
(dp2749
g66
(dp2750
g93
g94
ssg75
g2739
sg68
(lp2751
S':'
asbag61
(g82
g63
NtRp2752
(dp2753
g66
(dp2754
sg75
g2739
sg68
(lp2755
g61
(g62
g63
NtRp2756
(dp2757
g66
(dp2758
g74
I3
ssg75
g2752
sg68
(lp2759
g1262
asbasbasbag61
(g77
g63
NtRp2760
(dp2761
g66
(dp2762
sg75
g2462
sg68
(lp2763
g61
(g82
g63
NtRp2764
(dp2765
g66
(dp2766
g86
g87
ssg75
g2760
sg68
(lp2767
S'REQUEST_URI'
p2768
asbag61
(g82
g63
NtRp2769
(dp2770
g66
(dp2771
g93
g94
ssg75
g2760
sg68
(lp2772
S':'
asbag61
(g82
g63
NtRp2773
(dp2774
g66
(dp2775
sg75
g2760
sg68
(lp2776
g61
(g62
g63
NtRp2777
(dp2778
g66
(dp2779
g74
I3
ssg75
g2773
sg68
(lp2780
g1176
asbasbasbag61
(g77
g63
NtRp2781
(dp2782
g66
(dp2783
sg75
g2462
sg68
(lp2784
g61
(g82
g63
NtRp2785
(dp2786
g66
(dp2787
g86
g87
ssg75
g2781
sg68
(lp2788
S'SCRIPT_NAME'
p2789
asbag61
(g82
g63
NtRp2790
(dp2791
g66
(dp2792
g93
g94
ssg75
g2781
sg68
(lp2793
S':'
asbag61
(g82
g63
NtRp2794
(dp2795
g66
(dp2796
sg75
g2781
sg68
(lp2797
g61
(g62
g63
NtRp2798
(dp2799
g66
(dp2800
g74
I3
ssg75
g2794
sg68
(lp2801
S''
asbasbasbag61
(g77
g63
NtRp2802
(dp2803
g66
(dp2804
sg75
g2462
sg68
(lp2805
g61
(g82
g63
NtRp2806
(dp2807
g66
(dp2808
g86
g87
ssg75
g2802
sg68
(lp2809
S'SERVER_NAME'
p2810
asbag61
(g82
g63
NtRp2811
(dp2812
g66
(dp2813
g93
g94
ssg75
g2802
sg68
(lp2814
S':'
asbag61
(g82
g63
NtRp2815
(dp2816
g66
(dp2817
sg75
g2802
sg68
(lp2818
g61
(g62
g63
NtRp2819
(dp2820
g66
(dp2821
g74
I3
ssg75
g2815
sg68
(lp2822
g1141
asbasbasbag61
(g77
g63
NtRp2823
(dp2824
g66
(dp2825
sg75
g2462
sg68
(lp2826
g61
(g82
g63
NtRp2827
(dp2828
g66
(dp2829
g86
g87
ssg75
g2823
sg68
(lp2830
S'SERVER_PORT'
p2831
asbag61
(g82
g63
NtRp2832
(dp2833
g66
(dp2834
g93
g94
ssg75
g2823
sg68
(lp2835
S':'
asbag61
(g82
g63
NtRp2836
(dp2837
g66
(dp2838
sg75
g2823
sg68
(lp2839
g61
(g62
g63
NtRp2840
(dp2841
g66
(dp2842
g74
I3
ssg75
g2836
sg68
(lp2843
g1347
asbasbasbag61
(g77
g63
NtRp2844
(dp2845
g66
(dp2846
sg75
g2462
sg68
(lp2847
g61
(g82
g63
NtRp2848
(dp2849
g66
(dp2850
g86
g87
ssg75
g2844
sg68
(lp2851
S'SERVER_PROTOCOL'
p2852
asbag61
(g82
g63
NtRp2853
(dp2854
g66
(dp2855
g93
g94
ssg75
g2844
sg68
(lp2856
S':'
asbag61
(g82
g63
NtRp2857
(dp2858
g66
(dp2859
sg75
g2844
sg68
(lp2860
g61
(g62
g63
NtRp2861
(dp2862
g66
(dp2863
g74
I3
ssg75
g2857
sg68
(lp2864
g1369
asbasbasbag61
(g77
g63
NtRp2865
(dp2866
g66
(dp2867
sg75
g2462
sg68
(lp2868
g61
(g82
g63
NtRp2869
(dp2870
g66
(dp2871
g86
g87
ssg75
g2865
sg68
(lp2872
S'SERVER_SOFTWARE'
p2873
asbag61
(g82
g63
NtRp2874
(dp2875
g66
(dp2876
g93
g94
ssg75
g2865
sg68
(lp2877
S':'
asbag61
(g82
g63
NtRp2878
(dp2879
g66
(dp2880
sg75
g2865
sg68
(lp2881
g61
(g62
g63
NtRp2882
(dp2883
g66
(dp2884
g74
I3
ssg75
g2878
sg68
(lp2885
g1391
asbasbasbag61
(g77
g63
NtRp2886
(dp2887
g66
(dp2888
sg75
g2462
sg68
(lp2889
g61
(g82
g63
NtRp2890
(dp2891
g66
(dp2892
g86
g87
ssg75
g2886
sg68
(lp2893
S'wsgi.errors'
p2894
asbag61
(g82
g63
NtRp2895
(dp2896
g66
(dp2897
g93
g94
ssg75
g2886
sg68
(lp2898
S':'
asbag61
(g82
g63
NtRp2899
(dp2900
g66
(dp2901
sg75
g2886
sg68
(lp2902
g61
(g62
g63
NtRp2903
(dp2904
g66
(dp2905
g74
I3
ssg75
g2899
sg68
(lp2906
S"<open file '<stderr>', mode 'w' at 0x25a0d0>"
p2907
asbasbasbag61
(g77
g63
NtRp2908
(dp2909
g66
(dp2910
sg75
g2462
sg68
(lp2911
g61
(g82
g63
NtRp2912
(dp2913
g66
(dp2914
g86
g87
ssg75
g2908
sg68
(lp2915
S'wsgi.file_wrapper'
p2916
asbag61
(g82
g63
NtRp2917
(dp2918
g66
(dp2919
g93
g94
ssg75
g2908
sg68
(lp2920
S':'
asbag61
(g82
g63
NtRp2921
(dp2922
g66
(dp2923
sg75
g2908
sg68
(lp2924
g61
(g62
g63
NtRp2925
(dp2926
g66
(dp2927
g74
I3
ssg75
g2921
sg68
(lp2928
S'<class wsgiref.util.FileWrapper at 0x1968d50>'
p2929
asbasbasbag61
(g77
g63
NtRp2930
(dp2931
g66
(dp2932
sg75
g2462
sg68
(lp2933
g61
(g82
g63
NtRp2934
(dp2935
g66
(dp2936
g86
g87
ssg75
g2930
sg68
(lp2937
S'wsgi.input'
p2938
asbag61
(g82
g63
NtRp2939
(dp2940
g66
(dp2941
g93
g94
ssg75
g2930
sg68
(lp2942
S':'
asbag61
(g82
g63
NtRp2943
(dp2944
g66
(dp2945
sg75
g2930
sg68
(lp2946
g61
(g62
g63
NtRp2947
(dp2948
g66
(dp2949
g74
I3
ssg75
g2943
sg68
(lp2950
S'<cStringIO.StringO object at 0x180818c0>'
p2951
asbasbasbag61
(g77
g63
NtRp2952
(dp2953
g66
(dp2954
sg75
g2462
sg68
(lp2955
g61
(g82
g63
NtRp2956
(dp2957
g66
(dp2958
g86
g87
ssg75
g2952
sg68
(lp2959
S'wsgi.multiprocess'
p2960
asbag61
(g82
g63
NtRp2961
(dp2962
g66
(dp2963
g93
g94
ssg75
g2952
sg68
(lp2964
S':'
asbag61
(g82
g63
NtRp2965
(dp2966
g66
(dp2967
sg75
g2952
sg68
(lp2968
g61
(g62
g63
NtRp2969
(dp2970
g66
(dp2971
g74
I3
ssg75
g2965
sg68
(lp2972
g104
asbasbasbag61
(g77
g63
NtRp2973
(dp2974
g66
(dp2975
sg75
g2462
sg68
(lp2976
g61
(g82
g63
NtRp2977
(dp2978
g66
(dp2979
g86
g87
ssg75
g2973
sg68
(lp2980
S'wsgi.multithread'
p2981
asbag61
(g82
g63
NtRp2982
(dp2983
g66
(dp2984
g93
g94
ssg75
g2973
sg68
(lp2985
S':'
asbag61
(g82
g63
NtRp2986
(dp2987
g66
(dp2988
sg75
g2973
sg68
(lp2989
g61
(g62
g63
NtRp2990
(dp2991
g66
(dp2992
g74
I3
ssg75
g2986
sg68
(lp2993
g1608
asbasbasbag61
(g77
g63
NtRp2994
(dp2995
g66
(dp2996
sg75
g2462
sg68
(lp2997
g61
(g82
g63
NtRp2998
(dp2999
g66
(dp3000
g86
g87
ssg75
g2994
sg68
(lp3001
S'wsgi.run_once'
p3002
asbag61
(g82
g63
NtRp3003
(dp3004
g66
(dp3005
g93
g94
ssg75
g2994
sg68
(lp3006
S':'
asbag61
(g82
g63
NtRp3007
(dp3008
g66
(dp3009
sg75
g2994
sg68
(lp3010
g61
(g62
g63
NtRp3011
(dp3012
g66
(dp3013
g74
I3
ssg75
g3007
sg68
(lp3014
g104
asbasbasbag61
(g77
g63
NtRp3015
(dp3016
g66
(dp3017
sg75
g2462
sg68
(lp3018
g61
(g82
g63
NtRp3019
(dp3020
g66
(dp3021
g86
g87
ssg75
g3015
sg68
(lp3022
S'wsgi.url_scheme'
p3023
asbag61
(g82
g63
NtRp3024
(dp3025
g66
(dp3026
g93
g94
ssg75
g3015
sg68
(lp3027
S':'
asbag61
(g82
g63
NtRp3028
(dp3029
g66
(dp3030
sg75
g3015
sg68
(lp3031
g61
(g62
g63
NtRp3032
(dp3033
g66
(dp3034
g74
I3
ssg75
g3028
sg68
(lp3035
g1651
asbasbasbag61
(g77
g63
NtRp3036
(dp3037
g66
(dp3038
sg75
g2462
sg68
(lp3039
g61
(g82
g63
NtRp3040
(dp3041
g66
(dp3042
g86
g87
ssg75
g3036
sg68
(lp3043
S'wsgi.version'
p3044
asbag61
(g82
g63
NtRp3045
(dp3046
g66
(dp3047
g93
g94
ssg75
g3036
sg68
(lp3048
S':'
asbag61
(g82
g63
NtRp3049
(dp3050
g66
(dp3051
sg75
g3036
sg68
(lp3052
g61
(g62
g63
NtRp3053
(dp3054
g66
(dp3055
g74
I3
ssg75
g3049
sg68
(lp3056
S'1'
asbasbasbasbasbasbasbasbasbasbasbasbasbsS'frames'
p3057
(lp3058
(dp3059
S'file'
p3060
S'/Users/Truki/web2py/gluon/restricted.py'
p3061
sS'dump'
p3062
(dp3063
S'environment'
p3064
S"{'A': <class 'gluon.html.A'>, 'Auth': <class 'gluon.tools.Auth'>, 'B': <class 'gluon.html.B'>, 'BEAUTIFY': <class 'gluon.html.BEAUTIFY'>, 'BODY': <class 'gluon.html.BODY'>, 'BR': <class 'gluon.html.BR'>, 'BUTTON': <class 'gluon.html.BUTTON'>, 'CAT': <class 'gluon.html.CAT'>, 'CENTER': <class 'gluon.html.CENTER'>, 'CLEANUP': <class 'gluon.validators.CLEANUP'>, ...}"
p3065
sS'ccode'
p3066
S'<code object <module> at 0x18108ec0, file "/User...y/applications/rosan/models/db_rosan.py", line 7>'
p3067
ssS'lnum'
p3068
I212
sS'lines'
p3069
(dp3070
I207
S'    try:'
p3071
sI208
S'        if isinstance(code, types.CodeType):'
p3072
sI209
S'            ccode = code'
p3073
sI210
S'        else:'
p3074
sI211
S'            ccode = compile2(code, layer)'
p3075
sI212
S'        exec ccode in environment'
p3076
sI213
S'    except HTTP:'
p3077
sI214
S'        raise'
p3078
sI215
S'    except RestrictedError:'
p3079
sI216
S'        # do not encapsulate (obfuscate) the original RestrictedError'
p3080
ssS'call'
p3081
S'(code=\'# coding: utf8\\n"""\\njust copy paste this code int...es=IS_IN_DB(dbRosan, \\\'articulo.id\\\' \\\'%(nombre)s\\\')\\n\', environment={\'A\': <class \'gluon.html.A\'>, \'Auth\': <class \'gluon.tools.Auth\'>, \'B\': <class \'gluon.html.B\'>, \'BEAUTIFY\': <class \'gluon.html.BEAUTIFY\'>, \'BODY\': <class \'gluon.html.BODY\'>, \'BR\': <class \'gluon.html.BR\'>, \'BUTTON\': <class \'gluon.html.BUTTON\'>, \'CAT\': <class \'gluon.html.CAT\'>, \'CENTER\': <class \'gluon.html.CENTER\'>, \'CLEANUP\': <class \'gluon.validators.CLEANUP\'>, ...}, layer=\'/Users/Truki/web2py/applications/rosan/models/db_rosan.py\')'
p3082
sS'func'
p3083
S'restricted'
p3084
sa(dp3085
g3060
S'/Users/Truki/web2py/applications/rosan/models/db_rosan.py'
p3086
sg3062
(dp3087
S'builtinNone'
p3088
S'None'
p3089
sS'default'
p3090
S'undefined'
p3091
sS'builtinTrue'
p3092
g1608
sS'length'
p3093
g3091
sS'notnull'
p3094
g3091
sS'SQLField'
p3095
S"<class 'gluon.dal.Field'>"
p3096
ssg3068
I23
sg3069
(dp3097
I18
S'      SQLField("nombre", "string", length=200, notnull=True, default=None),'
p3098
sI19
S'      SQLField("direccion", "string", length=200, notnull=True, default=None),'
p3099
sI20
S'      SQLField("localidad", "string", length=100, notnull=True, default=None),'
p3100
sI21
S'      SQLField("cod_postal", "string", length=5, notnull=True, default=None),'
p3101
sI22
S'      SQLField("email", "string", length=100, notnull=True, default=None),'
p3102
sI23
S'      SQLField("www","string", length=200, notnull=True, default=None)'
p3103
sI24
S'      )'
p3104
sI25
S''
sI26
S'"""'
p3105
sI27
S'Tabla facturas'
p3106
ssg3081
S'()'
p3107
sg3083
S'<module>'
p3108
sa(dp3109
g3060
S'/Users/Truki/web2py/gluon/dal.py'
p3110
sg3062
(dp3111
S'fields'
p3112
S'(<gluon.dal.Field object>, <gluon.dal.Field object>, <gluon.dal.Field object>, <gluon.dal.Field object>, <gluon.dal.Field object>, <gluon.dal.Field object>, <gluon.dal.Field object>)'
p3113
sS'self'
p3114
S'<DAL uri="sqlite://dbRosan.db">'
p3115
sS'args'
p3116
g21
sS'tablename'
p3117
S"'cliente'"
p3118
sS'table'
p3119
g3091
sS'self.lazy_define_table'
p3120
S'<bound method DAL.lazy_define_table of <DAL uri="sqlite://dbRosan.db">>'
p3121
ssg3068
I7086
sg3069
(dp3122
I7081
S'                    % (tablename,invalid_args)'
p3123
sI7082
S'        if self._lazy_tables and not tablename in self._LAZY_TABLES:'
p3124
sI7083
S'            self._LAZY_TABLES[tablename] = (tablename,fields,args)'
p3125
sI7084
S'            table = None'
p3126
sI7085
S'        else:'
p3127
sI7086
S'            table = self.lazy_define_table(tablename,*fields,**args)'
p3128
sI7087
S'        if not tablename in self.tables:'
p3129
sI7088
S'            self.tables.append(tablename)'
p3130
sI7089
S'        return table'
p3131
sI7090
S''
ssg3081
S'(self=<DAL uri="sqlite://dbRosan.db">, tablename=\'cliente\', *fields=(<gluon.dal.Field object>, <gluon.dal.Field object>, <gluon.dal.Field object>, <gluon.dal.Field object>, <gluon.dal.Field object>, <gluon.dal.Field object>, <gluon.dal.Field object>), **args={})'
p3132
sg3083
S'define_table'
p3133
sa(dp3134
g3060
S'/Users/Truki/web2py/gluon/dal.py'
p3135
sg3062
(dp3136
S'polymodel'
p3137
S'None'
p3138
ssg3068
I7118
sg3069
(dp3139
I7113
S"            polymodel = args_get('polymodel',None)"
p3140
sI7114
S'            try:'
p3141
sI7115
S'                GLOBAL_LOCKER.acquire()'
p3142
sI7116
S'                self._adapter.create_table(table,migrate=migrate,'
p3143
sI7117
S'                                           fake_migrate=fake_migrate,'
p3144
sI7118
S'                                           polymodel=polymodel)'
p3145
sI7119
S'            finally:'
p3146
sI7120
S'                GLOBAL_LOCKER.release()'
p3147
sI7121
S'        else:'
p3148
sI7122
S'            table._dbt = None'
p3149
ssg3081
S'(self=<DAL uri="sqlite://dbRosan.db">, tablename=\'cliente\', *fields=(<gluon.dal.Field object>, <gluon.dal.Field object>, <gluon.dal.Field object>, <gluon.dal.Field object>, <gluon.dal.Field object>, <gluon.dal.Field object>, <gluon.dal.Field object>), **args={})'
p3150
sg3083
S'lazy_define_table'
p3151
sa(dp3152
g3060
S'/Users/Truki/web2py/gluon/dal.py'
p3153
sg3062
(dp3154
S'fake_migrate'
p3155
g104
ssg3068
I949
sg3069
(dp3156
I944
S'            self.file_close(tfile)'
p3157
sI945
S'            if sql_fields != sql_fields_old:'
p3158
sI946
S'                self.migrate_table(table,'
p3159
sI947
S'                                   sql_fields, sql_fields_old,'
p3160
sI948
S'                                   sql_fields_aux, logfile,'
p3161
sI949
S'                                   fake_migrate=fake_migrate)'
p3162
sI950
S'        self.file_close(logfile)'
p3163
sI951
S'        return query'
p3164
sI952
S''
sI953
S'    def migrate_table('
p3165
ssg3081
S'(self=<gluon.dal.SQLiteAdapter object>, table=<Table cliente (id,cif,nombre,direccion,localidad,cod_postal,email,www)>, migrate=True, fake_migrate=False, polymodel=None)'
p3166
sg3083
S'create_table'
p3167
sa(dp3168
g3060
S'/Users/Truki/web2py/gluon/dal.py'
p3169
sg3062
(dp3170
S'self'
p3171
S'<gluon.dal.SQLiteAdapter object>'
p3172
sS'self.execute'
p3173
S'<bound method SQLiteAdapter.execute of <gluon.dal.SQLiteAdapter object>>'
p3174
sS'sub_query'
p3175
S"'ALTER TABLE cliente ADD www CHAR(200) NOT NULL;'"
p3176
ssg3068
I1055
sg3069
(dp3177
I1056
S'                        # Caveat: mysql, oracle and firebird do not allow multiple alter table'
p3178
sI1057
S'                        # in one transaction so we must commit partial transactions and'
p3179
sI1058
S'                        # update table._dbt after alter table.'
p3180
sI1059
S'                        if db._adapter.commit_on_alter_table:'
p3181
sI1050
S'                              % datetime.datetime.today().isoformat())'
p3182
sI1051
S"                db['_lastsql'] = '\\n'.join(query)"
p3183
sI1052
S'                for sub_query in query:'
p3184
sI1053
S"                    logfile.write(sub_query + '\\n')"
p3185
sI1054
S'                    if not fake_migrate:'
p3186
sI1055
S'                        self.execute(sub_query)'
p3187
ssg3081
S"(self=<gluon.dal.SQLiteAdapter object>, table=<Table cliente (id,cif,nombre,direccion,localidad,cod_postal,email,www)>, sql_fields={'cif': {'length': 9, 'notnull': True, 'sortable': 2, 'sql': 'CHAR(9) NOT NULL', 'type': 'string', 'unique': False}, 'cod_postal': {'length': 5, 'notnull': True, 'sortable': 6, 'sql': 'CHAR(5) NOT NULL', 'type': 'string', 'unique': False}, 'direccion': {'length': 200, 'notnull': True, 'sortable': 4, 'sql': 'CHAR(200) NOT NULL', 'type': 'string', 'unique': False}, 'email': {'length': 100, 'notnull': True, 'sortable': 7, 'sql': 'CHAR(100) NOT NULL', 'type': 'string', 'unique': False}, 'id': {'length': 512, 'notnull': False, 'sortable': 1, 'sql': 'INTEGER PRIMARY KEY AUTOINCREMENT', 'type': 'id', 'unique': False}, 'localidad': {'length': 100, 'notnull': True, 'sortable': 5, 'sql': 'CHAR(100) NOT NULL', 'type': 'string', 'unique': False}, 'nombre': {'length': 200, 'notnull': True, 'sortable': 3, 'sql': 'CHAR(200) NOT NULL', 'type': 'string', 'unique': False}, 'www': {'length': 200, 'notnull': True, 'sortable': 8, 'sql': 'CHAR(200) NOT NULL', 'type': 'string', 'unique': False}}, sql_fields_old={'cif': {'sortable': 2L, 'sql': 'CHAR(9) NOT NULL', 'type': 'string'}, 'direccion': {'sortable': 4L, 'sql': 'CHAR(200) NOT NULL', 'type': 'string'}, 'id': {'sortable': 1L, 'sql': 'INTEGER PRIMARY KEY AUTOINCREMENT', 'type': 'id'}, 'localidad': {'sortable': 5L, 'sql': 'CHAR(100) NOT NULL', 'type': 'string'}, 'nombre': {'sortable': 3L, 'sql': 'CHAR(200) NOT NULL', 'type': 'string'}}, sql_fields_aux={'cif': {'sql': 'CHAR(9) NOT NULL'}, 'cod_postal': {'sql': 'CHAR(5) NOT NULL'}, 'direccion': {'sql': 'CHAR(200) NOT NULL'}, 'email': {'sql': 'CHAR(100) NOT NULL'}, 'id': {'sql': 'INTEGER PRIMARY KEY AUTOINCREMENT'}, 'localidad': {'sql': 'CHAR(100) NOT NULL'}, 'nombre': {'sql': 'CHAR(200) NOT NULL'}, 'www': {'sql': 'CHAR(200) NOT NULL'}}, logfile=<gluon.portalocker.LockedFile object>, fake_migrate=False)"
p3188
sg3083
S'migrate_table'
p3189
sa(dp3190
g3060
S'/Users/Truki/web2py/gluon/dal.py'
p3191
sg3062
(dp3192
S'a'
S"('ALTER TABLE cliente ADD www CHAR(200) NOT NULL;',)"
p3193
sS'self'
p3194
S'<gluon.dal.SQLiteAdapter object>'
p3195
sS'b'
g21
sS'self.log_execute'
p3196
S'<bound method SQLiteAdapter.log_execute of <gluon.dal.SQLiteAdapter object>>'
p3197
ssg3068
I1694
sg3069
(dp3198
I1696
S'    def represent(self, obj, fieldtype):'
p3199
sI1697
S'        field_is_type = fieldtype.startswith'
p3200
sI1698
S'        if isinstance(obj, CALLABLETYPES):'
p3201
sI1689
S'        self.db._timings.append((command,time.time()-t0))'
p3202
sI1690
S'        del self.db._timings[:-TIMINGSSIZE]'
p3203
sI1691
S'        return ret'
p3204
sI1692
S''
sI1693
S'    def execute(self, *a, **b):'
p3205
sI1694
S'        return self.log_execute(*a, **b)'
p3206
sI1695
S''
ssg3081
S"(self=<gluon.dal.SQLiteAdapter object>, *a=('ALTER TABLE cliente ADD www CHAR(200) NOT NULL;',), **b={})"
p3207
sg3083
S'execute'
p3208
sa(dp3209
g3060
S'/Users/Truki/web2py/gluon/dal.py'
p3210
sg3062
(dp3211
S'a'
S"('ALTER TABLE cliente ADD www CHAR(200) NOT NULL;',)"
p3212
sS'b'
g21
sS'self'
p3213
S'<gluon.dal.SQLiteAdapter object>'
p3214
sS'ret'
p3215
g3091
sS'self.cursor'
p3216
S'<sqlite3.Cursor object>'
p3217
sS'self.cursor.execute'
p3218
S'<built-in method execute of sqlite3.Cursor object>'
p3219
ssg3068
I1688
sg3069
(dp3220
I1683
S'        command = a[0]'
p3221
sI1684
S'        if self.db._debug:'
p3222
sI1685
S"            LOGGER.debug('SQL: %s' % command)"
p3223
sI1686
S'        self.db._lastsql = command'
p3224
sI1687
S'        t0 = time.time()'
p3225
sI1688
S'        ret = self.cursor.execute(*a, **b)'
p3226
sI1689
S'        self.db._timings.append((command,time.time()-t0))'
p3227
sI1690
S'        del self.db._timings[:-TIMINGSSIZE]'
p3228
sI1691
S'        return ret'
p3229
sI1692
S''
ssg3081
S"(self=<gluon.dal.SQLiteAdapter object>, *a=('ALTER TABLE cliente ADD www CHAR(200) NOT NULL;',), **b={})"
p3230
sg3083
S'log_execute'
p3231
sasS'pyver'
p3232
S'Python 2.7.3: /Library/Frameworks/Python.framework/Versions/2.7/Resources/Python.app/Contents/MacOS/Python'
p3233
sS'session'
p3234
g61
(g62
g63
NtRp3235
(dp3236
g66
(dp3237
sg68
(lp3238
g61
(g70
g63
NtRp3239
(dp3240
g66
(dp3241
g74
I5
ssg75
Nsg68
(lp3242
sbasbsS'etype'
p3243
S"<class 'sqlite3.OperationalError'>"
p3244
sS'date'
p3245
S'Wed Nov 21 17:46:33 2012'
p3246
sS'response'
p3247
g61
(g62
g63
NtRp3248
(dp3249
g66
(dp3250
sg68
(lp3251
g61
(g70
g63
NtRp3252
(dp3253
g66
(dp3254
g74
I5
ssg75
Nsg68
(lp3255
g61
(g77
g63
NtRp3256
(dp3257
g66
(dp3258
sg75
g3252
sg68
(lp3259
g61
(g82
g63
NtRp3260
(dp3261
g66
(dp3262
g86
g87
ssg75
g3256
sg68
(lp3263
g159
asbag61
(g82
g63
NtRp3264
(dp3265
g66
(dp3266
g93
g94
ssg75
g3256
sg68
(lp3267
S':'
asbag61
(g82
g63
NtRp3268
(dp3269
g66
(dp3270
sg75
g3256
sg68
(lp3271
g61
(g62
g63
NtRp3272
(dp3273
g66
(dp3274
g74
I5
ssg75
g3268
sg68
(lp3275
S'<cStringIO.StringO object at 0x180815e0>'
p3276
asbasbasbag61
(g77
g63
NtRp3277
(dp3278
g66
(dp3279
sg75
g3252
sg68
(lp3280
g61
(g82
g63
NtRp3281
(dp3282
g66
(dp3283
g86
g87
ssg75
g3277
sg68
(lp3284
g247
asbag61
(g82
g63
NtRp3285
(dp3286
g66
(dp3287
g93
g94
ssg75
g3277
sg68
(lp3288
S':'
asbag61
(g82
g63
NtRp3289
(dp3290
g66
(dp3291
sg75
g3277
sg68
(lp3292
g61
(g62
g63
NtRp3293
(dp3294
g66
(dp3295
g74
I5
ssg75
g3289
sg68
(lp3296
g61
(g70
g63
NtRp3297
(dp3298
g66
(dp3299
g74
I4
ssg75
Nsg68
(lp3300
g61
(g77
g63
NtRp3301
(dp3302
g66
(dp3303
sg75
g3297
sg68
(lp3304
g61
(g82
g63
NtRp3305
(dp3306
g66
(dp3307
g86
g87
ssg75
g3301
sg68
(lp3308
S'session_id_rosan'
p3309
asbag61
(g82
g63
NtRp3310
(dp3311
g66
(dp3312
g93
g94
ssg75
g3301
sg68
(lp3313
S':'
asbag61
(g82
g63
NtRp3314
(dp3315
g66
(dp3316
sg75
g3301
sg68
(lp3317
g61
(g62
g63
NtRp3318
(dp3319
g66
(dp3320
g74
I4
ssg75
g3314
sg68
(lp3321
S'127.0.0.1-08276a7c-585e-4f81-a976-64578faf5d94'
p3322
ag61
(g70
g63
NtRp3323
(dp3324
g66
(dp3325
g74
I3
ssg75
Nsg68
(lp3326
g61
(g77
g63
NtRp3327
(dp3328
g66
(dp3329
sg75
g3323
sg68
(lp3330
g61
(g82
g63
NtRp3331
(dp3332
g66
(dp3333
g86
g87
ssg75
g3327
sg68
(lp3334
g298
asbag61
(g82
g63
NtRp3335
(dp3336
g66
(dp3337
g93
g94
ssg75
g3327
sg68
(lp3338
S':'
asbag61
(g82
g63
NtRp3339
(dp3340
g66
(dp3341
sg75
g3327
sg68
(lp3342
g61
(g62
g63
NtRp3343
(dp3344
g66
(dp3345
g74
I3
ssg75
g3339
sg68
(lp3346
S''
asbasbasbag61
(g77
g63
NtRp3347
(dp3348
g66
(dp3349
sg75
g3323
sg68
(lp3350
g61
(g82
g63
NtRp3351
(dp3352
g66
(dp3353
g86
g87
ssg75
g3347
sg68
(lp3354
g319
asbag61
(g82
g63
NtRp3355
(dp3356
g66
(dp3357
g93
g94
ssg75
g3347
sg68
(lp3358
S':'
asbag61
(g82
g63
NtRp3359
(dp3360
g66
(dp3361
sg75
g3347
sg68
(lp3362
g61
(g62
g63
NtRp3363
(dp3364
g66
(dp3365
g74
I3
ssg75
g3359
sg68
(lp3366
S''
asbasbasbag61
(g77
g63
NtRp3367
(dp3368
g66
(dp3369
sg75
g3323
sg68
(lp3370
g61
(g82
g63
NtRp3371
(dp3372
g66
(dp3373
g86
g87
ssg75
g3367
sg68
(lp3374
g340
asbag61
(g82
g63
NtRp3375
(dp3376
g66
(dp3377
g93
g94
ssg75
g3367
sg68
(lp3378
S':'
asbag61
(g82
g63
NtRp3379
(dp3380
g66
(dp3381
sg75
g3367
sg68
(lp3382
g61
(g62
g63
NtRp3383
(dp3384
g66
(dp3385
g74
I3
ssg75
g3379
sg68
(lp3386
S''
asbasbasbag61
(g77
g63
NtRp3387
(dp3388
g66
(dp3389
sg75
g3323
sg68
(lp3390
g61
(g82
g63
NtRp3391
(dp3392
g66
(dp3393
g86
g87
ssg75
g3387
sg68
(lp3394
g361
asbag61
(g82
g63
NtRp3395
(dp3396
g66
(dp3397
g93
g94
ssg75
g3387
sg68
(lp3398
S':'
asbag61
(g82
g63
NtRp3399
(dp3400
g66
(dp3401
sg75
g3387
sg68
(lp3402
g61
(g62
g63
NtRp3403
(dp3404
g66
(dp3405
g74
I3
ssg75
g3399
sg68
(lp3406
S''
asbasbasbag61
(g77
g63
NtRp3407
(dp3408
g66
(dp3409
sg75
g3323
sg68
(lp3410
g61
(g82
g63
NtRp3411
(dp3412
g66
(dp3413
g86
g87
ssg75
g3407
sg68
(lp3414
g382
asbag61
(g82
g63
NtRp3415
(dp3416
g66
(dp3417
g93
g94
ssg75
g3407
sg68
(lp3418
S':'
asbag61
(g82
g63
NtRp3419
(dp3420
g66
(dp3421
sg75
g3407
sg68
(lp3422
g61
(g62
g63
NtRp3423
(dp3424
g66
(dp3425
g74
I3
ssg75
g3419
sg68
(lp3426
S''
asbasbasbag61
(g77
g63
NtRp3427
(dp3428
g66
(dp3429
sg75
g3323
sg68
(lp3430
g61
(g82
g63
NtRp3431
(dp3432
g66
(dp3433
g86
g87
ssg75
g3427
sg68
(lp3434
g403
asbag61
(g82
g63
NtRp3435
(dp3436
g66
(dp3437
g93
g94
ssg75
g3427
sg68
(lp3438
S':'
asbag61
(g82
g63
NtRp3439
(dp3440
g66
(dp3441
sg75
g3427
sg68
(lp3442
g61
(g62
g63
NtRp3443
(dp3444
g66
(dp3445
g74
I3
ssg75
g3439
sg68
(lp3446
S'/'
asbasbasbag61
(g77
g63
NtRp3447
(dp3448
g66
(dp3449
sg75
g3323
sg68
(lp3450
g61
(g82
g63
NtRp3451
(dp3452
g66
(dp3453
g86
g87
ssg75
g3447
sg68
(lp3454
g424
asbag61
(g82
g63
NtRp3455
(dp3456
g66
(dp3457
g93
g94
ssg75
g3447
sg68
(lp3458
S':'
asbag61
(g82
g63
NtRp3459
(dp3460
g66
(dp3461
sg75
g3447
sg68
(lp3462
g61
(g62
g63
NtRp3463
(dp3464
g66
(dp3465
g74
I3
ssg75
g3459
sg68
(lp3466
S''
asbasbasbag61
(g77
g63
NtRp3467
(dp3468
g66
(dp3469
sg75
g3323
sg68
(lp3470
g61
(g82
g63
NtRp3471
(dp3472
g66
(dp3473
g86
g87
ssg75
g3467
sg68
(lp3474
g445
asbag61
(g82
g63
NtRp3475
(dp3476
g66
(dp3477
g93
g94
ssg75
g3467
sg68
(lp3478
S':'
asbag61
(g82
g63
NtRp3479
(dp3480
g66
(dp3481
sg75
g3467
sg68
(lp3482
g61
(g62
g63
NtRp3483
(dp3484
g66
(dp3485
g74
I3
ssg75
g3479
sg68
(lp3486
S''
asbasbasbasbasbasbasbasbasbasbasbag61
(g77
g63
NtRp3487
(dp3488
g66
(dp3489
sg75
g3252
sg68
(lp3490
g61
(g82
g63
NtRp3491
(dp3492
g66
(dp3493
g86
g87
ssg75
g3487
sg68
(lp3494
S'delimiters'
p3495
asbag61
(g82
g63
NtRp3496
(dp3497
g66
(dp3498
g93
g94
ssg75
g3487
sg68
(lp3499
S':'
asbag61
(g82
g63
NtRp3500
(dp3501
g66
(dp3502
sg75
g3487
sg68
(lp3503
g61
(g62
g63
NtRp3504
(dp3505
g66
(dp3506
g74
I5
ssg75
g3500
sg68
(lp3507
g61
(g70
g63
NtRp3508
(dp3509
g66
(dp3510
g74
I4
ssg75
Nsg68
(lp3511
g61
(g77
g63
NtRp3512
(dp3513
g66
(dp3514
sg75
g3508
sg68
(lp3515
g61
(g82
g63
NtRp3516
(dp3517
g66
(dp3518
sg75
g3512
sg68
(lp3519
g61
(g62
g63
NtRp3520
(dp3521
g66
(dp3522
g74
I4
ssg75
g3516
sg68
(lp3523
S'{{'
p3524
asbasbasbag61
(g77
g63
NtRp3525
(dp3526
g66
(dp3527
sg75
g3508
sg68
(lp3528
g61
(g82
g63
NtRp3529
(dp3530
g66
(dp3531
sg75
g3525
sg68
(lp3532
g61
(g62
g63
NtRp3533
(dp3534
g66
(dp3535
g74
I4
ssg75
g3529
sg68
(lp3536
S'}}'
p3537
asbasbasbasbasbasbasbag61
(g77
g63
NtRp3538
(dp3539
g66
(dp3540
sg75
g3252
sg68
(lp3541
g61
(g82
g63
NtRp3542
(dp3543
g66
(dp3544
g86
g87
ssg75
g3538
sg68
(lp3545
S'files'
p3546
asbag61
(g82
g63
NtRp3547
(dp3548
g66
(dp3549
g93
g94
ssg75
g3538
sg68
(lp3550
S':'
asbag61
(g82
g63
NtRp3551
(dp3552
g66
(dp3553
sg75
g3538
sg68
(lp3554
g61
(g62
g63
NtRp3555
(dp3556
g66
(dp3557
g74
I5
ssg75
g3551
sg68
(lp3558
g61
(g70
g63
NtRp3559
(dp3560
g66
(dp3561
g74
I4
ssg75
Nsg68
(lp3562
sbasbasbasbag61
(g77
g63
NtRp3563
(dp3564
g66
(dp3565
sg75
g3252
sg68
(lp3566
g61
(g82
g63
NtRp3567
(dp3568
g66
(dp3569
g86
g87
ssg75
g3563
sg68
(lp3570
S'flash'
p3571
asbag61
(g82
g63
NtRp3572
(dp3573
g66
(dp3574
g93
g94
ssg75
g3563
sg68
(lp3575
S':'
asbag61
(g82
g63
NtRp3576
(dp3577
g66
(dp3578
sg75
g3563
sg68
(lp3579
g61
(g62
g63
NtRp3580
(dp3581
g66
(dp3582
g74
I5
ssg75
g3576
sg68
(lp3583
S''
asbasbasbag61
(g77
g63
NtRp3584
(dp3585
g66
(dp3586
sg75
g3252
sg68
(lp3587
g61
(g82
g63
NtRp3588
(dp3589
g66
(dp3590
g86
g87
ssg75
g3584
sg68
(lp3591
S'generic_patterns'
p3592
asbag61
(g82
g63
NtRp3593
(dp3594
g66
(dp3595
g93
g94
ssg75
g3584
sg68
(lp3596
S':'
asbag61
(g82
g63
NtRp3597
(dp3598
g66
(dp3599
sg75
g3584
sg68
(lp3600
g61
(g62
g63
NtRp3601
(dp3602
g66
(dp3603
g74
I5
ssg75
g3597
sg68
(lp3604
g61
(g70
g63
NtRp3605
(dp3606
g66
(dp3607
g74
I4
ssg75
Nsg68
(lp3608
g61
(g77
g63
NtRp3609
(dp3610
g66
(dp3611
sg75
g3605
sg68
(lp3612
g61
(g82
g63
NtRp3613
(dp3614
g66
(dp3615
sg75
g3609
sg68
(lp3616
g61
(g62
g63
NtRp3617
(dp3618
g66
(dp3619
g74
I4
ssg75
g3613
sg68
(lp3620
S'*'
asbasbasbasbasbasbasbag61
(g77
g63
NtRp3621
(dp3622
g66
(dp3623
sg75
g3252
sg68
(lp3624
g61
(g82
g63
NtRp3625
(dp3626
g66
(dp3627
g86
g87
ssg75
g3621
sg68
(lp3628
S'headers'
p3629
asbag61
(g82
g63
NtRp3630
(dp3631
g66
(dp3632
g93
g94
ssg75
g3621
sg68
(lp3633
S':'
asbag61
(g82
g63
NtRp3634
(dp3635
g66
(dp3636
sg75
g3621
sg68
(lp3637
g61
(g62
g63
NtRp3638
(dp3639
g66
(dp3640
g74
I5
ssg75
g3634
sg68
(lp3641
g61
(g70
g63
NtRp3642
(dp3643
g66
(dp3644
g74
I4
ssg75
Nsg68
(lp3645
g61
(g77
g63
NtRp3646
(dp3647
g66
(dp3648
sg75
g3642
sg68
(lp3649
g61
(g82
g63
NtRp3650
(dp3651
g66
(dp3652
g86
g87
ssg75
g3646
sg68
(lp3653
S'X-Powered-By'
p3654
asbag61
(g82
g63
NtRp3655
(dp3656
g66
(dp3657
g93
g94
ssg75
g3646
sg68
(lp3658
S':'
asbag61
(g82
g63
NtRp3659
(dp3660
g66
(dp3661
sg75
g3646
sg68
(lp3662
g61
(g62
g63
NtRp3663
(dp3664
g66
(dp3665
g74
I4
ssg75
g3659
sg68
(lp3666
S'web2py'
p3667
asbasbasbasbasbasbasbag61
(g77
g63
NtRp3668
(dp3669
g66
(dp3670
sg75
g3252
sg68
(lp3671
g61
(g82
g63
NtRp3672
(dp3673
g66
(dp3674
g86
g87
ssg75
g3668
sg68
(lp3675
S'menu'
p3676
asbag61
(g82
g63
NtRp3677
(dp3678
g66
(dp3679
g93
g94
ssg75
g3668
sg68
(lp3680
S':'
asbag61
(g82
g63
NtRp3681
(dp3682
g66
(dp3683
sg75
g3668
sg68
(lp3684
g61
(g62
g63
NtRp3685
(dp3686
g66
(dp3687
g74
I5
ssg75
g3681
sg68
(lp3688
g61
(g70
g63
NtRp3689
(dp3690
g66
(dp3691
g74
I4
ssg75
Nsg68
(lp3692
sbasbasbasbag61
(g77
g63
NtRp3693
(dp3694
g66
(dp3695
sg75
g3252
sg68
(lp3696
g61
(g82
g63
NtRp3697
(dp3698
g66
(dp3699
g86
g87
ssg75
g3693
sg68
(lp3700
S'meta'
p3701
asbag61
(g82
g63
NtRp3702
(dp3703
g66
(dp3704
g93
g94
ssg75
g3693
sg68
(lp3705
S':'
asbag61
(g82
g63
NtRp3706
(dp3707
g66
(dp3708
sg75
g3693
sg68
(lp3709
g61
(g62
g63
NtRp3710
(dp3711
g66
(dp3712
g74
I5
ssg75
g3706
sg68
(lp3713
g61
(g70
g63
NtRp3714
(dp3715
g66
(dp3716
g74
I4
ssg75
Nsg68
(lp3717
sbasbasbasbag61
(g77
g63
NtRp3718
(dp3719
g66
(dp3720
sg75
g3252
sg68
(lp3721
g61
(g82
g63
NtRp3722
(dp3723
g66
(dp3724
g86
g87
ssg75
g3718
sg68
(lp3725
S'models_to_run'
p3726
asbag61
(g82
g63
NtRp3727
(dp3728
g66
(dp3729
g93
g94
ssg75
g3718
sg68
(lp3730
S':'
asbag61
(g82
g63
NtRp3731
(dp3732
g66
(dp3733
sg75
g3718
sg68
(lp3734
g61
(g62
g63
NtRp3735
(dp3736
g66
(dp3737
g74
I5
ssg75
g3731
sg68
(lp3738
g61
(g70
g63
NtRp3739
(dp3740
g66
(dp3741
g74
I4
ssg75
Nsg68
(lp3742
g61
(g77
g63
NtRp3743
(dp3744
g66
(dp3745
sg75
g3739
sg68
(lp3746
g61
(g82
g63
NtRp3747
(dp3748
g66
(dp3749
sg75
g3743
sg68
(lp3750
g61
(g62
g63
NtRp3751
(dp3752
g66
(dp3753
g74
I4
ssg75
g3747
sg68
(lp3754
S'^\\w+\\.py$'
p3755
asbasbasbag61
(g77
g63
NtRp3756
(dp3757
g66
(dp3758
sg75
g3739
sg68
(lp3759
g61
(g82
g63
NtRp3760
(dp3761
g66
(dp3762
sg75
g3756
sg68
(lp3763
g61
(g62
g63
NtRp3764
(dp3765
g66
(dp3766
g74
I4
ssg75
g3760
sg68
(lp3767
S'^default/\\w+\\.py$'
p3768
asbasbasbag61
(g77
g63
NtRp3769
(dp3770
g66
(dp3771
sg75
g3739
sg68
(lp3772
g61
(g82
g63
NtRp3773
(dp3774
g66
(dp3775
sg75
g3769
sg68
(lp3776
g61
(g62
g63
NtRp3777
(dp3778
g66
(dp3779
g74
I4
ssg75
g3773
sg68
(lp3780
S'^default/index/\\w+\\.py$'
p3781
asbasbasbasbasbasbasbag61
(g77
g63
NtRp3782
(dp3783
g66
(dp3784
sg75
g3252
sg68
(lp3785
g61
(g82
g63
NtRp3786
(dp3787
g66
(dp3788
g86
g87
ssg75
g3782
sg68
(lp3789
S'postprocessing'
p3790
asbag61
(g82
g63
NtRp3791
(dp3792
g66
(dp3793
g93
g94
ssg75
g3782
sg68
(lp3794
S':'
asbag61
(g82
g63
NtRp3795
(dp3796
g66
(dp3797
sg75
g3782
sg68
(lp3798
g61
(g62
g63
NtRp3799
(dp3800
g66
(dp3801
g74
I5
ssg75
g3795
sg68
(lp3802
g61
(g70
g63
NtRp3803
(dp3804
g66
(dp3805
g74
I4
ssg75
Nsg68
(lp3806
sbasbasbasbag61
(g77
g63
NtRp3807
(dp3808
g66
(dp3809
sg75
g3252
sg68
(lp3810
g61
(g82
g63
NtRp3811
(dp3812
g66
(dp3813
g86
g87
ssg75
g3807
sg68
(lp3814
S'session_cookie_expires'
p3815
asbag61
(g82
g63
NtRp3816
(dp3817
g66
(dp3818
g93
g94
ssg75
g3807
sg68
(lp3819
S':'
asbag61
(g82
g63
NtRp3820
(dp3821
g66
(dp3822
sg75
g3807
sg68
(lp3823
g61
(g62
g63
NtRp3824
(dp3825
g66
(dp3826
g74
I5
ssg75
g3820
sg68
(lp3827
S'None'
p3828
asbasbasbag61
(g77
g63
NtRp3829
(dp3830
g66
(dp3831
sg75
g3252
sg68
(lp3832
g61
(g82
g63
NtRp3833
(dp3834
g66
(dp3835
g86
g87
ssg75
g3829
sg68
(lp3836
S'session_data_name'
p3837
asbag61
(g82
g63
NtRp3838
(dp3839
g66
(dp3840
g93
g94
ssg75
g3829
sg68
(lp3841
S':'
asbag61
(g82
g63
NtRp3842
(dp3843
g66
(dp3844
sg75
g3829
sg68
(lp3845
g61
(g62
g63
NtRp3846
(dp3847
g66
(dp3848
g74
I5
ssg75
g3842
sg68
(lp3849
S'session_data_rosan'
p3850
asbasbasbag61
(g77
g63
NtRp3851
(dp3852
g66
(dp3853
sg75
g3252
sg68
(lp3854
g61
(g82
g63
NtRp3855
(dp3856
g66
(dp3857
g86
g87
ssg75
g3851
sg68
(lp3858
S'session_filename'
p3859
asbag61
(g82
g63
NtRp3860
(dp3861
g66
(dp3862
g93
g94
ssg75
g3851
sg68
(lp3863
S':'
asbag61
(g82
g63
NtRp3864
(dp3865
g66
(dp3866
sg75
g3851
sg68
(lp3867
g61
(g62
g63
NtRp3868
(dp3869
g66
(dp3870
g74
I5
ssg75
g3864
sg68
(lp3871
S'/Users/Truki/web2py/applications/rosan/sessions/127.0.0.1-08276a7c-585e-4f81-a976-64578faf5d94'
p3872
asbasbasbag61
(g77
g63
NtRp3873
(dp3874
g66
(dp3875
sg75
g3252
sg68
(lp3876
g61
(g82
g63
NtRp3877
(dp3878
g66
(dp3879
g86
g87
ssg75
g3873
sg68
(lp3880
S'session_id'
p3881
asbag61
(g82
g63
NtRp3882
(dp3883
g66
(dp3884
g93
g94
ssg75
g3873
sg68
(lp3885
S':'
asbag61
(g82
g63
NtRp3886
(dp3887
g66
(dp3888
sg75
g3873
sg68
(lp3889
g61
(g62
g63
NtRp3890
(dp3891
g66
(dp3892
g74
I5
ssg75
g3886
sg68
(lp3893
g3322
asbasbasbag61
(g77
g63
NtRp3894
(dp3895
g66
(dp3896
sg75
g3252
sg68
(lp3897
g61
(g82
g63
NtRp3898
(dp3899
g66
(dp3900
g86
g87
ssg75
g3894
sg68
(lp3901
S'session_id_name'
p3902
asbag61
(g82
g63
NtRp3903
(dp3904
g66
(dp3905
g93
g94
ssg75
g3894
sg68
(lp3906
S':'
asbag61
(g82
g63
NtRp3907
(dp3908
g66
(dp3909
sg75
g3894
sg68
(lp3910
g61
(g62
g63
NtRp3911
(dp3912
g66
(dp3913
g74
I5
ssg75
g3907
sg68
(lp3914
g3309
asbasbasbag61
(g77
g63
NtRp3915
(dp3916
g66
(dp3917
sg75
g3252
sg68
(lp3918
g61
(g82
g63
NtRp3919
(dp3920
g66
(dp3921
g86
g87
ssg75
g3915
sg68
(lp3922
S'session_new'
p3923
asbag61
(g82
g63
NtRp3924
(dp3925
g66
(dp3926
g93
g94
ssg75
g3915
sg68
(lp3927
S':'
asbag61
(g82
g63
NtRp3928
(dp3929
g66
(dp3930
sg75
g3915
sg68
(lp3931
g61
(g62
g63
NtRp3932
(dp3933
g66
(dp3934
g74
I5
ssg75
g3928
sg68
(lp3935
g1608
asbasbasbag61
(g77
g63
NtRp3936
(dp3937
g66
(dp3938
sg75
g3252
sg68
(lp3939
g61
(g82
g63
NtRp3940
(dp3941
g66
(dp3942
g86
g87
ssg75
g3936
sg68
(lp3943
S'session_storage_type'
p3944
asbag61
(g82
g63
NtRp3945
(dp3946
g66
(dp3947
g93
g94
ssg75
g3936
sg68
(lp3948
S':'
asbag61
(g82
g63
NtRp3949
(dp3950
g66
(dp3951
sg75
g3936
sg68
(lp3952
g61
(g62
g63
NtRp3953
(dp3954
g66
(dp3955
g74
I5
ssg75
g3949
sg68
(lp3956
g3060
asbasbasbag61
(g77
g63
NtRp3957
(dp3958
g66
(dp3959
sg75
g3252
sg68
(lp3960
g61
(g82
g63
NtRp3961
(dp3962
g66
(dp3963
g86
g87
ssg75
g3957
sg68
(lp3964
S'status'
p3965
asbag61
(g82
g63
NtRp3966
(dp3967
g66
(dp3968
g93
g94
ssg75
g3957
sg68
(lp3969
S':'
asbag61
(g82
g63
NtRp3970
(dp3971
g66
(dp3972
sg75
g3957
sg68
(lp3973
g61
(g62
g63
NtRp3974
(dp3975
g66
(dp3976
g74
I5
ssg75
g3970
sg68
(lp3977
S'200'
p3978
asbasbasbag61
(g77
g63
NtRp3979
(dp3980
g66
(dp3981
sg75
g3252
sg68
(lp3982
g61
(g82
g63
NtRp3983
(dp3984
g66
(dp3985
g86
g87
ssg75
g3979
sg68
(lp3986
S'view'
p3987
asbag61
(g82
g63
NtRp3988
(dp3989
g66
(dp3990
g93
g94
ssg75
g3979
sg68
(lp3991
S':'
asbag61
(g82
g63
NtRp3992
(dp3993
g66
(dp3994
sg75
g3979
sg68
(lp3995
g61
(g62
g63
NtRp3996
(dp3997
g66
(dp3998
g74
I5
ssg75
g3992
sg68
(lp3999
S'default/index.html'
p4000
asbasbasbasbasbsS'locals'
p4001
(dp4002
S'a'
S"('ALTER TABLE cliente ADD www CHAR(200) NOT NULL;',)"
p4003
sS'self'
p4004
S'<gluon.dal.SQLiteAdapter object>'
p4005
sS'b'
g21
sS'command'
p4006
S"'ALTER TABLE cliente ADD www CHAR(200) NOT NULL;'"
p4007
sS't0'
p4008
S'1353516393.490547'
p4009
sssS'traceback'
p4010
S'Traceback (most recent call last):\n  File "/Users/Truki/web2py/gluon/restricted.py", line 212, in restricted\n    exec ccode in environment\n  File "/Users/Truki/web2py/applications/rosan/models/db_rosan.py", line 23, in <module>\n    SQLField("www","string", length=200, notnull=True, default=None)\n  File "/Users/Truki/web2py/gluon/dal.py", line 7086, in define_table\n    table = self.lazy_define_table(tablename,*fields,**args)\n  File "/Users/Truki/web2py/gluon/dal.py", line 7118, in lazy_define_table\n    polymodel=polymodel)\n  File "/Users/Truki/web2py/gluon/dal.py", line 949, in create_table\n    fake_migrate=fake_migrate)\n  File "/Users/Truki/web2py/gluon/dal.py", line 1055, in migrate_table\n    self.execute(sub_query)\n  File "/Users/Truki/web2py/gluon/dal.py", line 1694, in execute\n    return self.log_execute(*a, **b)\n  File "/Users/Truki/web2py/gluon/dal.py", line 1688, in log_execute\n    ret = self.cursor.execute(*a, **b)\nOperationalError: Cannot add a NOT NULL column with default value NULL\n'
p4011
s.