(dp1
S'output'
p2
S"<type 'exceptions.SyntaxError'> invalid syntax (clientes.py, line 40)"
p3
sS'layer'
p4
S'/Users/Truki/web2py/applications/rosan/controllers/clientes.py'
p5
sS'code'
p6
S'# -*- coding: utf-8 -*-\n### required - do no delete\ndef user(): return dict(form=auth())\ndef download(): return response.download(request,db)\ndef call(): return service()\n### end requires\ndef index():\n    clientes = dbRosan().select(dbRosan.cliente.ALL, orderby=dbRosan.cliente.nombre)\n    return dict(clientes=clientes)\n\n\ndef eliminar():\n    id = request.args[0]\n    clienteEliminado = dbRosan.cliente(id)\n    nombre = clienteEliminado.nombre\n    dbRosan(dbRosan.cliente.id==id).delete()\n    return dict(id=id, nombre=nombre)\n\n    \n\ndef clientes():\n    form = SQLFORM(dbRosan.cliente)\n    if form.process().accepted:\n        response.flash = \'cliente insertado\'\n    return dict(form=form)  \n  \n\ndef nuevoCliente():\n    info = ""\n    errores = ""\n\n    form = SQLFORM(dbRosan.cliente)\n    \n    if form.process().accepted:\n        info = "El cliente ha sido insertado"\n    elif form.errors:\n        errores = "Ha habido errores compruebe los campos"\n    else:\n        info = "Rellene el formulario para introducir un cliente en la base de datos."\n    return dict(form=form info=info, errores=errores)\nresponse._vars=response._caller(index)\n'
p7
sS'snapshot'
p8
(dp9
S'exception'
p10
(dp11
S'__getslice__'
p12
S"<method-wrapper '__getslice__' of exceptions.SyntaxError object>"
p13
sS'text'
p14
S"'    return dict(form=form info=info, errores=errores)\\n'"
p15
sS'__str__'
p16
S"<method-wrapper '__str__' of exceptions.SyntaxError object>"
p17
sS'__reduce__'
p18
S'<built-in method __reduce__ of exceptions.SyntaxError object>'
p19
sS'__dict__'
p20
S'{}'
p21
sS'__sizeof__'
p22
S'<built-in method __sizeof__ of exceptions.SyntaxError object>'
p23
sS'__init__'
p24
S"<method-wrapper '__init__' of exceptions.SyntaxError object>"
p25
sS'__setattr__'
p26
S"<method-wrapper '__setattr__' of exceptions.SyntaxError object>"
p27
sS'__reduce_ex__'
p28
S'<built-in method __reduce_ex__ of exceptions.SyntaxError object>'
p29
sS'__new__'
p30
S'<built-in method __new__ of type object>'
p31
sS'__format__'
p32
S'<built-in method __format__ of exceptions.SyntaxError object>'
p33
sS'__class__'
p34
S"<type 'exceptions.SyntaxError'>"
p35
sS'filename'
p36
S"'/Users/Truki/web2py/applications/rosan/controllers/clientes.py'"
p37
sS'lineno'
p38
S'40'
p39
sS'msg'
p40
S"'invalid syntax'"
p41
sS'__doc__'
p42
S"'Invalid syntax.'"
p43
sS'__getitem__'
p44
S"<method-wrapper '__getitem__' of exceptions.SyntaxError object>"
p45
sS'__setstate__'
p46
S'<built-in method __setstate__ of exceptions.SyntaxError object>'
p47
sS'__getattribute__'
p48
S"<method-wrapper '__getattribute__' of exceptions.SyntaxError object>"
p49
sS'print_file_and_line'
p50
S'None'
p51
sS'args'
p52
S"('invalid syntax', ('/Users/Truki/web2py/applications/rosan/controllers/clientes.py', 40, 30, '    return dict(form=form info=info, errores=errores)\\n'))"
p53
sS'__subclasshook__'
p54
S'<built-in method __subclasshook__ of type object>'
p55
sS'offset'
p56
S'30'
p57
sS'__unicode__'
p58
S'<built-in method __unicode__ of exceptions.SyntaxError object>'
p59
sS'__delattr__'
p60
S"<method-wrapper '__delattr__' of exceptions.SyntaxError object>"
p61
sS'__repr__'
p62
S"<method-wrapper '__repr__' of exceptions.SyntaxError object>"
p63
sS'__hash__'
p64
S"<method-wrapper '__hash__' of exceptions.SyntaxError object>"
p65
ssS'evalue'
p66
S'invalid syntax (clientes.py, line 40)'
p67
sS'request'
p68
ccopy_reg
_reconstructor
p69
(cgluon.html
BEAUTIFY
p70
c__builtin__
object
p71
NtRp72
(dp73
S'attributes'
p74
(dp75
sS'components'
p76
(lp77
g69
(cgluon.html
TABLE
p78
g71
NtRp79
(dp80
g74
(dp81
S'level'
p82
I5
ssS'parent'
p83
Nsg76
(lp84
g69
(cgluon.html
TR
p85
g71
NtRp86
(dp87
g74
(dp88
sg83
g79
sg76
(lp89
g69
(cgluon.html
TD
p90
g71
NtRp91
(dp92
g74
(dp93
S'_style'
p94
S'font-weight:bold;vertical-align:top'
p95
ssg83
g86
sg76
(lp96
S'ajax'
p97
asbag69
(g90
g71
NtRp98
(dp99
g74
(dp100
S'_valign'
p101
S'top'
p102
ssg83
g86
sg76
(lp103
S':'
asbag69
(g90
g71
NtRp104
(dp105
g74
(dp106
sg83
g86
sg76
(lp107
g69
(g70
g71
NtRp108
(dp109
g74
(dp110
g82
I5
ssg83
g104
sg76
(lp111
S'False'
p112
asbasbasbag69
(g85
g71
NtRp113
(dp114
g74
(dp115
sg83
g79
sg76
(lp116
g69
(g90
g71
NtRp117
(dp118
g74
(dp119
g94
g95
ssg83
g113
sg76
(lp120
S'application'
p121
asbag69
(g90
g71
NtRp122
(dp123
g74
(dp124
g101
g102
ssg83
g113
sg76
(lp125
S':'
asbag69
(g90
g71
NtRp126
(dp127
g74
(dp128
sg83
g113
sg76
(lp129
g69
(g70
g71
NtRp130
(dp131
g74
(dp132
g82
I5
ssg83
g126
sg76
(lp133
S'rosan'
p134
asbasbasbag69
(g85
g71
NtRp135
(dp136
g74
(dp137
sg83
g79
sg76
(lp138
g69
(g90
g71
NtRp139
(dp140
g74
(dp141
g94
g95
ssg83
g135
sg76
(lp142
g52
asbag69
(g90
g71
NtRp143
(dp144
g74
(dp145
g101
g102
ssg83
g135
sg76
(lp146
S':'
asbag69
(g90
g71
NtRp147
(dp148
g74
(dp149
sg83
g135
sg76
(lp150
g69
(g70
g71
NtRp151
(dp152
g74
(dp153
g82
I5
ssg83
g147
sg76
(lp154
g69
(g78
g71
NtRp155
(dp156
g74
(dp157
g82
I4
ssg83
Nsg76
(lp158
sbasbasbasbag69
(g85
g71
NtRp159
(dp160
g74
(dp161
sg83
g79
sg76
(lp162
g69
(g90
g71
NtRp163
(dp164
g74
(dp165
g94
g95
ssg83
g159
sg76
(lp166
S'body'
p167
asbag69
(g90
g71
NtRp168
(dp169
g74
(dp170
g101
g102
ssg83
g159
sg76
(lp171
S':'
asbag69
(g90
g71
NtRp172
(dp173
g74
(dp174
sg83
g159
sg76
(lp175
g69
(g70
g71
NtRp176
(dp177
g74
(dp178
g82
I5
ssg83
g172
sg76
(lp179
S'<cStringIO.StringO object at 0x186f8580>'
p180
asbasbasbag69
(g85
g71
NtRp181
(dp182
g74
(dp183
sg83
g79
sg76
(lp184
g69
(g90
g71
NtRp185
(dp186
g74
(dp187
g94
g95
ssg83
g181
sg76
(lp188
S'cid'
p189
asbag69
(g90
g71
NtRp190
(dp191
g74
(dp192
g101
g102
ssg83
g181
sg76
(lp193
S':'
asbag69
(g90
g71
NtRp194
(dp195
g74
(dp196
sg83
g181
sg76
(lp197
g69
(g70
g71
NtRp198
(dp199
g74
(dp200
g82
I5
ssg83
g194
sg76
(lp201
S'None'
p202
asbasbasbag69
(g85
g71
NtRp203
(dp204
g74
(dp205
sg83
g79
sg76
(lp206
g69
(g90
g71
NtRp207
(dp208
g74
(dp209
g94
g95
ssg83
g203
sg76
(lp210
S'client'
p211
asbag69
(g90
g71
NtRp212
(dp213
g74
(dp214
g101
g102
ssg83
g203
sg76
(lp215
S':'
asbag69
(g90
g71
NtRp216
(dp217
g74
(dp218
sg83
g203
sg76
(lp219
g69
(g70
g71
NtRp220
(dp221
g74
(dp222
g82
I5
ssg83
g216
sg76
(lp223
S'127.0.0.1'
p224
asbasbasbag69
(g85
g71
NtRp225
(dp226
g74
(dp227
sg83
g79
sg76
(lp228
g69
(g90
g71
NtRp229
(dp230
g74
(dp231
g94
g95
ssg83
g225
sg76
(lp232
S'controller'
p233
asbag69
(g90
g71
NtRp234
(dp235
g74
(dp236
g101
g102
ssg83
g225
sg76
(lp237
S':'
asbag69
(g90
g71
NtRp238
(dp239
g74
(dp240
sg83
g225
sg76
(lp241
g69
(g70
g71
NtRp242
(dp243
g74
(dp244
g82
I5
ssg83
g238
sg76
(lp245
S'clientes'
p246
asbasbasbag69
(g85
g71
NtRp247
(dp248
g74
(dp249
sg83
g79
sg76
(lp250
g69
(g90
g71
NtRp251
(dp252
g74
(dp253
g94
g95
ssg83
g247
sg76
(lp254
S'cookies'
p255
asbag69
(g90
g71
NtRp256
(dp257
g74
(dp258
g101
g102
ssg83
g247
sg76
(lp259
S':'
asbag69
(g90
g71
NtRp260
(dp261
g74
(dp262
sg83
g247
sg76
(lp263
g69
(g70
g71
NtRp264
(dp265
g74
(dp266
g82
I5
ssg83
g260
sg76
(lp267
g69
(g78
g71
NtRp268
(dp269
g74
(dp270
g82
I4
ssg83
Nsg76
(lp271
g69
(g85
g71
NtRp272
(dp273
g74
(dp274
sg83
g268
sg76
(lp275
g69
(g90
g71
NtRp276
(dp277
g74
(dp278
g94
g95
ssg83
g272
sg76
(lp279
S'session_id_admin'
p280
asbag69
(g90
g71
NtRp281
(dp282
g74
(dp283
g101
g102
ssg83
g272
sg76
(lp284
S':'
asbag69
(g90
g71
NtRp285
(dp286
g74
(dp287
sg83
g272
sg76
(lp288
g69
(g70
g71
NtRp289
(dp290
g74
(dp291
g82
I4
ssg83
g285
sg76
(lp292
S'127.0.0.1-6e934a6a-b7eb-4d02-8ce3-00c38085d6eb'
p293
ag69
(g78
g71
NtRp294
(dp295
g74
(dp296
g82
I3
ssg83
Nsg76
(lp297
g69
(g85
g71
NtRp298
(dp299
g74
(dp300
sg83
g294
sg76
(lp301
g69
(g90
g71
NtRp302
(dp303
g74
(dp304
g94
g95
ssg83
g298
sg76
(lp305
S'comment'
p306
asbag69
(g90
g71
NtRp307
(dp308
g74
(dp309
g101
g102
ssg83
g298
sg76
(lp310
S':'
asbag69
(g90
g71
NtRp311
(dp312
g74
(dp313
sg83
g298
sg76
(lp314
g69
(g70
g71
NtRp315
(dp316
g74
(dp317
g82
I3
ssg83
g311
sg76
(lp318
S''
asbasbasbag69
(g85
g71
NtRp319
(dp320
g74
(dp321
sg83
g294
sg76
(lp322
g69
(g90
g71
NtRp323
(dp324
g74
(dp325
g94
g95
ssg83
g319
sg76
(lp326
S'domain'
p327
asbag69
(g90
g71
NtRp328
(dp329
g74
(dp330
g101
g102
ssg83
g319
sg76
(lp331
S':'
asbag69
(g90
g71
NtRp332
(dp333
g74
(dp334
sg83
g319
sg76
(lp335
g69
(g70
g71
NtRp336
(dp337
g74
(dp338
g82
I3
ssg83
g332
sg76
(lp339
S''
asbasbasbag69
(g85
g71
NtRp340
(dp341
g74
(dp342
sg83
g294
sg76
(lp343
g69
(g90
g71
NtRp344
(dp345
g74
(dp346
g94
g95
ssg83
g340
sg76
(lp347
S'expires'
p348
asbag69
(g90
g71
NtRp349
(dp350
g74
(dp351
g101
g102
ssg83
g340
sg76
(lp352
S':'
asbag69
(g90
g71
NtRp353
(dp354
g74
(dp355
sg83
g340
sg76
(lp356
g69
(g70
g71
NtRp357
(dp358
g74
(dp359
g82
I3
ssg83
g353
sg76
(lp360
S''
asbasbasbag69
(g85
g71
NtRp361
(dp362
g74
(dp363
sg83
g294
sg76
(lp364
g69
(g90
g71
NtRp365
(dp366
g74
(dp367
g94
g95
ssg83
g361
sg76
(lp368
S'httponly'
p369
asbag69
(g90
g71
NtRp370
(dp371
g74
(dp372
g101
g102
ssg83
g361
sg76
(lp373
S':'
asbag69
(g90
g71
NtRp374
(dp375
g74
(dp376
sg83
g361
sg76
(lp377
g69
(g70
g71
NtRp378
(dp379
g74
(dp380
g82
I3
ssg83
g374
sg76
(lp381
S''
asbasbasbag69
(g85
g71
NtRp382
(dp383
g74
(dp384
sg83
g294
sg76
(lp385
g69
(g90
g71
NtRp386
(dp387
g74
(dp388
g94
g95
ssg83
g382
sg76
(lp389
S'max-age'
p390
asbag69
(g90
g71
NtRp391
(dp392
g74
(dp393
g101
g102
ssg83
g382
sg76
(lp394
S':'
asbag69
(g90
g71
NtRp395
(dp396
g74
(dp397
sg83
g382
sg76
(lp398
g69
(g70
g71
NtRp399
(dp400
g74
(dp401
g82
I3
ssg83
g395
sg76
(lp402
S''
asbasbasbag69
(g85
g71
NtRp403
(dp404
g74
(dp405
sg83
g294
sg76
(lp406
g69
(g90
g71
NtRp407
(dp408
g74
(dp409
g94
g95
ssg83
g403
sg76
(lp410
S'path'
p411
asbag69
(g90
g71
NtRp412
(dp413
g74
(dp414
g101
g102
ssg83
g403
sg76
(lp415
S':'
asbag69
(g90
g71
NtRp416
(dp417
g74
(dp418
sg83
g403
sg76
(lp419
g69
(g70
g71
NtRp420
(dp421
g74
(dp422
g82
I3
ssg83
g416
sg76
(lp423
S''
asbasbasbag69
(g85
g71
NtRp424
(dp425
g74
(dp426
sg83
g294
sg76
(lp427
g69
(g90
g71
NtRp428
(dp429
g74
(dp430
g94
g95
ssg83
g424
sg76
(lp431
S'secure'
p432
asbag69
(g90
g71
NtRp433
(dp434
g74
(dp435
g101
g102
ssg83
g424
sg76
(lp436
S':'
asbag69
(g90
g71
NtRp437
(dp438
g74
(dp439
sg83
g424
sg76
(lp440
g69
(g70
g71
NtRp441
(dp442
g74
(dp443
g82
I3
ssg83
g437
sg76
(lp444
S''
asbasbasbag69
(g85
g71
NtRp445
(dp446
g74
(dp447
sg83
g294
sg76
(lp448
g69
(g90
g71
NtRp449
(dp450
g74
(dp451
g94
g95
ssg83
g445
sg76
(lp452
S'version'
p453
asbag69
(g90
g71
NtRp454
(dp455
g74
(dp456
g101
g102
ssg83
g445
sg76
(lp457
S':'
asbag69
(g90
g71
NtRp458
(dp459
g74
(dp460
sg83
g445
sg76
(lp461
g69
(g70
g71
NtRp462
(dp463
g74
(dp464
g82
I3
ssg83
g458
sg76
(lp465
S''
asbasbasbasbasbasbasbag69
(g85
g71
NtRp466
(dp467
g74
(dp468
sg83
g268
sg76
(lp469
g69
(g90
g71
NtRp470
(dp471
g74
(dp472
g94
g95
ssg83
g466
sg76
(lp473
S'session_id_rosan'
p474
asbag69
(g90
g71
NtRp475
(dp476
g74
(dp477
g101
g102
ssg83
g466
sg76
(lp478
S':'
asbag69
(g90
g71
NtRp479
(dp480
g74
(dp481
sg83
g466
sg76
(lp482
g69
(g70
g71
NtRp483
(dp484
g74
(dp485
g82
I4
ssg83
g479
sg76
(lp486
S'127.0.0.1-7f26bdf4-3ca9-4fdc-87e8-ce55bec35287'
p487
ag69
(g78
g71
NtRp488
(dp489
g74
(dp490
g82
I3
ssg83
Nsg76
(lp491
g69
(g85
g71
NtRp492
(dp493
g74
(dp494
sg83
g488
sg76
(lp495
g69
(g90
g71
NtRp496
(dp497
g74
(dp498
g94
g95
ssg83
g492
sg76
(lp499
g306
asbag69
(g90
g71
NtRp500
(dp501
g74
(dp502
g101
g102
ssg83
g492
sg76
(lp503
S':'
asbag69
(g90
g71
NtRp504
(dp505
g74
(dp506
sg83
g492
sg76
(lp507
g69
(g70
g71
NtRp508
(dp509
g74
(dp510
g82
I3
ssg83
g504
sg76
(lp511
S''
asbasbasbag69
(g85
g71
NtRp512
(dp513
g74
(dp514
sg83
g488
sg76
(lp515
g69
(g90
g71
NtRp516
(dp517
g74
(dp518
g94
g95
ssg83
g512
sg76
(lp519
g327
asbag69
(g90
g71
NtRp520
(dp521
g74
(dp522
g101
g102
ssg83
g512
sg76
(lp523
S':'
asbag69
(g90
g71
NtRp524
(dp525
g74
(dp526
sg83
g512
sg76
(lp527
g69
(g70
g71
NtRp528
(dp529
g74
(dp530
g82
I3
ssg83
g524
sg76
(lp531
S''
asbasbasbag69
(g85
g71
NtRp532
(dp533
g74
(dp534
sg83
g488
sg76
(lp535
g69
(g90
g71
NtRp536
(dp537
g74
(dp538
g94
g95
ssg83
g532
sg76
(lp539
g348
asbag69
(g90
g71
NtRp540
(dp541
g74
(dp542
g101
g102
ssg83
g532
sg76
(lp543
S':'
asbag69
(g90
g71
NtRp544
(dp545
g74
(dp546
sg83
g532
sg76
(lp547
g69
(g70
g71
NtRp548
(dp549
g74
(dp550
g82
I3
ssg83
g544
sg76
(lp551
S''
asbasbasbag69
(g85
g71
NtRp552
(dp553
g74
(dp554
sg83
g488
sg76
(lp555
g69
(g90
g71
NtRp556
(dp557
g74
(dp558
g94
g95
ssg83
g552
sg76
(lp559
g369
asbag69
(g90
g71
NtRp560
(dp561
g74
(dp562
g101
g102
ssg83
g552
sg76
(lp563
S':'
asbag69
(g90
g71
NtRp564
(dp565
g74
(dp566
sg83
g552
sg76
(lp567
g69
(g70
g71
NtRp568
(dp569
g74
(dp570
g82
I3
ssg83
g564
sg76
(lp571
S''
asbasbasbag69
(g85
g71
NtRp572
(dp573
g74
(dp574
sg83
g488
sg76
(lp575
g69
(g90
g71
NtRp576
(dp577
g74
(dp578
g94
g95
ssg83
g572
sg76
(lp579
g390
asbag69
(g90
g71
NtRp580
(dp581
g74
(dp582
g101
g102
ssg83
g572
sg76
(lp583
S':'
asbag69
(g90
g71
NtRp584
(dp585
g74
(dp586
sg83
g572
sg76
(lp587
g69
(g70
g71
NtRp588
(dp589
g74
(dp590
g82
I3
ssg83
g584
sg76
(lp591
S''
asbasbasbag69
(g85
g71
NtRp592
(dp593
g74
(dp594
sg83
g488
sg76
(lp595
g69
(g90
g71
NtRp596
(dp597
g74
(dp598
g94
g95
ssg83
g592
sg76
(lp599
g411
asbag69
(g90
g71
NtRp600
(dp601
g74
(dp602
g101
g102
ssg83
g592
sg76
(lp603
S':'
asbag69
(g90
g71
NtRp604
(dp605
g74
(dp606
sg83
g592
sg76
(lp607
g69
(g70
g71
NtRp608
(dp609
g74
(dp610
g82
I3
ssg83
g604
sg76
(lp611
S''
asbasbasbag69
(g85
g71
NtRp612
(dp613
g74
(dp614
sg83
g488
sg76
(lp615
g69
(g90
g71
NtRp616
(dp617
g74
(dp618
g94
g95
ssg83
g612
sg76
(lp619
g432
asbag69
(g90
g71
NtRp620
(dp621
g74
(dp622
g101
g102
ssg83
g612
sg76
(lp623
S':'
asbag69
(g90
g71
NtRp624
(dp625
g74
(dp626
sg83
g612
sg76
(lp627
g69
(g70
g71
NtRp628
(dp629
g74
(dp630
g82
I3
ssg83
g624
sg76
(lp631
S''
asbasbasbag69
(g85
g71
NtRp632
(dp633
g74
(dp634
sg83
g488
sg76
(lp635
g69
(g90
g71
NtRp636
(dp637
g74
(dp638
g94
g95
ssg83
g632
sg76
(lp639
g453
asbag69
(g90
g71
NtRp640
(dp641
g74
(dp642
g101
g102
ssg83
g632
sg76
(lp643
S':'
asbag69
(g90
g71
NtRp644
(dp645
g74
(dp646
sg83
g632
sg76
(lp647
g69
(g70
g71
NtRp648
(dp649
g74
(dp650
g82
I3
ssg83
g644
sg76
(lp651
S''
asbasbasbasbasbasbasbag69
(g85
g71
NtRp652
(dp653
g74
(dp654
sg83
g268
sg76
(lp655
g69
(g90
g71
NtRp656
(dp657
g74
(dp658
g94
g95
ssg83
g652
sg76
(lp659
S'session_id_welcome'
p660
asbag69
(g90
g71
NtRp661
(dp662
g74
(dp663
g101
g102
ssg83
g652
sg76
(lp664
S':'
asbag69
(g90
g71
NtRp665
(dp666
g74
(dp667
sg83
g652
sg76
(lp668
g69
(g70
g71
NtRp669
(dp670
g74
(dp671
g82
I4
ssg83
g665
sg76
(lp672
S'127.0.0.1-8f90e8a3-eddc-453c-854f-2f5c6c04811a'
p673
ag69
(g78
g71
NtRp674
(dp675
g74
(dp676
g82
I3
ssg83
Nsg76
(lp677
g69
(g85
g71
NtRp678
(dp679
g74
(dp680
sg83
g674
sg76
(lp681
g69
(g90
g71
NtRp682
(dp683
g74
(dp684
g94
g95
ssg83
g678
sg76
(lp685
g306
asbag69
(g90
g71
NtRp686
(dp687
g74
(dp688
g101
g102
ssg83
g678
sg76
(lp689
S':'
asbag69
(g90
g71
NtRp690
(dp691
g74
(dp692
sg83
g678
sg76
(lp693
g69
(g70
g71
NtRp694
(dp695
g74
(dp696
g82
I3
ssg83
g690
sg76
(lp697
S''
asbasbasbag69
(g85
g71
NtRp698
(dp699
g74
(dp700
sg83
g674
sg76
(lp701
g69
(g90
g71
NtRp702
(dp703
g74
(dp704
g94
g95
ssg83
g698
sg76
(lp705
g327
asbag69
(g90
g71
NtRp706
(dp707
g74
(dp708
g101
g102
ssg83
g698
sg76
(lp709
S':'
asbag69
(g90
g71
NtRp710
(dp711
g74
(dp712
sg83
g698
sg76
(lp713
g69
(g70
g71
NtRp714
(dp715
g74
(dp716
g82
I3
ssg83
g710
sg76
(lp717
S''
asbasbasbag69
(g85
g71
NtRp718
(dp719
g74
(dp720
sg83
g674
sg76
(lp721
g69
(g90
g71
NtRp722
(dp723
g74
(dp724
g94
g95
ssg83
g718
sg76
(lp725
g348
asbag69
(g90
g71
NtRp726
(dp727
g74
(dp728
g101
g102
ssg83
g718
sg76
(lp729
S':'
asbag69
(g90
g71
NtRp730
(dp731
g74
(dp732
sg83
g718
sg76
(lp733
g69
(g70
g71
NtRp734
(dp735
g74
(dp736
g82
I3
ssg83
g730
sg76
(lp737
S''
asbasbasbag69
(g85
g71
NtRp738
(dp739
g74
(dp740
sg83
g674
sg76
(lp741
g69
(g90
g71
NtRp742
(dp743
g74
(dp744
g94
g95
ssg83
g738
sg76
(lp745
g369
asbag69
(g90
g71
NtRp746
(dp747
g74
(dp748
g101
g102
ssg83
g738
sg76
(lp749
S':'
asbag69
(g90
g71
NtRp750
(dp751
g74
(dp752
sg83
g738
sg76
(lp753
g69
(g70
g71
NtRp754
(dp755
g74
(dp756
g82
I3
ssg83
g750
sg76
(lp757
S''
asbasbasbag69
(g85
g71
NtRp758
(dp759
g74
(dp760
sg83
g674
sg76
(lp761
g69
(g90
g71
NtRp762
(dp763
g74
(dp764
g94
g95
ssg83
g758
sg76
(lp765
g390
asbag69
(g90
g71
NtRp766
(dp767
g74
(dp768
g101
g102
ssg83
g758
sg76
(lp769
S':'
asbag69
(g90
g71
NtRp770
(dp771
g74
(dp772
sg83
g758
sg76
(lp773
g69
(g70
g71
NtRp774
(dp775
g74
(dp776
g82
I3
ssg83
g770
sg76
(lp777
S''
asbasbasbag69
(g85
g71
NtRp778
(dp779
g74
(dp780
sg83
g674
sg76
(lp781
g69
(g90
g71
NtRp782
(dp783
g74
(dp784
g94
g95
ssg83
g778
sg76
(lp785
g411
asbag69
(g90
g71
NtRp786
(dp787
g74
(dp788
g101
g102
ssg83
g778
sg76
(lp789
S':'
asbag69
(g90
g71
NtRp790
(dp791
g74
(dp792
sg83
g778
sg76
(lp793
g69
(g70
g71
NtRp794
(dp795
g74
(dp796
g82
I3
ssg83
g790
sg76
(lp797
S''
asbasbasbag69
(g85
g71
NtRp798
(dp799
g74
(dp800
sg83
g674
sg76
(lp801
g69
(g90
g71
NtRp802
(dp803
g74
(dp804
g94
g95
ssg83
g798
sg76
(lp805
g432
asbag69
(g90
g71
NtRp806
(dp807
g74
(dp808
g101
g102
ssg83
g798
sg76
(lp809
S':'
asbag69
(g90
g71
NtRp810
(dp811
g74
(dp812
sg83
g798
sg76
(lp813
g69
(g70
g71
NtRp814
(dp815
g74
(dp816
g82
I3
ssg83
g810
sg76
(lp817
S''
asbasbasbag69
(g85
g71
NtRp818
(dp819
g74
(dp820
sg83
g674
sg76
(lp821
g69
(g90
g71
NtRp822
(dp823
g74
(dp824
g94
g95
ssg83
g818
sg76
(lp825
g453
asbag69
(g90
g71
NtRp826
(dp827
g74
(dp828
g101
g102
ssg83
g818
sg76
(lp829
S':'
asbag69
(g90
g71
NtRp830
(dp831
g74
(dp832
sg83
g818
sg76
(lp833
g69
(g70
g71
NtRp834
(dp835
g74
(dp836
g82
I3
ssg83
g830
sg76
(lp837
S''
asbasbasbasbasbasbasbasbasbasbasbag69
(g85
g71
NtRp838
(dp839
g74
(dp840
sg83
g79
sg76
(lp841
g69
(g90
g71
NtRp842
(dp843
g74
(dp844
g94
g95
ssg83
g838
sg76
(lp845
S'env'
p846
asbag69
(g90
g71
NtRp847
(dp848
g74
(dp849
g101
g102
ssg83
g838
sg76
(lp850
S':'
asbag69
(g90
g71
NtRp851
(dp852
g74
(dp853
sg83
g838
sg76
(lp854
g69
(g70
g71
NtRp855
(dp856
g74
(dp857
g82
I5
ssg83
g851
sg76
(lp858
g69
(g78
g71
NtRp859
(dp860
g74
(dp861
g82
I4
ssg83
Nsg76
(lp862
g69
(g85
g71
NtRp863
(dp864
g74
(dp865
sg83
g859
sg76
(lp866
g69
(g90
g71
NtRp867
(dp868
g74
(dp869
g94
g95
ssg83
g863
sg76
(lp870
S'app_folders'
p871
asbag69
(g90
g71
NtRp872
(dp873
g74
(dp874
g101
g102
ssg83
g863
sg76
(lp875
S':'
asbag69
(g90
g71
NtRp876
(dp877
g74
(dp878
sg83
g863
sg76
(lp879
g69
(g70
g71
NtRp880
(dp881
g74
(dp882
g82
I4
ssg83
g876
sg76
(lp883
S"set(['/Users/Truki/web2py/applications/welcome/', '/Users/Truki/web2py/applications/admin/', '/Users/Truki/web2py/applications/rosan/'])"
p884
asbasbasbag69
(g85
g71
NtRp885
(dp886
g74
(dp887
sg83
g859
sg76
(lp888
g69
(g90
g71
NtRp889
(dp890
g74
(dp891
g94
g95
ssg83
g885
sg76
(lp892
S'applications_parent'
p893
asbag69
(g90
g71
NtRp894
(dp895
g74
(dp896
g101
g102
ssg83
g885
sg76
(lp897
S':'
asbag69
(g90
g71
NtRp898
(dp899
g74
(dp900
sg83
g885
sg76
(lp901
g69
(g70
g71
NtRp902
(dp903
g74
(dp904
g82
I4
ssg83
g898
sg76
(lp905
S'/Users/Truki/web2py'
p906
asbasbasbag69
(g85
g71
NtRp907
(dp908
g74
(dp909
sg83
g859
sg76
(lp910
g69
(g90
g71
NtRp911
(dp912
g74
(dp913
g94
g95
ssg83
g907
sg76
(lp914
S'cmd_args'
p915
asbag69
(g90
g71
NtRp916
(dp917
g74
(dp918
g101
g102
ssg83
g907
sg76
(lp919
S':'
asbag69
(g90
g71
NtRp920
(dp921
g74
(dp922
sg83
g907
sg76
(lp923
g69
(g70
g71
NtRp924
(dp925
g74
(dp926
g82
I4
ssg83
g920
sg76
(lp927
g69
(g78
g71
NtRp928
(dp929
g74
(dp930
g82
I3
ssg83
Nsg76
(lp931
sbasbasbasbag69
(g85
g71
NtRp932
(dp933
g74
(dp934
sg83
g859
sg76
(lp935
g69
(g90
g71
NtRp936
(dp937
g74
(dp938
g94
g95
ssg83
g932
sg76
(lp939
S'cmd_options'
p940
asbag69
(g90
g71
NtRp941
(dp942
g74
(dp943
g101
g102
ssg83
g932
sg76
(lp944
S':'
asbag69
(g90
g71
NtRp945
(dp946
g74
(dp947
sg83
g932
sg76
(lp948
g69
(g70
g71
NtRp949
(dp950
g74
(dp951
g82
I4
ssg83
g945
sg76
(lp952
S"<Values at 0x19b2418: {'verbose': False, 'ip': '127.0.0.1', 'with_scheduler': False, 'ips': ['192.168.1.33'], 'shutdown_timeout': 5, 'taskbar': False, 'port': 8000, 'maxthreads': None, 'softcron': False, 'server_name': 'MBT.local', 'bpython': False, 'nogui': False, 'pid_filename': 'httpserver.pid', 'extcron': False, 'runcron': False, 'run_system_tests': False, 'test': None, 'folder': '/Users/Truki/web2py', 'config': '', 'import_models': False, 'winservice': '', 'shell': None, 'run': '', 'log_filename': 'httpserver.log', 'debuglevel': 30, 'args': [''], 'socket_timeout': 5, 'ssl_ca_certificate': None, 'scheduler': None, 'profiler_filename': None, 'ssl_private_key': '', 'scheduler_groups': None, 'password': '<ask>', 'request_queue_size': 5, 'ssl_certificate': '', 'cronjob': False, 'numthreads': None, 'quiet': False, 'interfaces': None, 'minthreads': None, 'timeout': 10, 'plain': False, 'nobanner': False}>"
p953
asbasbasbag69
(g85
g71
NtRp954
(dp955
g74
(dp956
sg83
g859
sg76
(lp957
g69
(g90
g71
NtRp958
(dp959
g74
(dp960
g94
g95
ssg83
g954
sg76
(lp961
S'db_sessions'
p962
asbag69
(g90
g71
NtRp963
(dp964
g74
(dp965
g101
g102
ssg83
g954
sg76
(lp966
S':'
asbag69
(g90
g71
NtRp967
(dp968
g74
(dp969
sg83
g954
sg76
(lp970
g69
(g70
g71
NtRp971
(dp972
g74
(dp973
g82
I4
ssg83
g967
sg76
(lp974
S'set([])'
p975
asbasbasbag69
(g85
g71
NtRp976
(dp977
g74
(dp978
sg83
g859
sg76
(lp979
g69
(g90
g71
NtRp980
(dp981
g74
(dp982
g94
g95
ssg83
g976
sg76
(lp983
S'debugging'
p984
asbag69
(g90
g71
NtRp985
(dp986
g74
(dp987
g101
g102
ssg83
g976
sg76
(lp988
S':'
asbag69
(g90
g71
NtRp989
(dp990
g74
(dp991
sg83
g976
sg76
(lp992
g69
(g70
g71
NtRp993
(dp994
g74
(dp995
g82
I4
ssg83
g989
sg76
(lp996
g112
asbasbasbag69
(g85
g71
NtRp997
(dp998
g74
(dp999
sg83
g859
sg76
(lp1000
g69
(g90
g71
NtRp1001
(dp1002
g74
(dp1003
g94
g95
ssg83
g997
sg76
(lp1004
S'gluon_parent'
p1005
asbag69
(g90
g71
NtRp1006
(dp1007
g74
(dp1008
g101
g102
ssg83
g997
sg76
(lp1009
S':'
asbag69
(g90
g71
NtRp1010
(dp1011
g74
(dp1012
sg83
g997
sg76
(lp1013
g69
(g70
g71
NtRp1014
(dp1015
g74
(dp1016
g82
I4
ssg83
g1010
sg76
(lp1017
S'/Users/Truki/web2py'
p1018
asbasbasbag69
(g85
g71
NtRp1019
(dp1020
g74
(dp1021
sg83
g859
sg76
(lp1022
g69
(g90
g71
NtRp1023
(dp1024
g74
(dp1025
g94
g95
ssg83
g1019
sg76
(lp1026
S'http_accept'
p1027
asbag69
(g90
g71
NtRp1028
(dp1029
g74
(dp1030
g101
g102
ssg83
g1019
sg76
(lp1031
S':'
asbag69
(g90
g71
NtRp1032
(dp1033
g74
(dp1034
sg83
g1019
sg76
(lp1035
g69
(g70
g71
NtRp1036
(dp1037
g74
(dp1038
g82
I4
ssg83
g1032
sg76
(lp1039
S'text/html,application/xhtml+xml,application/xml;q=0.9,*/*;q=0.8'
p1040
asbasbasbag69
(g85
g71
NtRp1041
(dp1042
g74
(dp1043
sg83
g859
sg76
(lp1044
g69
(g90
g71
NtRp1045
(dp1046
g74
(dp1047
g94
g95
ssg83
g1041
sg76
(lp1048
S'http_accept_charset'
p1049
asbag69
(g90
g71
NtRp1050
(dp1051
g74
(dp1052
g101
g102
ssg83
g1041
sg76
(lp1053
S':'
asbag69
(g90
g71
NtRp1054
(dp1055
g74
(dp1056
sg83
g1041
sg76
(lp1057
g69
(g70
g71
NtRp1058
(dp1059
g74
(dp1060
g82
I4
ssg83
g1054
sg76
(lp1061
S'ISO-8859-1,utf-8;q=0.7,*;q=0.3'
p1062
asbasbasbag69
(g85
g71
NtRp1063
(dp1064
g74
(dp1065
sg83
g859
sg76
(lp1066
g69
(g90
g71
NtRp1067
(dp1068
g74
(dp1069
g94
g95
ssg83
g1063
sg76
(lp1070
S'http_accept_encoding'
p1071
asbag69
(g90
g71
NtRp1072
(dp1073
g74
(dp1074
g101
g102
ssg83
g1063
sg76
(lp1075
S':'
asbag69
(g90
g71
NtRp1076
(dp1077
g74
(dp1078
sg83
g1063
sg76
(lp1079
g69
(g70
g71
NtRp1080
(dp1081
g74
(dp1082
g82
I4
ssg83
g1076
sg76
(lp1083
S'gzip,deflate,sdch'
p1084
asbasbasbag69
(g85
g71
NtRp1085
(dp1086
g74
(dp1087
sg83
g859
sg76
(lp1088
g69
(g90
g71
NtRp1089
(dp1090
g74
(dp1091
g94
g95
ssg83
g1085
sg76
(lp1092
S'http_accept_language'
p1093
asbag69
(g90
g71
NtRp1094
(dp1095
g74
(dp1096
g101
g102
ssg83
g1085
sg76
(lp1097
S':'
asbag69
(g90
g71
NtRp1098
(dp1099
g74
(dp1100
sg83
g1085
sg76
(lp1101
g69
(g70
g71
NtRp1102
(dp1103
g74
(dp1104
g82
I4
ssg83
g1098
sg76
(lp1105
S'es-ES,es;q=0.8'
p1106
asbasbasbag69
(g85
g71
NtRp1107
(dp1108
g74
(dp1109
sg83
g859
sg76
(lp1110
g69
(g90
g71
NtRp1111
(dp1112
g74
(dp1113
g94
g95
ssg83
g1107
sg76
(lp1114
S'http_connection'
p1115
asbag69
(g90
g71
NtRp1116
(dp1117
g74
(dp1118
g101
g102
ssg83
g1107
sg76
(lp1119
S':'
asbag69
(g90
g71
NtRp1120
(dp1121
g74
(dp1122
sg83
g1107
sg76
(lp1123
g69
(g70
g71
NtRp1124
(dp1125
g74
(dp1126
g82
I4
ssg83
g1120
sg76
(lp1127
S'keep-alive'
p1128
asbasbasbag69
(g85
g71
NtRp1129
(dp1130
g74
(dp1131
sg83
g859
sg76
(lp1132
g69
(g90
g71
NtRp1133
(dp1134
g74
(dp1135
g94
g95
ssg83
g1129
sg76
(lp1136
S'http_cookie'
p1137
asbag69
(g90
g71
NtRp1138
(dp1139
g74
(dp1140
g101
g102
ssg83
g1129
sg76
(lp1141
S':'
asbag69
(g90
g71
NtRp1142
(dp1143
g74
(dp1144
sg83
g1129
sg76
(lp1145
g69
(g70
g71
NtRp1146
(dp1147
g74
(dp1148
g82
I4
ssg83
g1142
sg76
(lp1149
S'session_id_welcome=127.0.0.1-8f90e8a3-eddc-453c-854f-2f5c6c04811a; session_id_rosan=127.0.0.1-7f26bdf4-3ca9-4fdc-87e8-ce55bec35287; session_id_admin=127.0.0.1-6e934a6a-b7eb-4d02-8ce3-00c38085d6eb'
p1150
asbasbasbag69
(g85
g71
NtRp1151
(dp1152
g74
(dp1153
sg83
g859
sg76
(lp1154
g69
(g90
g71
NtRp1155
(dp1156
g74
(dp1157
g94
g95
ssg83
g1151
sg76
(lp1158
S'http_host'
p1159
asbag69
(g90
g71
NtRp1160
(dp1161
g74
(dp1162
g101
g102
ssg83
g1151
sg76
(lp1163
S':'
asbag69
(g90
g71
NtRp1164
(dp1165
g74
(dp1166
sg83
g1151
sg76
(lp1167
g69
(g70
g71
NtRp1168
(dp1169
g74
(dp1170
g82
I4
ssg83
g1164
sg76
(lp1171
S'127.0.0.1:8000'
p1172
asbasbasbag69
(g85
g71
NtRp1173
(dp1174
g74
(dp1175
sg83
g859
sg76
(lp1176
g69
(g90
g71
NtRp1177
(dp1178
g74
(dp1179
g94
g95
ssg83
g1173
sg76
(lp1180
S'http_user_agent'
p1181
asbag69
(g90
g71
NtRp1182
(dp1183
g74
(dp1184
g101
g102
ssg83
g1173
sg76
(lp1185
S':'
asbag69
(g90
g71
NtRp1186
(dp1187
g74
(dp1188
sg83
g1173
sg76
(lp1189
g69
(g70
g71
NtRp1190
(dp1191
g74
(dp1192
g82
I4
ssg83
g1186
sg76
(lp1193
S'Mozilla/5.0 (Macintosh; Intel Mac OS X 10_6_6) AppleWebKit/537.17 (KHTML, like Gecko) Chrome/24.0.1312.52 Safari/537.17'
p1194
asbasbasbag69
(g85
g71
NtRp1195
(dp1196
g74
(dp1197
sg83
g859
sg76
(lp1198
g69
(g90
g71
NtRp1199
(dp1200
g74
(dp1201
g94
g95
ssg83
g1195
sg76
(lp1202
S'is_jython'
p1203
asbag69
(g90
g71
NtRp1204
(dp1205
g74
(dp1206
g101
g102
ssg83
g1195
sg76
(lp1207
S':'
asbag69
(g90
g71
NtRp1208
(dp1209
g74
(dp1210
sg83
g1195
sg76
(lp1211
g69
(g70
g71
NtRp1212
(dp1213
g74
(dp1214
g82
I4
ssg83
g1208
sg76
(lp1215
g112
asbasbasbag69
(g85
g71
NtRp1216
(dp1217
g74
(dp1218
sg83
g859
sg76
(lp1219
g69
(g90
g71
NtRp1220
(dp1221
g74
(dp1222
g94
g95
ssg83
g1216
sg76
(lp1223
S'is_pypy'
p1224
asbag69
(g90
g71
NtRp1225
(dp1226
g74
(dp1227
g101
g102
ssg83
g1216
sg76
(lp1228
S':'
asbag69
(g90
g71
NtRp1229
(dp1230
g74
(dp1231
sg83
g1216
sg76
(lp1232
g69
(g70
g71
NtRp1233
(dp1234
g74
(dp1235
g82
I4
ssg83
g1229
sg76
(lp1236
g112
asbasbasbag69
(g85
g71
NtRp1237
(dp1238
g74
(dp1239
sg83
g859
sg76
(lp1240
g69
(g90
g71
NtRp1241
(dp1242
g74
(dp1243
g94
g95
ssg83
g1237
sg76
(lp1244
S'local_hosts'
p1245
asbag69
(g90
g71
NtRp1246
(dp1247
g74
(dp1248
g101
g102
ssg83
g1237
sg76
(lp1249
S':'
asbag69
(g90
g71
NtRp1250
(dp1251
g74
(dp1252
sg83
g1237
sg76
(lp1253
g69
(g70
g71
NtRp1254
(dp1255
g74
(dp1256
g82
I4
ssg83
g1250
sg76
(lp1257
g69
(g78
g71
NtRp1258
(dp1259
g74
(dp1260
g82
I3
ssg83
Nsg76
(lp1261
g69
(g85
g71
NtRp1262
(dp1263
g74
(dp1264
sg83
g1258
sg76
(lp1265
g69
(g90
g71
NtRp1266
(dp1267
g74
(dp1268
sg83
g1262
sg76
(lp1269
g69
(g70
g71
NtRp1270
(dp1271
g74
(dp1272
g82
I3
ssg83
g1266
sg76
(lp1273
S'127.0.0.1'
p1274
asbasbasbag69
(g85
g71
NtRp1275
(dp1276
g74
(dp1277
sg83
g1258
sg76
(lp1278
g69
(g90
g71
NtRp1279
(dp1280
g74
(dp1281
sg83
g1275
sg76
(lp1282
g69
(g70
g71
NtRp1283
(dp1284
g74
(dp1285
g82
I3
ssg83
g1279
sg76
(lp1286
S'::ffff:127.0.0.1'
p1287
asbasbasbag69
(g85
g71
NtRp1288
(dp1289
g74
(dp1290
sg83
g1258
sg76
(lp1291
g69
(g90
g71
NtRp1292
(dp1293
g74
(dp1294
sg83
g1288
sg76
(lp1295
g69
(g70
g71
NtRp1296
(dp1297
g74
(dp1298
g82
I3
ssg83
g1292
sg76
(lp1299
S'MBT.local'
p1300
asbasbasbag69
(g85
g71
NtRp1301
(dp1302
g74
(dp1303
sg83
g1258
sg76
(lp1304
g69
(g90
g71
NtRp1305
(dp1306
g74
(dp1307
sg83
g1301
sg76
(lp1308
g69
(g70
g71
NtRp1309
(dp1310
g74
(dp1311
g82
I3
ssg83
g1305
sg76
(lp1312
S'MBT.local'
p1313
asbasbasbag69
(g85
g71
NtRp1314
(dp1315
g74
(dp1316
sg83
g1258
sg76
(lp1317
g69
(g90
g71
NtRp1318
(dp1319
g74
(dp1320
sg83
g1314
sg76
(lp1321
g69
(g70
g71
NtRp1322
(dp1323
g74
(dp1324
g82
I3
ssg83
g1318
sg76
(lp1325
S'192.168.1.33'
p1326
asbasbasbasbasbasbasbag69
(g85
g71
NtRp1327
(dp1328
g74
(dp1329
sg83
g859
sg76
(lp1330
g69
(g90
g71
NtRp1331
(dp1332
g74
(dp1333
g94
g95
ssg83
g1327
sg76
(lp1334
S'path_info'
p1335
asbag69
(g90
g71
NtRp1336
(dp1337
g74
(dp1338
g101
g102
ssg83
g1327
sg76
(lp1339
S':'
asbag69
(g90
g71
NtRp1340
(dp1341
g74
(dp1342
sg83
g1327
sg76
(lp1343
g69
(g70
g71
NtRp1344
(dp1345
g74
(dp1346
g82
I4
ssg83
g1340
sg76
(lp1347
S'/rosan/clientes/'
p1348
asbasbasbag69
(g85
g71
NtRp1349
(dp1350
g74
(dp1351
sg83
g859
sg76
(lp1352
g69
(g90
g71
NtRp1353
(dp1354
g74
(dp1355
g94
g95
ssg83
g1349
sg76
(lp1356
S'query_string'
p1357
asbag69
(g90
g71
NtRp1358
(dp1359
g74
(dp1360
g101
g102
ssg83
g1349
sg76
(lp1361
S':'
asbag69
(g90
g71
NtRp1362
(dp1363
g74
(dp1364
sg83
g1349
sg76
(lp1365
g69
(g70
g71
NtRp1366
(dp1367
g74
(dp1368
g82
I4
ssg83
g1362
sg76
(lp1369
S''
asbasbasbag69
(g85
g71
NtRp1370
(dp1371
g74
(dp1372
sg83
g859
sg76
(lp1373
g69
(g90
g71
NtRp1374
(dp1375
g74
(dp1376
g94
g95
ssg83
g1370
sg76
(lp1377
S'remote_addr'
p1378
asbag69
(g90
g71
NtRp1379
(dp1380
g74
(dp1381
g101
g102
ssg83
g1370
sg76
(lp1382
S':'
asbag69
(g90
g71
NtRp1383
(dp1384
g74
(dp1385
sg83
g1370
sg76
(lp1386
g69
(g70
g71
NtRp1387
(dp1388
g74
(dp1389
g82
I4
ssg83
g1383
sg76
(lp1390
g224
asbasbasbag69
(g85
g71
NtRp1391
(dp1392
g74
(dp1393
sg83
g859
sg76
(lp1394
g69
(g90
g71
NtRp1395
(dp1396
g74
(dp1397
g94
g95
ssg83
g1391
sg76
(lp1398
S'remote_port'
p1399
asbag69
(g90
g71
NtRp1400
(dp1401
g74
(dp1402
g101
g102
ssg83
g1391
sg76
(lp1403
S':'
asbag69
(g90
g71
NtRp1404
(dp1405
g74
(dp1406
sg83
g1391
sg76
(lp1407
g69
(g70
g71
NtRp1408
(dp1409
g74
(dp1410
g82
I4
ssg83
g1404
sg76
(lp1411
S'50923'
p1412
asbasbasbag69
(g85
g71
NtRp1413
(dp1414
g74
(dp1415
sg83
g859
sg76
(lp1416
g69
(g90
g71
NtRp1417
(dp1418
g74
(dp1419
g94
g95
ssg83
g1413
sg76
(lp1420
S'request_method'
p1421
asbag69
(g90
g71
NtRp1422
(dp1423
g74
(dp1424
g101
g102
ssg83
g1413
sg76
(lp1425
S':'
asbag69
(g90
g71
NtRp1426
(dp1427
g74
(dp1428
sg83
g1413
sg76
(lp1429
g69
(g70
g71
NtRp1430
(dp1431
g74
(dp1432
g82
I4
ssg83
g1426
sg76
(lp1433
S'GET'
p1434
asbasbasbag69
(g85
g71
NtRp1435
(dp1436
g74
(dp1437
sg83
g859
sg76
(lp1438
g69
(g90
g71
NtRp1439
(dp1440
g74
(dp1441
g94
g95
ssg83
g1435
sg76
(lp1442
S'request_uri'
p1443
asbag69
(g90
g71
NtRp1444
(dp1445
g74
(dp1446
g101
g102
ssg83
g1435
sg76
(lp1447
S':'
asbag69
(g90
g71
NtRp1448
(dp1449
g74
(dp1450
sg83
g1435
sg76
(lp1451
g69
(g70
g71
NtRp1452
(dp1453
g74
(dp1454
g82
I4
ssg83
g1448
sg76
(lp1455
g1348
asbasbasbag69
(g85
g71
NtRp1456
(dp1457
g74
(dp1458
sg83
g859
sg76
(lp1459
g69
(g90
g71
NtRp1460
(dp1461
g74
(dp1462
g94
g95
ssg83
g1456
sg76
(lp1463
S'script_name'
p1464
asbag69
(g90
g71
NtRp1465
(dp1466
g74
(dp1467
g101
g102
ssg83
g1456
sg76
(lp1468
S':'
asbag69
(g90
g71
NtRp1469
(dp1470
g74
(dp1471
sg83
g1456
sg76
(lp1472
g69
(g70
g71
NtRp1473
(dp1474
g74
(dp1475
g82
I4
ssg83
g1469
sg76
(lp1476
S''
asbasbasbag69
(g85
g71
NtRp1477
(dp1478
g74
(dp1479
sg83
g859
sg76
(lp1480
g69
(g90
g71
NtRp1481
(dp1482
g74
(dp1483
g94
g95
ssg83
g1477
sg76
(lp1484
S'server_name'
p1485
asbag69
(g90
g71
NtRp1486
(dp1487
g74
(dp1488
g101
g102
ssg83
g1477
sg76
(lp1489
S':'
asbag69
(g90
g71
NtRp1490
(dp1491
g74
(dp1492
sg83
g1477
sg76
(lp1493
g69
(g70
g71
NtRp1494
(dp1495
g74
(dp1496
g82
I4
ssg83
g1490
sg76
(lp1497
g1313
asbasbasbag69
(g85
g71
NtRp1498
(dp1499
g74
(dp1500
sg83
g859
sg76
(lp1501
g69
(g90
g71
NtRp1502
(dp1503
g74
(dp1504
g94
g95
ssg83
g1498
sg76
(lp1505
S'server_port'
p1506
asbag69
(g90
g71
NtRp1507
(dp1508
g74
(dp1509
g101
g102
ssg83
g1498
sg76
(lp1510
S':'
asbag69
(g90
g71
NtRp1511
(dp1512
g74
(dp1513
sg83
g1498
sg76
(lp1514
g69
(g70
g71
NtRp1515
(dp1516
g74
(dp1517
g82
I4
ssg83
g1511
sg76
(lp1518
S'8000'
p1519
asbasbasbag69
(g85
g71
NtRp1520
(dp1521
g74
(dp1522
sg83
g859
sg76
(lp1523
g69
(g90
g71
NtRp1524
(dp1525
g74
(dp1526
g94
g95
ssg83
g1520
sg76
(lp1527
S'server_protocol'
p1528
asbag69
(g90
g71
NtRp1529
(dp1530
g74
(dp1531
g101
g102
ssg83
g1520
sg76
(lp1532
S':'
asbag69
(g90
g71
NtRp1533
(dp1534
g74
(dp1535
sg83
g1520
sg76
(lp1536
g69
(g70
g71
NtRp1537
(dp1538
g74
(dp1539
g82
I4
ssg83
g1533
sg76
(lp1540
S'HTTP/1.1'
p1541
asbasbasbag69
(g85
g71
NtRp1542
(dp1543
g74
(dp1544
sg83
g859
sg76
(lp1545
g69
(g90
g71
NtRp1546
(dp1547
g74
(dp1548
g94
g95
ssg83
g1542
sg76
(lp1549
S'server_software'
p1550
asbag69
(g90
g71
NtRp1551
(dp1552
g74
(dp1553
g101
g102
ssg83
g1542
sg76
(lp1554
S':'
asbag69
(g90
g71
NtRp1555
(dp1556
g74
(dp1557
sg83
g1542
sg76
(lp1558
g69
(g70
g71
NtRp1559
(dp1560
g74
(dp1561
g82
I4
ssg83
g1555
sg76
(lp1562
S'Rocket 1.2.5'
p1563
asbasbasbag69
(g85
g71
NtRp1564
(dp1565
g74
(dp1566
sg83
g859
sg76
(lp1567
g69
(g90
g71
NtRp1568
(dp1569
g74
(dp1570
g94
g95
ssg83
g1564
sg76
(lp1571
S'web2py_path'
p1572
asbag69
(g90
g71
NtRp1573
(dp1574
g74
(dp1575
g101
g102
ssg83
g1564
sg76
(lp1576
S':'
asbag69
(g90
g71
NtRp1577
(dp1578
g74
(dp1579
sg83
g1564
sg76
(lp1580
g69
(g70
g71
NtRp1581
(dp1582
g74
(dp1583
g82
I4
ssg83
g1577
sg76
(lp1584
g906
asbasbasbag69
(g85
g71
NtRp1585
(dp1586
g74
(dp1587
sg83
g859
sg76
(lp1588
g69
(g90
g71
NtRp1589
(dp1590
g74
(dp1591
g94
g95
ssg83
g1585
sg76
(lp1592
S'web2py_version'
p1593
asbag69
(g90
g71
NtRp1594
(dp1595
g74
(dp1596
g101
g102
ssg83
g1585
sg76
(lp1597
S':'
asbag69
(g90
g71
NtRp1598
(dp1599
g74
(dp1600
sg83
g1585
sg76
(lp1601
g69
(g70
g71
NtRp1602
(dp1603
g74
(dp1604
g82
I4
ssg83
g1598
sg76
(lp1605
g69
(g78
g71
NtRp1606
(dp1607
g74
(dp1608
g82
I3
ssg83
Nsg76
(lp1609
g69
(g85
g71
NtRp1610
(dp1611
g74
(dp1612
sg83
g1606
sg76
(lp1613
g69
(g90
g71
NtRp1614
(dp1615
g74
(dp1616
sg83
g1610
sg76
(lp1617
g69
(g70
g71
NtRp1618
(dp1619
g74
(dp1620
g82
I3
ssg83
g1614
sg76
(lp1621
S'2'
asbasbasbag69
(g85
g71
NtRp1622
(dp1623
g74
(dp1624
sg83
g1606
sg76
(lp1625
g69
(g90
g71
NtRp1626
(dp1627
g74
(dp1628
sg83
g1622
sg76
(lp1629
g69
(g70
g71
NtRp1630
(dp1631
g74
(dp1632
g82
I3
ssg83
g1626
sg76
(lp1633
S'2'
asbasbasbag69
(g85
g71
NtRp1634
(dp1635
g74
(dp1636
sg83
g1606
sg76
(lp1637
g69
(g90
g71
NtRp1638
(dp1639
g74
(dp1640
sg83
g1634
sg76
(lp1641
g69
(g70
g71
NtRp1642
(dp1643
g74
(dp1644
g82
I3
ssg83
g1638
sg76
(lp1645
S'1'
asbasbasbag69
(g85
g71
NtRp1646
(dp1647
g74
(dp1648
sg83
g1606
sg76
(lp1649
g69
(g90
g71
NtRp1650
(dp1651
g74
(dp1652
sg83
g1646
sg76
(lp1653
g69
(g70
g71
NtRp1654
(dp1655
g74
(dp1656
g82
I3
ssg83
g1650
sg76
(lp1657
S'datetime.datetime(2012, 10, 21, 16, 57, 4)'
p1658
asbasbasbag69
(g85
g71
NtRp1659
(dp1660
g74
(dp1661
sg83
g1606
sg76
(lp1662
g69
(g90
g71
NtRp1663
(dp1664
g74
(dp1665
sg83
g1659
sg76
(lp1666
g69
(g70
g71
NtRp1667
(dp1668
g74
(dp1669
g82
I3
ssg83
g1663
sg76
(lp1670
S'stable'
p1671
asbasbasbasbasbasbasbag69
(g85
g71
NtRp1672
(dp1673
g74
(dp1674
sg83
g859
sg76
(lp1675
g69
(g90
g71
NtRp1676
(dp1677
g74
(dp1678
g94
g95
ssg83
g1672
sg76
(lp1679
S'wsgi_errors'
p1680
asbag69
(g90
g71
NtRp1681
(dp1682
g74
(dp1683
g101
g102
ssg83
g1672
sg76
(lp1684
S':'
asbag69
(g90
g71
NtRp1685
(dp1686
g74
(dp1687
sg83
g1672
sg76
(lp1688
g69
(g70
g71
NtRp1689
(dp1690
g74
(dp1691
g82
I4
ssg83
g1685
sg76
(lp1692
S"<open file '<stderr>', mode 'w' at 0x25a0d0>"
p1693
asbasbasbag69
(g85
g71
NtRp1694
(dp1695
g74
(dp1696
sg83
g859
sg76
(lp1697
g69
(g90
g71
NtRp1698
(dp1699
g74
(dp1700
g94
g95
ssg83
g1694
sg76
(lp1701
S'wsgi_file_wrapper'
p1702
asbag69
(g90
g71
NtRp1703
(dp1704
g74
(dp1705
g101
g102
ssg83
g1694
sg76
(lp1706
S':'
asbag69
(g90
g71
NtRp1707
(dp1708
g74
(dp1709
sg83
g1694
sg76
(lp1710
g69
(g70
g71
NtRp1711
(dp1712
g74
(dp1713
g82
I4
ssg83
g1707
sg76
(lp1714
S'<class wsgiref.util.FileWrapper at 0x1968d50>'
p1715
asbasbasbag69
(g85
g71
NtRp1716
(dp1717
g74
(dp1718
sg83
g859
sg76
(lp1719
g69
(g90
g71
NtRp1720
(dp1721
g74
(dp1722
g94
g95
ssg83
g1716
sg76
(lp1723
S'wsgi_input'
p1724
asbag69
(g90
g71
NtRp1725
(dp1726
g74
(dp1727
g101
g102
ssg83
g1716
sg76
(lp1728
S':'
asbag69
(g90
g71
NtRp1729
(dp1730
g74
(dp1731
sg83
g1716
sg76
(lp1732
g69
(g70
g71
NtRp1733
(dp1734
g74
(dp1735
g82
I4
ssg83
g1729
sg76
(lp1736
S'<socket._fileobject object at 0x186cd6b0>'
p1737
asbasbasbag69
(g85
g71
NtRp1738
(dp1739
g74
(dp1740
sg83
g859
sg76
(lp1741
g69
(g90
g71
NtRp1742
(dp1743
g74
(dp1744
g94
g95
ssg83
g1738
sg76
(lp1745
S'wsgi_multiprocess'
p1746
asbag69
(g90
g71
NtRp1747
(dp1748
g74
(dp1749
g101
g102
ssg83
g1738
sg76
(lp1750
S':'
asbag69
(g90
g71
NtRp1751
(dp1752
g74
(dp1753
sg83
g1738
sg76
(lp1754
g69
(g70
g71
NtRp1755
(dp1756
g74
(dp1757
g82
I4
ssg83
g1751
sg76
(lp1758
g112
asbasbasbag69
(g85
g71
NtRp1759
(dp1760
g74
(dp1761
sg83
g859
sg76
(lp1762
g69
(g90
g71
NtRp1763
(dp1764
g74
(dp1765
g94
g95
ssg83
g1759
sg76
(lp1766
S'wsgi_multithread'
p1767
asbag69
(g90
g71
NtRp1768
(dp1769
g74
(dp1770
g101
g102
ssg83
g1759
sg76
(lp1771
S':'
asbag69
(g90
g71
NtRp1772
(dp1773
g74
(dp1774
sg83
g1759
sg76
(lp1775
g69
(g70
g71
NtRp1776
(dp1777
g74
(dp1778
g82
I4
ssg83
g1772
sg76
(lp1779
S'True'
p1780
asbasbasbag69
(g85
g71
NtRp1781
(dp1782
g74
(dp1783
sg83
g859
sg76
(lp1784
g69
(g90
g71
NtRp1785
(dp1786
g74
(dp1787
g94
g95
ssg83
g1781
sg76
(lp1788
S'wsgi_run_once'
p1789
asbag69
(g90
g71
NtRp1790
(dp1791
g74
(dp1792
g101
g102
ssg83
g1781
sg76
(lp1793
S':'
asbag69
(g90
g71
NtRp1794
(dp1795
g74
(dp1796
sg83
g1781
sg76
(lp1797
g69
(g70
g71
NtRp1798
(dp1799
g74
(dp1800
g82
I4
ssg83
g1794
sg76
(lp1801
g112
asbasbasbag69
(g85
g71
NtRp1802
(dp1803
g74
(dp1804
sg83
g859
sg76
(lp1805
g69
(g90
g71
NtRp1806
(dp1807
g74
(dp1808
g94
g95
ssg83
g1802
sg76
(lp1809
S'wsgi_url_scheme'
p1810
asbag69
(g90
g71
NtRp1811
(dp1812
g74
(dp1813
g101
g102
ssg83
g1802
sg76
(lp1814
S':'
asbag69
(g90
g71
NtRp1815
(dp1816
g74
(dp1817
sg83
g1802
sg76
(lp1818
g69
(g70
g71
NtRp1819
(dp1820
g74
(dp1821
g82
I4
ssg83
g1815
sg76
(lp1822
S'http'
p1823
asbasbasbag69
(g85
g71
NtRp1824
(dp1825
g74
(dp1826
sg83
g859
sg76
(lp1827
g69
(g90
g71
NtRp1828
(dp1829
g74
(dp1830
g94
g95
ssg83
g1824
sg76
(lp1831
S'wsgi_version'
p1832
asbag69
(g90
g71
NtRp1833
(dp1834
g74
(dp1835
g101
g102
ssg83
g1824
sg76
(lp1836
S':'
asbag69
(g90
g71
NtRp1837
(dp1838
g74
(dp1839
sg83
g1824
sg76
(lp1840
g69
(g70
g71
NtRp1841
(dp1842
g74
(dp1843
g82
I4
ssg83
g1837
sg76
(lp1844
g69
(g78
g71
NtRp1845
(dp1846
g74
(dp1847
g82
I3
ssg83
Nsg76
(lp1848
g69
(g85
g71
NtRp1849
(dp1850
g74
(dp1851
sg83
g1845
sg76
(lp1852
g69
(g90
g71
NtRp1853
(dp1854
g74
(dp1855
sg83
g1849
sg76
(lp1856
g69
(g70
g71
NtRp1857
(dp1858
g74
(dp1859
g82
I3
ssg83
g1853
sg76
(lp1860
S'1'
asbasbasbag69
(g85
g71
NtRp1861
(dp1862
g74
(dp1863
sg83
g1845
sg76
(lp1864
g69
(g90
g71
NtRp1865
(dp1866
g74
(dp1867
sg83
g1861
sg76
(lp1868
g69
(g70
g71
NtRp1869
(dp1870
g74
(dp1871
g82
I3
ssg83
g1865
sg76
(lp1872
S'0'
asbasbasbasbasbasbasbasbasbasbasbag69
(g85
g71
NtRp1873
(dp1874
g74
(dp1875
sg83
g79
sg76
(lp1876
g69
(g90
g71
NtRp1877
(dp1878
g74
(dp1879
g94
g95
ssg83
g1873
sg76
(lp1880
S'extension'
p1881
asbag69
(g90
g71
NtRp1882
(dp1883
g74
(dp1884
g101
g102
ssg83
g1873
sg76
(lp1885
S':'
asbag69
(g90
g71
NtRp1886
(dp1887
g74
(dp1888
sg83
g1873
sg76
(lp1889
g69
(g70
g71
NtRp1890
(dp1891
g74
(dp1892
g82
I5
ssg83
g1886
sg76
(lp1893
S'html'
p1894
asbasbasbag69
(g85
g71
NtRp1895
(dp1896
g74
(dp1897
sg83
g79
sg76
(lp1898
g69
(g90
g71
NtRp1899
(dp1900
g74
(dp1901
g94
g95
ssg83
g1895
sg76
(lp1902
S'folder'
p1903
asbag69
(g90
g71
NtRp1904
(dp1905
g74
(dp1906
g101
g102
ssg83
g1895
sg76
(lp1907
S':'
asbag69
(g90
g71
NtRp1908
(dp1909
g74
(dp1910
sg83
g1895
sg76
(lp1911
g69
(g70
g71
NtRp1912
(dp1913
g74
(dp1914
g82
I5
ssg83
g1908
sg76
(lp1915
S'/Users/Truki/web2py/applications/rosan/'
p1916
asbasbasbag69
(g85
g71
NtRp1917
(dp1918
g74
(dp1919
sg83
g79
sg76
(lp1920
g69
(g90
g71
NtRp1921
(dp1922
g74
(dp1923
g94
g95
ssg83
g1917
sg76
(lp1924
S'function'
p1925
asbag69
(g90
g71
NtRp1926
(dp1927
g74
(dp1928
g101
g102
ssg83
g1917
sg76
(lp1929
S':'
asbag69
(g90
g71
NtRp1930
(dp1931
g74
(dp1932
sg83
g1917
sg76
(lp1933
g69
(g70
g71
NtRp1934
(dp1935
g74
(dp1936
g82
I5
ssg83
g1930
sg76
(lp1937
S'index'
p1938
asbasbasbag69
(g85
g71
NtRp1939
(dp1940
g74
(dp1941
sg83
g79
sg76
(lp1942
g69
(g90
g71
NtRp1943
(dp1944
g74
(dp1945
g94
g95
ssg83
g1939
sg76
(lp1946
S'get_vars'
p1947
asbag69
(g90
g71
NtRp1948
(dp1949
g74
(dp1950
g101
g102
ssg83
g1939
sg76
(lp1951
S':'
asbag69
(g90
g71
NtRp1952
(dp1953
g74
(dp1954
sg83
g1939
sg76
(lp1955
g69
(g70
g71
NtRp1956
(dp1957
g74
(dp1958
g82
I5
ssg83
g1952
sg76
(lp1959
g69
(g78
g71
NtRp1960
(dp1961
g74
(dp1962
g82
I4
ssg83
Nsg76
(lp1963
sbasbasbasbag69
(g85
g71
NtRp1964
(dp1965
g74
(dp1966
sg83
g79
sg76
(lp1967
g69
(g90
g71
NtRp1968
(dp1969
g74
(dp1970
g94
g95
ssg83
g1964
sg76
(lp1971
S'global_settings'
p1972
asbag69
(g90
g71
NtRp1973
(dp1974
g74
(dp1975
g101
g102
ssg83
g1964
sg76
(lp1976
S':'
asbag69
(g90
g71
NtRp1977
(dp1978
g74
(dp1979
sg83
g1964
sg76
(lp1980
g69
(g70
g71
NtRp1981
(dp1982
g74
(dp1983
g82
I5
ssg83
g1977
sg76
(lp1984
g69
(g78
g71
NtRp1985
(dp1986
g74
(dp1987
g82
I4
ssg83
Nsg76
(lp1988
g69
(g85
g71
NtRp1989
(dp1990
g74
(dp1991
sg83
g1985
sg76
(lp1992
g69
(g90
g71
NtRp1993
(dp1994
g74
(dp1995
g94
g95
ssg83
g1989
sg76
(lp1996
g871
asbag69
(g90
g71
NtRp1997
(dp1998
g74
(dp1999
g101
g102
ssg83
g1989
sg76
(lp2000
S':'
asbag69
(g90
g71
NtRp2001
(dp2002
g74
(dp2003
sg83
g1989
sg76
(lp2004
g69
(g70
g71
NtRp2005
(dp2006
g74
(dp2007
g82
I4
ssg83
g2001
sg76
(lp2008
S"set(['/Users/Truki/web2py/applications/welcome/', '/Users/Truki/web2py/applications/admin/', '/Users/Truki/web2py/applications/rosan/'])"
p2009
asbasbasbag69
(g85
g71
NtRp2010
(dp2011
g74
(dp2012
sg83
g1985
sg76
(lp2013
g69
(g90
g71
NtRp2014
(dp2015
g74
(dp2016
g94
g95
ssg83
g2010
sg76
(lp2017
g893
asbag69
(g90
g71
NtRp2018
(dp2019
g74
(dp2020
g101
g102
ssg83
g2010
sg76
(lp2021
S':'
asbag69
(g90
g71
NtRp2022
(dp2023
g74
(dp2024
sg83
g2010
sg76
(lp2025
g69
(g70
g71
NtRp2026
(dp2027
g74
(dp2028
g82
I4
ssg83
g2022
sg76
(lp2029
g906
asbasbasbag69
(g85
g71
NtRp2030
(dp2031
g74
(dp2032
sg83
g1985
sg76
(lp2033
g69
(g90
g71
NtRp2034
(dp2035
g74
(dp2036
g94
g95
ssg83
g2030
sg76
(lp2037
g915
asbag69
(g90
g71
NtRp2038
(dp2039
g74
(dp2040
g101
g102
ssg83
g2030
sg76
(lp2041
S':'
asbag69
(g90
g71
NtRp2042
(dp2043
g74
(dp2044
sg83
g2030
sg76
(lp2045
g69
(g70
g71
NtRp2046
(dp2047
g74
(dp2048
g82
I4
ssg83
g2042
sg76
(lp2049
g69
(g78
g71
NtRp2050
(dp2051
g74
(dp2052
g82
I3
ssg83
Nsg76
(lp2053
sbasbasbasbag69
(g85
g71
NtRp2054
(dp2055
g74
(dp2056
sg83
g1985
sg76
(lp2057
g69
(g90
g71
NtRp2058
(dp2059
g74
(dp2060
g94
g95
ssg83
g2054
sg76
(lp2061
g940
asbag69
(g90
g71
NtRp2062
(dp2063
g74
(dp2064
g101
g102
ssg83
g2054
sg76
(lp2065
S':'
asbag69
(g90
g71
NtRp2066
(dp2067
g74
(dp2068
sg83
g2054
sg76
(lp2069
g69
(g70
g71
NtRp2070
(dp2071
g74
(dp2072
g82
I4
ssg83
g2066
sg76
(lp2073
S"<Values at 0x19b2418: {'verbose': False, 'ip': '127.0.0.1', 'with_scheduler': False, 'ips': ['192.168.1.33'], 'shutdown_timeout': 5, 'taskbar': False, 'port': 8000, 'maxthreads': None, 'softcron': False, 'server_name': 'MBT.local', 'bpython': False, 'nogui': False, 'pid_filename': 'httpserver.pid', 'extcron': False, 'runcron': False, 'run_system_tests': False, 'test': None, 'folder': '/Users/Truki/web2py', 'config': '', 'import_models': False, 'winservice': '', 'shell': None, 'run': '', 'log_filename': 'httpserver.log', 'debuglevel': 30, 'args': [''], 'socket_timeout': 5, 'ssl_ca_certificate': None, 'scheduler': None, 'profiler_filename': None, 'ssl_private_key': '', 'scheduler_groups': None, 'password': '<ask>', 'request_queue_size': 5, 'ssl_certificate': '', 'cronjob': False, 'numthreads': None, 'quiet': False, 'interfaces': None, 'minthreads': None, 'timeout': 10, 'plain': False, 'nobanner': False}>"
p2074
asbasbasbag69
(g85
g71
NtRp2075
(dp2076
g74
(dp2077
sg83
g1985
sg76
(lp2078
g69
(g90
g71
NtRp2079
(dp2080
g74
(dp2081
g94
g95
ssg83
g2075
sg76
(lp2082
g962
asbag69
(g90
g71
NtRp2083
(dp2084
g74
(dp2085
g101
g102
ssg83
g2075
sg76
(lp2086
S':'
asbag69
(g90
g71
NtRp2087
(dp2088
g74
(dp2089
sg83
g2075
sg76
(lp2090
g69
(g70
g71
NtRp2091
(dp2092
g74
(dp2093
g82
I4
ssg83
g2087
sg76
(lp2094
S'set([])'
p2095
asbasbasbag69
(g85
g71
NtRp2096
(dp2097
g74
(dp2098
sg83
g1985
sg76
(lp2099
g69
(g90
g71
NtRp2100
(dp2101
g74
(dp2102
g94
g95
ssg83
g2096
sg76
(lp2103
g984
asbag69
(g90
g71
NtRp2104
(dp2105
g74
(dp2106
g101
g102
ssg83
g2096
sg76
(lp2107
S':'
asbag69
(g90
g71
NtRp2108
(dp2109
g74
(dp2110
sg83
g2096
sg76
(lp2111
g69
(g70
g71
NtRp2112
(dp2113
g74
(dp2114
g82
I4
ssg83
g2108
sg76
(lp2115
g112
asbasbasbag69
(g85
g71
NtRp2116
(dp2117
g74
(dp2118
sg83
g1985
sg76
(lp2119
g69
(g90
g71
NtRp2120
(dp2121
g74
(dp2122
g94
g95
ssg83
g2116
sg76
(lp2123
g1005
asbag69
(g90
g71
NtRp2124
(dp2125
g74
(dp2126
g101
g102
ssg83
g2116
sg76
(lp2127
S':'
asbag69
(g90
g71
NtRp2128
(dp2129
g74
(dp2130
sg83
g2116
sg76
(lp2131
g69
(g70
g71
NtRp2132
(dp2133
g74
(dp2134
g82
I4
ssg83
g2128
sg76
(lp2135
g1018
asbasbasbag69
(g85
g71
NtRp2136
(dp2137
g74
(dp2138
sg83
g1985
sg76
(lp2139
g69
(g90
g71
NtRp2140
(dp2141
g74
(dp2142
g94
g95
ssg83
g2136
sg76
(lp2143
g1203
asbag69
(g90
g71
NtRp2144
(dp2145
g74
(dp2146
g101
g102
ssg83
g2136
sg76
(lp2147
S':'
asbag69
(g90
g71
NtRp2148
(dp2149
g74
(dp2150
sg83
g2136
sg76
(lp2151
g69
(g70
g71
NtRp2152
(dp2153
g74
(dp2154
g82
I4
ssg83
g2148
sg76
(lp2155
g112
asbasbasbag69
(g85
g71
NtRp2156
(dp2157
g74
(dp2158
sg83
g1985
sg76
(lp2159
g69
(g90
g71
NtRp2160
(dp2161
g74
(dp2162
g94
g95
ssg83
g2156
sg76
(lp2163
g1224
asbag69
(g90
g71
NtRp2164
(dp2165
g74
(dp2166
g101
g102
ssg83
g2156
sg76
(lp2167
S':'
asbag69
(g90
g71
NtRp2168
(dp2169
g74
(dp2170
sg83
g2156
sg76
(lp2171
g69
(g70
g71
NtRp2172
(dp2173
g74
(dp2174
g82
I4
ssg83
g2168
sg76
(lp2175
g112
asbasbasbag69
(g85
g71
NtRp2176
(dp2177
g74
(dp2178
sg83
g1985
sg76
(lp2179
g69
(g90
g71
NtRp2180
(dp2181
g74
(dp2182
g94
g95
ssg83
g2176
sg76
(lp2183
g1245
asbag69
(g90
g71
NtRp2184
(dp2185
g74
(dp2186
g101
g102
ssg83
g2176
sg76
(lp2187
S':'
asbag69
(g90
g71
NtRp2188
(dp2189
g74
(dp2190
sg83
g2176
sg76
(lp2191
g69
(g70
g71
NtRp2192
(dp2193
g74
(dp2194
g82
I4
ssg83
g2188
sg76
(lp2195
g69
(g78
g71
NtRp2196
(dp2197
g74
(dp2198
g82
I3
ssg83
Nsg76
(lp2199
g69
(g85
g71
NtRp2200
(dp2201
g74
(dp2202
sg83
g2196
sg76
(lp2203
g69
(g90
g71
NtRp2204
(dp2205
g74
(dp2206
sg83
g2200
sg76
(lp2207
g69
(g70
g71
NtRp2208
(dp2209
g74
(dp2210
g82
I3
ssg83
g2204
sg76
(lp2211
g1274
asbasbasbag69
(g85
g71
NtRp2212
(dp2213
g74
(dp2214
sg83
g2196
sg76
(lp2215
g69
(g90
g71
NtRp2216
(dp2217
g74
(dp2218
sg83
g2212
sg76
(lp2219
g69
(g70
g71
NtRp2220
(dp2221
g74
(dp2222
g82
I3
ssg83
g2216
sg76
(lp2223
g1287
asbasbasbag69
(g85
g71
NtRp2224
(dp2225
g74
(dp2226
sg83
g2196
sg76
(lp2227
g69
(g90
g71
NtRp2228
(dp2229
g74
(dp2230
sg83
g2224
sg76
(lp2231
g69
(g70
g71
NtRp2232
(dp2233
g74
(dp2234
g82
I3
ssg83
g2228
sg76
(lp2235
g1300
asbasbasbag69
(g85
g71
NtRp2236
(dp2237
g74
(dp2238
sg83
g2196
sg76
(lp2239
g69
(g90
g71
NtRp2240
(dp2241
g74
(dp2242
sg83
g2236
sg76
(lp2243
g69
(g70
g71
NtRp2244
(dp2245
g74
(dp2246
g82
I3
ssg83
g2240
sg76
(lp2247
g1313
asbasbasbag69
(g85
g71
NtRp2248
(dp2249
g74
(dp2250
sg83
g2196
sg76
(lp2251
g69
(g90
g71
NtRp2252
(dp2253
g74
(dp2254
sg83
g2248
sg76
(lp2255
g69
(g70
g71
NtRp2256
(dp2257
g74
(dp2258
g82
I3
ssg83
g2252
sg76
(lp2259
g1326
asbasbasbasbasbasbasbag69
(g85
g71
NtRp2260
(dp2261
g74
(dp2262
sg83
g1985
sg76
(lp2263
g69
(g90
g71
NtRp2264
(dp2265
g74
(dp2266
g94
g95
ssg83
g2260
sg76
(lp2267
g1593
asbag69
(g90
g71
NtRp2268
(dp2269
g74
(dp2270
g101
g102
ssg83
g2260
sg76
(lp2271
S':'
asbag69
(g90
g71
NtRp2272
(dp2273
g74
(dp2274
sg83
g2260
sg76
(lp2275
g69
(g70
g71
NtRp2276
(dp2277
g74
(dp2278
g82
I4
ssg83
g2272
sg76
(lp2279
g69
(g78
g71
NtRp2280
(dp2281
g74
(dp2282
g82
I3
ssg83
Nsg76
(lp2283
g69
(g85
g71
NtRp2284
(dp2285
g74
(dp2286
sg83
g2280
sg76
(lp2287
g69
(g90
g71
NtRp2288
(dp2289
g74
(dp2290
sg83
g2284
sg76
(lp2291
g69
(g70
g71
NtRp2292
(dp2293
g74
(dp2294
g82
I3
ssg83
g2288
sg76
(lp2295
S'2'
asbasbasbag69
(g85
g71
NtRp2296
(dp2297
g74
(dp2298
sg83
g2280
sg76
(lp2299
g69
(g90
g71
NtRp2300
(dp2301
g74
(dp2302
sg83
g2296
sg76
(lp2303
g69
(g70
g71
NtRp2304
(dp2305
g74
(dp2306
g82
I3
ssg83
g2300
sg76
(lp2307
S'2'
asbasbasbag69
(g85
g71
NtRp2308
(dp2309
g74
(dp2310
sg83
g2280
sg76
(lp2311
g69
(g90
g71
NtRp2312
(dp2313
g74
(dp2314
sg83
g2308
sg76
(lp2315
g69
(g70
g71
NtRp2316
(dp2317
g74
(dp2318
g82
I3
ssg83
g2312
sg76
(lp2319
S'1'
asbasbasbag69
(g85
g71
NtRp2320
(dp2321
g74
(dp2322
sg83
g2280
sg76
(lp2323
g69
(g90
g71
NtRp2324
(dp2325
g74
(dp2326
sg83
g2320
sg76
(lp2327
g69
(g70
g71
NtRp2328
(dp2329
g74
(dp2330
g82
I3
ssg83
g2324
sg76
(lp2331
S'datetime.datetime(2012, 10, 21, 16, 57, 4)'
p2332
asbasbasbag69
(g85
g71
NtRp2333
(dp2334
g74
(dp2335
sg83
g2280
sg76
(lp2336
g69
(g90
g71
NtRp2337
(dp2338
g74
(dp2339
sg83
g2333
sg76
(lp2340
g69
(g70
g71
NtRp2341
(dp2342
g74
(dp2343
g82
I3
ssg83
g2337
sg76
(lp2344
g1671
asbasbasbasbasbasbasbasbasbasbasbag69
(g85
g71
NtRp2345
(dp2346
g74
(dp2347
sg83
g79
sg76
(lp2348
g69
(g90
g71
NtRp2349
(dp2350
g74
(dp2351
g94
g95
ssg83
g2345
sg76
(lp2352
S'is_https'
p2353
asbag69
(g90
g71
NtRp2354
(dp2355
g74
(dp2356
g101
g102
ssg83
g2345
sg76
(lp2357
S':'
asbag69
(g90
g71
NtRp2358
(dp2359
g74
(dp2360
sg83
g2345
sg76
(lp2361
g69
(g70
g71
NtRp2362
(dp2363
g74
(dp2364
g82
I5
ssg83
g2358
sg76
(lp2365
g112
asbasbasbag69
(g85
g71
NtRp2366
(dp2367
g74
(dp2368
sg83
g79
sg76
(lp2369
g69
(g90
g71
NtRp2370
(dp2371
g74
(dp2372
g94
g95
ssg83
g2366
sg76
(lp2373
S'is_local'
p2374
asbag69
(g90
g71
NtRp2375
(dp2376
g74
(dp2377
g101
g102
ssg83
g2366
sg76
(lp2378
S':'
asbag69
(g90
g71
NtRp2379
(dp2380
g74
(dp2381
sg83
g2366
sg76
(lp2382
g69
(g70
g71
NtRp2383
(dp2384
g74
(dp2385
g82
I5
ssg83
g2379
sg76
(lp2386
g1780
asbasbasbag69
(g85
g71
NtRp2387
(dp2388
g74
(dp2389
sg83
g79
sg76
(lp2390
g69
(g90
g71
NtRp2391
(dp2392
g74
(dp2393
g94
g95
ssg83
g2387
sg76
(lp2394
S'is_restful'
p2395
asbag69
(g90
g71
NtRp2396
(dp2397
g74
(dp2398
g101
g102
ssg83
g2387
sg76
(lp2399
S':'
asbag69
(g90
g71
NtRp2400
(dp2401
g74
(dp2402
sg83
g2387
sg76
(lp2403
g69
(g70
g71
NtRp2404
(dp2405
g74
(dp2406
g82
I5
ssg83
g2400
sg76
(lp2407
g112
asbasbasbag69
(g85
g71
NtRp2408
(dp2409
g74
(dp2410
sg83
g79
sg76
(lp2411
g69
(g90
g71
NtRp2412
(dp2413
g74
(dp2414
g94
g95
ssg83
g2408
sg76
(lp2415
S'now'
p2416
asbag69
(g90
g71
NtRp2417
(dp2418
g74
(dp2419
g101
g102
ssg83
g2408
sg76
(lp2420
S':'
asbag69
(g90
g71
NtRp2421
(dp2422
g74
(dp2423
sg83
g2408
sg76
(lp2424
g69
(g70
g71
NtRp2425
(dp2426
g74
(dp2427
g82
I5
ssg83
g2421
sg76
(lp2428
S'datetime.datetime(2013, 1, 20, 19, 14, 35, 494531)'
p2429
asbasbasbag69
(g85
g71
NtRp2430
(dp2431
g74
(dp2432
sg83
g79
sg76
(lp2433
g69
(g90
g71
NtRp2434
(dp2435
g74
(dp2436
g94
g95
ssg83
g2430
sg76
(lp2437
S'post_vars'
p2438
asbag69
(g90
g71
NtRp2439
(dp2440
g74
(dp2441
g101
g102
ssg83
g2430
sg76
(lp2442
S':'
asbag69
(g90
g71
NtRp2443
(dp2444
g74
(dp2445
sg83
g2430
sg76
(lp2446
g69
(g70
g71
NtRp2447
(dp2448
g74
(dp2449
g82
I5
ssg83
g2443
sg76
(lp2450
g69
(g78
g71
NtRp2451
(dp2452
g74
(dp2453
g82
I4
ssg83
Nsg76
(lp2454
sbasbasbasbag69
(g85
g71
NtRp2455
(dp2456
g74
(dp2457
sg83
g79
sg76
(lp2458
g69
(g90
g71
NtRp2459
(dp2460
g74
(dp2461
g94
g95
ssg83
g2455
sg76
(lp2462
S'raw_args'
p2463
asbag69
(g90
g71
NtRp2464
(dp2465
g74
(dp2466
g101
g102
ssg83
g2455
sg76
(lp2467
S':'
asbag69
(g90
g71
NtRp2468
(dp2469
g74
(dp2470
sg83
g2455
sg76
(lp2471
g69
(g70
g71
NtRp2472
(dp2473
g74
(dp2474
g82
I5
ssg83
g2468
sg76
(lp2475
S'None'
p2476
asbasbasbag69
(g85
g71
NtRp2477
(dp2478
g74
(dp2479
sg83
g79
sg76
(lp2480
g69
(g90
g71
NtRp2481
(dp2482
g74
(dp2483
g94
g95
ssg83
g2477
sg76
(lp2484
S'raw_extension'
p2485
asbag69
(g90
g71
NtRp2486
(dp2487
g74
(dp2488
g101
g102
ssg83
g2477
sg76
(lp2489
S':'
asbag69
(g90
g71
NtRp2490
(dp2491
g74
(dp2492
sg83
g2477
sg76
(lp2493
g69
(g70
g71
NtRp2494
(dp2495
g74
(dp2496
g82
I5
ssg83
g2490
sg76
(lp2497
S'None'
p2498
asbasbasbag69
(g85
g71
NtRp2499
(dp2500
g74
(dp2501
sg83
g79
sg76
(lp2502
g69
(g90
g71
NtRp2503
(dp2504
g74
(dp2505
g94
g95
ssg83
g2499
sg76
(lp2506
S'url'
p2507
asbag69
(g90
g71
NtRp2508
(dp2509
g74
(dp2510
g101
g102
ssg83
g2499
sg76
(lp2511
S':'
asbag69
(g90
g71
NtRp2512
(dp2513
g74
(dp2514
sg83
g2499
sg76
(lp2515
g69
(g70
g71
NtRp2516
(dp2517
g74
(dp2518
g82
I5
ssg83
g2512
sg76
(lp2519
g1348
asbasbasbag69
(g85
g71
NtRp2520
(dp2521
g74
(dp2522
sg83
g79
sg76
(lp2523
g69
(g90
g71
NtRp2524
(dp2525
g74
(dp2526
g94
g95
ssg83
g2520
sg76
(lp2527
S'utcnow'
p2528
asbag69
(g90
g71
NtRp2529
(dp2530
g74
(dp2531
g101
g102
ssg83
g2520
sg76
(lp2532
S':'
asbag69
(g90
g71
NtRp2533
(dp2534
g74
(dp2535
sg83
g2520
sg76
(lp2536
g69
(g70
g71
NtRp2537
(dp2538
g74
(dp2539
g82
I5
ssg83
g2533
sg76
(lp2540
S'datetime.datetime(2013, 1, 20, 18, 14, 35, 494545)'
p2541
asbasbasbag69
(g85
g71
NtRp2542
(dp2543
g74
(dp2544
sg83
g79
sg76
(lp2545
g69
(g90
g71
NtRp2546
(dp2547
g74
(dp2548
g94
g95
ssg83
g2542
sg76
(lp2549
S'uuid'
p2550
asbag69
(g90
g71
NtRp2551
(dp2552
g74
(dp2553
g101
g102
ssg83
g2542
sg76
(lp2554
S':'
asbag69
(g90
g71
NtRp2555
(dp2556
g74
(dp2557
sg83
g2542
sg76
(lp2558
g69
(g70
g71
NtRp2559
(dp2560
g74
(dp2561
g82
I5
ssg83
g2555
sg76
(lp2562
S'rosan/127.0.0.1.2013-01-20.19-14-35.b437b829-56bc-42ef-9c68-8f9dd14273f8'
p2563
asbasbasbag69
(g85
g71
NtRp2564
(dp2565
g74
(dp2566
sg83
g79
sg76
(lp2567
g69
(g90
g71
NtRp2568
(dp2569
g74
(dp2570
g94
g95
ssg83
g2564
sg76
(lp2571
S'vars'
p2572
asbag69
(g90
g71
NtRp2573
(dp2574
g74
(dp2575
g101
g102
ssg83
g2564
sg76
(lp2576
S':'
asbag69
(g90
g71
NtRp2577
(dp2578
g74
(dp2579
sg83
g2564
sg76
(lp2580
g69
(g70
g71
NtRp2581
(dp2582
g74
(dp2583
g82
I5
ssg83
g2577
sg76
(lp2584
g69
(g78
g71
NtRp2585
(dp2586
g74
(dp2587
g82
I4
ssg83
Nsg76
(lp2588
sbasbasbasbag69
(g85
g71
NtRp2589
(dp2590
g74
(dp2591
sg83
g79
sg76
(lp2592
g69
(g90
g71
NtRp2593
(dp2594
g74
(dp2595
g94
g95
ssg83
g2589
sg76
(lp2596
S'wsgi'
p2597
asbag69
(g90
g71
NtRp2598
(dp2599
g74
(dp2600
g101
g102
ssg83
g2589
sg76
(lp2601
S':'
asbag69
(g90
g71
NtRp2602
(dp2603
g74
(dp2604
sg83
g2589
sg76
(lp2605
g69
(g70
g71
NtRp2606
(dp2607
g74
(dp2608
g82
I5
ssg83
g2602
sg76
(lp2609
g69
(g78
g71
NtRp2610
(dp2611
g74
(dp2612
g82
I4
ssg83
Nsg76
(lp2613
g69
(g85
g71
NtRp2614
(dp2615
g74
(dp2616
sg83
g2610
sg76
(lp2617
g69
(g90
g71
NtRp2618
(dp2619
g74
(dp2620
g94
g95
ssg83
g2614
sg76
(lp2621
S'environ'
p2622
asbag69
(g90
g71
NtRp2623
(dp2624
g74
(dp2625
g101
g102
ssg83
g2614
sg76
(lp2626
S':'
asbag69
(g90
g71
NtRp2627
(dp2628
g74
(dp2629
sg83
g2614
sg76
(lp2630
g69
(g70
g71
NtRp2631
(dp2632
g74
(dp2633
g82
I4
ssg83
g2627
sg76
(lp2634
g69
(g78
g71
NtRp2635
(dp2636
g74
(dp2637
g82
I3
ssg83
Nsg76
(lp2638
g69
(g85
g71
NtRp2639
(dp2640
g74
(dp2641
sg83
g2635
sg76
(lp2642
g69
(g90
g71
NtRp2643
(dp2644
g74
(dp2645
g94
g95
ssg83
g2639
sg76
(lp2646
S'HTTP_ACCEPT'
p2647
asbag69
(g90
g71
NtRp2648
(dp2649
g74
(dp2650
g101
g102
ssg83
g2639
sg76
(lp2651
S':'
asbag69
(g90
g71
NtRp2652
(dp2653
g74
(dp2654
sg83
g2639
sg76
(lp2655
g69
(g70
g71
NtRp2656
(dp2657
g74
(dp2658
g82
I3
ssg83
g2652
sg76
(lp2659
g1040
asbasbasbag69
(g85
g71
NtRp2660
(dp2661
g74
(dp2662
sg83
g2635
sg76
(lp2663
g69
(g90
g71
NtRp2664
(dp2665
g74
(dp2666
g94
g95
ssg83
g2660
sg76
(lp2667
S'HTTP_ACCEPT_CHARSET'
p2668
asbag69
(g90
g71
NtRp2669
(dp2670
g74
(dp2671
g101
g102
ssg83
g2660
sg76
(lp2672
S':'
asbag69
(g90
g71
NtRp2673
(dp2674
g74
(dp2675
sg83
g2660
sg76
(lp2676
g69
(g70
g71
NtRp2677
(dp2678
g74
(dp2679
g82
I3
ssg83
g2673
sg76
(lp2680
g1062
asbasbasbag69
(g85
g71
NtRp2681
(dp2682
g74
(dp2683
sg83
g2635
sg76
(lp2684
g69
(g90
g71
NtRp2685
(dp2686
g74
(dp2687
g94
g95
ssg83
g2681
sg76
(lp2688
S'HTTP_ACCEPT_ENCODING'
p2689
asbag69
(g90
g71
NtRp2690
(dp2691
g74
(dp2692
g101
g102
ssg83
g2681
sg76
(lp2693
S':'
asbag69
(g90
g71
NtRp2694
(dp2695
g74
(dp2696
sg83
g2681
sg76
(lp2697
g69
(g70
g71
NtRp2698
(dp2699
g74
(dp2700
g82
I3
ssg83
g2694
sg76
(lp2701
g1084
asbasbasbag69
(g85
g71
NtRp2702
(dp2703
g74
(dp2704
sg83
g2635
sg76
(lp2705
g69
(g90
g71
NtRp2706
(dp2707
g74
(dp2708
g94
g95
ssg83
g2702
sg76
(lp2709
S'HTTP_ACCEPT_LANGUAGE'
p2710
asbag69
(g90
g71
NtRp2711
(dp2712
g74
(dp2713
g101
g102
ssg83
g2702
sg76
(lp2714
S':'
asbag69
(g90
g71
NtRp2715
(dp2716
g74
(dp2717
sg83
g2702
sg76
(lp2718
g69
(g70
g71
NtRp2719
(dp2720
g74
(dp2721
g82
I3
ssg83
g2715
sg76
(lp2722
g1106
asbasbasbag69
(g85
g71
NtRp2723
(dp2724
g74
(dp2725
sg83
g2635
sg76
(lp2726
g69
(g90
g71
NtRp2727
(dp2728
g74
(dp2729
g94
g95
ssg83
g2723
sg76
(lp2730
S'HTTP_CONNECTION'
p2731
asbag69
(g90
g71
NtRp2732
(dp2733
g74
(dp2734
g101
g102
ssg83
g2723
sg76
(lp2735
S':'
asbag69
(g90
g71
NtRp2736
(dp2737
g74
(dp2738
sg83
g2723
sg76
(lp2739
g69
(g70
g71
NtRp2740
(dp2741
g74
(dp2742
g82
I3
ssg83
g2736
sg76
(lp2743
g1128
asbasbasbag69
(g85
g71
NtRp2744
(dp2745
g74
(dp2746
sg83
g2635
sg76
(lp2747
g69
(g90
g71
NtRp2748
(dp2749
g74
(dp2750
g94
g95
ssg83
g2744
sg76
(lp2751
S'HTTP_COOKIE'
p2752
asbag69
(g90
g71
NtRp2753
(dp2754
g74
(dp2755
g101
g102
ssg83
g2744
sg76
(lp2756
S':'
asbag69
(g90
g71
NtRp2757
(dp2758
g74
(dp2759
sg83
g2744
sg76
(lp2760
g69
(g70
g71
NtRp2761
(dp2762
g74
(dp2763
g82
I3
ssg83
g2757
sg76
(lp2764
g1150
asbasbasbag69
(g85
g71
NtRp2765
(dp2766
g74
(dp2767
sg83
g2635
sg76
(lp2768
g69
(g90
g71
NtRp2769
(dp2770
g74
(dp2771
g94
g95
ssg83
g2765
sg76
(lp2772
S'HTTP_HOST'
p2773
asbag69
(g90
g71
NtRp2774
(dp2775
g74
(dp2776
g101
g102
ssg83
g2765
sg76
(lp2777
S':'
asbag69
(g90
g71
NtRp2778
(dp2779
g74
(dp2780
sg83
g2765
sg76
(lp2781
g69
(g70
g71
NtRp2782
(dp2783
g74
(dp2784
g82
I3
ssg83
g2778
sg76
(lp2785
g1172
asbasbasbag69
(g85
g71
NtRp2786
(dp2787
g74
(dp2788
sg83
g2635
sg76
(lp2789
g69
(g90
g71
NtRp2790
(dp2791
g74
(dp2792
g94
g95
ssg83
g2786
sg76
(lp2793
S'HTTP_USER_AGENT'
p2794
asbag69
(g90
g71
NtRp2795
(dp2796
g74
(dp2797
g101
g102
ssg83
g2786
sg76
(lp2798
S':'
asbag69
(g90
g71
NtRp2799
(dp2800
g74
(dp2801
sg83
g2786
sg76
(lp2802
g69
(g70
g71
NtRp2803
(dp2804
g74
(dp2805
g82
I3
ssg83
g2799
sg76
(lp2806
g1194
asbasbasbag69
(g85
g71
NtRp2807
(dp2808
g74
(dp2809
sg83
g2635
sg76
(lp2810
g69
(g90
g71
NtRp2811
(dp2812
g74
(dp2813
g94
g95
ssg83
g2807
sg76
(lp2814
S'PATH_INFO'
p2815
asbag69
(g90
g71
NtRp2816
(dp2817
g74
(dp2818
g101
g102
ssg83
g2807
sg76
(lp2819
S':'
asbag69
(g90
g71
NtRp2820
(dp2821
g74
(dp2822
sg83
g2807
sg76
(lp2823
g69
(g70
g71
NtRp2824
(dp2825
g74
(dp2826
g82
I3
ssg83
g2820
sg76
(lp2827
g1348
asbasbasbag69
(g85
g71
NtRp2828
(dp2829
g74
(dp2830
sg83
g2635
sg76
(lp2831
g69
(g90
g71
NtRp2832
(dp2833
g74
(dp2834
g94
g95
ssg83
g2828
sg76
(lp2835
S'QUERY_STRING'
p2836
asbag69
(g90
g71
NtRp2837
(dp2838
g74
(dp2839
g101
g102
ssg83
g2828
sg76
(lp2840
S':'
asbag69
(g90
g71
NtRp2841
(dp2842
g74
(dp2843
sg83
g2828
sg76
(lp2844
g69
(g70
g71
NtRp2845
(dp2846
g74
(dp2847
g82
I3
ssg83
g2841
sg76
(lp2848
S''
asbasbasbag69
(g85
g71
NtRp2849
(dp2850
g74
(dp2851
sg83
g2635
sg76
(lp2852
g69
(g90
g71
NtRp2853
(dp2854
g74
(dp2855
g94
g95
ssg83
g2849
sg76
(lp2856
S'REMOTE_ADDR'
p2857
asbag69
(g90
g71
NtRp2858
(dp2859
g74
(dp2860
g101
g102
ssg83
g2849
sg76
(lp2861
S':'
asbag69
(g90
g71
NtRp2862
(dp2863
g74
(dp2864
sg83
g2849
sg76
(lp2865
g69
(g70
g71
NtRp2866
(dp2867
g74
(dp2868
g82
I3
ssg83
g2862
sg76
(lp2869
g224
asbasbasbag69
(g85
g71
NtRp2870
(dp2871
g74
(dp2872
sg83
g2635
sg76
(lp2873
g69
(g90
g71
NtRp2874
(dp2875
g74
(dp2876
g94
g95
ssg83
g2870
sg76
(lp2877
S'REMOTE_PORT'
p2878
asbag69
(g90
g71
NtRp2879
(dp2880
g74
(dp2881
g101
g102
ssg83
g2870
sg76
(lp2882
S':'
asbag69
(g90
g71
NtRp2883
(dp2884
g74
(dp2885
sg83
g2870
sg76
(lp2886
g69
(g70
g71
NtRp2887
(dp2888
g74
(dp2889
g82
I3
ssg83
g2883
sg76
(lp2890
g1412
asbasbasbag69
(g85
g71
NtRp2891
(dp2892
g74
(dp2893
sg83
g2635
sg76
(lp2894
g69
(g90
g71
NtRp2895
(dp2896
g74
(dp2897
g94
g95
ssg83
g2891
sg76
(lp2898
S'REQUEST_METHOD'
p2899
asbag69
(g90
g71
NtRp2900
(dp2901
g74
(dp2902
g101
g102
ssg83
g2891
sg76
(lp2903
S':'
asbag69
(g90
g71
NtRp2904
(dp2905
g74
(dp2906
sg83
g2891
sg76
(lp2907
g69
(g70
g71
NtRp2908
(dp2909
g74
(dp2910
g82
I3
ssg83
g2904
sg76
(lp2911
g1434
asbasbasbag69
(g85
g71
NtRp2912
(dp2913
g74
(dp2914
sg83
g2635
sg76
(lp2915
g69
(g90
g71
NtRp2916
(dp2917
g74
(dp2918
g94
g95
ssg83
g2912
sg76
(lp2919
S'REQUEST_URI'
p2920
asbag69
(g90
g71
NtRp2921
(dp2922
g74
(dp2923
g101
g102
ssg83
g2912
sg76
(lp2924
S':'
asbag69
(g90
g71
NtRp2925
(dp2926
g74
(dp2927
sg83
g2912
sg76
(lp2928
g69
(g70
g71
NtRp2929
(dp2930
g74
(dp2931
g82
I3
ssg83
g2925
sg76
(lp2932
g1348
asbasbasbag69
(g85
g71
NtRp2933
(dp2934
g74
(dp2935
sg83
g2635
sg76
(lp2936
g69
(g90
g71
NtRp2937
(dp2938
g74
(dp2939
g94
g95
ssg83
g2933
sg76
(lp2940
S'SCRIPT_NAME'
p2941
asbag69
(g90
g71
NtRp2942
(dp2943
g74
(dp2944
g101
g102
ssg83
g2933
sg76
(lp2945
S':'
asbag69
(g90
g71
NtRp2946
(dp2947
g74
(dp2948
sg83
g2933
sg76
(lp2949
g69
(g70
g71
NtRp2950
(dp2951
g74
(dp2952
g82
I3
ssg83
g2946
sg76
(lp2953
S''
asbasbasbag69
(g85
g71
NtRp2954
(dp2955
g74
(dp2956
sg83
g2635
sg76
(lp2957
g69
(g90
g71
NtRp2958
(dp2959
g74
(dp2960
g94
g95
ssg83
g2954
sg76
(lp2961
S'SERVER_NAME'
p2962
asbag69
(g90
g71
NtRp2963
(dp2964
g74
(dp2965
g101
g102
ssg83
g2954
sg76
(lp2966
S':'
asbag69
(g90
g71
NtRp2967
(dp2968
g74
(dp2969
sg83
g2954
sg76
(lp2970
g69
(g70
g71
NtRp2971
(dp2972
g74
(dp2973
g82
I3
ssg83
g2967
sg76
(lp2974
g1313
asbasbasbag69
(g85
g71
NtRp2975
(dp2976
g74
(dp2977
sg83
g2635
sg76
(lp2978
g69
(g90
g71
NtRp2979
(dp2980
g74
(dp2981
g94
g95
ssg83
g2975
sg76
(lp2982
S'SERVER_PORT'
p2983
asbag69
(g90
g71
NtRp2984
(dp2985
g74
(dp2986
g101
g102
ssg83
g2975
sg76
(lp2987
S':'
asbag69
(g90
g71
NtRp2988
(dp2989
g74
(dp2990
sg83
g2975
sg76
(lp2991
g69
(g70
g71
NtRp2992
(dp2993
g74
(dp2994
g82
I3
ssg83
g2988
sg76
(lp2995
g1519
asbasbasbag69
(g85
g71
NtRp2996
(dp2997
g74
(dp2998
sg83
g2635
sg76
(lp2999
g69
(g90
g71
NtRp3000
(dp3001
g74
(dp3002
g94
g95
ssg83
g2996
sg76
(lp3003
S'SERVER_PROTOCOL'
p3004
asbag69
(g90
g71
NtRp3005
(dp3006
g74
(dp3007
g101
g102
ssg83
g2996
sg76
(lp3008
S':'
asbag69
(g90
g71
NtRp3009
(dp3010
g74
(dp3011
sg83
g2996
sg76
(lp3012
g69
(g70
g71
NtRp3013
(dp3014
g74
(dp3015
g82
I3
ssg83
g3009
sg76
(lp3016
g1541
asbasbasbag69
(g85
g71
NtRp3017
(dp3018
g74
(dp3019
sg83
g2635
sg76
(lp3020
g69
(g90
g71
NtRp3021
(dp3022
g74
(dp3023
g94
g95
ssg83
g3017
sg76
(lp3024
S'SERVER_SOFTWARE'
p3025
asbag69
(g90
g71
NtRp3026
(dp3027
g74
(dp3028
g101
g102
ssg83
g3017
sg76
(lp3029
S':'
asbag69
(g90
g71
NtRp3030
(dp3031
g74
(dp3032
sg83
g3017
sg76
(lp3033
g69
(g70
g71
NtRp3034
(dp3035
g74
(dp3036
g82
I3
ssg83
g3030
sg76
(lp3037
g1563
asbasbasbag69
(g85
g71
NtRp3038
(dp3039
g74
(dp3040
sg83
g2635
sg76
(lp3041
g69
(g90
g71
NtRp3042
(dp3043
g74
(dp3044
g94
g95
ssg83
g3038
sg76
(lp3045
S'wsgi.errors'
p3046
asbag69
(g90
g71
NtRp3047
(dp3048
g74
(dp3049
g101
g102
ssg83
g3038
sg76
(lp3050
S':'
asbag69
(g90
g71
NtRp3051
(dp3052
g74
(dp3053
sg83
g3038
sg76
(lp3054
g69
(g70
g71
NtRp3055
(dp3056
g74
(dp3057
g82
I3
ssg83
g3051
sg76
(lp3058
S"<open file '<stderr>', mode 'w' at 0x25a0d0>"
p3059
asbasbasbag69
(g85
g71
NtRp3060
(dp3061
g74
(dp3062
sg83
g2635
sg76
(lp3063
g69
(g90
g71
NtRp3064
(dp3065
g74
(dp3066
g94
g95
ssg83
g3060
sg76
(lp3067
S'wsgi.file_wrapper'
p3068
asbag69
(g90
g71
NtRp3069
(dp3070
g74
(dp3071
g101
g102
ssg83
g3060
sg76
(lp3072
S':'
asbag69
(g90
g71
NtRp3073
(dp3074
g74
(dp3075
sg83
g3060
sg76
(lp3076
g69
(g70
g71
NtRp3077
(dp3078
g74
(dp3079
g82
I3
ssg83
g3073
sg76
(lp3080
S'<class wsgiref.util.FileWrapper at 0x1968d50>'
p3081
asbasbasbag69
(g85
g71
NtRp3082
(dp3083
g74
(dp3084
sg83
g2635
sg76
(lp3085
g69
(g90
g71
NtRp3086
(dp3087
g74
(dp3088
g94
g95
ssg83
g3082
sg76
(lp3089
S'wsgi.input'
p3090
asbag69
(g90
g71
NtRp3091
(dp3092
g74
(dp3093
g101
g102
ssg83
g3082
sg76
(lp3094
S':'
asbag69
(g90
g71
NtRp3095
(dp3096
g74
(dp3097
sg83
g3082
sg76
(lp3098
g69
(g70
g71
NtRp3099
(dp3100
g74
(dp3101
g82
I3
ssg83
g3095
sg76
(lp3102
S'<cStringIO.StringO object at 0x186f8580>'
p3103
asbasbasbag69
(g85
g71
NtRp3104
(dp3105
g74
(dp3106
sg83
g2635
sg76
(lp3107
g69
(g90
g71
NtRp3108
(dp3109
g74
(dp3110
g94
g95
ssg83
g3104
sg76
(lp3111
S'wsgi.multiprocess'
p3112
asbag69
(g90
g71
NtRp3113
(dp3114
g74
(dp3115
g101
g102
ssg83
g3104
sg76
(lp3116
S':'
asbag69
(g90
g71
NtRp3117
(dp3118
g74
(dp3119
sg83
g3104
sg76
(lp3120
g69
(g70
g71
NtRp3121
(dp3122
g74
(dp3123
g82
I3
ssg83
g3117
sg76
(lp3124
g112
asbasbasbag69
(g85
g71
NtRp3125
(dp3126
g74
(dp3127
sg83
g2635
sg76
(lp3128
g69
(g90
g71
NtRp3129
(dp3130
g74
(dp3131
g94
g95
ssg83
g3125
sg76
(lp3132
S'wsgi.multithread'
p3133
asbag69
(g90
g71
NtRp3134
(dp3135
g74
(dp3136
g101
g102
ssg83
g3125
sg76
(lp3137
S':'
asbag69
(g90
g71
NtRp3138
(dp3139
g74
(dp3140
sg83
g3125
sg76
(lp3141
g69
(g70
g71
NtRp3142
(dp3143
g74
(dp3144
g82
I3
ssg83
g3138
sg76
(lp3145
g1780
asbasbasbag69
(g85
g71
NtRp3146
(dp3147
g74
(dp3148
sg83
g2635
sg76
(lp3149
g69
(g90
g71
NtRp3150
(dp3151
g74
(dp3152
g94
g95
ssg83
g3146
sg76
(lp3153
S'wsgi.run_once'
p3154
asbag69
(g90
g71
NtRp3155
(dp3156
g74
(dp3157
g101
g102
ssg83
g3146
sg76
(lp3158
S':'
asbag69
(g90
g71
NtRp3159
(dp3160
g74
(dp3161
sg83
g3146
sg76
(lp3162
g69
(g70
g71
NtRp3163
(dp3164
g74
(dp3165
g82
I3
ssg83
g3159
sg76
(lp3166
g112
asbasbasbag69
(g85
g71
NtRp3167
(dp3168
g74
(dp3169
sg83
g2635
sg76
(lp3170
g69
(g90
g71
NtRp3171
(dp3172
g74
(dp3173
g94
g95
ssg83
g3167
sg76
(lp3174
S'wsgi.url_scheme'
p3175
asbag69
(g90
g71
NtRp3176
(dp3177
g74
(dp3178
g101
g102
ssg83
g3167
sg76
(lp3179
S':'
asbag69
(g90
g71
NtRp3180
(dp3181
g74
(dp3182
sg83
g3167
sg76
(lp3183
g69
(g70
g71
NtRp3184
(dp3185
g74
(dp3186
g82
I3
ssg83
g3180
sg76
(lp3187
g1823
asbasbasbag69
(g85
g71
NtRp3188
(dp3189
g74
(dp3190
sg83
g2635
sg76
(lp3191
g69
(g90
g71
NtRp3192
(dp3193
g74
(dp3194
g94
g95
ssg83
g3188
sg76
(lp3195
S'wsgi.version'
p3196
asbag69
(g90
g71
NtRp3197
(dp3198
g74
(dp3199
g101
g102
ssg83
g3188
sg76
(lp3200
S':'
asbag69
(g90
g71
NtRp3201
(dp3202
g74
(dp3203
sg83
g3188
sg76
(lp3204
g69
(g70
g71
NtRp3205
(dp3206
g74
(dp3207
g82
I3
ssg83
g3201
sg76
(lp3208
S'1'
asbasbasbasbasbasbasbasbasbasbasbasbasbsS'frames'
p3209
(lp3210
(dp3211
S'file'
p3212
S'/Users/Truki/web2py/gluon/restricted.py'
p3213
sS'dump'
p3214
(dp3215
S'code'
p3216
S"'# -*- coding: utf-8 -*-\\n### required - do no del...=errores)\\nresponse._vars=response._caller(index)\\n'"
p3217
sS'layer'
p3218
S"'/Users/Truki/web2py/applications/rosan/controllers/clientes.py'"
p3219
sS'global compile2'
p3220
S'<function compile2>'
p3221
sS'ccode'
p3222
S'undefined'
p3223
ssS'lnum'
p3224
I211
sS'lines'
p3225
(dp3226
I206
S"    environment['__name__'] = '__restricted__'"
p3227
sI207
S'    try:'
p3228
sI208
S'        if isinstance(code, types.CodeType):'
p3229
sI209
S'            ccode = code'
p3230
sI210
S'        else:'
p3231
sI211
S'            ccode = compile2(code, layer)'
p3232
sI212
S'        exec ccode in environment'
p3233
sI213
S'    except HTTP:'
p3234
sI214
S'        raise'
p3235
sI215
S'    except RestrictedError:'
p3236
ssS'call'
p3237
S"(code='# -*- coding: utf-8 -*-\\n### required - do no del...=errores)\\nresponse._vars=response._caller(index)\\n', environment={'A': <class 'gluon.html.A'>, 'Auth': <class 'gluon.tools.Auth'>, 'B': <class 'gluon.html.B'>, 'BEAUTIFY': <class 'gluon.html.BEAUTIFY'>, 'BODY': <class 'gluon.html.BODY'>, 'BR': <class 'gluon.html.BR'>, 'BUTTON': <class 'gluon.html.BUTTON'>, 'CAT': <class 'gluon.html.CAT'>, 'CENTER': <class 'gluon.html.CENTER'>, 'CLEANUP': <class 'gluon.validators.CLEANUP'>, ...}, layer='/Users/Truki/web2py/applications/rosan/controllers/clientes.py')"
p3238
sS'func'
p3239
S'restricted'
p3240
sa(dp3241
g3212
S'/Users/Truki/web2py/gluon/restricted.py'
p3242
sg3214
(dp3243
S'builtincompile'
p3244
S'<built-in function compile>'
p3245
sS'code'
p3246
S"'# -*- coding: utf-8 -*-\\n### required - do no del...=errores)\\nresponse._vars=response._caller(index)\\n'"
p3247
sS'code.rstrip'
p3248
S'<built-in method rstrip of str object>'
p3249
sS').replace'
p3250
g3223
sS'layer'
p3251
S"'/Users/Truki/web2py/applications/rosan/controllers/clientes.py'"
p3252
ssg3224
I194
sg3225
(dp3253
I192
S"    The +'\\n' is necessary else compile fails when code ends in a comment."
p3254
sI193
S'    """'
p3255
sI194
S"    return compile(code.rstrip().replace('\\r\\n', '\\n') + '\\n', layer, 'exec')"
p3256
sI195
S''
sI196
S''
sI197
S"def restricted(code, environment=None, layer='Unknown'):"
p3257
sI198
S'    """'
p3258
sI189
S''
sI190
S'def compile2(code, layer):'
p3259
sI191
S'    """'
p3260
ssg3237
S"(code='# -*- coding: utf-8 -*-\\n### required - do no del...=errores)\\nresponse._vars=response._caller(index)\\n', layer='/Users/Truki/web2py/applications/rosan/controllers/clientes.py')"
p3261
sg3239
S'compile2'
p3262
sasS'pyver'
p3263
S'Python 2.7.3: /Library/Frameworks/Python.framework/Versions/2.7/Resources/Python.app/Contents/MacOS/Python'
p3264
sS'session'
p3265
g69
(g70
g71
NtRp3266
(dp3267
g74
(dp3268
sg76
(lp3269
g69
(g78
g71
NtRp3270
(dp3271
g74
(dp3272
g82
I5
ssg83
Nsg76
(lp3273
g69
(g85
g71
NtRp3274
(dp3275
g74
(dp3276
sg83
g3270
sg76
(lp3277
g69
(g90
g71
NtRp3278
(dp3279
g74
(dp3280
g94
g95
ssg83
g3274
sg76
(lp3281
S'last_orderby'
p3282
asbag69
(g90
g71
NtRp3283
(dp3284
g74
(dp3285
g101
g102
ssg83
g3274
sg76
(lp3286
S':'
asbag69
(g90
g71
NtRp3287
(dp3288
g74
(dp3289
sg83
g3274
sg76
(lp3290
g69
(g70
g71
NtRp3291
(dp3292
g74
(dp3293
g82
I5
ssg83
g3287
sg76
(lp3294
S'None'
p3295
asbasbasbag69
(g85
g71
NtRp3296
(dp3297
g74
(dp3298
sg83
g3270
sg76
(lp3299
g69
(g90
g71
NtRp3300
(dp3301
g74
(dp3302
g94
g95
ssg83
g3296
sg76
(lp3303
S'last_query'
p3304
asbag69
(g90
g71
NtRp3305
(dp3306
g74
(dp3307
g101
g102
ssg83
g3296
sg76
(lp3308
S':'
asbag69
(g90
g71
NtRp3309
(dp3310
g74
(dp3311
sg83
g3296
sg76
(lp3312
g69
(g70
g71
NtRp3313
(dp3314
g74
(dp3315
g82
I5
ssg83
g3309
sg76
(lp3316
S'dbRosan.cliente.id>0'
p3317
asbasbasbasbasbsS'etype'
p3318
S"<type 'exceptions.SyntaxError'>"
p3319
sS'date'
p3320
S'Sun Jan 20 19:14:35 2013'
p3321
sS'response'
p3322
g69
(g70
g71
NtRp3323
(dp3324
g74
(dp3325
sg76
(lp3326
g69
(g78
g71
NtRp3327
(dp3328
g74
(dp3329
g82
I5
ssg83
Nsg76
(lp3330
g69
(g85
g71
NtRp3331
(dp3332
g74
(dp3333
sg83
g3327
sg76
(lp3334
g69
(g90
g71
NtRp3335
(dp3336
g74
(dp3337
g94
g95
ssg83
g3331
sg76
(lp3338
g167
asbag69
(g90
g71
NtRp3339
(dp3340
g74
(dp3341
g101
g102
ssg83
g3331
sg76
(lp3342
S':'
asbag69
(g90
g71
NtRp3343
(dp3344
g74
(dp3345
sg83
g3331
sg76
(lp3346
g69
(g70
g71
NtRp3347
(dp3348
g74
(dp3349
g82
I5
ssg83
g3343
sg76
(lp3350
S'<cStringIO.StringO object at 0x18724da0>'
p3351
asbasbasbag69
(g85
g71
NtRp3352
(dp3353
g74
(dp3354
sg83
g3327
sg76
(lp3355
g69
(g90
g71
NtRp3356
(dp3357
g74
(dp3358
g94
g95
ssg83
g3352
sg76
(lp3359
g255
asbag69
(g90
g71
NtRp3360
(dp3361
g74
(dp3362
g101
g102
ssg83
g3352
sg76
(lp3363
S':'
asbag69
(g90
g71
NtRp3364
(dp3365
g74
(dp3366
sg83
g3352
sg76
(lp3367
g69
(g70
g71
NtRp3368
(dp3369
g74
(dp3370
g82
I5
ssg83
g3364
sg76
(lp3371
g69
(g78
g71
NtRp3372
(dp3373
g74
(dp3374
g82
I4
ssg83
Nsg76
(lp3375
g69
(g85
g71
NtRp3376
(dp3377
g74
(dp3378
sg83
g3372
sg76
(lp3379
g69
(g90
g71
NtRp3380
(dp3381
g74
(dp3382
g94
g95
ssg83
g3376
sg76
(lp3383
S'session_id_rosan'
p3384
asbag69
(g90
g71
NtRp3385
(dp3386
g74
(dp3387
g101
g102
ssg83
g3376
sg76
(lp3388
S':'
asbag69
(g90
g71
NtRp3389
(dp3390
g74
(dp3391
sg83
g3376
sg76
(lp3392
g69
(g70
g71
NtRp3393
(dp3394
g74
(dp3395
g82
I4
ssg83
g3389
sg76
(lp3396
g487
ag69
(g78
g71
NtRp3397
(dp3398
g74
(dp3399
g82
I3
ssg83
Nsg76
(lp3400
g69
(g85
g71
NtRp3401
(dp3402
g74
(dp3403
sg83
g3397
sg76
(lp3404
g69
(g90
g71
NtRp3405
(dp3406
g74
(dp3407
g94
g95
ssg83
g3401
sg76
(lp3408
g306
asbag69
(g90
g71
NtRp3409
(dp3410
g74
(dp3411
g101
g102
ssg83
g3401
sg76
(lp3412
S':'
asbag69
(g90
g71
NtRp3413
(dp3414
g74
(dp3415
sg83
g3401
sg76
(lp3416
g69
(g70
g71
NtRp3417
(dp3418
g74
(dp3419
g82
I3
ssg83
g3413
sg76
(lp3420
S''
asbasbasbag69
(g85
g71
NtRp3421
(dp3422
g74
(dp3423
sg83
g3397
sg76
(lp3424
g69
(g90
g71
NtRp3425
(dp3426
g74
(dp3427
g94
g95
ssg83
g3421
sg76
(lp3428
g327
asbag69
(g90
g71
NtRp3429
(dp3430
g74
(dp3431
g101
g102
ssg83
g3421
sg76
(lp3432
S':'
asbag69
(g90
g71
NtRp3433
(dp3434
g74
(dp3435
sg83
g3421
sg76
(lp3436
g69
(g70
g71
NtRp3437
(dp3438
g74
(dp3439
g82
I3
ssg83
g3433
sg76
(lp3440
S''
asbasbasbag69
(g85
g71
NtRp3441
(dp3442
g74
(dp3443
sg83
g3397
sg76
(lp3444
g69
(g90
g71
NtRp3445
(dp3446
g74
(dp3447
g94
g95
ssg83
g3441
sg76
(lp3448
g348
asbag69
(g90
g71
NtRp3449
(dp3450
g74
(dp3451
g101
g102
ssg83
g3441
sg76
(lp3452
S':'
asbag69
(g90
g71
NtRp3453
(dp3454
g74
(dp3455
sg83
g3441
sg76
(lp3456
g69
(g70
g71
NtRp3457
(dp3458
g74
(dp3459
g82
I3
ssg83
g3453
sg76
(lp3460
S''
asbasbasbag69
(g85
g71
NtRp3461
(dp3462
g74
(dp3463
sg83
g3397
sg76
(lp3464
g69
(g90
g71
NtRp3465
(dp3466
g74
(dp3467
g94
g95
ssg83
g3461
sg76
(lp3468
g369
asbag69
(g90
g71
NtRp3469
(dp3470
g74
(dp3471
g101
g102
ssg83
g3461
sg76
(lp3472
S':'
asbag69
(g90
g71
NtRp3473
(dp3474
g74
(dp3475
sg83
g3461
sg76
(lp3476
g69
(g70
g71
NtRp3477
(dp3478
g74
(dp3479
g82
I3
ssg83
g3473
sg76
(lp3480
S''
asbasbasbag69
(g85
g71
NtRp3481
(dp3482
g74
(dp3483
sg83
g3397
sg76
(lp3484
g69
(g90
g71
NtRp3485
(dp3486
g74
(dp3487
g94
g95
ssg83
g3481
sg76
(lp3488
g390
asbag69
(g90
g71
NtRp3489
(dp3490
g74
(dp3491
g101
g102
ssg83
g3481
sg76
(lp3492
S':'
asbag69
(g90
g71
NtRp3493
(dp3494
g74
(dp3495
sg83
g3481
sg76
(lp3496
g69
(g70
g71
NtRp3497
(dp3498
g74
(dp3499
g82
I3
ssg83
g3493
sg76
(lp3500
S''
asbasbasbag69
(g85
g71
NtRp3501
(dp3502
g74
(dp3503
sg83
g3397
sg76
(lp3504
g69
(g90
g71
NtRp3505
(dp3506
g74
(dp3507
g94
g95
ssg83
g3501
sg76
(lp3508
g411
asbag69
(g90
g71
NtRp3509
(dp3510
g74
(dp3511
g101
g102
ssg83
g3501
sg76
(lp3512
S':'
asbag69
(g90
g71
NtRp3513
(dp3514
g74
(dp3515
sg83
g3501
sg76
(lp3516
g69
(g70
g71
NtRp3517
(dp3518
g74
(dp3519
g82
I3
ssg83
g3513
sg76
(lp3520
S'/'
asbasbasbag69
(g85
g71
NtRp3521
(dp3522
g74
(dp3523
sg83
g3397
sg76
(lp3524
g69
(g90
g71
NtRp3525
(dp3526
g74
(dp3527
g94
g95
ssg83
g3521
sg76
(lp3528
g432
asbag69
(g90
g71
NtRp3529
(dp3530
g74
(dp3531
g101
g102
ssg83
g3521
sg76
(lp3532
S':'
asbag69
(g90
g71
NtRp3533
(dp3534
g74
(dp3535
sg83
g3521
sg76
(lp3536
g69
(g70
g71
NtRp3537
(dp3538
g74
(dp3539
g82
I3
ssg83
g3533
sg76
(lp3540
S''
asbasbasbag69
(g85
g71
NtRp3541
(dp3542
g74
(dp3543
sg83
g3397
sg76
(lp3544
g69
(g90
g71
NtRp3545
(dp3546
g74
(dp3547
g94
g95
ssg83
g3541
sg76
(lp3548
g453
asbag69
(g90
g71
NtRp3549
(dp3550
g74
(dp3551
g101
g102
ssg83
g3541
sg76
(lp3552
S':'
asbag69
(g90
g71
NtRp3553
(dp3554
g74
(dp3555
sg83
g3541
sg76
(lp3556
g69
(g70
g71
NtRp3557
(dp3558
g74
(dp3559
g82
I3
ssg83
g3553
sg76
(lp3560
S''
asbasbasbasbasbasbasbasbasbasbasbag69
(g85
g71
NtRp3561
(dp3562
g74
(dp3563
sg83
g3327
sg76
(lp3564
g69
(g90
g71
NtRp3565
(dp3566
g74
(dp3567
g94
g95
ssg83
g3561
sg76
(lp3568
S'delimiters'
p3569
asbag69
(g90
g71
NtRp3570
(dp3571
g74
(dp3572
g101
g102
ssg83
g3561
sg76
(lp3573
S':'
asbag69
(g90
g71
NtRp3574
(dp3575
g74
(dp3576
sg83
g3561
sg76
(lp3577
g69
(g70
g71
NtRp3578
(dp3579
g74
(dp3580
g82
I5
ssg83
g3574
sg76
(lp3581
g69
(g78
g71
NtRp3582
(dp3583
g74
(dp3584
g82
I4
ssg83
Nsg76
(lp3585
g69
(g85
g71
NtRp3586
(dp3587
g74
(dp3588
sg83
g3582
sg76
(lp3589
g69
(g90
g71
NtRp3590
(dp3591
g74
(dp3592
sg83
g3586
sg76
(lp3593
g69
(g70
g71
NtRp3594
(dp3595
g74
(dp3596
g82
I4
ssg83
g3590
sg76
(lp3597
S'{{'
p3598
asbasbasbag69
(g85
g71
NtRp3599
(dp3600
g74
(dp3601
sg83
g3582
sg76
(lp3602
g69
(g90
g71
NtRp3603
(dp3604
g74
(dp3605
sg83
g3599
sg76
(lp3606
g69
(g70
g71
NtRp3607
(dp3608
g74
(dp3609
g82
I4
ssg83
g3603
sg76
(lp3610
S'}}'
p3611
asbasbasbasbasbasbasbag69
(g85
g71
NtRp3612
(dp3613
g74
(dp3614
sg83
g3327
sg76
(lp3615
g69
(g90
g71
NtRp3616
(dp3617
g74
(dp3618
g94
g95
ssg83
g3612
sg76
(lp3619
S'files'
p3620
asbag69
(g90
g71
NtRp3621
(dp3622
g74
(dp3623
g101
g102
ssg83
g3612
sg76
(lp3624
S':'
asbag69
(g90
g71
NtRp3625
(dp3626
g74
(dp3627
sg83
g3612
sg76
(lp3628
g69
(g70
g71
NtRp3629
(dp3630
g74
(dp3631
g82
I5
ssg83
g3625
sg76
(lp3632
g69
(g78
g71
NtRp3633
(dp3634
g74
(dp3635
g82
I4
ssg83
Nsg76
(lp3636
sbasbasbasbag69
(g85
g71
NtRp3637
(dp3638
g74
(dp3639
sg83
g3327
sg76
(lp3640
g69
(g90
g71
NtRp3641
(dp3642
g74
(dp3643
g94
g95
ssg83
g3637
sg76
(lp3644
S'flash'
p3645
asbag69
(g90
g71
NtRp3646
(dp3647
g74
(dp3648
g101
g102
ssg83
g3637
sg76
(lp3649
S':'
asbag69
(g90
g71
NtRp3650
(dp3651
g74
(dp3652
sg83
g3637
sg76
(lp3653
g69
(g70
g71
NtRp3654
(dp3655
g74
(dp3656
g82
I5
ssg83
g3650
sg76
(lp3657
S''
asbasbasbag69
(g85
g71
NtRp3658
(dp3659
g74
(dp3660
sg83
g3327
sg76
(lp3661
g69
(g90
g71
NtRp3662
(dp3663
g74
(dp3664
g94
g95
ssg83
g3658
sg76
(lp3665
S'generic_patterns'
p3666
asbag69
(g90
g71
NtRp3667
(dp3668
g74
(dp3669
g101
g102
ssg83
g3658
sg76
(lp3670
S':'
asbag69
(g90
g71
NtRp3671
(dp3672
g74
(dp3673
sg83
g3658
sg76
(lp3674
g69
(g70
g71
NtRp3675
(dp3676
g74
(dp3677
g82
I5
ssg83
g3671
sg76
(lp3678
g69
(g78
g71
NtRp3679
(dp3680
g74
(dp3681
g82
I4
ssg83
Nsg76
(lp3682
g69
(g85
g71
NtRp3683
(dp3684
g74
(dp3685
sg83
g3679
sg76
(lp3686
g69
(g90
g71
NtRp3687
(dp3688
g74
(dp3689
sg83
g3683
sg76
(lp3690
g69
(g70
g71
NtRp3691
(dp3692
g74
(dp3693
g82
I4
ssg83
g3687
sg76
(lp3694
S'*'
asbasbasbasbasbasbasbag69
(g85
g71
NtRp3695
(dp3696
g74
(dp3697
sg83
g3327
sg76
(lp3698
g69
(g90
g71
NtRp3699
(dp3700
g74
(dp3701
g94
g95
ssg83
g3695
sg76
(lp3702
S'headers'
p3703
asbag69
(g90
g71
NtRp3704
(dp3705
g74
(dp3706
g101
g102
ssg83
g3695
sg76
(lp3707
S':'
asbag69
(g90
g71
NtRp3708
(dp3709
g74
(dp3710
sg83
g3695
sg76
(lp3711
g69
(g70
g71
NtRp3712
(dp3713
g74
(dp3714
g82
I5
ssg83
g3708
sg76
(lp3715
g69
(g78
g71
NtRp3716
(dp3717
g74
(dp3718
g82
I4
ssg83
Nsg76
(lp3719
g69
(g85
g71
NtRp3720
(dp3721
g74
(dp3722
sg83
g3716
sg76
(lp3723
g69
(g90
g71
NtRp3724
(dp3725
g74
(dp3726
g94
g95
ssg83
g3720
sg76
(lp3727
S'X-Powered-By'
p3728
asbag69
(g90
g71
NtRp3729
(dp3730
g74
(dp3731
g101
g102
ssg83
g3720
sg76
(lp3732
S':'
asbag69
(g90
g71
NtRp3733
(dp3734
g74
(dp3735
sg83
g3720
sg76
(lp3736
g69
(g70
g71
NtRp3737
(dp3738
g74
(dp3739
g82
I4
ssg83
g3733
sg76
(lp3740
S'web2py'
p3741
asbasbasbasbasbasbasbag69
(g85
g71
NtRp3742
(dp3743
g74
(dp3744
sg83
g3327
sg76
(lp3745
g69
(g90
g71
NtRp3746
(dp3747
g74
(dp3748
g94
g95
ssg83
g3742
sg76
(lp3749
S'menu'
p3750
asbag69
(g90
g71
NtRp3751
(dp3752
g74
(dp3753
g101
g102
ssg83
g3742
sg76
(lp3754
S':'
asbag69
(g90
g71
NtRp3755
(dp3756
g74
(dp3757
sg83
g3742
sg76
(lp3758
g69
(g70
g71
NtRp3759
(dp3760
g74
(dp3761
g82
I5
ssg83
g3755
sg76
(lp3762
g69
(g78
g71
NtRp3763
(dp3764
g74
(dp3765
g82
I4
ssg83
Nsg76
(lp3766
g69
(g85
g71
NtRp3767
(dp3768
g74
(dp3769
sg83
g3763
sg76
(lp3770
g69
(g90
g71
NtRp3771
(dp3772
g74
(dp3773
sg83
g3767
sg76
(lp3774
g69
(g70
g71
NtRp3775
(dp3776
g74
(dp3777
g82
I4
ssg83
g3771
sg76
(lp3778
g69
(g78
g71
NtRp3779
(dp3780
g74
(dp3781
g82
I3
ssg83
Nsg76
(lp3782
g69
(g85
g71
NtRp3783
(dp3784
g74
(dp3785
sg83
g3779
sg76
(lp3786
g69
(g90
g71
NtRp3787
(dp3788
g74
(dp3789
sg83
g3783
sg76
(lp3790
g69
(g70
g71
NtRp3791
(dp3792
g74
(dp3793
g82
I3
ssg83
g3787
sg76
(lp3794
cgluon.languages
lazyT_unpickle
p3795
(S's\x06\x00\x00\x00Indice'
tRp3796
asbasbasbag69
(g85
g71
NtRp3797
(dp3798
g74
(dp3799
sg83
g3779
sg76
(lp3800
g69
(g90
g71
NtRp3801
(dp3802
g74
(dp3803
sg83
g3797
sg76
(lp3804
g69
(g70
g71
NtRp3805
(dp3806
g74
(dp3807
g82
I3
ssg83
g3801
sg76
(lp3808
g112
asbasbasbag69
(g85
g71
NtRp3809
(dp3810
g74
(dp3811
sg83
g3779
sg76
(lp3812
g69
(g90
g71
NtRp3813
(dp3814
g74
(dp3815
sg83
g3809
sg76
(lp3816
g69
(g70
g71
NtRp3817
(dp3818
g74
(dp3819
g82
I3
ssg83
g3813
sg76
(lp3820
S'/rosan/default/index'
p3821
asbasbasbag69
(g85
g71
NtRp3822
(dp3823
g74
(dp3824
sg83
g3779
sg76
(lp3825
g69
(g90
g71
NtRp3826
(dp3827
g74
(dp3828
sg83
g3822
sg76
(lp3829
g69
(g70
g71
NtRp3830
(dp3831
g74
(dp3832
g82
I3
ssg83
g3826
sg76
(lp3833
g69
(g78
g71
NtRp3834
(dp3835
g74
(dp3836
g82
I2
ssg83
Nsg76
(lp3837
sbasbasbasbasbasbasbasbag69
(g85
g71
NtRp3838
(dp3839
g74
(dp3840
sg83
g3763
sg76
(lp3841
g69
(g90
g71
NtRp3842
(dp3843
g74
(dp3844
sg83
g3838
sg76
(lp3845
g69
(g70
g71
NtRp3846
(dp3847
g74
(dp3848
g82
I4
ssg83
g3842
sg76
(lp3849
g69
(g78
g71
NtRp3850
(dp3851
g74
(dp3852
g82
I3
ssg83
Nsg76
(lp3853
g69
(g85
g71
NtRp3854
(dp3855
g74
(dp3856
sg83
g3850
sg76
(lp3857
g69
(g90
g71
NtRp3858
(dp3859
g74
(dp3860
sg83
g3854
sg76
(lp3861
g69
(g70
g71
NtRp3862
(dp3863
g74
(dp3864
g82
I3
ssg83
g3858
sg76
(lp3865
g3795
(S's\x08\x00\x00\x00Clientes'
tRp3866
asbasbasbag69
(g85
g71
NtRp3867
(dp3868
g74
(dp3869
sg83
g3850
sg76
(lp3870
g69
(g90
g71
NtRp3871
(dp3872
g74
(dp3873
sg83
g3867
sg76
(lp3874
g69
(g70
g71
NtRp3875
(dp3876
g74
(dp3877
g82
I3
ssg83
g3871
sg76
(lp3878
g112
asbasbasbag69
(g85
g71
NtRp3879
(dp3880
g74
(dp3881
sg83
g3850
sg76
(lp3882
g69
(g90
g71
NtRp3883
(dp3884
g74
(dp3885
sg83
g3879
sg76
(lp3886
g69
(g70
g71
NtRp3887
(dp3888
g74
(dp3889
g82
I3
ssg83
g3883
sg76
(lp3890
S'/rosan/default/nuevoCliente'
p3891
asbasbasbag69
(g85
g71
NtRp3892
(dp3893
g74
(dp3894
sg83
g3850
sg76
(lp3895
g69
(g90
g71
NtRp3896
(dp3897
g74
(dp3898
sg83
g3892
sg76
(lp3899
g69
(g70
g71
NtRp3900
(dp3901
g74
(dp3902
g82
I3
ssg83
g3896
sg76
(lp3903
g69
(g78
g71
NtRp3904
(dp3905
g74
(dp3906
g82
I2
ssg83
Nsg76
(lp3907
sbasbasbasbasbasbasbasbag69
(g85
g71
NtRp3908
(dp3909
g74
(dp3910
sg83
g3763
sg76
(lp3911
g69
(g90
g71
NtRp3912
(dp3913
g74
(dp3914
sg83
g3908
sg76
(lp3915
g69
(g70
g71
NtRp3916
(dp3917
g74
(dp3918
g82
I4
ssg83
g3912
sg76
(lp3919
g69
(g78
g71
NtRp3920
(dp3921
g74
(dp3922
g82
I3
ssg83
Nsg76
(lp3923
g69
(g85
g71
NtRp3924
(dp3925
g74
(dp3926
sg83
g3920
sg76
(lp3927
g69
(g90
g71
NtRp3928
(dp3929
g74
(dp3930
sg83
g3924
sg76
(lp3931
g69
(g70
g71
NtRp3932
(dp3933
g74
(dp3934
g82
I3
ssg83
g3928
sg76
(lp3935
g3795
(S's\x08\x00\x00\x00Facturas'
tRp3936
asbasbasbag69
(g85
g71
NtRp3937
(dp3938
g74
(dp3939
sg83
g3920
sg76
(lp3940
g69
(g90
g71
NtRp3941
(dp3942
g74
(dp3943
sg83
g3937
sg76
(lp3944
g69
(g70
g71
NtRp3945
(dp3946
g74
(dp3947
g82
I3
ssg83
g3941
sg76
(lp3948
g112
asbasbasbag69
(g85
g71
NtRp3949
(dp3950
g74
(dp3951
sg83
g3920
sg76
(lp3952
g69
(g90
g71
NtRp3953
(dp3954
g74
(dp3955
sg83
g3949
sg76
(lp3956
g69
(g70
g71
NtRp3957
(dp3958
g74
(dp3959
g82
I3
ssg83
g3953
sg76
(lp3960
S'/rosan/default/nuevaFactura'
p3961
asbasbasbag69
(g85
g71
NtRp3962
(dp3963
g74
(dp3964
sg83
g3920
sg76
(lp3965
g69
(g90
g71
NtRp3966
(dp3967
g74
(dp3968
sg83
g3962
sg76
(lp3969
g69
(g70
g71
NtRp3970
(dp3971
g74
(dp3972
g82
I3
ssg83
g3966
sg76
(lp3973
g69
(g78
g71
NtRp3974
(dp3975
g74
(dp3976
g82
I2
ssg83
Nsg76
(lp3977
sbasbasbasbasbasbasbasbag69
(g85
g71
NtRp3978
(dp3979
g74
(dp3980
sg83
g3763
sg76
(lp3981
g69
(g90
g71
NtRp3982
(dp3983
g74
(dp3984
sg83
g3978
sg76
(lp3985
g69
(g70
g71
NtRp3986
(dp3987
g74
(dp3988
g82
I4
ssg83
g3982
sg76
(lp3989
g69
(g78
g71
NtRp3990
(dp3991
g74
(dp3992
g82
I3
ssg83
Nsg76
(lp3993
g69
(g85
g71
NtRp3994
(dp3995
g74
(dp3996
sg83
g3990
sg76
(lp3997
g69
(g90
g71
NtRp3998
(dp3999
g74
(dp4000
sg83
g3994
sg76
(lp4001
g69
(g70
g71
NtRp4002
(dp4003
g74
(dp4004
g82
I3
ssg83
g3998
sg76
(lp4005
g3795
(S's\x0c\x00\x00\x00Presupuestos'
tRp4006
asbasbasbag69
(g85
g71
NtRp4007
(dp4008
g74
(dp4009
sg83
g3990
sg76
(lp4010
g69
(g90
g71
NtRp4011
(dp4012
g74
(dp4013
sg83
g4007
sg76
(lp4014
g69
(g70
g71
NtRp4015
(dp4016
g74
(dp4017
g82
I3
ssg83
g4011
sg76
(lp4018
g112
asbasbasbag69
(g85
g71
NtRp4019
(dp4020
g74
(dp4021
sg83
g3990
sg76
(lp4022
g69
(g90
g71
NtRp4023
(dp4024
g74
(dp4025
sg83
g4019
sg76
(lp4026
g69
(g70
g71
NtRp4027
(dp4028
g74
(dp4029
g82
I3
ssg83
g4023
sg76
(lp4030
S'/rosan/default/nuevoPresupuesto'
p4031
asbasbasbag69
(g85
g71
NtRp4032
(dp4033
g74
(dp4034
sg83
g3990
sg76
(lp4035
g69
(g90
g71
NtRp4036
(dp4037
g74
(dp4038
sg83
g4032
sg76
(lp4039
g69
(g70
g71
NtRp4040
(dp4041
g74
(dp4042
g82
I3
ssg83
g4036
sg76
(lp4043
g69
(g78
g71
NtRp4044
(dp4045
g74
(dp4046
g82
I2
ssg83
Nsg76
(lp4047
sbasbasbasbasbasbasbasbasbasbasbasbag69
(g85
g71
NtRp4048
(dp4049
g74
(dp4050
sg83
g3327
sg76
(lp4051
g69
(g90
g71
NtRp4052
(dp4053
g74
(dp4054
g94
g95
ssg83
g4048
sg76
(lp4055
S'meta'
p4056
asbag69
(g90
g71
NtRp4057
(dp4058
g74
(dp4059
g101
g102
ssg83
g4048
sg76
(lp4060
S':'
asbag69
(g90
g71
NtRp4061
(dp4062
g74
(dp4063
sg83
g4048
sg76
(lp4064
g69
(g70
g71
NtRp4065
(dp4066
g74
(dp4067
g82
I5
ssg83
g4061
sg76
(lp4068
g69
(g78
g71
NtRp4069
(dp4070
g74
(dp4071
g82
I4
ssg83
Nsg76
(lp4072
g69
(g85
g71
NtRp4073
(dp4074
g74
(dp4075
sg83
g4069
sg76
(lp4076
g69
(g90
g71
NtRp4077
(dp4078
g74
(dp4079
g94
g95
ssg83
g4073
sg76
(lp4080
S'author'
p4081
asbag69
(g90
g71
NtRp4082
(dp4083
g74
(dp4084
g101
g102
ssg83
g4073
sg76
(lp4085
S':'
asbag69
(g90
g71
NtRp4086
(dp4087
g74
(dp4088
sg83
g4073
sg76
(lp4089
g69
(g70
g71
NtRp4090
(dp4091
g74
(dp4092
g82
I4
ssg83
g4086
sg76
(lp4093
S'@trukise <trukise@gmail.com>'
p4094
asbasbasbag69
(g85
g71
NtRp4095
(dp4096
g74
(dp4097
sg83
g4069
sg76
(lp4098
g69
(g90
g71
NtRp4099
(dp4100
g74
(dp4101
g94
g95
ssg83
g4095
sg76
(lp4102
S'description'
p4103
asbag69
(g90
g71
NtRp4104
(dp4105
g74
(dp4106
g101
g102
ssg83
g4095
sg76
(lp4107
S':'
asbag69
(g90
g71
NtRp4108
(dp4109
g74
(dp4110
sg83
g4095
sg76
(lp4111
g69
(g70
g71
NtRp4112
(dp4113
g74
(dp4114
g82
I4
ssg83
g4108
sg76
(lp4115
S'Gesti\xc3\xb3n intengral de Fontaner\xc3\xada Rosa y S\xc3\xa1nchez'
p4116
asbasbasbag69
(g85
g71
NtRp4117
(dp4118
g74
(dp4119
sg83
g4069
sg76
(lp4120
g69
(g90
g71
NtRp4121
(dp4122
g74
(dp4123
g94
g95
ssg83
g4117
sg76
(lp4124
S'keywords'
p4125
asbag69
(g90
g71
NtRp4126
(dp4127
g74
(dp4128
g101
g102
ssg83
g4117
sg76
(lp4129
S':'
asbag69
(g90
g71
NtRp4130
(dp4131
g74
(dp4132
sg83
g4117
sg76
(lp4133
g69
(g70
g71
NtRp4134
(dp4135
g74
(dp4136
g82
I4
ssg83
g4130
sg76
(lp4137
S'Rosan, facturacion'
p4138
asbasbasbasbasbasbasbag69
(g85
g71
NtRp4139
(dp4140
g74
(dp4141
sg83
g3327
sg76
(lp4142
g69
(g90
g71
NtRp4143
(dp4144
g74
(dp4145
g94
g95
ssg83
g4139
sg76
(lp4146
S'models_to_run'
p4147
asbag69
(g90
g71
NtRp4148
(dp4149
g74
(dp4150
g101
g102
ssg83
g4139
sg76
(lp4151
S':'
asbag69
(g90
g71
NtRp4152
(dp4153
g74
(dp4154
sg83
g4139
sg76
(lp4155
g69
(g70
g71
NtRp4156
(dp4157
g74
(dp4158
g82
I5
ssg83
g4152
sg76
(lp4159
g69
(g78
g71
NtRp4160
(dp4161
g74
(dp4162
g82
I4
ssg83
Nsg76
(lp4163
g69
(g85
g71
NtRp4164
(dp4165
g74
(dp4166
sg83
g4160
sg76
(lp4167
g69
(g90
g71
NtRp4168
(dp4169
g74
(dp4170
sg83
g4164
sg76
(lp4171
g69
(g70
g71
NtRp4172
(dp4173
g74
(dp4174
g82
I4
ssg83
g4168
sg76
(lp4175
S'^\\w+\\.py$'
p4176
asbasbasbag69
(g85
g71
NtRp4177
(dp4178
g74
(dp4179
sg83
g4160
sg76
(lp4180
g69
(g90
g71
NtRp4181
(dp4182
g74
(dp4183
sg83
g4177
sg76
(lp4184
g69
(g70
g71
NtRp4185
(dp4186
g74
(dp4187
g82
I4
ssg83
g4181
sg76
(lp4188
S'^clientes/\\w+\\.py$'
p4189
asbasbasbag69
(g85
g71
NtRp4190
(dp4191
g74
(dp4192
sg83
g4160
sg76
(lp4193
g69
(g90
g71
NtRp4194
(dp4195
g74
(dp4196
sg83
g4190
sg76
(lp4197
g69
(g70
g71
NtRp4198
(dp4199
g74
(dp4200
g82
I4
ssg83
g4194
sg76
(lp4201
S'^clientes/index/\\w+\\.py$'
p4202
asbasbasbasbasbasbasbag69
(g85
g71
NtRp4203
(dp4204
g74
(dp4205
sg83
g3327
sg76
(lp4206
g69
(g90
g71
NtRp4207
(dp4208
g74
(dp4209
g94
g95
ssg83
g4203
sg76
(lp4210
S'postprocessing'
p4211
asbag69
(g90
g71
NtRp4212
(dp4213
g74
(dp4214
g101
g102
ssg83
g4203
sg76
(lp4215
S':'
asbag69
(g90
g71
NtRp4216
(dp4217
g74
(dp4218
sg83
g4203
sg76
(lp4219
g69
(g70
g71
NtRp4220
(dp4221
g74
(dp4222
g82
I5
ssg83
g4216
sg76
(lp4223
g69
(g78
g71
NtRp4224
(dp4225
g74
(dp4226
g82
I4
ssg83
Nsg76
(lp4227
sbasbasbasbag69
(g85
g71
NtRp4228
(dp4229
g74
(dp4230
sg83
g3327
sg76
(lp4231
g69
(g90
g71
NtRp4232
(dp4233
g74
(dp4234
g94
g95
ssg83
g4228
sg76
(lp4235
S'session_cookie_expires'
p4236
asbag69
(g90
g71
NtRp4237
(dp4238
g74
(dp4239
g101
g102
ssg83
g4228
sg76
(lp4240
S':'
asbag69
(g90
g71
NtRp4241
(dp4242
g74
(dp4243
sg83
g4228
sg76
(lp4244
g69
(g70
g71
NtRp4245
(dp4246
g74
(dp4247
g82
I5
ssg83
g4241
sg76
(lp4248
S'None'
p4249
asbasbasbag69
(g85
g71
NtRp4250
(dp4251
g74
(dp4252
sg83
g3327
sg76
(lp4253
g69
(g90
g71
NtRp4254
(dp4255
g74
(dp4256
g94
g95
ssg83
g4250
sg76
(lp4257
S'session_data_name'
p4258
asbag69
(g90
g71
NtRp4259
(dp4260
g74
(dp4261
g101
g102
ssg83
g4250
sg76
(lp4262
S':'
asbag69
(g90
g71
NtRp4263
(dp4264
g74
(dp4265
sg83
g4250
sg76
(lp4266
g69
(g70
g71
NtRp4267
(dp4268
g74
(dp4269
g82
I5
ssg83
g4263
sg76
(lp4270
S'session_data_rosan'
p4271
asbasbasbag69
(g85
g71
NtRp4272
(dp4273
g74
(dp4274
sg83
g3327
sg76
(lp4275
g69
(g90
g71
NtRp4276
(dp4277
g74
(dp4278
g94
g95
ssg83
g4272
sg76
(lp4279
S'session_file'
p4280
asbag69
(g90
g71
NtRp4281
(dp4282
g74
(dp4283
g101
g102
ssg83
g4272
sg76
(lp4284
S':'
asbag69
(g90
g71
NtRp4285
(dp4286
g74
(dp4287
sg83
g4272
sg76
(lp4288
g69
(g70
g71
NtRp4289
(dp4290
g74
(dp4291
g82
I5
ssg83
g4285
sg76
(lp4292
S"<open file '/Users/Truki/web2py/applications/rosan/sessions/127.0.0.1-7f26bdf4-3ca9-4fdc-87e8-ce55bec35287', mode 'rb+' at 0x18663860>"
p4293
asbasbasbag69
(g85
g71
NtRp4294
(dp4295
g74
(dp4296
sg83
g3327
sg76
(lp4297
g69
(g90
g71
NtRp4298
(dp4299
g74
(dp4300
g94
g95
ssg83
g4294
sg76
(lp4301
S'session_filename'
p4302
asbag69
(g90
g71
NtRp4303
(dp4304
g74
(dp4305
g101
g102
ssg83
g4294
sg76
(lp4306
S':'
asbag69
(g90
g71
NtRp4307
(dp4308
g74
(dp4309
sg83
g4294
sg76
(lp4310
g69
(g70
g71
NtRp4311
(dp4312
g74
(dp4313
g82
I5
ssg83
g4307
sg76
(lp4314
S'/Users/Truki/web2py/applications/rosan/sessions/127.0.0.1-7f26bdf4-3ca9-4fdc-87e8-ce55bec35287'
p4315
asbasbasbag69
(g85
g71
NtRp4316
(dp4317
g74
(dp4318
sg83
g3327
sg76
(lp4319
g69
(g90
g71
NtRp4320
(dp4321
g74
(dp4322
g94
g95
ssg83
g4316
sg76
(lp4323
S'session_id'
p4324
asbag69
(g90
g71
NtRp4325
(dp4326
g74
(dp4327
g101
g102
ssg83
g4316
sg76
(lp4328
S':'
asbag69
(g90
g71
NtRp4329
(dp4330
g74
(dp4331
sg83
g4316
sg76
(lp4332
g69
(g70
g71
NtRp4333
(dp4334
g74
(dp4335
g82
I5
ssg83
g4329
sg76
(lp4336
g487
asbasbasbag69
(g85
g71
NtRp4337
(dp4338
g74
(dp4339
sg83
g3327
sg76
(lp4340
g69
(g90
g71
NtRp4341
(dp4342
g74
(dp4343
g94
g95
ssg83
g4337
sg76
(lp4344
S'session_id_name'
p4345
asbag69
(g90
g71
NtRp4346
(dp4347
g74
(dp4348
g101
g102
ssg83
g4337
sg76
(lp4349
S':'
asbag69
(g90
g71
NtRp4350
(dp4351
g74
(dp4352
sg83
g4337
sg76
(lp4353
g69
(g70
g71
NtRp4354
(dp4355
g74
(dp4356
g82
I5
ssg83
g4350
sg76
(lp4357
g3384
asbasbasbag69
(g85
g71
NtRp4358
(dp4359
g74
(dp4360
sg83
g3327
sg76
(lp4361
g69
(g90
g71
NtRp4362
(dp4363
g74
(dp4364
g94
g95
ssg83
g4358
sg76
(lp4365
S'session_locked'
p4366
asbag69
(g90
g71
NtRp4367
(dp4368
g74
(dp4369
g101
g102
ssg83
g4358
sg76
(lp4370
S':'
asbag69
(g90
g71
NtRp4371
(dp4372
g74
(dp4373
sg83
g4358
sg76
(lp4374
g69
(g70
g71
NtRp4375
(dp4376
g74
(dp4377
g82
I5
ssg83
g4371
sg76
(lp4378
g1780
asbasbasbag69
(g85
g71
NtRp4379
(dp4380
g74
(dp4381
sg83
g3327
sg76
(lp4382
g69
(g90
g71
NtRp4383
(dp4384
g74
(dp4385
g94
g95
ssg83
g4379
sg76
(lp4386
S'session_new'
p4387
asbag69
(g90
g71
NtRp4388
(dp4389
g74
(dp4390
g101
g102
ssg83
g4379
sg76
(lp4391
S':'
asbag69
(g90
g71
NtRp4392
(dp4393
g74
(dp4394
sg83
g4379
sg76
(lp4395
g69
(g70
g71
NtRp4396
(dp4397
g74
(dp4398
g82
I5
ssg83
g4392
sg76
(lp4399
g112
asbasbasbag69
(g85
g71
NtRp4400
(dp4401
g74
(dp4402
sg83
g3327
sg76
(lp4403
g69
(g90
g71
NtRp4404
(dp4405
g74
(dp4406
g94
g95
ssg83
g4400
sg76
(lp4407
S'session_storage_type'
p4408
asbag69
(g90
g71
NtRp4409
(dp4410
g74
(dp4411
g101
g102
ssg83
g4400
sg76
(lp4412
S':'
asbag69
(g90
g71
NtRp4413
(dp4414
g74
(dp4415
sg83
g4400
sg76
(lp4416
g69
(g70
g71
NtRp4417
(dp4418
g74
(dp4419
g82
I5
ssg83
g4413
sg76
(lp4420
g3212
asbasbasbag69
(g85
g71
NtRp4421
(dp4422
g74
(dp4423
sg83
g3327
sg76
(lp4424
g69
(g90
g71
NtRp4425
(dp4426
g74
(dp4427
g94
g95
ssg83
g4421
sg76
(lp4428
S'status'
p4429
asbag69
(g90
g71
NtRp4430
(dp4431
g74
(dp4432
g101
g102
ssg83
g4421
sg76
(lp4433
S':'
asbag69
(g90
g71
NtRp4434
(dp4435
g74
(dp4436
sg83
g4421
sg76
(lp4437
g69
(g70
g71
NtRp4438
(dp4439
g74
(dp4440
g82
I5
ssg83
g4434
sg76
(lp4441
S'200'
p4442
asbasbasbag69
(g85
g71
NtRp4443
(dp4444
g74
(dp4445
sg83
g3327
sg76
(lp4446
g69
(g90
g71
NtRp4447
(dp4448
g74
(dp4449
g94
g95
ssg83
g4443
sg76
(lp4450
S'subtitle'
p4451
asbag69
(g90
g71
NtRp4452
(dp4453
g74
(dp4454
g101
g102
ssg83
g4443
sg76
(lp4455
S':'
asbag69
(g90
g71
NtRp4456
(dp4457
g74
(dp4458
sg83
g4443
sg76
(lp4459
g69
(g70
g71
NtRp4460
(dp4461
g74
(dp4462
g82
I5
ssg83
g4456
sg76
(lp4463
S'by @trukise'
p4464
asbasbasbag69
(g85
g71
NtRp4465
(dp4466
g74
(dp4467
sg83
g3327
sg76
(lp4468
g69
(g90
g71
NtRp4469
(dp4470
g74
(dp4471
g94
g95
ssg83
g4465
sg76
(lp4472
S'title'
p4473
asbag69
(g90
g71
NtRp4474
(dp4475
g74
(dp4476
g101
g102
ssg83
g4465
sg76
(lp4477
S':'
asbag69
(g90
g71
NtRp4478
(dp4479
g74
(dp4480
sg83
g4465
sg76
(lp4481
g69
(g70
g71
NtRp4482
(dp4483
g74
(dp4484
g82
I5
ssg83
g4478
sg76
(lp4485
S'Rosan'
p4486
asbasbasbag69
(g85
g71
NtRp4487
(dp4488
g74
(dp4489
sg83
g3327
sg76
(lp4490
g69
(g90
g71
NtRp4491
(dp4492
g74
(dp4493
g94
g95
ssg83
g4487
sg76
(lp4494
S'view'
p4495
asbag69
(g90
g71
NtRp4496
(dp4497
g74
(dp4498
g101
g102
ssg83
g4487
sg76
(lp4499
S':'
asbag69
(g90
g71
NtRp4500
(dp4501
g74
(dp4502
sg83
g4487
sg76
(lp4503
g69
(g70
g71
NtRp4504
(dp4505
g74
(dp4506
g82
I5
ssg83
g4500
sg76
(lp4507
S'clientes/index.html'
p4508
asbasbasbasbasbsS'locals'
p4509
(dp4510
g4
S"'/Users/Truki/web2py/applications/rosan/controllers/clientes.py'"
p4511
sg6
S"'# -*- coding: utf-8 -*-\\n### required - do no del...=errores)\\nresponse._vars=response._caller(index)\\n'"
p4512
sssS'traceback'
p4513
S'Traceback (most recent call last):\n  File "/Users/Truki/web2py/gluon/restricted.py", line 211, in restricted\n    ccode = compile2(code, layer)\n  File "/Users/Truki/web2py/gluon/restricted.py", line 194, in compile2\n    return compile(code.rstrip().replace(\'\\r\\n\', \'\\n\') + \'\\n\', layer, \'exec\')\n  File "/Users/Truki/web2py/applications/rosan/controllers/clientes.py", line 40\n    return dict(form=form info=info, errores=errores)\n                             ^\nSyntaxError: invalid syntax\n'
p4514
s.