(dp1
S'output'
p2
S"<class 'sqlite3.OperationalError'> Cannot add a NOT NULL column with default value NULL"
p3
sS'layer'
p4
S'/Users/Truki/Desarrollo/web2py/applications/rosan/models/db_rosan.py'
p5
sS'code'
p6
S'# coding: utf8\n"""\njust copy paste this code into your model and replace dbRosan to something\nyou prefer or what is used in your code, another thing that should be known is that\nthis code still cannot distinguish what exactly should be in reference title - name\nwhen you use generic appadmin so please remove all fiealds you don\'t need not require \n"""\n"""\ndatabase class object creation\n"""\ndbRosan = SQLDB("sqlite://dbRosan.db")\n\n\n"""\n    Tabla empresa\n"""\ndbRosan.define_table("empresa",\n      SQLField("nombre", "string", length=100, notnull=False, default=None),\n      SQLField("descripcion", "text", notnull=True, default=None),\n      SQLField("direccion", "string", length=250, notnull=True, default=None),\n      SQLField("localidad", "string", length=100, notnull=True, default=None),\n      SQLField("cod_postal", "string", length=5, notnull=True, default=None),\n      SQLField("email", "string", length=100, notnull=True, default=None),\n      SQLField("www", "string", length=200, notnull=True, default=None)\n      ) \n\n"""\nTabla de clientes\n"""\ndbRosan.define_table("cliente",\n      SQLField("cif", "string", length=9, notnull=True, default=None),\n      SQLField("nombre", "string", length=200, notnull=True, default=None),\n      SQLField("direccion", "string", length=200, notnull=True, default=None),\n      SQLField("localidad", "string", length=100, notnull=True, default=None),\n      SQLField("cod_postal", "string", length=5, notnull=True, default=None),\n      SQLField("email", "string", length=100, notnull=True, default=None),\n      SQLField("www", "string", length=200, notnull=True, default=None)\n      ) \n\n"""\nTabla con los proveedores\n"""\ndbRosan.define_table("proveedor",\n      SQLField("nombre", "string", length=100, notnull=False, default=None),\n      SQLField("cif", "string", length=9, notnull=True, default=None),\n      SQLField("direccion", "string", length=200, notnull=True, default=None),\n      SQLField("email", "string", length=100, notnull=True, default=None))\n\n\n"""\nTabla articulos\n"""\ndbRosan.define_table("articulo",\n      SQLField("titulo", "string", length=100, notnull=False, default=None),\n      SQLField("descripcion", "text", notnull=True, default=None),\n      SQLField("precio", "double", notnull=True, default=None),\n      SQLField("id_proveedor", dbRosan.proveedor)) \n\n"""\nTabla iva\n"""\ndbRosan.define_table("iva",\n      SQLField("descripcion", "string", length=100, notnull=False, default=None),\n      SQLField("valor", "double", notnull=True, default=None),\n      SQLField("activo", "boolean", notnull=True, default=True)) \n         \n"""\nTabla retencion\n"""\ndbRosan.define_table("retencion",\n      SQLField("descripcion", "string", length=100, notnull=False, default=None),\n      SQLField("valor", "double", notnull=True, default=None),\n      SQLField("activo", "boolean", notnull=True, default=True)) \n         \n\n"""\nTabla facturas\n"""\ndbRosan.define_table("factura",\n      SQLField("numero", "integer", notnull=False, default=None),\n      SQLField("fecha", "date", notnull=True, default=None),\n      SQLField("titulo", "string", length=255, notnull=False, default=None),\n      SQLField("id_cliente", dbRosan.cliente),\n      SQLField("tipo_iva", "double", notnull=True, default=None),\n      SQLField("tipo_retencion", "double", notnull=True, default=None),\n      SQLField("neto", "double", notnull=True, default=None),\n      SQLField("deduccion", "double", notnull=True, default=None),\n      SQLField("retencion", "double", notnull=True, default=None),\n      SQLField("descuento", "integer", notnull=True, default=None),\n      SQLField("total_iva", "double", notnull=True, default=None),\n      SQLField("total_bruto", "double", notnull=True, default=None),\n      SQLField("pagada", "boolean", notnull=True, default=False),\n      SQLField("anulada", "boolean", notnull=True, default=False)) \n\n\n\n"""\nTable con el detalle de las facturas\n"""\ndbRosan.define_table("factura_detalle",\n      SQLField("id_factura", dbRosan.factura),\n      SQLField("id_articulo", dbRosan.articulo),\n      SQLField("articulo", "text", notnull=True, default=None),\n      SQLField("precio", "double", notnull=True, default=None),\n      SQLField("cantidad", "integer", notnull=True, default=None),\n      SQLField("total_articulo", "double", notnull=True, default=None))  \n           \n\n"""\nTabla facturas temporal\n"""\ndbRosan.define_table("factura_temp",\n      SQLField("fecha", "date", notnull=True, default=None),\n      SQLField("id_cliente", dbRosan.cliente),\n      SQLField("tipo_iva", "double", notnull=True, default=None),\n      SQLField("tipo_retencion", "double", notnull=True, default=None),\n      SQLField("neto", "double", notnull=True, default=None),\n      SQLField("deduccion", "double", notnull=True, default=None),\n      SQLField("retencion", "double", notnull=True, default=None),\n      SQLField("descuento", "integer", notnull=True, default=None),\n      SQLField("total_iva", "double", notnull=True, default=None),\n      SQLField("total_bruto", "double", notnull=True, default=None),\n      SQLField("pagada", "boolean", notnull=True, default=False)) \n\n\n\n"""\nTable con el detalle de las facturas temporales\n"""\ndbRosan.define_table("factura_detalle_temp",\n      SQLField("id_factura", dbRosan.factura_temp),\n      SQLField("id_articulo", dbRosan.articulo),\n      SQLField("articulo", "text", notnull=True, default=None),\n      SQLField("precio", "double", notnull=True, default=None),\n      SQLField("cantidad", "integer", notnull=True, default=None),\n      SQLField("total_articulo", "double", notnull=True, default=None)) \n           \n"""\nTabla con borradores de facturas por guardar\n"""\ndbRosan.define_table("factura_borrador",\n      SQLField("fecha", "date", notnull=True, default=None),\n      SQLField("id_cliente", dbRosan.cliente),\n      SQLField("tipo_iva", "double", notnull=True, default=None),\n      SQLField("tipo_retencion", "double", notnull=True, default=None),\n      SQLField("neto", "double", notnull=True, default=None),\n      SQLField("deduccion", "double", notnull=True, default=None),\n      SQLField("retencion", "double", notnull=True, default=None),\n      SQLField("descuento", "integer", notnull=True, default=None),\n      SQLField("total_iva", "double", notnull=True, default=None),\n      SQLField("total_bruto", "double", notnull=True, default=None),\n      SQLField("pagada", "boolean", notnull=True, default=False)) \n           \n"""\nTable con el detalle de las facturas en borradores\n"""\ndbRosan.define_table("factura_detalle_borrador",\n      SQLField("id_factura", dbRosan.factura_borrador),\n      SQLField("id_articulo", dbRosan.articulo),\n      SQLField("articulo", "text", notnull=True, default=None),\n      SQLField("precio", "double", notnull=True, default=None),\n      SQLField("cantidad", "integer", notnull=True, default=None),\n      SQLField("total_articulo", "double", notnull=True, default=None)) \n      \n"""\nTabla almacen, contiene los stocks de los articulos\n"""\ndbRosan.define_table("almacen", \n      SQLField("id_articulo", dbRosan.articulo),\n      SQLField("cantidad", "integer", notnull=True, default=0),\n      SQLField("max", "integer", notnull=True, default=0),\n      SQLField("min", "integer", notnull=True, default=0))\n      \n      \n\n"""\nRelations between tables (remove fields you don\'t need from requires)\n"""\ndbRosan.factura.id_cliente.requires=IS_IN_DB(dbRosan, \'cliente.id\', \'%(nombre)s\')\n\ndbRosan.factura_detalle.id_factura.requires=IS_IN_DB(dbRosan, \'factura.id\')\n\ndbRosan.almacen.id_articulo.requires=IS_IN_DB(dbRosan, \'articulo.id\', \'%(nombre)s\')\n\ndbRosan.articulo.id_proveedor.requires=IS_IN_DB(dbRosan, \'proveedor.id\', \'%(nombre)s\')\n'
p7
sS'snapshot'
p8
(dp9
S'exception'
p10
(dp11
S'__module__'
p12
S"'sqlite3'"
p13
sS'__getslice__'
p14
S"<method-wrapper '__getslice__' of OperationalError object>"
p15
sS'__str__'
p16
S"<method-wrapper '__str__' of OperationalError object>"
p17
sS'__reduce__'
p18
S'<built-in method __reduce__ of OperationalError object>'
p19
sS'__dict__'
p20
S'{}'
p21
sS'__sizeof__'
p22
S'<built-in method __sizeof__ of OperationalError object>'
p23
sS'__weakref__'
p24
S'None'
p25
sS'__init__'
p26
S"<method-wrapper '__init__' of OperationalError object>"
p27
sS'__setattr__'
p28
S"<method-wrapper '__setattr__' of OperationalError object>"
p29
sS'__reduce_ex__'
p30
S'<built-in method __reduce_ex__ of OperationalError object>'
p31
sS'__new__'
p32
S'<built-in method __new__ of type object>'
p33
sS'__format__'
p34
S'<built-in method __format__ of OperationalError object>'
p35
sS'__class__'
p36
S"<class 'sqlite3.OperationalError'>"
p37
sS'__doc__'
p38
S'None'
p39
sS'__getitem__'
p40
S"<method-wrapper '__getitem__' of OperationalError object>"
p41
sS'__setstate__'
p42
S'<built-in method __setstate__ of OperationalError object>'
p43
sS'__getattribute__'
p44
S"<method-wrapper '__getattribute__' of OperationalError object>"
p45
sS'args'
p46
S"('Cannot add a NOT NULL column with default value NULL',)"
p47
sS'__subclasshook__'
p48
S'<built-in method __subclasshook__ of type object>'
p49
sS'__unicode__'
p50
S'<built-in method __unicode__ of OperationalError object>'
p51
sS'__delattr__'
p52
S"<method-wrapper '__delattr__' of OperationalError object>"
p53
sS'__repr__'
p54
S"<method-wrapper '__repr__' of OperationalError object>"
p55
sS'__hash__'
p56
S"<method-wrapper '__hash__' of OperationalError object>"
p57
ssS'evalue'
p58
S'Cannot add a NOT NULL column with default value NULL'
p59
sS'request'
p60
ccopy_reg
_reconstructor
p61
(cgluon.html
BEAUTIFY
p62
c__builtin__
object
p63
NtRp64
(dp65
S'attributes'
p66
(dp67
sS'components'
p68
(lp69
g61
(cgluon.html
TABLE
p70
g63
NtRp71
(dp72
g66
(dp73
S'level'
p74
I5
ssS'parent'
p75
Nsg68
(lp76
g61
(cgluon.html
TR
p77
g63
NtRp78
(dp79
g66
(dp80
sg75
g71
sg68
(lp81
g61
(cgluon.html
TD
p82
g63
NtRp83
(dp84
g66
(dp85
S'_style'
p86
S'font-weight:bold;vertical-align:top'
p87
ssg75
g78
sg68
(lp88
S'ajax'
p89
asbag61
(g82
g63
NtRp90
(dp91
g66
(dp92
S'_valign'
p93
S'top'
p94
ssg75
g78
sg68
(lp95
S':'
asbag61
(g82
g63
NtRp96
(dp97
g66
(dp98
sg75
g78
sg68
(lp99
g61
(g62
g63
NtRp100
(dp101
g66
(dp102
g74
I5
ssg75
g96
sg68
(lp103
S'False'
p104
asbasbasbag61
(g77
g63
NtRp105
(dp106
g66
(dp107
sg75
g71
sg68
(lp108
g61
(g82
g63
NtRp109
(dp110
g66
(dp111
g86
g87
ssg75
g105
sg68
(lp112
S'application'
p113
asbag61
(g82
g63
NtRp114
(dp115
g66
(dp116
g93
g94
ssg75
g105
sg68
(lp117
S':'
asbag61
(g82
g63
NtRp118
(dp119
g66
(dp120
sg75
g105
sg68
(lp121
g61
(g62
g63
NtRp122
(dp123
g66
(dp124
g74
I5
ssg75
g118
sg68
(lp125
S'rosan'
p126
asbasbasbag61
(g77
g63
NtRp127
(dp128
g66
(dp129
sg75
g71
sg68
(lp130
g61
(g82
g63
NtRp131
(dp132
g66
(dp133
g86
g87
ssg75
g127
sg68
(lp134
g46
asbag61
(g82
g63
NtRp135
(dp136
g66
(dp137
g93
g94
ssg75
g127
sg68
(lp138
S':'
asbag61
(g82
g63
NtRp139
(dp140
g66
(dp141
sg75
g127
sg68
(lp142
g61
(g62
g63
NtRp143
(dp144
g66
(dp145
g74
I5
ssg75
g139
sg68
(lp146
g61
(g70
g63
NtRp147
(dp148
g66
(dp149
g74
I4
ssg75
Nsg68
(lp150
sbasbasbasbag61
(g77
g63
NtRp151
(dp152
g66
(dp153
sg75
g71
sg68
(lp154
g61
(g82
g63
NtRp155
(dp156
g66
(dp157
g86
g87
ssg75
g151
sg68
(lp158
S'body'
p159
asbag61
(g82
g63
NtRp160
(dp161
g66
(dp162
g93
g94
ssg75
g151
sg68
(lp163
S':'
asbag61
(g82
g63
NtRp164
(dp165
g66
(dp166
sg75
g151
sg68
(lp167
g61
(g62
g63
NtRp168
(dp169
g66
(dp170
g74
I5
ssg75
g164
sg68
(lp171
S'<cStringIO.StringO object at 0x10e768500>'
p172
asbasbasbag61
(g77
g63
NtRp173
(dp174
g66
(dp175
sg75
g71
sg68
(lp176
g61
(g82
g63
NtRp177
(dp178
g66
(dp179
g86
g87
ssg75
g173
sg68
(lp180
S'cid'
p181
asbag61
(g82
g63
NtRp182
(dp183
g66
(dp184
g93
g94
ssg75
g173
sg68
(lp185
S':'
asbag61
(g82
g63
NtRp186
(dp187
g66
(dp188
sg75
g173
sg68
(lp189
g61
(g62
g63
NtRp190
(dp191
g66
(dp192
g74
I5
ssg75
g186
sg68
(lp193
S'None'
p194
asbasbasbag61
(g77
g63
NtRp195
(dp196
g66
(dp197
sg75
g71
sg68
(lp198
g61
(g82
g63
NtRp199
(dp200
g66
(dp201
g86
g87
ssg75
g195
sg68
(lp202
S'client'
p203
asbag61
(g82
g63
NtRp204
(dp205
g66
(dp206
g93
g94
ssg75
g195
sg68
(lp207
S':'
asbag61
(g82
g63
NtRp208
(dp209
g66
(dp210
sg75
g195
sg68
(lp211
g61
(g62
g63
NtRp212
(dp213
g66
(dp214
g74
I5
ssg75
g208
sg68
(lp215
S'127.0.0.1'
p216
asbasbasbag61
(g77
g63
NtRp217
(dp218
g66
(dp219
sg75
g71
sg68
(lp220
g61
(g82
g63
NtRp221
(dp222
g66
(dp223
g86
g87
ssg75
g217
sg68
(lp224
S'controller'
p225
asbag61
(g82
g63
NtRp226
(dp227
g66
(dp228
g93
g94
ssg75
g217
sg68
(lp229
S':'
asbag61
(g82
g63
NtRp230
(dp231
g66
(dp232
sg75
g217
sg68
(lp233
g61
(g62
g63
NtRp234
(dp235
g66
(dp236
g74
I5
ssg75
g230
sg68
(lp237
S'presupuestos'
p238
asbasbasbag61
(g77
g63
NtRp239
(dp240
g66
(dp241
sg75
g71
sg68
(lp242
g61
(g82
g63
NtRp243
(dp244
g66
(dp245
g86
g87
ssg75
g239
sg68
(lp246
S'cookies'
p247
asbag61
(g82
g63
NtRp248
(dp249
g66
(dp250
g93
g94
ssg75
g239
sg68
(lp251
S':'
asbag61
(g82
g63
NtRp252
(dp253
g66
(dp254
sg75
g239
sg68
(lp255
g61
(g62
g63
NtRp256
(dp257
g66
(dp258
g74
I5
ssg75
g252
sg68
(lp259
g61
(g70
g63
NtRp260
(dp261
g66
(dp262
g74
I4
ssg75
Nsg68
(lp263
g61
(g77
g63
NtRp264
(dp265
g66
(dp266
sg75
g260
sg68
(lp267
g61
(g82
g63
NtRp268
(dp269
g66
(dp270
g86
g87
ssg75
g264
sg68
(lp271
S'session_id_admin'
p272
asbag61
(g82
g63
NtRp273
(dp274
g66
(dp275
g93
g94
ssg75
g264
sg68
(lp276
S':'
asbag61
(g82
g63
NtRp277
(dp278
g66
(dp279
sg75
g264
sg68
(lp280
g61
(g62
g63
NtRp281
(dp282
g66
(dp283
g74
I4
ssg75
g277
sg68
(lp284
S'127.0.0.1-f0bf2f80-d47a-4c63-a82e-44a845bfe7e3'
p285
ag61
(g70
g63
NtRp286
(dp287
g66
(dp288
g74
I3
ssg75
Nsg68
(lp289
g61
(g77
g63
NtRp290
(dp291
g66
(dp292
sg75
g286
sg68
(lp293
g61
(g82
g63
NtRp294
(dp295
g66
(dp296
g86
g87
ssg75
g290
sg68
(lp297
S'comment'
p298
asbag61
(g82
g63
NtRp299
(dp300
g66
(dp301
g93
g94
ssg75
g290
sg68
(lp302
S':'
asbag61
(g82
g63
NtRp303
(dp304
g66
(dp305
sg75
g290
sg68
(lp306
g61
(g62
g63
NtRp307
(dp308
g66
(dp309
g74
I3
ssg75
g303
sg68
(lp310
S''
asbasbasbag61
(g77
g63
NtRp311
(dp312
g66
(dp313
sg75
g286
sg68
(lp314
g61
(g82
g63
NtRp315
(dp316
g66
(dp317
g86
g87
ssg75
g311
sg68
(lp318
S'domain'
p319
asbag61
(g82
g63
NtRp320
(dp321
g66
(dp322
g93
g94
ssg75
g311
sg68
(lp323
S':'
asbag61
(g82
g63
NtRp324
(dp325
g66
(dp326
sg75
g311
sg68
(lp327
g61
(g62
g63
NtRp328
(dp329
g66
(dp330
g74
I3
ssg75
g324
sg68
(lp331
S''
asbasbasbag61
(g77
g63
NtRp332
(dp333
g66
(dp334
sg75
g286
sg68
(lp335
g61
(g82
g63
NtRp336
(dp337
g66
(dp338
g86
g87
ssg75
g332
sg68
(lp339
S'expires'
p340
asbag61
(g82
g63
NtRp341
(dp342
g66
(dp343
g93
g94
ssg75
g332
sg68
(lp344
S':'
asbag61
(g82
g63
NtRp345
(dp346
g66
(dp347
sg75
g332
sg68
(lp348
g61
(g62
g63
NtRp349
(dp350
g66
(dp351
g74
I3
ssg75
g345
sg68
(lp352
S''
asbasbasbag61
(g77
g63
NtRp353
(dp354
g66
(dp355
sg75
g286
sg68
(lp356
g61
(g82
g63
NtRp357
(dp358
g66
(dp359
g86
g87
ssg75
g353
sg68
(lp360
S'httponly'
p361
asbag61
(g82
g63
NtRp362
(dp363
g66
(dp364
g93
g94
ssg75
g353
sg68
(lp365
S':'
asbag61
(g82
g63
NtRp366
(dp367
g66
(dp368
sg75
g353
sg68
(lp369
g61
(g62
g63
NtRp370
(dp371
g66
(dp372
g74
I3
ssg75
g366
sg68
(lp373
S''
asbasbasbag61
(g77
g63
NtRp374
(dp375
g66
(dp376
sg75
g286
sg68
(lp377
g61
(g82
g63
NtRp378
(dp379
g66
(dp380
g86
g87
ssg75
g374
sg68
(lp381
S'max-age'
p382
asbag61
(g82
g63
NtRp383
(dp384
g66
(dp385
g93
g94
ssg75
g374
sg68
(lp386
S':'
asbag61
(g82
g63
NtRp387
(dp388
g66
(dp389
sg75
g374
sg68
(lp390
g61
(g62
g63
NtRp391
(dp392
g66
(dp393
g74
I3
ssg75
g387
sg68
(lp394
S''
asbasbasbag61
(g77
g63
NtRp395
(dp396
g66
(dp397
sg75
g286
sg68
(lp398
g61
(g82
g63
NtRp399
(dp400
g66
(dp401
g86
g87
ssg75
g395
sg68
(lp402
S'path'
p403
asbag61
(g82
g63
NtRp404
(dp405
g66
(dp406
g93
g94
ssg75
g395
sg68
(lp407
S':'
asbag61
(g82
g63
NtRp408
(dp409
g66
(dp410
sg75
g395
sg68
(lp411
g61
(g62
g63
NtRp412
(dp413
g66
(dp414
g74
I3
ssg75
g408
sg68
(lp415
S''
asbasbasbag61
(g77
g63
NtRp416
(dp417
g66
(dp418
sg75
g286
sg68
(lp419
g61
(g82
g63
NtRp420
(dp421
g66
(dp422
g86
g87
ssg75
g416
sg68
(lp423
S'secure'
p424
asbag61
(g82
g63
NtRp425
(dp426
g66
(dp427
g93
g94
ssg75
g416
sg68
(lp428
S':'
asbag61
(g82
g63
NtRp429
(dp430
g66
(dp431
sg75
g416
sg68
(lp432
g61
(g62
g63
NtRp433
(dp434
g66
(dp435
g74
I3
ssg75
g429
sg68
(lp436
S''
asbasbasbag61
(g77
g63
NtRp437
(dp438
g66
(dp439
sg75
g286
sg68
(lp440
g61
(g82
g63
NtRp441
(dp442
g66
(dp443
g86
g87
ssg75
g437
sg68
(lp444
S'version'
p445
asbag61
(g82
g63
NtRp446
(dp447
g66
(dp448
g93
g94
ssg75
g437
sg68
(lp449
S':'
asbag61
(g82
g63
NtRp450
(dp451
g66
(dp452
sg75
g437
sg68
(lp453
g61
(g62
g63
NtRp454
(dp455
g66
(dp456
g74
I3
ssg75
g450
sg68
(lp457
S''
asbasbasbasbasbasbasbag61
(g77
g63
NtRp458
(dp459
g66
(dp460
sg75
g260
sg68
(lp461
g61
(g82
g63
NtRp462
(dp463
g66
(dp464
g86
g87
ssg75
g458
sg68
(lp465
S'session_id_rosan'
p466
asbag61
(g82
g63
NtRp467
(dp468
g66
(dp469
g93
g94
ssg75
g458
sg68
(lp470
S':'
asbag61
(g82
g63
NtRp471
(dp472
g66
(dp473
sg75
g458
sg68
(lp474
g61
(g62
g63
NtRp475
(dp476
g66
(dp477
g74
I4
ssg75
g471
sg68
(lp478
S'127.0.0.1-e44cb93f-049c-40c0-ade5-b5e99985895d'
p479
ag61
(g70
g63
NtRp480
(dp481
g66
(dp482
g74
I3
ssg75
Nsg68
(lp483
g61
(g77
g63
NtRp484
(dp485
g66
(dp486
sg75
g480
sg68
(lp487
g61
(g82
g63
NtRp488
(dp489
g66
(dp490
g86
g87
ssg75
g484
sg68
(lp491
g298
asbag61
(g82
g63
NtRp492
(dp493
g66
(dp494
g93
g94
ssg75
g484
sg68
(lp495
S':'
asbag61
(g82
g63
NtRp496
(dp497
g66
(dp498
sg75
g484
sg68
(lp499
g61
(g62
g63
NtRp500
(dp501
g66
(dp502
g74
I3
ssg75
g496
sg68
(lp503
S''
asbasbasbag61
(g77
g63
NtRp504
(dp505
g66
(dp506
sg75
g480
sg68
(lp507
g61
(g82
g63
NtRp508
(dp509
g66
(dp510
g86
g87
ssg75
g504
sg68
(lp511
g319
asbag61
(g82
g63
NtRp512
(dp513
g66
(dp514
g93
g94
ssg75
g504
sg68
(lp515
S':'
asbag61
(g82
g63
NtRp516
(dp517
g66
(dp518
sg75
g504
sg68
(lp519
g61
(g62
g63
NtRp520
(dp521
g66
(dp522
g74
I3
ssg75
g516
sg68
(lp523
S''
asbasbasbag61
(g77
g63
NtRp524
(dp525
g66
(dp526
sg75
g480
sg68
(lp527
g61
(g82
g63
NtRp528
(dp529
g66
(dp530
g86
g87
ssg75
g524
sg68
(lp531
g340
asbag61
(g82
g63
NtRp532
(dp533
g66
(dp534
g93
g94
ssg75
g524
sg68
(lp535
S':'
asbag61
(g82
g63
NtRp536
(dp537
g66
(dp538
sg75
g524
sg68
(lp539
g61
(g62
g63
NtRp540
(dp541
g66
(dp542
g74
I3
ssg75
g536
sg68
(lp543
S''
asbasbasbag61
(g77
g63
NtRp544
(dp545
g66
(dp546
sg75
g480
sg68
(lp547
g61
(g82
g63
NtRp548
(dp549
g66
(dp550
g86
g87
ssg75
g544
sg68
(lp551
g361
asbag61
(g82
g63
NtRp552
(dp553
g66
(dp554
g93
g94
ssg75
g544
sg68
(lp555
S':'
asbag61
(g82
g63
NtRp556
(dp557
g66
(dp558
sg75
g544
sg68
(lp559
g61
(g62
g63
NtRp560
(dp561
g66
(dp562
g74
I3
ssg75
g556
sg68
(lp563
S''
asbasbasbag61
(g77
g63
NtRp564
(dp565
g66
(dp566
sg75
g480
sg68
(lp567
g61
(g82
g63
NtRp568
(dp569
g66
(dp570
g86
g87
ssg75
g564
sg68
(lp571
g382
asbag61
(g82
g63
NtRp572
(dp573
g66
(dp574
g93
g94
ssg75
g564
sg68
(lp575
S':'
asbag61
(g82
g63
NtRp576
(dp577
g66
(dp578
sg75
g564
sg68
(lp579
g61
(g62
g63
NtRp580
(dp581
g66
(dp582
g74
I3
ssg75
g576
sg68
(lp583
S''
asbasbasbag61
(g77
g63
NtRp584
(dp585
g66
(dp586
sg75
g480
sg68
(lp587
g61
(g82
g63
NtRp588
(dp589
g66
(dp590
g86
g87
ssg75
g584
sg68
(lp591
g403
asbag61
(g82
g63
NtRp592
(dp593
g66
(dp594
g93
g94
ssg75
g584
sg68
(lp595
S':'
asbag61
(g82
g63
NtRp596
(dp597
g66
(dp598
sg75
g584
sg68
(lp599
g61
(g62
g63
NtRp600
(dp601
g66
(dp602
g74
I3
ssg75
g596
sg68
(lp603
S''
asbasbasbag61
(g77
g63
NtRp604
(dp605
g66
(dp606
sg75
g480
sg68
(lp607
g61
(g82
g63
NtRp608
(dp609
g66
(dp610
g86
g87
ssg75
g604
sg68
(lp611
g424
asbag61
(g82
g63
NtRp612
(dp613
g66
(dp614
g93
g94
ssg75
g604
sg68
(lp615
S':'
asbag61
(g82
g63
NtRp616
(dp617
g66
(dp618
sg75
g604
sg68
(lp619
g61
(g62
g63
NtRp620
(dp621
g66
(dp622
g74
I3
ssg75
g616
sg68
(lp623
S''
asbasbasbag61
(g77
g63
NtRp624
(dp625
g66
(dp626
sg75
g480
sg68
(lp627
g61
(g82
g63
NtRp628
(dp629
g66
(dp630
g86
g87
ssg75
g624
sg68
(lp631
g445
asbag61
(g82
g63
NtRp632
(dp633
g66
(dp634
g93
g94
ssg75
g624
sg68
(lp635
S':'
asbag61
(g82
g63
NtRp636
(dp637
g66
(dp638
sg75
g624
sg68
(lp639
g61
(g62
g63
NtRp640
(dp641
g66
(dp642
g74
I3
ssg75
g636
sg68
(lp643
S''
asbasbasbasbasbasbasbag61
(g77
g63
NtRp644
(dp645
g66
(dp646
sg75
g260
sg68
(lp647
g61
(g82
g63
NtRp648
(dp649
g66
(dp650
g86
g87
ssg75
g644
sg68
(lp651
S'session_id_welcome'
p652
asbag61
(g82
g63
NtRp653
(dp654
g66
(dp655
g93
g94
ssg75
g644
sg68
(lp656
S':'
asbag61
(g82
g63
NtRp657
(dp658
g66
(dp659
sg75
g644
sg68
(lp660
g61
(g62
g63
NtRp661
(dp662
g66
(dp663
g74
I4
ssg75
g657
sg68
(lp664
S'127.0.0.1-70fac521-7f5c-422f-a856-bf00b2216810'
p665
ag61
(g70
g63
NtRp666
(dp667
g66
(dp668
g74
I3
ssg75
Nsg68
(lp669
g61
(g77
g63
NtRp670
(dp671
g66
(dp672
sg75
g666
sg68
(lp673
g61
(g82
g63
NtRp674
(dp675
g66
(dp676
g86
g87
ssg75
g670
sg68
(lp677
g298
asbag61
(g82
g63
NtRp678
(dp679
g66
(dp680
g93
g94
ssg75
g670
sg68
(lp681
S':'
asbag61
(g82
g63
NtRp682
(dp683
g66
(dp684
sg75
g670
sg68
(lp685
g61
(g62
g63
NtRp686
(dp687
g66
(dp688
g74
I3
ssg75
g682
sg68
(lp689
S''
asbasbasbag61
(g77
g63
NtRp690
(dp691
g66
(dp692
sg75
g666
sg68
(lp693
g61
(g82
g63
NtRp694
(dp695
g66
(dp696
g86
g87
ssg75
g690
sg68
(lp697
g319
asbag61
(g82
g63
NtRp698
(dp699
g66
(dp700
g93
g94
ssg75
g690
sg68
(lp701
S':'
asbag61
(g82
g63
NtRp702
(dp703
g66
(dp704
sg75
g690
sg68
(lp705
g61
(g62
g63
NtRp706
(dp707
g66
(dp708
g74
I3
ssg75
g702
sg68
(lp709
S''
asbasbasbag61
(g77
g63
NtRp710
(dp711
g66
(dp712
sg75
g666
sg68
(lp713
g61
(g82
g63
NtRp714
(dp715
g66
(dp716
g86
g87
ssg75
g710
sg68
(lp717
g340
asbag61
(g82
g63
NtRp718
(dp719
g66
(dp720
g93
g94
ssg75
g710
sg68
(lp721
S':'
asbag61
(g82
g63
NtRp722
(dp723
g66
(dp724
sg75
g710
sg68
(lp725
g61
(g62
g63
NtRp726
(dp727
g66
(dp728
g74
I3
ssg75
g722
sg68
(lp729
S''
asbasbasbag61
(g77
g63
NtRp730
(dp731
g66
(dp732
sg75
g666
sg68
(lp733
g61
(g82
g63
NtRp734
(dp735
g66
(dp736
g86
g87
ssg75
g730
sg68
(lp737
g361
asbag61
(g82
g63
NtRp738
(dp739
g66
(dp740
g93
g94
ssg75
g730
sg68
(lp741
S':'
asbag61
(g82
g63
NtRp742
(dp743
g66
(dp744
sg75
g730
sg68
(lp745
g61
(g62
g63
NtRp746
(dp747
g66
(dp748
g74
I3
ssg75
g742
sg68
(lp749
S''
asbasbasbag61
(g77
g63
NtRp750
(dp751
g66
(dp752
sg75
g666
sg68
(lp753
g61
(g82
g63
NtRp754
(dp755
g66
(dp756
g86
g87
ssg75
g750
sg68
(lp757
g382
asbag61
(g82
g63
NtRp758
(dp759
g66
(dp760
g93
g94
ssg75
g750
sg68
(lp761
S':'
asbag61
(g82
g63
NtRp762
(dp763
g66
(dp764
sg75
g750
sg68
(lp765
g61
(g62
g63
NtRp766
(dp767
g66
(dp768
g74
I3
ssg75
g762
sg68
(lp769
S''
asbasbasbag61
(g77
g63
NtRp770
(dp771
g66
(dp772
sg75
g666
sg68
(lp773
g61
(g82
g63
NtRp774
(dp775
g66
(dp776
g86
g87
ssg75
g770
sg68
(lp777
g403
asbag61
(g82
g63
NtRp778
(dp779
g66
(dp780
g93
g94
ssg75
g770
sg68
(lp781
S':'
asbag61
(g82
g63
NtRp782
(dp783
g66
(dp784
sg75
g770
sg68
(lp785
g61
(g62
g63
NtRp786
(dp787
g66
(dp788
g74
I3
ssg75
g782
sg68
(lp789
S''
asbasbasbag61
(g77
g63
NtRp790
(dp791
g66
(dp792
sg75
g666
sg68
(lp793
g61
(g82
g63
NtRp794
(dp795
g66
(dp796
g86
g87
ssg75
g790
sg68
(lp797
g424
asbag61
(g82
g63
NtRp798
(dp799
g66
(dp800
g93
g94
ssg75
g790
sg68
(lp801
S':'
asbag61
(g82
g63
NtRp802
(dp803
g66
(dp804
sg75
g790
sg68
(lp805
g61
(g62
g63
NtRp806
(dp807
g66
(dp808
g74
I3
ssg75
g802
sg68
(lp809
S''
asbasbasbag61
(g77
g63
NtRp810
(dp811
g66
(dp812
sg75
g666
sg68
(lp813
g61
(g82
g63
NtRp814
(dp815
g66
(dp816
g86
g87
ssg75
g810
sg68
(lp817
g445
asbag61
(g82
g63
NtRp818
(dp819
g66
(dp820
g93
g94
ssg75
g810
sg68
(lp821
S':'
asbag61
(g82
g63
NtRp822
(dp823
g66
(dp824
sg75
g810
sg68
(lp825
g61
(g62
g63
NtRp826
(dp827
g66
(dp828
g74
I3
ssg75
g822
sg68
(lp829
S''
asbasbasbasbasbasbasbasbasbasbasbag61
(g77
g63
NtRp830
(dp831
g66
(dp832
sg75
g71
sg68
(lp833
g61
(g82
g63
NtRp834
(dp835
g66
(dp836
g86
g87
ssg75
g830
sg68
(lp837
S'env'
p838
asbag61
(g82
g63
NtRp839
(dp840
g66
(dp841
g93
g94
ssg75
g830
sg68
(lp842
S':'
asbag61
(g82
g63
NtRp843
(dp844
g66
(dp845
sg75
g830
sg68
(lp846
g61
(g62
g63
NtRp847
(dp848
g66
(dp849
g74
I5
ssg75
g843
sg68
(lp850
g61
(g70
g63
NtRp851
(dp852
g66
(dp853
g74
I4
ssg75
Nsg68
(lp854
g61
(g77
g63
NtRp855
(dp856
g66
(dp857
sg75
g851
sg68
(lp858
g61
(g82
g63
NtRp859
(dp860
g66
(dp861
g86
g87
ssg75
g855
sg68
(lp862
S'app_folders'
p863
asbag61
(g82
g63
NtRp864
(dp865
g66
(dp866
g93
g94
ssg75
g855
sg68
(lp867
S':'
asbag61
(g82
g63
NtRp868
(dp869
g66
(dp870
sg75
g855
sg68
(lp871
g61
(g62
g63
NtRp872
(dp873
g66
(dp874
g74
I4
ssg75
g868
sg68
(lp875
S"set(['/Users/Truki/Desarrollo/web2py/applications/welcome/', '/Users/Truki/Desarrollo/web2py/applications/rosan/', '/Users/Truki/Desarrollo/web2py/applications/admin/'])"
p876
asbasbasbag61
(g77
g63
NtRp877
(dp878
g66
(dp879
sg75
g851
sg68
(lp880
g61
(g82
g63
NtRp881
(dp882
g66
(dp883
g86
g87
ssg75
g877
sg68
(lp884
S'applications_parent'
p885
asbag61
(g82
g63
NtRp886
(dp887
g66
(dp888
g93
g94
ssg75
g877
sg68
(lp889
S':'
asbag61
(g82
g63
NtRp890
(dp891
g66
(dp892
sg75
g877
sg68
(lp893
g61
(g62
g63
NtRp894
(dp895
g66
(dp896
g74
I4
ssg75
g890
sg68
(lp897
S'/Users/Truki/Desarrollo/web2py'
p898
asbasbasbag61
(g77
g63
NtRp899
(dp900
g66
(dp901
sg75
g851
sg68
(lp902
g61
(g82
g63
NtRp903
(dp904
g66
(dp905
g86
g87
ssg75
g899
sg68
(lp906
S'cmd_args'
p907
asbag61
(g82
g63
NtRp908
(dp909
g66
(dp910
g93
g94
ssg75
g899
sg68
(lp911
S':'
asbag61
(g82
g63
NtRp912
(dp913
g66
(dp914
sg75
g899
sg68
(lp915
g61
(g62
g63
NtRp916
(dp917
g66
(dp918
g74
I4
ssg75
g912
sg68
(lp919
g61
(g70
g63
NtRp920
(dp921
g66
(dp922
g74
I3
ssg75
Nsg68
(lp923
sbasbasbasbag61
(g77
g63
NtRp924
(dp925
g66
(dp926
sg75
g851
sg68
(lp927
g61
(g82
g63
NtRp928
(dp929
g66
(dp930
g86
g87
ssg75
g924
sg68
(lp931
S'cmd_options'
p932
asbag61
(g82
g63
NtRp933
(dp934
g66
(dp935
g93
g94
ssg75
g924
sg68
(lp936
S':'
asbag61
(g82
g63
NtRp937
(dp938
g66
(dp939
sg75
g924
sg68
(lp940
g61
(g62
g63
NtRp941
(dp942
g66
(dp943
g74
I4
ssg75
g937
sg68
(lp944
S"<Values at 0x10e758128: {'verbose': False, 'ip': '127.0.0.1', 'with_scheduler': False, 'ips': ['fe80::8e2d:aaff:fe4a:3d35%en1', '192.168.1.35'], 'shutdown_timeout': 5, 'taskbar': False, 'port': 8000, 'maxthreads': None, 'softcron': False, 'server_name': 'PeritoMascao.local', 'bpython': False, 'nogui': False, 'pid_filename': 'httpserver.pid', 'extcron': False, 'runcron': False, 'run_system_tests': False, 'test': None, 'folder': '/Users/Truki/Desarrollo/web2py', 'config': '', 'minthreads': None, 'winservice': '', 'shell': None, 'run': '', 'log_filename': 'httpserver.log', 'debuglevel': 30, 'args': [''], 'socket_timeout': 5, 'ssl_ca_certificate': None, 'scheduler': None, 'profiler_filename': None, 'ssl_private_key': '', 'scheduler_groups': None, 'password': '<ask>', 'request_queue_size': 5, 'ssl_certificate': '', 'cronjob': False, 'numthreads': None, 'quiet': False, 'interfaces': None, 'import_models': False, 'timeout': 10, 'plain': False, 'nobanner': False}>"
p945
asbasbasbag61
(g77
g63
NtRp946
(dp947
g66
(dp948
sg75
g851
sg68
(lp949
g61
(g82
g63
NtRp950
(dp951
g66
(dp952
g86
g87
ssg75
g946
sg68
(lp953
S'db_sessions'
p954
asbag61
(g82
g63
NtRp955
(dp956
g66
(dp957
g93
g94
ssg75
g946
sg68
(lp958
S':'
asbag61
(g82
g63
NtRp959
(dp960
g66
(dp961
sg75
g946
sg68
(lp962
g61
(g62
g63
NtRp963
(dp964
g66
(dp965
g74
I4
ssg75
g959
sg68
(lp966
S'set([])'
p967
asbasbasbag61
(g77
g63
NtRp968
(dp969
g66
(dp970
sg75
g851
sg68
(lp971
g61
(g82
g63
NtRp972
(dp973
g66
(dp974
g86
g87
ssg75
g968
sg68
(lp975
S'debugging'
p976
asbag61
(g82
g63
NtRp977
(dp978
g66
(dp979
g93
g94
ssg75
g968
sg68
(lp980
S':'
asbag61
(g82
g63
NtRp981
(dp982
g66
(dp983
sg75
g968
sg68
(lp984
g61
(g62
g63
NtRp985
(dp986
g66
(dp987
g74
I4
ssg75
g981
sg68
(lp988
g104
asbasbasbag61
(g77
g63
NtRp989
(dp990
g66
(dp991
sg75
g851
sg68
(lp992
g61
(g82
g63
NtRp993
(dp994
g66
(dp995
g86
g87
ssg75
g989
sg68
(lp996
S'gluon_parent'
p997
asbag61
(g82
g63
NtRp998
(dp999
g66
(dp1000
g93
g94
ssg75
g989
sg68
(lp1001
S':'
asbag61
(g82
g63
NtRp1002
(dp1003
g66
(dp1004
sg75
g989
sg68
(lp1005
g61
(g62
g63
NtRp1006
(dp1007
g66
(dp1008
g74
I4
ssg75
g1002
sg68
(lp1009
S'/Users/Truki/Desarrollo/web2py'
p1010
asbasbasbag61
(g77
g63
NtRp1011
(dp1012
g66
(dp1013
sg75
g851
sg68
(lp1014
g61
(g82
g63
NtRp1015
(dp1016
g66
(dp1017
g86
g87
ssg75
g1011
sg68
(lp1018
S'http_accept'
p1019
asbag61
(g82
g63
NtRp1020
(dp1021
g66
(dp1022
g93
g94
ssg75
g1011
sg68
(lp1023
S':'
asbag61
(g82
g63
NtRp1024
(dp1025
g66
(dp1026
sg75
g1011
sg68
(lp1027
g61
(g62
g63
NtRp1028
(dp1029
g66
(dp1030
g74
I4
ssg75
g1024
sg68
(lp1031
S'text/html,application/xhtml+xml,application/xml;q=0.9,*/*;q=0.8'
p1032
asbasbasbag61
(g77
g63
NtRp1033
(dp1034
g66
(dp1035
sg75
g851
sg68
(lp1036
g61
(g82
g63
NtRp1037
(dp1038
g66
(dp1039
g86
g87
ssg75
g1033
sg68
(lp1040
S'http_accept_charset'
p1041
asbag61
(g82
g63
NtRp1042
(dp1043
g66
(dp1044
g93
g94
ssg75
g1033
sg68
(lp1045
S':'
asbag61
(g82
g63
NtRp1046
(dp1047
g66
(dp1048
sg75
g1033
sg68
(lp1049
g61
(g62
g63
NtRp1050
(dp1051
g66
(dp1052
g74
I4
ssg75
g1046
sg68
(lp1053
S'ISO-8859-1,utf-8;q=0.7,*;q=0.3'
p1054
asbasbasbag61
(g77
g63
NtRp1055
(dp1056
g66
(dp1057
sg75
g851
sg68
(lp1058
g61
(g82
g63
NtRp1059
(dp1060
g66
(dp1061
g86
g87
ssg75
g1055
sg68
(lp1062
S'http_accept_encoding'
p1063
asbag61
(g82
g63
NtRp1064
(dp1065
g66
(dp1066
g93
g94
ssg75
g1055
sg68
(lp1067
S':'
asbag61
(g82
g63
NtRp1068
(dp1069
g66
(dp1070
sg75
g1055
sg68
(lp1071
g61
(g62
g63
NtRp1072
(dp1073
g66
(dp1074
g74
I4
ssg75
g1068
sg68
(lp1075
S'gzip,deflate,sdch'
p1076
asbasbasbag61
(g77
g63
NtRp1077
(dp1078
g66
(dp1079
sg75
g851
sg68
(lp1080
g61
(g82
g63
NtRp1081
(dp1082
g66
(dp1083
g86
g87
ssg75
g1077
sg68
(lp1084
S'http_accept_language'
p1085
asbag61
(g82
g63
NtRp1086
(dp1087
g66
(dp1088
g93
g94
ssg75
g1077
sg68
(lp1089
S':'
asbag61
(g82
g63
NtRp1090
(dp1091
g66
(dp1092
sg75
g1077
sg68
(lp1093
g61
(g62
g63
NtRp1094
(dp1095
g66
(dp1096
g74
I4
ssg75
g1090
sg68
(lp1097
S'es-ES,es;q=0.8'
p1098
asbasbasbag61
(g77
g63
NtRp1099
(dp1100
g66
(dp1101
sg75
g851
sg68
(lp1102
g61
(g82
g63
NtRp1103
(dp1104
g66
(dp1105
g86
g87
ssg75
g1099
sg68
(lp1106
S'http_connection'
p1107
asbag61
(g82
g63
NtRp1108
(dp1109
g66
(dp1110
g93
g94
ssg75
g1099
sg68
(lp1111
S':'
asbag61
(g82
g63
NtRp1112
(dp1113
g66
(dp1114
sg75
g1099
sg68
(lp1115
g61
(g62
g63
NtRp1116
(dp1117
g66
(dp1118
g74
I4
ssg75
g1112
sg68
(lp1119
S'keep-alive'
p1120
asbasbasbag61
(g77
g63
NtRp1121
(dp1122
g66
(dp1123
sg75
g851
sg68
(lp1124
g61
(g82
g63
NtRp1125
(dp1126
g66
(dp1127
g86
g87
ssg75
g1121
sg68
(lp1128
S'http_cookie'
p1129
asbag61
(g82
g63
NtRp1130
(dp1131
g66
(dp1132
g93
g94
ssg75
g1121
sg68
(lp1133
S':'
asbag61
(g82
g63
NtRp1134
(dp1135
g66
(dp1136
sg75
g1121
sg68
(lp1137
g61
(g62
g63
NtRp1138
(dp1139
g66
(dp1140
g74
I4
ssg75
g1134
sg68
(lp1141
S'session_id_welcome=127.0.0.1-70fac521-7f5c-422f-a856-bf00b2216810; session_id_admin=127.0.0.1-f0bf2f80-d47a-4c63-a82e-44a845bfe7e3; session_id_rosan=127.0.0.1-e44cb93f-049c-40c0-ade5-b5e99985895d'
p1142
asbasbasbag61
(g77
g63
NtRp1143
(dp1144
g66
(dp1145
sg75
g851
sg68
(lp1146
g61
(g82
g63
NtRp1147
(dp1148
g66
(dp1149
g86
g87
ssg75
g1143
sg68
(lp1150
S'http_host'
p1151
asbag61
(g82
g63
NtRp1152
(dp1153
g66
(dp1154
g93
g94
ssg75
g1143
sg68
(lp1155
S':'
asbag61
(g82
g63
NtRp1156
(dp1157
g66
(dp1158
sg75
g1143
sg68
(lp1159
g61
(g62
g63
NtRp1160
(dp1161
g66
(dp1162
g74
I4
ssg75
g1156
sg68
(lp1163
S'127.0.0.1:8000'
p1164
asbasbasbag61
(g77
g63
NtRp1165
(dp1166
g66
(dp1167
sg75
g851
sg68
(lp1168
g61
(g82
g63
NtRp1169
(dp1170
g66
(dp1171
g86
g87
ssg75
g1165
sg68
(lp1172
S'http_referer'
p1173
asbag61
(g82
g63
NtRp1174
(dp1175
g66
(dp1176
g93
g94
ssg75
g1165
sg68
(lp1177
S':'
asbag61
(g82
g63
NtRp1178
(dp1179
g66
(dp1180
sg75
g1165
sg68
(lp1181
g61
(g62
g63
NtRp1182
(dp1183
g66
(dp1184
g74
I4
ssg75
g1178
sg68
(lp1185
S'http://127.0.0.1:8000/rosan/facturas/detalleFactura'
p1186
asbasbasbag61
(g77
g63
NtRp1187
(dp1188
g66
(dp1189
sg75
g851
sg68
(lp1190
g61
(g82
g63
NtRp1191
(dp1192
g66
(dp1193
g86
g87
ssg75
g1187
sg68
(lp1194
S'http_user_agent'
p1195
asbag61
(g82
g63
NtRp1196
(dp1197
g66
(dp1198
g93
g94
ssg75
g1187
sg68
(lp1199
S':'
asbag61
(g82
g63
NtRp1200
(dp1201
g66
(dp1202
sg75
g1187
sg68
(lp1203
g61
(g62
g63
NtRp1204
(dp1205
g66
(dp1206
g74
I4
ssg75
g1200
sg68
(lp1207
S'Mozilla/5.0 (Macintosh; Intel Mac OS X 10_8_2) AppleWebKit/537.17 (KHTML, like Gecko) Chrome/24.0.1312.57 Safari/537.17'
p1208
asbasbasbag61
(g77
g63
NtRp1209
(dp1210
g66
(dp1211
sg75
g851
sg68
(lp1212
g61
(g82
g63
NtRp1213
(dp1214
g66
(dp1215
g86
g87
ssg75
g1209
sg68
(lp1216
S'is_jython'
p1217
asbag61
(g82
g63
NtRp1218
(dp1219
g66
(dp1220
g93
g94
ssg75
g1209
sg68
(lp1221
S':'
asbag61
(g82
g63
NtRp1222
(dp1223
g66
(dp1224
sg75
g1209
sg68
(lp1225
g61
(g62
g63
NtRp1226
(dp1227
g66
(dp1228
g74
I4
ssg75
g1222
sg68
(lp1229
g104
asbasbasbag61
(g77
g63
NtRp1230
(dp1231
g66
(dp1232
sg75
g851
sg68
(lp1233
g61
(g82
g63
NtRp1234
(dp1235
g66
(dp1236
g86
g87
ssg75
g1230
sg68
(lp1237
S'is_pypy'
p1238
asbag61
(g82
g63
NtRp1239
(dp1240
g66
(dp1241
g93
g94
ssg75
g1230
sg68
(lp1242
S':'
asbag61
(g82
g63
NtRp1243
(dp1244
g66
(dp1245
sg75
g1230
sg68
(lp1246
g61
(g62
g63
NtRp1247
(dp1248
g66
(dp1249
g74
I4
ssg75
g1243
sg68
(lp1250
g104
asbasbasbag61
(g77
g63
NtRp1251
(dp1252
g66
(dp1253
sg75
g851
sg68
(lp1254
g61
(g82
g63
NtRp1255
(dp1256
g66
(dp1257
g86
g87
ssg75
g1251
sg68
(lp1258
S'local_hosts'
p1259
asbag61
(g82
g63
NtRp1260
(dp1261
g66
(dp1262
g93
g94
ssg75
g1251
sg68
(lp1263
S':'
asbag61
(g82
g63
NtRp1264
(dp1265
g66
(dp1266
sg75
g1251
sg68
(lp1267
g61
(g62
g63
NtRp1268
(dp1269
g66
(dp1270
g74
I4
ssg75
g1264
sg68
(lp1271
g61
(g70
g63
NtRp1272
(dp1273
g66
(dp1274
g74
I3
ssg75
Nsg68
(lp1275
g61
(g77
g63
NtRp1276
(dp1277
g66
(dp1278
sg75
g1272
sg68
(lp1279
g61
(g82
g63
NtRp1280
(dp1281
g66
(dp1282
sg75
g1276
sg68
(lp1283
g61
(g62
g63
NtRp1284
(dp1285
g66
(dp1286
g74
I3
ssg75
g1280
sg68
(lp1287
S'fe80::8e2d:aaff:fe4a:3d35%en1'
p1288
asbasbasbag61
(g77
g63
NtRp1289
(dp1290
g66
(dp1291
sg75
g1272
sg68
(lp1292
g61
(g82
g63
NtRp1293
(dp1294
g66
(dp1295
sg75
g1289
sg68
(lp1296
g61
(g62
g63
NtRp1297
(dp1298
g66
(dp1299
g74
I3
ssg75
g1293
sg68
(lp1300
S'192.168.1.35'
p1301
asbasbasbag61
(g77
g63
NtRp1302
(dp1303
g66
(dp1304
sg75
g1272
sg68
(lp1305
g61
(g82
g63
NtRp1306
(dp1307
g66
(dp1308
sg75
g1302
sg68
(lp1309
g61
(g62
g63
NtRp1310
(dp1311
g66
(dp1312
g74
I3
ssg75
g1306
sg68
(lp1313
S'::ffff:127.0.0.1'
p1314
asbasbasbag61
(g77
g63
NtRp1315
(dp1316
g66
(dp1317
sg75
g1272
sg68
(lp1318
g61
(g82
g63
NtRp1319
(dp1320
g66
(dp1321
sg75
g1315
sg68
(lp1322
g61
(g62
g63
NtRp1323
(dp1324
g66
(dp1325
g74
I3
ssg75
g1319
sg68
(lp1326
S'::1'
p1327
asbasbasbag61
(g77
g63
NtRp1328
(dp1329
g66
(dp1330
sg75
g1272
sg68
(lp1331
g61
(g82
g63
NtRp1332
(dp1333
g66
(dp1334
sg75
g1328
sg68
(lp1335
g61
(g62
g63
NtRp1336
(dp1337
g66
(dp1338
g74
I3
ssg75
g1332
sg68
(lp1339
S'PeritoMascao.local'
p1340
asbasbasbag61
(g77
g63
NtRp1341
(dp1342
g66
(dp1343
sg75
g1272
sg68
(lp1344
g61
(g82
g63
NtRp1345
(dp1346
g66
(dp1347
sg75
g1341
sg68
(lp1348
g61
(g62
g63
NtRp1349
(dp1350
g66
(dp1351
g74
I3
ssg75
g1345
sg68
(lp1352
S'127.0.0.1'
p1353
asbasbasbasbasbasbasbag61
(g77
g63
NtRp1354
(dp1355
g66
(dp1356
sg75
g851
sg68
(lp1357
g61
(g82
g63
NtRp1358
(dp1359
g66
(dp1360
g86
g87
ssg75
g1354
sg68
(lp1361
S'path_info'
p1362
asbag61
(g82
g63
NtRp1363
(dp1364
g66
(dp1365
g93
g94
ssg75
g1354
sg68
(lp1366
S':'
asbag61
(g82
g63
NtRp1367
(dp1368
g66
(dp1369
sg75
g1354
sg68
(lp1370
g61
(g62
g63
NtRp1371
(dp1372
g66
(dp1373
g74
I4
ssg75
g1367
sg68
(lp1374
S'/rosan/presupuestos/index'
p1375
asbasbasbag61
(g77
g63
NtRp1376
(dp1377
g66
(dp1378
sg75
g851
sg68
(lp1379
g61
(g82
g63
NtRp1380
(dp1381
g66
(dp1382
g86
g87
ssg75
g1376
sg68
(lp1383
S'query_string'
p1384
asbag61
(g82
g63
NtRp1385
(dp1386
g66
(dp1387
g93
g94
ssg75
g1376
sg68
(lp1388
S':'
asbag61
(g82
g63
NtRp1389
(dp1390
g66
(dp1391
sg75
g1376
sg68
(lp1392
g61
(g62
g63
NtRp1393
(dp1394
g66
(dp1395
g74
I4
ssg75
g1389
sg68
(lp1396
S''
asbasbasbag61
(g77
g63
NtRp1397
(dp1398
g66
(dp1399
sg75
g851
sg68
(lp1400
g61
(g82
g63
NtRp1401
(dp1402
g66
(dp1403
g86
g87
ssg75
g1397
sg68
(lp1404
S'remote_addr'
p1405
asbag61
(g82
g63
NtRp1406
(dp1407
g66
(dp1408
g93
g94
ssg75
g1397
sg68
(lp1409
S':'
asbag61
(g82
g63
NtRp1410
(dp1411
g66
(dp1412
sg75
g1397
sg68
(lp1413
g61
(g62
g63
NtRp1414
(dp1415
g66
(dp1416
g74
I4
ssg75
g1410
sg68
(lp1417
g216
asbasbasbag61
(g77
g63
NtRp1418
(dp1419
g66
(dp1420
sg75
g851
sg68
(lp1421
g61
(g82
g63
NtRp1422
(dp1423
g66
(dp1424
g86
g87
ssg75
g1418
sg68
(lp1425
S'remote_port'
p1426
asbag61
(g82
g63
NtRp1427
(dp1428
g66
(dp1429
g93
g94
ssg75
g1418
sg68
(lp1430
S':'
asbag61
(g82
g63
NtRp1431
(dp1432
g66
(dp1433
sg75
g1418
sg68
(lp1434
g61
(g62
g63
NtRp1435
(dp1436
g66
(dp1437
g74
I4
ssg75
g1431
sg68
(lp1438
S'50627'
p1439
asbasbasbag61
(g77
g63
NtRp1440
(dp1441
g66
(dp1442
sg75
g851
sg68
(lp1443
g61
(g82
g63
NtRp1444
(dp1445
g66
(dp1446
g86
g87
ssg75
g1440
sg68
(lp1447
S'request_method'
p1448
asbag61
(g82
g63
NtRp1449
(dp1450
g66
(dp1451
g93
g94
ssg75
g1440
sg68
(lp1452
S':'
asbag61
(g82
g63
NtRp1453
(dp1454
g66
(dp1455
sg75
g1440
sg68
(lp1456
g61
(g62
g63
NtRp1457
(dp1458
g66
(dp1459
g74
I4
ssg75
g1453
sg68
(lp1460
S'GET'
p1461
asbasbasbag61
(g77
g63
NtRp1462
(dp1463
g66
(dp1464
sg75
g851
sg68
(lp1465
g61
(g82
g63
NtRp1466
(dp1467
g66
(dp1468
g86
g87
ssg75
g1462
sg68
(lp1469
S'request_uri'
p1470
asbag61
(g82
g63
NtRp1471
(dp1472
g66
(dp1473
g93
g94
ssg75
g1462
sg68
(lp1474
S':'
asbag61
(g82
g63
NtRp1475
(dp1476
g66
(dp1477
sg75
g1462
sg68
(lp1478
g61
(g62
g63
NtRp1479
(dp1480
g66
(dp1481
g74
I4
ssg75
g1475
sg68
(lp1482
g1375
asbasbasbag61
(g77
g63
NtRp1483
(dp1484
g66
(dp1485
sg75
g851
sg68
(lp1486
g61
(g82
g63
NtRp1487
(dp1488
g66
(dp1489
g86
g87
ssg75
g1483
sg68
(lp1490
S'script_name'
p1491
asbag61
(g82
g63
NtRp1492
(dp1493
g66
(dp1494
g93
g94
ssg75
g1483
sg68
(lp1495
S':'
asbag61
(g82
g63
NtRp1496
(dp1497
g66
(dp1498
sg75
g1483
sg68
(lp1499
g61
(g62
g63
NtRp1500
(dp1501
g66
(dp1502
g74
I4
ssg75
g1496
sg68
(lp1503
S''
asbasbasbag61
(g77
g63
NtRp1504
(dp1505
g66
(dp1506
sg75
g851
sg68
(lp1507
g61
(g82
g63
NtRp1508
(dp1509
g66
(dp1510
g86
g87
ssg75
g1504
sg68
(lp1511
S'server_name'
p1512
asbag61
(g82
g63
NtRp1513
(dp1514
g66
(dp1515
g93
g94
ssg75
g1504
sg68
(lp1516
S':'
asbag61
(g82
g63
NtRp1517
(dp1518
g66
(dp1519
sg75
g1504
sg68
(lp1520
g61
(g62
g63
NtRp1521
(dp1522
g66
(dp1523
g74
I4
ssg75
g1517
sg68
(lp1524
S'PeritoMascao.local'
p1525
asbasbasbag61
(g77
g63
NtRp1526
(dp1527
g66
(dp1528
sg75
g851
sg68
(lp1529
g61
(g82
g63
NtRp1530
(dp1531
g66
(dp1532
g86
g87
ssg75
g1526
sg68
(lp1533
S'server_port'
p1534
asbag61
(g82
g63
NtRp1535
(dp1536
g66
(dp1537
g93
g94
ssg75
g1526
sg68
(lp1538
S':'
asbag61
(g82
g63
NtRp1539
(dp1540
g66
(dp1541
sg75
g1526
sg68
(lp1542
g61
(g62
g63
NtRp1543
(dp1544
g66
(dp1545
g74
I4
ssg75
g1539
sg68
(lp1546
S'8000'
p1547
asbasbasbag61
(g77
g63
NtRp1548
(dp1549
g66
(dp1550
sg75
g851
sg68
(lp1551
g61
(g82
g63
NtRp1552
(dp1553
g66
(dp1554
g86
g87
ssg75
g1548
sg68
(lp1555
S'server_protocol'
p1556
asbag61
(g82
g63
NtRp1557
(dp1558
g66
(dp1559
g93
g94
ssg75
g1548
sg68
(lp1560
S':'
asbag61
(g82
g63
NtRp1561
(dp1562
g66
(dp1563
sg75
g1548
sg68
(lp1564
g61
(g62
g63
NtRp1565
(dp1566
g66
(dp1567
g74
I4
ssg75
g1561
sg68
(lp1568
S'HTTP/1.1'
p1569
asbasbasbag61
(g77
g63
NtRp1570
(dp1571
g66
(dp1572
sg75
g851
sg68
(lp1573
g61
(g82
g63
NtRp1574
(dp1575
g66
(dp1576
g86
g87
ssg75
g1570
sg68
(lp1577
S'server_software'
p1578
asbag61
(g82
g63
NtRp1579
(dp1580
g66
(dp1581
g93
g94
ssg75
g1570
sg68
(lp1582
S':'
asbag61
(g82
g63
NtRp1583
(dp1584
g66
(dp1585
sg75
g1570
sg68
(lp1586
g61
(g62
g63
NtRp1587
(dp1588
g66
(dp1589
g74
I4
ssg75
g1583
sg68
(lp1590
S'Rocket 1.2.6'
p1591
asbasbasbag61
(g77
g63
NtRp1592
(dp1593
g66
(dp1594
sg75
g851
sg68
(lp1595
g61
(g82
g63
NtRp1596
(dp1597
g66
(dp1598
g86
g87
ssg75
g1592
sg68
(lp1599
S'web2py_path'
p1600
asbag61
(g82
g63
NtRp1601
(dp1602
g66
(dp1603
g93
g94
ssg75
g1592
sg68
(lp1604
S':'
asbag61
(g82
g63
NtRp1605
(dp1606
g66
(dp1607
sg75
g1592
sg68
(lp1608
g61
(g62
g63
NtRp1609
(dp1610
g66
(dp1611
g74
I4
ssg75
g1605
sg68
(lp1612
g898
asbasbasbag61
(g77
g63
NtRp1613
(dp1614
g66
(dp1615
sg75
g851
sg68
(lp1616
g61
(g82
g63
NtRp1617
(dp1618
g66
(dp1619
g86
g87
ssg75
g1613
sg68
(lp1620
S'web2py_version'
p1621
asbag61
(g82
g63
NtRp1622
(dp1623
g66
(dp1624
g93
g94
ssg75
g1613
sg68
(lp1625
S':'
asbag61
(g82
g63
NtRp1626
(dp1627
g66
(dp1628
sg75
g1613
sg68
(lp1629
g61
(g62
g63
NtRp1630
(dp1631
g66
(dp1632
g74
I4
ssg75
g1626
sg68
(lp1633
g61
(g70
g63
NtRp1634
(dp1635
g66
(dp1636
g74
I3
ssg75
Nsg68
(lp1637
g61
(g77
g63
NtRp1638
(dp1639
g66
(dp1640
sg75
g1634
sg68
(lp1641
g61
(g82
g63
NtRp1642
(dp1643
g66
(dp1644
sg75
g1638
sg68
(lp1645
g61
(g62
g63
NtRp1646
(dp1647
g66
(dp1648
g74
I3
ssg75
g1642
sg68
(lp1649
S'2'
asbasbasbag61
(g77
g63
NtRp1650
(dp1651
g66
(dp1652
sg75
g1634
sg68
(lp1653
g61
(g82
g63
NtRp1654
(dp1655
g66
(dp1656
sg75
g1650
sg68
(lp1657
g61
(g62
g63
NtRp1658
(dp1659
g66
(dp1660
g74
I3
ssg75
g1654
sg68
(lp1661
S'3'
asbasbasbag61
(g77
g63
NtRp1662
(dp1663
g66
(dp1664
sg75
g1634
sg68
(lp1665
g61
(g82
g63
NtRp1666
(dp1667
g66
(dp1668
sg75
g1662
sg68
(lp1669
g61
(g62
g63
NtRp1670
(dp1671
g66
(dp1672
g74
I3
ssg75
g1666
sg68
(lp1673
S'2'
asbasbasbag61
(g77
g63
NtRp1674
(dp1675
g66
(dp1676
sg75
g1634
sg68
(lp1677
g61
(g82
g63
NtRp1678
(dp1679
g66
(dp1680
sg75
g1674
sg68
(lp1681
g61
(g62
g63
NtRp1682
(dp1683
g66
(dp1684
g74
I3
ssg75
g1678
sg68
(lp1685
S'datetime.datetime(2012, 12, 17, 15, 3, 30)'
p1686
asbasbasbag61
(g77
g63
NtRp1687
(dp1688
g66
(dp1689
sg75
g1634
sg68
(lp1690
g61
(g82
g63
NtRp1691
(dp1692
g66
(dp1693
sg75
g1687
sg68
(lp1694
g61
(g62
g63
NtRp1695
(dp1696
g66
(dp1697
g74
I3
ssg75
g1691
sg68
(lp1698
S'stable'
p1699
asbasbasbasbasbasbasbag61
(g77
g63
NtRp1700
(dp1701
g66
(dp1702
sg75
g851
sg68
(lp1703
g61
(g82
g63
NtRp1704
(dp1705
g66
(dp1706
g86
g87
ssg75
g1700
sg68
(lp1707
S'wsgi_errors'
p1708
asbag61
(g82
g63
NtRp1709
(dp1710
g66
(dp1711
g93
g94
ssg75
g1700
sg68
(lp1712
S':'
asbag61
(g82
g63
NtRp1713
(dp1714
g66
(dp1715
sg75
g1700
sg68
(lp1716
g61
(g62
g63
NtRp1717
(dp1718
g66
(dp1719
g74
I4
ssg75
g1713
sg68
(lp1720
S"<open file '<stderr>', mode 'w' at 0x10d8b9270>"
p1721
asbasbasbag61
(g77
g63
NtRp1722
(dp1723
g66
(dp1724
sg75
g851
sg68
(lp1725
g61
(g82
g63
NtRp1726
(dp1727
g66
(dp1728
g86
g87
ssg75
g1722
sg68
(lp1729
S'wsgi_file_wrapper'
p1730
asbag61
(g82
g63
NtRp1731
(dp1732
g66
(dp1733
g93
g94
ssg75
g1722
sg68
(lp1734
S':'
asbag61
(g82
g63
NtRp1735
(dp1736
g66
(dp1737
sg75
g1722
sg68
(lp1738
g61
(g62
g63
NtRp1739
(dp1740
g66
(dp1741
g74
I4
ssg75
g1735
sg68
(lp1742
S'<class wsgiref.util.FileWrapper at 0x10e4b8ef0>'
p1743
asbasbasbag61
(g77
g63
NtRp1744
(dp1745
g66
(dp1746
sg75
g851
sg68
(lp1747
g61
(g82
g63
NtRp1748
(dp1749
g66
(dp1750
g86
g87
ssg75
g1744
sg68
(lp1751
S'wsgi_input'
p1752
asbag61
(g82
g63
NtRp1753
(dp1754
g66
(dp1755
g93
g94
ssg75
g1744
sg68
(lp1756
S':'
asbag61
(g82
g63
NtRp1757
(dp1758
g66
(dp1759
sg75
g1744
sg68
(lp1760
g61
(g62
g63
NtRp1761
(dp1762
g66
(dp1763
g74
I4
ssg75
g1757
sg68
(lp1764
S'<socket._fileobject object at 0x1120e8850>'
p1765
asbasbasbag61
(g77
g63
NtRp1766
(dp1767
g66
(dp1768
sg75
g851
sg68
(lp1769
g61
(g82
g63
NtRp1770
(dp1771
g66
(dp1772
g86
g87
ssg75
g1766
sg68
(lp1773
S'wsgi_multiprocess'
p1774
asbag61
(g82
g63
NtRp1775
(dp1776
g66
(dp1777
g93
g94
ssg75
g1766
sg68
(lp1778
S':'
asbag61
(g82
g63
NtRp1779
(dp1780
g66
(dp1781
sg75
g1766
sg68
(lp1782
g61
(g62
g63
NtRp1783
(dp1784
g66
(dp1785
g74
I4
ssg75
g1779
sg68
(lp1786
g104
asbasbasbag61
(g77
g63
NtRp1787
(dp1788
g66
(dp1789
sg75
g851
sg68
(lp1790
g61
(g82
g63
NtRp1791
(dp1792
g66
(dp1793
g86
g87
ssg75
g1787
sg68
(lp1794
S'wsgi_multithread'
p1795
asbag61
(g82
g63
NtRp1796
(dp1797
g66
(dp1798
g93
g94
ssg75
g1787
sg68
(lp1799
S':'
asbag61
(g82
g63
NtRp1800
(dp1801
g66
(dp1802
sg75
g1787
sg68
(lp1803
g61
(g62
g63
NtRp1804
(dp1805
g66
(dp1806
g74
I4
ssg75
g1800
sg68
(lp1807
S'True'
p1808
asbasbasbag61
(g77
g63
NtRp1809
(dp1810
g66
(dp1811
sg75
g851
sg68
(lp1812
g61
(g82
g63
NtRp1813
(dp1814
g66
(dp1815
g86
g87
ssg75
g1809
sg68
(lp1816
S'wsgi_run_once'
p1817
asbag61
(g82
g63
NtRp1818
(dp1819
g66
(dp1820
g93
g94
ssg75
g1809
sg68
(lp1821
S':'
asbag61
(g82
g63
NtRp1822
(dp1823
g66
(dp1824
sg75
g1809
sg68
(lp1825
g61
(g62
g63
NtRp1826
(dp1827
g66
(dp1828
g74
I4
ssg75
g1822
sg68
(lp1829
g104
asbasbasbag61
(g77
g63
NtRp1830
(dp1831
g66
(dp1832
sg75
g851
sg68
(lp1833
g61
(g82
g63
NtRp1834
(dp1835
g66
(dp1836
g86
g87
ssg75
g1830
sg68
(lp1837
S'wsgi_url_scheme'
p1838
asbag61
(g82
g63
NtRp1839
(dp1840
g66
(dp1841
g93
g94
ssg75
g1830
sg68
(lp1842
S':'
asbag61
(g82
g63
NtRp1843
(dp1844
g66
(dp1845
sg75
g1830
sg68
(lp1846
g61
(g62
g63
NtRp1847
(dp1848
g66
(dp1849
g74
I4
ssg75
g1843
sg68
(lp1850
S'http'
p1851
asbasbasbag61
(g77
g63
NtRp1852
(dp1853
g66
(dp1854
sg75
g851
sg68
(lp1855
g61
(g82
g63
NtRp1856
(dp1857
g66
(dp1858
g86
g87
ssg75
g1852
sg68
(lp1859
S'wsgi_version'
p1860
asbag61
(g82
g63
NtRp1861
(dp1862
g66
(dp1863
g93
g94
ssg75
g1852
sg68
(lp1864
S':'
asbag61
(g82
g63
NtRp1865
(dp1866
g66
(dp1867
sg75
g1852
sg68
(lp1868
g61
(g62
g63
NtRp1869
(dp1870
g66
(dp1871
g74
I4
ssg75
g1865
sg68
(lp1872
g61
(g70
g63
NtRp1873
(dp1874
g66
(dp1875
g74
I3
ssg75
Nsg68
(lp1876
g61
(g77
g63
NtRp1877
(dp1878
g66
(dp1879
sg75
g1873
sg68
(lp1880
g61
(g82
g63
NtRp1881
(dp1882
g66
(dp1883
sg75
g1877
sg68
(lp1884
g61
(g62
g63
NtRp1885
(dp1886
g66
(dp1887
g74
I3
ssg75
g1881
sg68
(lp1888
S'1'
asbasbasbag61
(g77
g63
NtRp1889
(dp1890
g66
(dp1891
sg75
g1873
sg68
(lp1892
g61
(g82
g63
NtRp1893
(dp1894
g66
(dp1895
sg75
g1889
sg68
(lp1896
g61
(g62
g63
NtRp1897
(dp1898
g66
(dp1899
g74
I3
ssg75
g1893
sg68
(lp1900
S'0'
asbasbasbasbasbasbasbasbasbasbasbag61
(g77
g63
NtRp1901
(dp1902
g66
(dp1903
sg75
g71
sg68
(lp1904
g61
(g82
g63
NtRp1905
(dp1906
g66
(dp1907
g86
g87
ssg75
g1901
sg68
(lp1908
S'extension'
p1909
asbag61
(g82
g63
NtRp1910
(dp1911
g66
(dp1912
g93
g94
ssg75
g1901
sg68
(lp1913
S':'
asbag61
(g82
g63
NtRp1914
(dp1915
g66
(dp1916
sg75
g1901
sg68
(lp1917
g61
(g62
g63
NtRp1918
(dp1919
g66
(dp1920
g74
I5
ssg75
g1914
sg68
(lp1921
S'html'
p1922
asbasbasbag61
(g77
g63
NtRp1923
(dp1924
g66
(dp1925
sg75
g71
sg68
(lp1926
g61
(g82
g63
NtRp1927
(dp1928
g66
(dp1929
g86
g87
ssg75
g1923
sg68
(lp1930
S'folder'
p1931
asbag61
(g82
g63
NtRp1932
(dp1933
g66
(dp1934
g93
g94
ssg75
g1923
sg68
(lp1935
S':'
asbag61
(g82
g63
NtRp1936
(dp1937
g66
(dp1938
sg75
g1923
sg68
(lp1939
g61
(g62
g63
NtRp1940
(dp1941
g66
(dp1942
g74
I5
ssg75
g1936
sg68
(lp1943
S'/Users/Truki/Desarrollo/web2py/applications/rosan/'
p1944
asbasbasbag61
(g77
g63
NtRp1945
(dp1946
g66
(dp1947
sg75
g71
sg68
(lp1948
g61
(g82
g63
NtRp1949
(dp1950
g66
(dp1951
g86
g87
ssg75
g1945
sg68
(lp1952
S'function'
p1953
asbag61
(g82
g63
NtRp1954
(dp1955
g66
(dp1956
g93
g94
ssg75
g1945
sg68
(lp1957
S':'
asbag61
(g82
g63
NtRp1958
(dp1959
g66
(dp1960
sg75
g1945
sg68
(lp1961
g61
(g62
g63
NtRp1962
(dp1963
g66
(dp1964
g74
I5
ssg75
g1958
sg68
(lp1965
S'index'
p1966
asbasbasbag61
(g77
g63
NtRp1967
(dp1968
g66
(dp1969
sg75
g71
sg68
(lp1970
g61
(g82
g63
NtRp1971
(dp1972
g66
(dp1973
g86
g87
ssg75
g1967
sg68
(lp1974
S'get_vars'
p1975
asbag61
(g82
g63
NtRp1976
(dp1977
g66
(dp1978
g93
g94
ssg75
g1967
sg68
(lp1979
S':'
asbag61
(g82
g63
NtRp1980
(dp1981
g66
(dp1982
sg75
g1967
sg68
(lp1983
g61
(g62
g63
NtRp1984
(dp1985
g66
(dp1986
g74
I5
ssg75
g1980
sg68
(lp1987
g61
(g70
g63
NtRp1988
(dp1989
g66
(dp1990
g74
I4
ssg75
Nsg68
(lp1991
sbasbasbasbag61
(g77
g63
NtRp1992
(dp1993
g66
(dp1994
sg75
g71
sg68
(lp1995
g61
(g82
g63
NtRp1996
(dp1997
g66
(dp1998
g86
g87
ssg75
g1992
sg68
(lp1999
S'global_settings'
p2000
asbag61
(g82
g63
NtRp2001
(dp2002
g66
(dp2003
g93
g94
ssg75
g1992
sg68
(lp2004
S':'
asbag61
(g82
g63
NtRp2005
(dp2006
g66
(dp2007
sg75
g1992
sg68
(lp2008
g61
(g62
g63
NtRp2009
(dp2010
g66
(dp2011
g74
I5
ssg75
g2005
sg68
(lp2012
g61
(g70
g63
NtRp2013
(dp2014
g66
(dp2015
g74
I4
ssg75
Nsg68
(lp2016
g61
(g77
g63
NtRp2017
(dp2018
g66
(dp2019
sg75
g2013
sg68
(lp2020
g61
(g82
g63
NtRp2021
(dp2022
g66
(dp2023
g86
g87
ssg75
g2017
sg68
(lp2024
g863
asbag61
(g82
g63
NtRp2025
(dp2026
g66
(dp2027
g93
g94
ssg75
g2017
sg68
(lp2028
S':'
asbag61
(g82
g63
NtRp2029
(dp2030
g66
(dp2031
sg75
g2017
sg68
(lp2032
g61
(g62
g63
NtRp2033
(dp2034
g66
(dp2035
g74
I4
ssg75
g2029
sg68
(lp2036
S"set(['/Users/Truki/Desarrollo/web2py/applications/welcome/', '/Users/Truki/Desarrollo/web2py/applications/rosan/', '/Users/Truki/Desarrollo/web2py/applications/admin/'])"
p2037
asbasbasbag61
(g77
g63
NtRp2038
(dp2039
g66
(dp2040
sg75
g2013
sg68
(lp2041
g61
(g82
g63
NtRp2042
(dp2043
g66
(dp2044
g86
g87
ssg75
g2038
sg68
(lp2045
g885
asbag61
(g82
g63
NtRp2046
(dp2047
g66
(dp2048
g93
g94
ssg75
g2038
sg68
(lp2049
S':'
asbag61
(g82
g63
NtRp2050
(dp2051
g66
(dp2052
sg75
g2038
sg68
(lp2053
g61
(g62
g63
NtRp2054
(dp2055
g66
(dp2056
g74
I4
ssg75
g2050
sg68
(lp2057
g898
asbasbasbag61
(g77
g63
NtRp2058
(dp2059
g66
(dp2060
sg75
g2013
sg68
(lp2061
g61
(g82
g63
NtRp2062
(dp2063
g66
(dp2064
g86
g87
ssg75
g2058
sg68
(lp2065
g907
asbag61
(g82
g63
NtRp2066
(dp2067
g66
(dp2068
g93
g94
ssg75
g2058
sg68
(lp2069
S':'
asbag61
(g82
g63
NtRp2070
(dp2071
g66
(dp2072
sg75
g2058
sg68
(lp2073
g61
(g62
g63
NtRp2074
(dp2075
g66
(dp2076
g74
I4
ssg75
g2070
sg68
(lp2077
g61
(g70
g63
NtRp2078
(dp2079
g66
(dp2080
g74
I3
ssg75
Nsg68
(lp2081
sbasbasbasbag61
(g77
g63
NtRp2082
(dp2083
g66
(dp2084
sg75
g2013
sg68
(lp2085
g61
(g82
g63
NtRp2086
(dp2087
g66
(dp2088
g86
g87
ssg75
g2082
sg68
(lp2089
g932
asbag61
(g82
g63
NtRp2090
(dp2091
g66
(dp2092
g93
g94
ssg75
g2082
sg68
(lp2093
S':'
asbag61
(g82
g63
NtRp2094
(dp2095
g66
(dp2096
sg75
g2082
sg68
(lp2097
g61
(g62
g63
NtRp2098
(dp2099
g66
(dp2100
g74
I4
ssg75
g2094
sg68
(lp2101
S"<Values at 0x10e758128: {'verbose': False, 'ip': '127.0.0.1', 'with_scheduler': False, 'ips': ['fe80::8e2d:aaff:fe4a:3d35%en1', '192.168.1.35'], 'shutdown_timeout': 5, 'taskbar': False, 'port': 8000, 'maxthreads': None, 'softcron': False, 'server_name': 'PeritoMascao.local', 'bpython': False, 'nogui': False, 'pid_filename': 'httpserver.pid', 'extcron': False, 'runcron': False, 'run_system_tests': False, 'test': None, 'folder': '/Users/Truki/Desarrollo/web2py', 'config': '', 'minthreads': None, 'winservice': '', 'shell': None, 'run': '', 'log_filename': 'httpserver.log', 'debuglevel': 30, 'args': [''], 'socket_timeout': 5, 'ssl_ca_certificate': None, 'scheduler': None, 'profiler_filename': None, 'ssl_private_key': '', 'scheduler_groups': None, 'password': '<ask>', 'request_queue_size': 5, 'ssl_certificate': '', 'cronjob': False, 'numthreads': None, 'quiet': False, 'interfaces': None, 'import_models': False, 'timeout': 10, 'plain': False, 'nobanner': False}>"
p2102
asbasbasbag61
(g77
g63
NtRp2103
(dp2104
g66
(dp2105
sg75
g2013
sg68
(lp2106
g61
(g82
g63
NtRp2107
(dp2108
g66
(dp2109
g86
g87
ssg75
g2103
sg68
(lp2110
g954
asbag61
(g82
g63
NtRp2111
(dp2112
g66
(dp2113
g93
g94
ssg75
g2103
sg68
(lp2114
S':'
asbag61
(g82
g63
NtRp2115
(dp2116
g66
(dp2117
sg75
g2103
sg68
(lp2118
g61
(g62
g63
NtRp2119
(dp2120
g66
(dp2121
g74
I4
ssg75
g2115
sg68
(lp2122
S'set([])'
p2123
asbasbasbag61
(g77
g63
NtRp2124
(dp2125
g66
(dp2126
sg75
g2013
sg68
(lp2127
g61
(g82
g63
NtRp2128
(dp2129
g66
(dp2130
g86
g87
ssg75
g2124
sg68
(lp2131
g976
asbag61
(g82
g63
NtRp2132
(dp2133
g66
(dp2134
g93
g94
ssg75
g2124
sg68
(lp2135
S':'
asbag61
(g82
g63
NtRp2136
(dp2137
g66
(dp2138
sg75
g2124
sg68
(lp2139
g61
(g62
g63
NtRp2140
(dp2141
g66
(dp2142
g74
I4
ssg75
g2136
sg68
(lp2143
g104
asbasbasbag61
(g77
g63
NtRp2144
(dp2145
g66
(dp2146
sg75
g2013
sg68
(lp2147
g61
(g82
g63
NtRp2148
(dp2149
g66
(dp2150
g86
g87
ssg75
g2144
sg68
(lp2151
g997
asbag61
(g82
g63
NtRp2152
(dp2153
g66
(dp2154
g93
g94
ssg75
g2144
sg68
(lp2155
S':'
asbag61
(g82
g63
NtRp2156
(dp2157
g66
(dp2158
sg75
g2144
sg68
(lp2159
g61
(g62
g63
NtRp2160
(dp2161
g66
(dp2162
g74
I4
ssg75
g2156
sg68
(lp2163
g1010
asbasbasbag61
(g77
g63
NtRp2164
(dp2165
g66
(dp2166
sg75
g2013
sg68
(lp2167
g61
(g82
g63
NtRp2168
(dp2169
g66
(dp2170
g86
g87
ssg75
g2164
sg68
(lp2171
g1217
asbag61
(g82
g63
NtRp2172
(dp2173
g66
(dp2174
g93
g94
ssg75
g2164
sg68
(lp2175
S':'
asbag61
(g82
g63
NtRp2176
(dp2177
g66
(dp2178
sg75
g2164
sg68
(lp2179
g61
(g62
g63
NtRp2180
(dp2181
g66
(dp2182
g74
I4
ssg75
g2176
sg68
(lp2183
g104
asbasbasbag61
(g77
g63
NtRp2184
(dp2185
g66
(dp2186
sg75
g2013
sg68
(lp2187
g61
(g82
g63
NtRp2188
(dp2189
g66
(dp2190
g86
g87
ssg75
g2184
sg68
(lp2191
g1238
asbag61
(g82
g63
NtRp2192
(dp2193
g66
(dp2194
g93
g94
ssg75
g2184
sg68
(lp2195
S':'
asbag61
(g82
g63
NtRp2196
(dp2197
g66
(dp2198
sg75
g2184
sg68
(lp2199
g61
(g62
g63
NtRp2200
(dp2201
g66
(dp2202
g74
I4
ssg75
g2196
sg68
(lp2203
g104
asbasbasbag61
(g77
g63
NtRp2204
(dp2205
g66
(dp2206
sg75
g2013
sg68
(lp2207
g61
(g82
g63
NtRp2208
(dp2209
g66
(dp2210
g86
g87
ssg75
g2204
sg68
(lp2211
g1259
asbag61
(g82
g63
NtRp2212
(dp2213
g66
(dp2214
g93
g94
ssg75
g2204
sg68
(lp2215
S':'
asbag61
(g82
g63
NtRp2216
(dp2217
g66
(dp2218
sg75
g2204
sg68
(lp2219
g61
(g62
g63
NtRp2220
(dp2221
g66
(dp2222
g74
I4
ssg75
g2216
sg68
(lp2223
g61
(g70
g63
NtRp2224
(dp2225
g66
(dp2226
g74
I3
ssg75
Nsg68
(lp2227
g61
(g77
g63
NtRp2228
(dp2229
g66
(dp2230
sg75
g2224
sg68
(lp2231
g61
(g82
g63
NtRp2232
(dp2233
g66
(dp2234
sg75
g2228
sg68
(lp2235
g61
(g62
g63
NtRp2236
(dp2237
g66
(dp2238
g74
I3
ssg75
g2232
sg68
(lp2239
g1288
asbasbasbag61
(g77
g63
NtRp2240
(dp2241
g66
(dp2242
sg75
g2224
sg68
(lp2243
g61
(g82
g63
NtRp2244
(dp2245
g66
(dp2246
sg75
g2240
sg68
(lp2247
g61
(g62
g63
NtRp2248
(dp2249
g66
(dp2250
g74
I3
ssg75
g2244
sg68
(lp2251
g1301
asbasbasbag61
(g77
g63
NtRp2252
(dp2253
g66
(dp2254
sg75
g2224
sg68
(lp2255
g61
(g82
g63
NtRp2256
(dp2257
g66
(dp2258
sg75
g2252
sg68
(lp2259
g61
(g62
g63
NtRp2260
(dp2261
g66
(dp2262
g74
I3
ssg75
g2256
sg68
(lp2263
g1314
asbasbasbag61
(g77
g63
NtRp2264
(dp2265
g66
(dp2266
sg75
g2224
sg68
(lp2267
g61
(g82
g63
NtRp2268
(dp2269
g66
(dp2270
sg75
g2264
sg68
(lp2271
g61
(g62
g63
NtRp2272
(dp2273
g66
(dp2274
g74
I3
ssg75
g2268
sg68
(lp2275
g1327
asbasbasbag61
(g77
g63
NtRp2276
(dp2277
g66
(dp2278
sg75
g2224
sg68
(lp2279
g61
(g82
g63
NtRp2280
(dp2281
g66
(dp2282
sg75
g2276
sg68
(lp2283
g61
(g62
g63
NtRp2284
(dp2285
g66
(dp2286
g74
I3
ssg75
g2280
sg68
(lp2287
g1340
asbasbasbag61
(g77
g63
NtRp2288
(dp2289
g66
(dp2290
sg75
g2224
sg68
(lp2291
g61
(g82
g63
NtRp2292
(dp2293
g66
(dp2294
sg75
g2288
sg68
(lp2295
g61
(g62
g63
NtRp2296
(dp2297
g66
(dp2298
g74
I3
ssg75
g2292
sg68
(lp2299
g1353
asbasbasbasbasbasbasbag61
(g77
g63
NtRp2300
(dp2301
g66
(dp2302
sg75
g2013
sg68
(lp2303
g61
(g82
g63
NtRp2304
(dp2305
g66
(dp2306
g86
g87
ssg75
g2300
sg68
(lp2307
g1621
asbag61
(g82
g63
NtRp2308
(dp2309
g66
(dp2310
g93
g94
ssg75
g2300
sg68
(lp2311
S':'
asbag61
(g82
g63
NtRp2312
(dp2313
g66
(dp2314
sg75
g2300
sg68
(lp2315
g61
(g62
g63
NtRp2316
(dp2317
g66
(dp2318
g74
I4
ssg75
g2312
sg68
(lp2319
g61
(g70
g63
NtRp2320
(dp2321
g66
(dp2322
g74
I3
ssg75
Nsg68
(lp2323
g61
(g77
g63
NtRp2324
(dp2325
g66
(dp2326
sg75
g2320
sg68
(lp2327
g61
(g82
g63
NtRp2328
(dp2329
g66
(dp2330
sg75
g2324
sg68
(lp2331
g61
(g62
g63
NtRp2332
(dp2333
g66
(dp2334
g74
I3
ssg75
g2328
sg68
(lp2335
S'2'
asbasbasbag61
(g77
g63
NtRp2336
(dp2337
g66
(dp2338
sg75
g2320
sg68
(lp2339
g61
(g82
g63
NtRp2340
(dp2341
g66
(dp2342
sg75
g2336
sg68
(lp2343
g61
(g62
g63
NtRp2344
(dp2345
g66
(dp2346
g74
I3
ssg75
g2340
sg68
(lp2347
S'3'
asbasbasbag61
(g77
g63
NtRp2348
(dp2349
g66
(dp2350
sg75
g2320
sg68
(lp2351
g61
(g82
g63
NtRp2352
(dp2353
g66
(dp2354
sg75
g2348
sg68
(lp2355
g61
(g62
g63
NtRp2356
(dp2357
g66
(dp2358
g74
I3
ssg75
g2352
sg68
(lp2359
S'2'
asbasbasbag61
(g77
g63
NtRp2360
(dp2361
g66
(dp2362
sg75
g2320
sg68
(lp2363
g61
(g82
g63
NtRp2364
(dp2365
g66
(dp2366
sg75
g2360
sg68
(lp2367
g61
(g62
g63
NtRp2368
(dp2369
g66
(dp2370
g74
I3
ssg75
g2364
sg68
(lp2371
S'datetime.datetime(2012, 12, 17, 15, 3, 30)'
p2372
asbasbasbag61
(g77
g63
NtRp2373
(dp2374
g66
(dp2375
sg75
g2320
sg68
(lp2376
g61
(g82
g63
NtRp2377
(dp2378
g66
(dp2379
sg75
g2373
sg68
(lp2380
g61
(g62
g63
NtRp2381
(dp2382
g66
(dp2383
g74
I3
ssg75
g2377
sg68
(lp2384
g1699
asbasbasbasbasbasbasbasbasbasbasbag61
(g77
g63
NtRp2385
(dp2386
g66
(dp2387
sg75
g71
sg68
(lp2388
g61
(g82
g63
NtRp2389
(dp2390
g66
(dp2391
g86
g87
ssg75
g2385
sg68
(lp2392
S'is_https'
p2393
asbag61
(g82
g63
NtRp2394
(dp2395
g66
(dp2396
g93
g94
ssg75
g2385
sg68
(lp2397
S':'
asbag61
(g82
g63
NtRp2398
(dp2399
g66
(dp2400
sg75
g2385
sg68
(lp2401
g61
(g62
g63
NtRp2402
(dp2403
g66
(dp2404
g74
I5
ssg75
g2398
sg68
(lp2405
g104
asbasbasbag61
(g77
g63
NtRp2406
(dp2407
g66
(dp2408
sg75
g71
sg68
(lp2409
g61
(g82
g63
NtRp2410
(dp2411
g66
(dp2412
g86
g87
ssg75
g2406
sg68
(lp2413
S'is_local'
p2414
asbag61
(g82
g63
NtRp2415
(dp2416
g66
(dp2417
g93
g94
ssg75
g2406
sg68
(lp2418
S':'
asbag61
(g82
g63
NtRp2419
(dp2420
g66
(dp2421
sg75
g2406
sg68
(lp2422
g61
(g62
g63
NtRp2423
(dp2424
g66
(dp2425
g74
I5
ssg75
g2419
sg68
(lp2426
g1808
asbasbasbag61
(g77
g63
NtRp2427
(dp2428
g66
(dp2429
sg75
g71
sg68
(lp2430
g61
(g82
g63
NtRp2431
(dp2432
g66
(dp2433
g86
g87
ssg75
g2427
sg68
(lp2434
S'is_restful'
p2435
asbag61
(g82
g63
NtRp2436
(dp2437
g66
(dp2438
g93
g94
ssg75
g2427
sg68
(lp2439
S':'
asbag61
(g82
g63
NtRp2440
(dp2441
g66
(dp2442
sg75
g2427
sg68
(lp2443
g61
(g62
g63
NtRp2444
(dp2445
g66
(dp2446
g74
I5
ssg75
g2440
sg68
(lp2447
g104
asbasbasbag61
(g77
g63
NtRp2448
(dp2449
g66
(dp2450
sg75
g71
sg68
(lp2451
g61
(g82
g63
NtRp2452
(dp2453
g66
(dp2454
g86
g87
ssg75
g2448
sg68
(lp2455
S'now'
p2456
asbag61
(g82
g63
NtRp2457
(dp2458
g66
(dp2459
g93
g94
ssg75
g2448
sg68
(lp2460
S':'
asbag61
(g82
g63
NtRp2461
(dp2462
g66
(dp2463
sg75
g2448
sg68
(lp2464
g61
(g62
g63
NtRp2465
(dp2466
g66
(dp2467
g74
I5
ssg75
g2461
sg68
(lp2468
S'datetime.datetime(2013, 2, 21, 18, 30, 19, 418090)'
p2469
asbasbasbag61
(g77
g63
NtRp2470
(dp2471
g66
(dp2472
sg75
g71
sg68
(lp2473
g61
(g82
g63
NtRp2474
(dp2475
g66
(dp2476
g86
g87
ssg75
g2470
sg68
(lp2477
S'post_vars'
p2478
asbag61
(g82
g63
NtRp2479
(dp2480
g66
(dp2481
g93
g94
ssg75
g2470
sg68
(lp2482
S':'
asbag61
(g82
g63
NtRp2483
(dp2484
g66
(dp2485
sg75
g2470
sg68
(lp2486
g61
(g62
g63
NtRp2487
(dp2488
g66
(dp2489
g74
I5
ssg75
g2483
sg68
(lp2490
g61
(g70
g63
NtRp2491
(dp2492
g66
(dp2493
g74
I4
ssg75
Nsg68
(lp2494
sbasbasbasbag61
(g77
g63
NtRp2495
(dp2496
g66
(dp2497
sg75
g71
sg68
(lp2498
g61
(g82
g63
NtRp2499
(dp2500
g66
(dp2501
g86
g87
ssg75
g2495
sg68
(lp2502
S'raw_args'
p2503
asbag61
(g82
g63
NtRp2504
(dp2505
g66
(dp2506
g93
g94
ssg75
g2495
sg68
(lp2507
S':'
asbag61
(g82
g63
NtRp2508
(dp2509
g66
(dp2510
sg75
g2495
sg68
(lp2511
g61
(g62
g63
NtRp2512
(dp2513
g66
(dp2514
g74
I5
ssg75
g2508
sg68
(lp2515
S''
asbasbasbag61
(g77
g63
NtRp2516
(dp2517
g66
(dp2518
sg75
g71
sg68
(lp2519
g61
(g82
g63
NtRp2520
(dp2521
g66
(dp2522
g86
g87
ssg75
g2516
sg68
(lp2523
S'raw_extension'
p2524
asbag61
(g82
g63
NtRp2525
(dp2526
g66
(dp2527
g93
g94
ssg75
g2516
sg68
(lp2528
S':'
asbag61
(g82
g63
NtRp2529
(dp2530
g66
(dp2531
sg75
g2516
sg68
(lp2532
g61
(g62
g63
NtRp2533
(dp2534
g66
(dp2535
g74
I5
ssg75
g2529
sg68
(lp2536
S'None'
p2537
asbasbasbag61
(g77
g63
NtRp2538
(dp2539
g66
(dp2540
sg75
g71
sg68
(lp2541
g61
(g82
g63
NtRp2542
(dp2543
g66
(dp2544
g86
g87
ssg75
g2538
sg68
(lp2545
S'url'
p2546
asbag61
(g82
g63
NtRp2547
(dp2548
g66
(dp2549
g93
g94
ssg75
g2538
sg68
(lp2550
S':'
asbag61
(g82
g63
NtRp2551
(dp2552
g66
(dp2553
sg75
g2538
sg68
(lp2554
g61
(g62
g63
NtRp2555
(dp2556
g66
(dp2557
g74
I5
ssg75
g2551
sg68
(lp2558
g1375
asbasbasbag61
(g77
g63
NtRp2559
(dp2560
g66
(dp2561
sg75
g71
sg68
(lp2562
g61
(g82
g63
NtRp2563
(dp2564
g66
(dp2565
g86
g87
ssg75
g2559
sg68
(lp2566
S'utcnow'
p2567
asbag61
(g82
g63
NtRp2568
(dp2569
g66
(dp2570
g93
g94
ssg75
g2559
sg68
(lp2571
S':'
asbag61
(g82
g63
NtRp2572
(dp2573
g66
(dp2574
sg75
g2559
sg68
(lp2575
g61
(g62
g63
NtRp2576
(dp2577
g66
(dp2578
g74
I5
ssg75
g2572
sg68
(lp2579
S'datetime.datetime(2013, 2, 21, 17, 30, 19, 418098)'
p2580
asbasbasbag61
(g77
g63
NtRp2581
(dp2582
g66
(dp2583
sg75
g71
sg68
(lp2584
g61
(g82
g63
NtRp2585
(dp2586
g66
(dp2587
g86
g87
ssg75
g2581
sg68
(lp2588
S'uuid'
p2589
asbag61
(g82
g63
NtRp2590
(dp2591
g66
(dp2592
g93
g94
ssg75
g2581
sg68
(lp2593
S':'
asbag61
(g82
g63
NtRp2594
(dp2595
g66
(dp2596
sg75
g2581
sg68
(lp2597
g61
(g62
g63
NtRp2598
(dp2599
g66
(dp2600
g74
I5
ssg75
g2594
sg68
(lp2601
S'rosan/127.0.0.1.2013-02-21.18-30-19.fe1d8815-0316-44c8-8bce-da4231d35a93'
p2602
asbasbasbag61
(g77
g63
NtRp2603
(dp2604
g66
(dp2605
sg75
g71
sg68
(lp2606
g61
(g82
g63
NtRp2607
(dp2608
g66
(dp2609
g86
g87
ssg75
g2603
sg68
(lp2610
S'vars'
p2611
asbag61
(g82
g63
NtRp2612
(dp2613
g66
(dp2614
g93
g94
ssg75
g2603
sg68
(lp2615
S':'
asbag61
(g82
g63
NtRp2616
(dp2617
g66
(dp2618
sg75
g2603
sg68
(lp2619
g61
(g62
g63
NtRp2620
(dp2621
g66
(dp2622
g74
I5
ssg75
g2616
sg68
(lp2623
g61
(g70
g63
NtRp2624
(dp2625
g66
(dp2626
g74
I4
ssg75
Nsg68
(lp2627
sbasbasbasbag61
(g77
g63
NtRp2628
(dp2629
g66
(dp2630
sg75
g71
sg68
(lp2631
g61
(g82
g63
NtRp2632
(dp2633
g66
(dp2634
g86
g87
ssg75
g2628
sg68
(lp2635
S'wsgi'
p2636
asbag61
(g82
g63
NtRp2637
(dp2638
g66
(dp2639
g93
g94
ssg75
g2628
sg68
(lp2640
S':'
asbag61
(g82
g63
NtRp2641
(dp2642
g66
(dp2643
sg75
g2628
sg68
(lp2644
g61
(g62
g63
NtRp2645
(dp2646
g66
(dp2647
g74
I5
ssg75
g2641
sg68
(lp2648
g61
(g70
g63
NtRp2649
(dp2650
g66
(dp2651
g74
I4
ssg75
Nsg68
(lp2652
g61
(g77
g63
NtRp2653
(dp2654
g66
(dp2655
sg75
g2649
sg68
(lp2656
g61
(g82
g63
NtRp2657
(dp2658
g66
(dp2659
g86
g87
ssg75
g2653
sg68
(lp2660
S'environ'
p2661
asbag61
(g82
g63
NtRp2662
(dp2663
g66
(dp2664
g93
g94
ssg75
g2653
sg68
(lp2665
S':'
asbag61
(g82
g63
NtRp2666
(dp2667
g66
(dp2668
sg75
g2653
sg68
(lp2669
g61
(g62
g63
NtRp2670
(dp2671
g66
(dp2672
g74
I4
ssg75
g2666
sg68
(lp2673
g61
(g70
g63
NtRp2674
(dp2675
g66
(dp2676
g74
I3
ssg75
Nsg68
(lp2677
g61
(g77
g63
NtRp2678
(dp2679
g66
(dp2680
sg75
g2674
sg68
(lp2681
g61
(g82
g63
NtRp2682
(dp2683
g66
(dp2684
g86
g87
ssg75
g2678
sg68
(lp2685
S'HTTP_ACCEPT'
p2686
asbag61
(g82
g63
NtRp2687
(dp2688
g66
(dp2689
g93
g94
ssg75
g2678
sg68
(lp2690
S':'
asbag61
(g82
g63
NtRp2691
(dp2692
g66
(dp2693
sg75
g2678
sg68
(lp2694
g61
(g62
g63
NtRp2695
(dp2696
g66
(dp2697
g74
I3
ssg75
g2691
sg68
(lp2698
g1032
asbasbasbag61
(g77
g63
NtRp2699
(dp2700
g66
(dp2701
sg75
g2674
sg68
(lp2702
g61
(g82
g63
NtRp2703
(dp2704
g66
(dp2705
g86
g87
ssg75
g2699
sg68
(lp2706
S'HTTP_ACCEPT_CHARSET'
p2707
asbag61
(g82
g63
NtRp2708
(dp2709
g66
(dp2710
g93
g94
ssg75
g2699
sg68
(lp2711
S':'
asbag61
(g82
g63
NtRp2712
(dp2713
g66
(dp2714
sg75
g2699
sg68
(lp2715
g61
(g62
g63
NtRp2716
(dp2717
g66
(dp2718
g74
I3
ssg75
g2712
sg68
(lp2719
g1054
asbasbasbag61
(g77
g63
NtRp2720
(dp2721
g66
(dp2722
sg75
g2674
sg68
(lp2723
g61
(g82
g63
NtRp2724
(dp2725
g66
(dp2726
g86
g87
ssg75
g2720
sg68
(lp2727
S'HTTP_ACCEPT_ENCODING'
p2728
asbag61
(g82
g63
NtRp2729
(dp2730
g66
(dp2731
g93
g94
ssg75
g2720
sg68
(lp2732
S':'
asbag61
(g82
g63
NtRp2733
(dp2734
g66
(dp2735
sg75
g2720
sg68
(lp2736
g61
(g62
g63
NtRp2737
(dp2738
g66
(dp2739
g74
I3
ssg75
g2733
sg68
(lp2740
g1076
asbasbasbag61
(g77
g63
NtRp2741
(dp2742
g66
(dp2743
sg75
g2674
sg68
(lp2744
g61
(g82
g63
NtRp2745
(dp2746
g66
(dp2747
g86
g87
ssg75
g2741
sg68
(lp2748
S'HTTP_ACCEPT_LANGUAGE'
p2749
asbag61
(g82
g63
NtRp2750
(dp2751
g66
(dp2752
g93
g94
ssg75
g2741
sg68
(lp2753
S':'
asbag61
(g82
g63
NtRp2754
(dp2755
g66
(dp2756
sg75
g2741
sg68
(lp2757
g61
(g62
g63
NtRp2758
(dp2759
g66
(dp2760
g74
I3
ssg75
g2754
sg68
(lp2761
g1098
asbasbasbag61
(g77
g63
NtRp2762
(dp2763
g66
(dp2764
sg75
g2674
sg68
(lp2765
g61
(g82
g63
NtRp2766
(dp2767
g66
(dp2768
g86
g87
ssg75
g2762
sg68
(lp2769
S'HTTP_CONNECTION'
p2770
asbag61
(g82
g63
NtRp2771
(dp2772
g66
(dp2773
g93
g94
ssg75
g2762
sg68
(lp2774
S':'
asbag61
(g82
g63
NtRp2775
(dp2776
g66
(dp2777
sg75
g2762
sg68
(lp2778
g61
(g62
g63
NtRp2779
(dp2780
g66
(dp2781
g74
I3
ssg75
g2775
sg68
(lp2782
g1120
asbasbasbag61
(g77
g63
NtRp2783
(dp2784
g66
(dp2785
sg75
g2674
sg68
(lp2786
g61
(g82
g63
NtRp2787
(dp2788
g66
(dp2789
g86
g87
ssg75
g2783
sg68
(lp2790
S'HTTP_COOKIE'
p2791
asbag61
(g82
g63
NtRp2792
(dp2793
g66
(dp2794
g93
g94
ssg75
g2783
sg68
(lp2795
S':'
asbag61
(g82
g63
NtRp2796
(dp2797
g66
(dp2798
sg75
g2783
sg68
(lp2799
g61
(g62
g63
NtRp2800
(dp2801
g66
(dp2802
g74
I3
ssg75
g2796
sg68
(lp2803
g1142
asbasbasbag61
(g77
g63
NtRp2804
(dp2805
g66
(dp2806
sg75
g2674
sg68
(lp2807
g61
(g82
g63
NtRp2808
(dp2809
g66
(dp2810
g86
g87
ssg75
g2804
sg68
(lp2811
S'HTTP_HOST'
p2812
asbag61
(g82
g63
NtRp2813
(dp2814
g66
(dp2815
g93
g94
ssg75
g2804
sg68
(lp2816
S':'
asbag61
(g82
g63
NtRp2817
(dp2818
g66
(dp2819
sg75
g2804
sg68
(lp2820
g61
(g62
g63
NtRp2821
(dp2822
g66
(dp2823
g74
I3
ssg75
g2817
sg68
(lp2824
g1164
asbasbasbag61
(g77
g63
NtRp2825
(dp2826
g66
(dp2827
sg75
g2674
sg68
(lp2828
g61
(g82
g63
NtRp2829
(dp2830
g66
(dp2831
g86
g87
ssg75
g2825
sg68
(lp2832
S'HTTP_REFERER'
p2833
asbag61
(g82
g63
NtRp2834
(dp2835
g66
(dp2836
g93
g94
ssg75
g2825
sg68
(lp2837
S':'
asbag61
(g82
g63
NtRp2838
(dp2839
g66
(dp2840
sg75
g2825
sg68
(lp2841
g61
(g62
g63
NtRp2842
(dp2843
g66
(dp2844
g74
I3
ssg75
g2838
sg68
(lp2845
g1186
asbasbasbag61
(g77
g63
NtRp2846
(dp2847
g66
(dp2848
sg75
g2674
sg68
(lp2849
g61
(g82
g63
NtRp2850
(dp2851
g66
(dp2852
g86
g87
ssg75
g2846
sg68
(lp2853
S'HTTP_USER_AGENT'
p2854
asbag61
(g82
g63
NtRp2855
(dp2856
g66
(dp2857
g93
g94
ssg75
g2846
sg68
(lp2858
S':'
asbag61
(g82
g63
NtRp2859
(dp2860
g66
(dp2861
sg75
g2846
sg68
(lp2862
g61
(g62
g63
NtRp2863
(dp2864
g66
(dp2865
g74
I3
ssg75
g2859
sg68
(lp2866
g1208
asbasbasbag61
(g77
g63
NtRp2867
(dp2868
g66
(dp2869
sg75
g2674
sg68
(lp2870
g61
(g82
g63
NtRp2871
(dp2872
g66
(dp2873
g86
g87
ssg75
g2867
sg68
(lp2874
S'PATH_INFO'
p2875
asbag61
(g82
g63
NtRp2876
(dp2877
g66
(dp2878
g93
g94
ssg75
g2867
sg68
(lp2879
S':'
asbag61
(g82
g63
NtRp2880
(dp2881
g66
(dp2882
sg75
g2867
sg68
(lp2883
g61
(g62
g63
NtRp2884
(dp2885
g66
(dp2886
g74
I3
ssg75
g2880
sg68
(lp2887
g1375
asbasbasbag61
(g77
g63
NtRp2888
(dp2889
g66
(dp2890
sg75
g2674
sg68
(lp2891
g61
(g82
g63
NtRp2892
(dp2893
g66
(dp2894
g86
g87
ssg75
g2888
sg68
(lp2895
S'QUERY_STRING'
p2896
asbag61
(g82
g63
NtRp2897
(dp2898
g66
(dp2899
g93
g94
ssg75
g2888
sg68
(lp2900
S':'
asbag61
(g82
g63
NtRp2901
(dp2902
g66
(dp2903
sg75
g2888
sg68
(lp2904
g61
(g62
g63
NtRp2905
(dp2906
g66
(dp2907
g74
I3
ssg75
g2901
sg68
(lp2908
S''
asbasbasbag61
(g77
g63
NtRp2909
(dp2910
g66
(dp2911
sg75
g2674
sg68
(lp2912
g61
(g82
g63
NtRp2913
(dp2914
g66
(dp2915
g86
g87
ssg75
g2909
sg68
(lp2916
S'REMOTE_ADDR'
p2917
asbag61
(g82
g63
NtRp2918
(dp2919
g66
(dp2920
g93
g94
ssg75
g2909
sg68
(lp2921
S':'
asbag61
(g82
g63
NtRp2922
(dp2923
g66
(dp2924
sg75
g2909
sg68
(lp2925
g61
(g62
g63
NtRp2926
(dp2927
g66
(dp2928
g74
I3
ssg75
g2922
sg68
(lp2929
g216
asbasbasbag61
(g77
g63
NtRp2930
(dp2931
g66
(dp2932
sg75
g2674
sg68
(lp2933
g61
(g82
g63
NtRp2934
(dp2935
g66
(dp2936
g86
g87
ssg75
g2930
sg68
(lp2937
S'REMOTE_PORT'
p2938
asbag61
(g82
g63
NtRp2939
(dp2940
g66
(dp2941
g93
g94
ssg75
g2930
sg68
(lp2942
S':'
asbag61
(g82
g63
NtRp2943
(dp2944
g66
(dp2945
sg75
g2930
sg68
(lp2946
g61
(g62
g63
NtRp2947
(dp2948
g66
(dp2949
g74
I3
ssg75
g2943
sg68
(lp2950
g1439
asbasbasbag61
(g77
g63
NtRp2951
(dp2952
g66
(dp2953
sg75
g2674
sg68
(lp2954
g61
(g82
g63
NtRp2955
(dp2956
g66
(dp2957
g86
g87
ssg75
g2951
sg68
(lp2958
S'REQUEST_METHOD'
p2959
asbag61
(g82
g63
NtRp2960
(dp2961
g66
(dp2962
g93
g94
ssg75
g2951
sg68
(lp2963
S':'
asbag61
(g82
g63
NtRp2964
(dp2965
g66
(dp2966
sg75
g2951
sg68
(lp2967
g61
(g62
g63
NtRp2968
(dp2969
g66
(dp2970
g74
I3
ssg75
g2964
sg68
(lp2971
g1461
asbasbasbag61
(g77
g63
NtRp2972
(dp2973
g66
(dp2974
sg75
g2674
sg68
(lp2975
g61
(g82
g63
NtRp2976
(dp2977
g66
(dp2978
g86
g87
ssg75
g2972
sg68
(lp2979
S'REQUEST_URI'
p2980
asbag61
(g82
g63
NtRp2981
(dp2982
g66
(dp2983
g93
g94
ssg75
g2972
sg68
(lp2984
S':'
asbag61
(g82
g63
NtRp2985
(dp2986
g66
(dp2987
sg75
g2972
sg68
(lp2988
g61
(g62
g63
NtRp2989
(dp2990
g66
(dp2991
g74
I3
ssg75
g2985
sg68
(lp2992
g1375
asbasbasbag61
(g77
g63
NtRp2993
(dp2994
g66
(dp2995
sg75
g2674
sg68
(lp2996
g61
(g82
g63
NtRp2997
(dp2998
g66
(dp2999
g86
g87
ssg75
g2993
sg68
(lp3000
S'SCRIPT_NAME'
p3001
asbag61
(g82
g63
NtRp3002
(dp3003
g66
(dp3004
g93
g94
ssg75
g2993
sg68
(lp3005
S':'
asbag61
(g82
g63
NtRp3006
(dp3007
g66
(dp3008
sg75
g2993
sg68
(lp3009
g61
(g62
g63
NtRp3010
(dp3011
g66
(dp3012
g74
I3
ssg75
g3006
sg68
(lp3013
S''
asbasbasbag61
(g77
g63
NtRp3014
(dp3015
g66
(dp3016
sg75
g2674
sg68
(lp3017
g61
(g82
g63
NtRp3018
(dp3019
g66
(dp3020
g86
g87
ssg75
g3014
sg68
(lp3021
S'SERVER_NAME'
p3022
asbag61
(g82
g63
NtRp3023
(dp3024
g66
(dp3025
g93
g94
ssg75
g3014
sg68
(lp3026
S':'
asbag61
(g82
g63
NtRp3027
(dp3028
g66
(dp3029
sg75
g3014
sg68
(lp3030
g61
(g62
g63
NtRp3031
(dp3032
g66
(dp3033
g74
I3
ssg75
g3027
sg68
(lp3034
g1525
asbasbasbag61
(g77
g63
NtRp3035
(dp3036
g66
(dp3037
sg75
g2674
sg68
(lp3038
g61
(g82
g63
NtRp3039
(dp3040
g66
(dp3041
g86
g87
ssg75
g3035
sg68
(lp3042
S'SERVER_PORT'
p3043
asbag61
(g82
g63
NtRp3044
(dp3045
g66
(dp3046
g93
g94
ssg75
g3035
sg68
(lp3047
S':'
asbag61
(g82
g63
NtRp3048
(dp3049
g66
(dp3050
sg75
g3035
sg68
(lp3051
g61
(g62
g63
NtRp3052
(dp3053
g66
(dp3054
g74
I3
ssg75
g3048
sg68
(lp3055
g1547
asbasbasbag61
(g77
g63
NtRp3056
(dp3057
g66
(dp3058
sg75
g2674
sg68
(lp3059
g61
(g82
g63
NtRp3060
(dp3061
g66
(dp3062
g86
g87
ssg75
g3056
sg68
(lp3063
S'SERVER_PROTOCOL'
p3064
asbag61
(g82
g63
NtRp3065
(dp3066
g66
(dp3067
g93
g94
ssg75
g3056
sg68
(lp3068
S':'
asbag61
(g82
g63
NtRp3069
(dp3070
g66
(dp3071
sg75
g3056
sg68
(lp3072
g61
(g62
g63
NtRp3073
(dp3074
g66
(dp3075
g74
I3
ssg75
g3069
sg68
(lp3076
g1569
asbasbasbag61
(g77
g63
NtRp3077
(dp3078
g66
(dp3079
sg75
g2674
sg68
(lp3080
g61
(g82
g63
NtRp3081
(dp3082
g66
(dp3083
g86
g87
ssg75
g3077
sg68
(lp3084
S'SERVER_SOFTWARE'
p3085
asbag61
(g82
g63
NtRp3086
(dp3087
g66
(dp3088
g93
g94
ssg75
g3077
sg68
(lp3089
S':'
asbag61
(g82
g63
NtRp3090
(dp3091
g66
(dp3092
sg75
g3077
sg68
(lp3093
g61
(g62
g63
NtRp3094
(dp3095
g66
(dp3096
g74
I3
ssg75
g3090
sg68
(lp3097
g1591
asbasbasbag61
(g77
g63
NtRp3098
(dp3099
g66
(dp3100
sg75
g2674
sg68
(lp3101
g61
(g82
g63
NtRp3102
(dp3103
g66
(dp3104
g86
g87
ssg75
g3098
sg68
(lp3105
S'wsgi.errors'
p3106
asbag61
(g82
g63
NtRp3107
(dp3108
g66
(dp3109
g93
g94
ssg75
g3098
sg68
(lp3110
S':'
asbag61
(g82
g63
NtRp3111
(dp3112
g66
(dp3113
sg75
g3098
sg68
(lp3114
g61
(g62
g63
NtRp3115
(dp3116
g66
(dp3117
g74
I3
ssg75
g3111
sg68
(lp3118
S"<open file '<stderr>', mode 'w' at 0x10d8b9270>"
p3119
asbasbasbag61
(g77
g63
NtRp3120
(dp3121
g66
(dp3122
sg75
g2674
sg68
(lp3123
g61
(g82
g63
NtRp3124
(dp3125
g66
(dp3126
g86
g87
ssg75
g3120
sg68
(lp3127
S'wsgi.file_wrapper'
p3128
asbag61
(g82
g63
NtRp3129
(dp3130
g66
(dp3131
g93
g94
ssg75
g3120
sg68
(lp3132
S':'
asbag61
(g82
g63
NtRp3133
(dp3134
g66
(dp3135
sg75
g3120
sg68
(lp3136
g61
(g62
g63
NtRp3137
(dp3138
g66
(dp3139
g74
I3
ssg75
g3133
sg68
(lp3140
S'<class wsgiref.util.FileWrapper at 0x10e4b8ef0>'
p3141
asbasbasbag61
(g77
g63
NtRp3142
(dp3143
g66
(dp3144
sg75
g2674
sg68
(lp3145
g61
(g82
g63
NtRp3146
(dp3147
g66
(dp3148
g86
g87
ssg75
g3142
sg68
(lp3149
S'wsgi.input'
p3150
asbag61
(g82
g63
NtRp3151
(dp3152
g66
(dp3153
g93
g94
ssg75
g3142
sg68
(lp3154
S':'
asbag61
(g82
g63
NtRp3155
(dp3156
g66
(dp3157
sg75
g3142
sg68
(lp3158
g61
(g62
g63
NtRp3159
(dp3160
g66
(dp3161
g74
I3
ssg75
g3155
sg68
(lp3162
S'<cStringIO.StringO object at 0x10e768500>'
p3163
asbasbasbag61
(g77
g63
NtRp3164
(dp3165
g66
(dp3166
sg75
g2674
sg68
(lp3167
g61
(g82
g63
NtRp3168
(dp3169
g66
(dp3170
g86
g87
ssg75
g3164
sg68
(lp3171
S'wsgi.multiprocess'
p3172
asbag61
(g82
g63
NtRp3173
(dp3174
g66
(dp3175
g93
g94
ssg75
g3164
sg68
(lp3176
S':'
asbag61
(g82
g63
NtRp3177
(dp3178
g66
(dp3179
sg75
g3164
sg68
(lp3180
g61
(g62
g63
NtRp3181
(dp3182
g66
(dp3183
g74
I3
ssg75
g3177
sg68
(lp3184
g104
asbasbasbag61
(g77
g63
NtRp3185
(dp3186
g66
(dp3187
sg75
g2674
sg68
(lp3188
g61
(g82
g63
NtRp3189
(dp3190
g66
(dp3191
g86
g87
ssg75
g3185
sg68
(lp3192
S'wsgi.multithread'
p3193
asbag61
(g82
g63
NtRp3194
(dp3195
g66
(dp3196
g93
g94
ssg75
g3185
sg68
(lp3197
S':'
asbag61
(g82
g63
NtRp3198
(dp3199
g66
(dp3200
sg75
g3185
sg68
(lp3201
g61
(g62
g63
NtRp3202
(dp3203
g66
(dp3204
g74
I3
ssg75
g3198
sg68
(lp3205
g1808
asbasbasbag61
(g77
g63
NtRp3206
(dp3207
g66
(dp3208
sg75
g2674
sg68
(lp3209
g61
(g82
g63
NtRp3210
(dp3211
g66
(dp3212
g86
g87
ssg75
g3206
sg68
(lp3213
S'wsgi.run_once'
p3214
asbag61
(g82
g63
NtRp3215
(dp3216
g66
(dp3217
g93
g94
ssg75
g3206
sg68
(lp3218
S':'
asbag61
(g82
g63
NtRp3219
(dp3220
g66
(dp3221
sg75
g3206
sg68
(lp3222
g61
(g62
g63
NtRp3223
(dp3224
g66
(dp3225
g74
I3
ssg75
g3219
sg68
(lp3226
g104
asbasbasbag61
(g77
g63
NtRp3227
(dp3228
g66
(dp3229
sg75
g2674
sg68
(lp3230
g61
(g82
g63
NtRp3231
(dp3232
g66
(dp3233
g86
g87
ssg75
g3227
sg68
(lp3234
S'wsgi.url_scheme'
p3235
asbag61
(g82
g63
NtRp3236
(dp3237
g66
(dp3238
g93
g94
ssg75
g3227
sg68
(lp3239
S':'
asbag61
(g82
g63
NtRp3240
(dp3241
g66
(dp3242
sg75
g3227
sg68
(lp3243
g61
(g62
g63
NtRp3244
(dp3245
g66
(dp3246
g74
I3
ssg75
g3240
sg68
(lp3247
g1851
asbasbasbag61
(g77
g63
NtRp3248
(dp3249
g66
(dp3250
sg75
g2674
sg68
(lp3251
g61
(g82
g63
NtRp3252
(dp3253
g66
(dp3254
g86
g87
ssg75
g3248
sg68
(lp3255
S'wsgi.version'
p3256
asbag61
(g82
g63
NtRp3257
(dp3258
g66
(dp3259
g93
g94
ssg75
g3248
sg68
(lp3260
S':'
asbag61
(g82
g63
NtRp3261
(dp3262
g66
(dp3263
sg75
g3248
sg68
(lp3264
g61
(g62
g63
NtRp3265
(dp3266
g66
(dp3267
g74
I3
ssg75
g3261
sg68
(lp3268
S'1'
asbasbasbasbasbasbasbasbasbasbasbasbasbsS'frames'
p3269
(lp3270
(dp3271
S'file'
p3272
S'/Users/Truki/Desarrollo/web2py/gluon/restricted.py'
p3273
sS'dump'
p3274
(dp3275
S'environment'
p3276
S"{'A': <class 'gluon.html.A'>, 'Auth': <class 'gluon.tools.Auth'>, 'B': <class 'gluon.html.B'>, 'BEAUTIFY': <class 'gluon.html.BEAUTIFY'>, 'BODY': <class 'gluon.html.BODY'>, 'BR': <class 'gluon.html.BR'>, 'BUTTON': <class 'gluon.html.BUTTON'>, 'CAT': <class 'gluon.html.CAT'>, 'CENTER': <class 'gluon.html.CENTER'>, 'CLEANUP': <class 'gluon.validators.CLEANUP'>, ...}"
p3277
sS'ccode'
p3278
S'<code object <module> at 0x112de9930, file "/Use...y/applications/rosan/models/db_rosan.py", line 7>'
p3279
ssS'lnum'
p3280
I212
sS'lines'
p3281
(dp3282
I207
S'    try:'
p3283
sI208
S'        if isinstance(code, types.CodeType):'
p3284
sI209
S'            ccode = code'
p3285
sI210
S'        else:'
p3286
sI211
S'            ccode = compile2(code, layer)'
p3287
sI212
S'        exec ccode in environment'
p3288
sI213
S'    except HTTP:'
p3289
sI214
S'        raise'
p3290
sI215
S'    except RestrictedError:'
p3291
sI216
S'        # do not encapsulate (obfuscate) the original RestrictedError'
p3292
ssS'call'
p3293
S'(code=\'# coding: utf8\\n"""\\njust copy paste this code int...=IS_IN_DB(dbRosan, \\\'proveedor.id\\\', \\\'%(nombre)s\\\')\\n\', environment={\'A\': <class \'gluon.html.A\'>, \'Auth\': <class \'gluon.tools.Auth\'>, \'B\': <class \'gluon.html.B\'>, \'BEAUTIFY\': <class \'gluon.html.BEAUTIFY\'>, \'BODY\': <class \'gluon.html.BODY\'>, \'BR\': <class \'gluon.html.BR\'>, \'BUTTON\': <class \'gluon.html.BUTTON\'>, \'CAT\': <class \'gluon.html.CAT\'>, \'CENTER\': <class \'gluon.html.CENTER\'>, \'CLEANUP\': <class \'gluon.validators.CLEANUP\'>, ...}, layer=\'/Users/Truki/Desarrollo/web2py/applications/rosan/models/db_rosan.py\')'
p3294
sS'func'
p3295
S'restricted'
p3296
sa(dp3297
g3272
S'/Users/Truki/Desarrollo/web2py/applications/rosan/models/db_rosan.py'
p3298
sg3274
(dp3299
S'SQLField'
p3300
S"<class 'gluon.dal.Field'>"
p3301
sS'default'
p3302
S'undefined'
p3303
sS'builtinTrue'
p3304
g1808
sS'builtinFalse'
p3305
g104
sS'notnull'
p3306
g3303
ssg3280
I93
sg3281
(dp3307
I96
S''
sI97
S'"""'
p3308
sI88
S'      SQLField("retencion", "double", notnull=True, default=None),'
p3309
sI89
S'      SQLField("descuento", "integer", notnull=True, default=None),'
p3310
sI90
S'      SQLField("total_iva", "double", notnull=True, default=None),'
p3311
sI91
S'      SQLField("total_bruto", "double", notnull=True, default=None),'
p3312
sI92
S'      SQLField("pagada", "boolean", notnull=True, default=False),'
p3313
sI93
S'      SQLField("anulada", "boolean", notnull=True, default=False))'
p3314
sI94
S''
sI95
S''
ssg3293
S'()'
p3315
sg3295
S'<module>'
p3316
sa(dp3317
g3272
S'/Users/Truki/Desarrollo/web2py/gluon/dal.py'
p3318
sg3274
(dp3319
S'fields'
p3320
S'(<gluon.dal.Field object>, <gluon.dal.Field object>, <gluon.dal.Field object>, <gluon.dal.Field object>, <gluon.dal.Field object>, <gluon.dal.Field object>, <gluon.dal.Field object>, <gluon.dal.Field object>, <gluon.dal.Field object>, <gluon.dal.Field object>, <gluon.dal.Field object>, <gluon.dal.Field object>, <gluon.dal.Field object>, <gluon.dal.Field object>)'
p3321
sS'self'
p3322
S'<DAL uri="sqlite://dbRosan.db">'
p3323
sS'args'
p3324
g21
sS'tablename'
p3325
S"'factura'"
p3326
sS'table'
p3327
g3303
sS'self.lazy_define_table'
p3328
S'<bound method DAL.lazy_define_table of <DAL uri="sqlite://dbRosan.db">>'
p3329
ssg3280
I7186
sg3281
(dp3330
I7181
S'                    % (tablename,invalid_args))'
p3331
sI7182
S'        if self._lazy_tables and not tablename in self._LAZY_TABLES:'
p3332
sI7183
S'            self._LAZY_TABLES[tablename] = (tablename,fields,args)'
p3333
sI7184
S'            table = None'
p3334
sI7185
S'        else:'
p3335
sI7186
S'            table = self.lazy_define_table(tablename,*fields,**args)'
p3336
sI7187
S'        if not tablename in self.tables:'
p3337
sI7188
S'            self.tables.append(tablename)'
p3338
sI7189
S'        return table'
p3339
sI7190
S''
ssg3293
S'(self=<DAL uri="sqlite://dbRosan.db">, tablename=\'factura\', *fields=(<gluon.dal.Field object>, <gluon.dal.Field object>, <gluon.dal.Field object>, <gluon.dal.Field object>, <gluon.dal.Field object>, <gluon.dal.Field object>, <gluon.dal.Field object>, <gluon.dal.Field object>, <gluon.dal.Field object>, <gluon.dal.Field object>, <gluon.dal.Field object>, <gluon.dal.Field object>, <gluon.dal.Field object>, <gluon.dal.Field object>), **args={})'
p3340
sg3295
S'define_table'
p3341
sa(dp3342
g3272
S'/Users/Truki/Desarrollo/web2py/gluon/dal.py'
p3343
sg3274
(dp3344
S'polymodel'
p3345
S'None'
p3346
ssg3280
I7222
sg3281
(dp3347
I7217
S"            polymodel = args_get('polymodel',None)"
p3348
sI7218
S'            try:'
p3349
sI7219
S'                GLOBAL_LOCKER.acquire()'
p3350
sI7220
S'                self._adapter.create_table(table,migrate=migrate,'
p3351
sI7221
S'                                           fake_migrate=fake_migrate,'
p3352
sI7222
S'                                           polymodel=polymodel)'
p3353
sI7223
S'            finally:'
p3354
sI7224
S'                GLOBAL_LOCKER.release()'
p3355
sI7225
S'        else:'
p3356
sI7226
S'            table._dbt = None'
p3357
ssg3293
S'(self=<DAL uri="sqlite://dbRosan.db">, tablename=\'factura\', *fields=(<gluon.dal.Field object>, <gluon.dal.Field object>, <gluon.dal.Field object>, <gluon.dal.Field object>, <gluon.dal.Field object>, <gluon.dal.Field object>, <gluon.dal.Field object>, <gluon.dal.Field object>, <gluon.dal.Field object>, <gluon.dal.Field object>, <gluon.dal.Field object>, <gluon.dal.Field object>, <gluon.dal.Field object>, <gluon.dal.Field object>), **args={})'
p3358
sg3295
S'lazy_define_table'
p3359
sa(dp3360
g3272
S'/Users/Truki/Desarrollo/web2py/gluon/dal.py'
p3361
sg3274
(dp3362
S'fake_migrate'
p3363
g104
ssg3280
I963
sg3281
(dp3364
I960
S'                self.migrate_table(table,'
p3365
sI961
S'                                   sql_fields, sql_fields_old,'
p3366
sI962
S'                                   sql_fields_aux, logfile,'
p3367
sI963
S'                                   fake_migrate=fake_migrate)'
p3368
sI964
S'        self.file_close(logfile)'
p3369
sI965
S'        return query'
p3370
sI966
S''
sI967
S'    def migrate_table('
p3371
sI958
S'            self.file_close(tfile)'
p3372
sI959
S'            if sql_fields != sql_fields_old:'
p3373
ssg3293
S'(self=<gluon.dal.SQLiteAdapter object>, table=<Table factura (id,numero,fecha,titulo,id_client...,descuento,total_iva,total_bruto,pagada,anulada)>, migrate=True, fake_migrate=False, polymodel=None)'
p3374
sg3295
S'create_table'
p3375
sa(dp3376
g3272
S'/Users/Truki/Desarrollo/web2py/gluon/dal.py'
p3377
sg3274
(dp3378
S'self'
p3379
S'<gluon.dal.SQLiteAdapter object>'
p3380
sS'self.execute'
p3381
S'<bound method SQLiteAdapter.execute of <gluon.dal.SQLiteAdapter object>>'
p3382
sS'sub_query'
p3383
S"'ALTER TABLE factura ADD deduccion DOUBLE NOT NULL;'"
p3384
ssg3280
I1069
sg3281
(dp3385
I1064
S'                              % datetime.datetime.today().isoformat())'
p3386
sI1065
S"                db['_lastsql'] = '\\n'.join(query)"
p3387
sI1066
S'                for sub_query in query:'
p3388
sI1067
S"                    logfile.write(sub_query + '\\n')"
p3389
sI1068
S'                    if not fake_migrate:'
p3390
sI1069
S'                        self.execute(sub_query)'
p3391
sI1070
S'                        # Caveat: mysql, oracle and firebird do not allow multiple alter table'
p3392
sI1071
S'                        # in one transaction so we must commit partial transactions and'
p3393
sI1072
S'                        # update table._dbt after alter table.'
p3394
sI1073
S'                        if db._adapter.commit_on_alter_table:'
p3395
ssg3293
S'(self=<gluon.dal.SQLiteAdapter object>, table=<Table factura (id,numero,fecha,titulo,id_client...,descuento,total_iva,total_bruto,pagada,anulada)>, sql_fields={\'anulada\': {\'length\': 512, \'notnull\': True, \'sortable\': 15, \'sql\': \'CHAR(1) NOT NULL\', \'type\': \'boolean\', \'unique\': False}, \'deduccion\': {\'length\': 512, \'notnull\': True, \'sortable\': 9, \'sql\': \'DOUBLE NOT NULL\', \'type\': \'double\', \'unique\': False}, \'descuento\': {\'length\': 512, \'notnull\': True, \'sortable\': 11, \'sql\': \'INTEGER NOT NULL\', \'type\': \'integer\', \'unique\': False}, \'fecha\': {\'length\': 512, \'notnull\': True, \'sortable\': 3, \'sql\': \'DATE NOT NULL\', \'type\': \'date\', \'unique\': False}, \'id\': {\'length\': 512, \'notnull\': False, \'sortable\': 1, \'sql\': \'INTEGER PRIMARY KEY AUTOINCREMENT\', \'type\': \'id\', \'unique\': False}, \'id_cliente\': {\'length\': 512, \'notnull\': False, \'sortable\': 5, \'sql\': \'INTEGER REFERENCES cliente (id) ON DELETE CASCADE\', \'type\': \'reference cliente\', \'unique\': False}, \'neto\': {\'length\': 512, \'notnull\': True, \'sortable\': 8, \'sql\': \'DOUBLE NOT NULL\', \'type\': \'double\', \'unique\': False}, \'numero\': {\'length\': 512, \'notnull\': False, \'sortable\': 2, \'sql\': \'INTEGER\', \'type\': \'integer\', \'unique\': False}, \'pagada\': {\'length\': 512, \'notnull\': True, \'sortable\': 14, \'sql\': \'CHAR(1) NOT NULL\', \'type\': \'boolean\', \'unique\': False}, \'retencion\': {\'length\': 512, \'notnull\': True, \'sortable\': 10, \'sql\': \'DOUBLE NOT NULL\', \'type\': \'double\', \'unique\': False}, ...}, sql_fields_old={\'anulada\': {\'length\': 512, \'notnull\': True, \'sortable\': 13, \'sql\': \'CHAR(1) NOT NULL\', \'type\': \'boolean\', \'unique\': False}, \'descuento\': {\'length\': 512, \'notnull\': True, \'sortable\': 9, \'sql\': \'INTEGER NOT NULL\', \'type\': \'integer\', \'unique\': False}, \'fecha\': {\'length\': 512, \'notnull\': True, \'sortable\': 3, \'sql\': \'DATE NOT NULL\', \'type\': \'date\', \'unique\': False}, \'id\': {\'length\': 512, \'notnull\': False, \'sortable\': 1, \'sql\': \'INTEGER PRIMARY KEY AUTOINCREMENT\', \'type\': \'id\', \'unique\': False}, \'id_cliente\': {\'length\': 512, \'notnull\': False, \'sortable\': 5, \'sql\': \'INTEGER REFERENCES cliente (id) ON DELETE CASCADE\', \'type\': \'reference cliente\', \'unique\': False}, \'neto\': {\'length\': 512, \'notnull\': True, \'sortable\': 7, \'sql\': \'DOUBLE NOT NULL\', \'type\': \'double\', \'unique\': False}, \'numero\': {\'length\': 512, \'notnull\': False, \'sortable\': 2, \'sql\': \'INTEGER\', \'type\': \'integer\', \'unique\': False}, \'pagada\': {\'length\': 512, \'notnull\': True, \'sortable\': 12, \'sql\': \'CHAR(1) NOT NULL\', \'type\': \'boolean\', \'unique\': False}, \'retencion\': {\'length\': 512, \'notnull\': True, \'sortable\': 8, \'sql\': \'DOUBLE NOT NULL\', \'type\': \'double\', \'unique\': False}, \'tipo_iva\': {\'length\': 512, \'notnull\': True, \'sortable\': 6, \'sql\': \'DOUBLE NOT NULL\', \'type\': \'double\', \'unique\': False}, ...}, sql_fields_aux={\'anulada\': {\'sql\': "CHAR(1) NOT NULL DEFAULT \'F\'"}, \'deduccion\': {\'sql\': \'DOUBLE NOT NULL\'}, \'descuento\': {\'sql\': \'INTEGER NOT NULL\'}, \'fecha\': {\'sql\': \'DATE NOT NULL\'}, \'id\': {\'sql\': \'INTEGER PRIMARY KEY AUTOINCREMENT\'}, \'id_cliente\': {\'sql\': \'INTEGER REFERENCES cliente (id) ON DELETE CASCADE\'}, \'neto\': {\'sql\': \'DOUBLE NOT NULL\'}, \'numero\': {\'sql\': \'INTEGER\'}, \'pagada\': {\'sql\': "CHAR(1) NOT NULL DEFAULT \'F\'"}, \'retencion\': {\'sql\': \'DOUBLE NOT NULL\'}, ...}, logfile=<gluon.portalocker.LockedFile object>, fake_migrate=False)'
p3396
sg3295
S'migrate_table'
p3397
sa(dp3398
g3272
S'/Users/Truki/Desarrollo/web2py/gluon/dal.py'
p3399
sg3274
(dp3400
S'a'
S"('ALTER TABLE factura ADD deduccion DOUBLE NOT NULL;',)"
p3401
sS'self'
p3402
S'<gluon.dal.SQLiteAdapter object>'
p3403
sS'b'
g21
sS'self.log_execute'
p3404
S'<bound method SQLiteAdapter.log_execute of <gluon.dal.SQLiteAdapter object>>'
p3405
ssg3280
I1709
sg3281
(dp3406
I1704
S'        self.db._timings.append((command,time.time()-t0))'
p3407
sI1705
S'        del self.db._timings[:-TIMINGSSIZE]'
p3408
sI1706
S'        return ret'
p3409
sI1707
S''
sI1708
S'    def execute(self, *a, **b):'
p3410
sI1709
S'        return self.log_execute(*a, **b)'
p3411
sI1710
S''
sI1711
S'    def represent(self, obj, fieldtype):'
p3412
sI1712
S'        field_is_type = fieldtype.startswith'
p3413
sI1713
S'        if isinstance(obj, CALLABLETYPES):'
p3414
ssg3293
S"(self=<gluon.dal.SQLiteAdapter object>, *a=('ALTER TABLE factura ADD deduccion DOUBLE NOT NULL;',), **b={})"
p3415
sg3295
S'execute'
p3416
sa(dp3417
g3272
S'/Users/Truki/Desarrollo/web2py/gluon/dal.py'
p3418
sg3274
(dp3419
S'a'
S"('ALTER TABLE factura ADD deduccion DOUBLE NOT NULL;',)"
p3420
sS'b'
g21
sS'self'
p3421
S'<gluon.dal.SQLiteAdapter object>'
p3422
sS'ret'
p3423
g3303
sS'self.cursor'
p3424
S'<sqlite3.Cursor object>'
p3425
sS'self.cursor.execute'
p3426
S'<built-in method execute of sqlite3.Cursor object>'
p3427
ssg3280
I1703
sg3281
(dp3428
I1698
S'        command = a[0]'
p3429
sI1699
S'        if self.db._debug:'
p3430
sI1700
S"            LOGGER.debug('SQL: %s' % command)"
p3431
sI1701
S'        self.db._lastsql = command'
p3432
sI1702
S'        t0 = time.time()'
p3433
sI1703
S'        ret = self.cursor.execute(*a, **b)'
p3434
sI1704
S'        self.db._timings.append((command,time.time()-t0))'
p3435
sI1705
S'        del self.db._timings[:-TIMINGSSIZE]'
p3436
sI1706
S'        return ret'
p3437
sI1707
S''
ssg3293
S"(self=<gluon.dal.SQLiteAdapter object>, *a=('ALTER TABLE factura ADD deduccion DOUBLE NOT NULL;',), **b={})"
p3438
sg3295
S'log_execute'
p3439
sasS'pyver'
p3440
S'Python 2.7.2: /usr/bin/python'
p3441
sS'session'
p3442
g61
(g62
g63
NtRp3443
(dp3444
g66
(dp3445
sg68
(lp3446
g61
(g70
g63
NtRp3447
(dp3448
g66
(dp3449
g74
I5
ssg75
Nsg68
(lp3450
sbasbsS'etype'
p3451
S"<class 'sqlite3.OperationalError'>"
p3452
sS'date'
p3453
S'Thu Feb 21 18:30:19 2013'
p3454
sS'response'
p3455
g61
(g62
g63
NtRp3456
(dp3457
g66
(dp3458
sg68
(lp3459
g61
(g70
g63
NtRp3460
(dp3461
g66
(dp3462
g74
I5
ssg75
Nsg68
(lp3463
g61
(g77
g63
NtRp3464
(dp3465
g66
(dp3466
sg75
g3460
sg68
(lp3467
g61
(g82
g63
NtRp3468
(dp3469
g66
(dp3470
g86
g87
ssg75
g3464
sg68
(lp3471
g159
asbag61
(g82
g63
NtRp3472
(dp3473
g66
(dp3474
g93
g94
ssg75
g3464
sg68
(lp3475
S':'
asbag61
(g82
g63
NtRp3476
(dp3477
g66
(dp3478
sg75
g3464
sg68
(lp3479
g61
(g62
g63
NtRp3480
(dp3481
g66
(dp3482
g74
I5
ssg75
g3476
sg68
(lp3483
S'<cStringIO.StringO object at 0x113117768>'
p3484
asbasbasbag61
(g77
g63
NtRp3485
(dp3486
g66
(dp3487
sg75
g3460
sg68
(lp3488
g61
(g82
g63
NtRp3489
(dp3490
g66
(dp3491
g86
g87
ssg75
g3485
sg68
(lp3492
g247
asbag61
(g82
g63
NtRp3493
(dp3494
g66
(dp3495
g93
g94
ssg75
g3485
sg68
(lp3496
S':'
asbag61
(g82
g63
NtRp3497
(dp3498
g66
(dp3499
sg75
g3485
sg68
(lp3500
g61
(g62
g63
NtRp3501
(dp3502
g66
(dp3503
g74
I5
ssg75
g3497
sg68
(lp3504
g61
(g70
g63
NtRp3505
(dp3506
g66
(dp3507
g74
I4
ssg75
Nsg68
(lp3508
g61
(g77
g63
NtRp3509
(dp3510
g66
(dp3511
sg75
g3505
sg68
(lp3512
g61
(g82
g63
NtRp3513
(dp3514
g66
(dp3515
g86
g87
ssg75
g3509
sg68
(lp3516
S'session_id_rosan'
p3517
asbag61
(g82
g63
NtRp3518
(dp3519
g66
(dp3520
g93
g94
ssg75
g3509
sg68
(lp3521
S':'
asbag61
(g82
g63
NtRp3522
(dp3523
g66
(dp3524
sg75
g3509
sg68
(lp3525
g61
(g62
g63
NtRp3526
(dp3527
g66
(dp3528
g74
I4
ssg75
g3522
sg68
(lp3529
g479
ag61
(g70
g63
NtRp3530
(dp3531
g66
(dp3532
g74
I3
ssg75
Nsg68
(lp3533
g61
(g77
g63
NtRp3534
(dp3535
g66
(dp3536
sg75
g3530
sg68
(lp3537
g61
(g82
g63
NtRp3538
(dp3539
g66
(dp3540
g86
g87
ssg75
g3534
sg68
(lp3541
g298
asbag61
(g82
g63
NtRp3542
(dp3543
g66
(dp3544
g93
g94
ssg75
g3534
sg68
(lp3545
S':'
asbag61
(g82
g63
NtRp3546
(dp3547
g66
(dp3548
sg75
g3534
sg68
(lp3549
g61
(g62
g63
NtRp3550
(dp3551
g66
(dp3552
g74
I3
ssg75
g3546
sg68
(lp3553
S''
asbasbasbag61
(g77
g63
NtRp3554
(dp3555
g66
(dp3556
sg75
g3530
sg68
(lp3557
g61
(g82
g63
NtRp3558
(dp3559
g66
(dp3560
g86
g87
ssg75
g3554
sg68
(lp3561
g319
asbag61
(g82
g63
NtRp3562
(dp3563
g66
(dp3564
g93
g94
ssg75
g3554
sg68
(lp3565
S':'
asbag61
(g82
g63
NtRp3566
(dp3567
g66
(dp3568
sg75
g3554
sg68
(lp3569
g61
(g62
g63
NtRp3570
(dp3571
g66
(dp3572
g74
I3
ssg75
g3566
sg68
(lp3573
S''
asbasbasbag61
(g77
g63
NtRp3574
(dp3575
g66
(dp3576
sg75
g3530
sg68
(lp3577
g61
(g82
g63
NtRp3578
(dp3579
g66
(dp3580
g86
g87
ssg75
g3574
sg68
(lp3581
g340
asbag61
(g82
g63
NtRp3582
(dp3583
g66
(dp3584
g93
g94
ssg75
g3574
sg68
(lp3585
S':'
asbag61
(g82
g63
NtRp3586
(dp3587
g66
(dp3588
sg75
g3574
sg68
(lp3589
g61
(g62
g63
NtRp3590
(dp3591
g66
(dp3592
g74
I3
ssg75
g3586
sg68
(lp3593
S''
asbasbasbag61
(g77
g63
NtRp3594
(dp3595
g66
(dp3596
sg75
g3530
sg68
(lp3597
g61
(g82
g63
NtRp3598
(dp3599
g66
(dp3600
g86
g87
ssg75
g3594
sg68
(lp3601
g361
asbag61
(g82
g63
NtRp3602
(dp3603
g66
(dp3604
g93
g94
ssg75
g3594
sg68
(lp3605
S':'
asbag61
(g82
g63
NtRp3606
(dp3607
g66
(dp3608
sg75
g3594
sg68
(lp3609
g61
(g62
g63
NtRp3610
(dp3611
g66
(dp3612
g74
I3
ssg75
g3606
sg68
(lp3613
S''
asbasbasbag61
(g77
g63
NtRp3614
(dp3615
g66
(dp3616
sg75
g3530
sg68
(lp3617
g61
(g82
g63
NtRp3618
(dp3619
g66
(dp3620
g86
g87
ssg75
g3614
sg68
(lp3621
g382
asbag61
(g82
g63
NtRp3622
(dp3623
g66
(dp3624
g93
g94
ssg75
g3614
sg68
(lp3625
S':'
asbag61
(g82
g63
NtRp3626
(dp3627
g66
(dp3628
sg75
g3614
sg68
(lp3629
g61
(g62
g63
NtRp3630
(dp3631
g66
(dp3632
g74
I3
ssg75
g3626
sg68
(lp3633
S''
asbasbasbag61
(g77
g63
NtRp3634
(dp3635
g66
(dp3636
sg75
g3530
sg68
(lp3637
g61
(g82
g63
NtRp3638
(dp3639
g66
(dp3640
g86
g87
ssg75
g3634
sg68
(lp3641
g403
asbag61
(g82
g63
NtRp3642
(dp3643
g66
(dp3644
g93
g94
ssg75
g3634
sg68
(lp3645
S':'
asbag61
(g82
g63
NtRp3646
(dp3647
g66
(dp3648
sg75
g3634
sg68
(lp3649
g61
(g62
g63
NtRp3650
(dp3651
g66
(dp3652
g74
I3
ssg75
g3646
sg68
(lp3653
S'/'
asbasbasbag61
(g77
g63
NtRp3654
(dp3655
g66
(dp3656
sg75
g3530
sg68
(lp3657
g61
(g82
g63
NtRp3658
(dp3659
g66
(dp3660
g86
g87
ssg75
g3654
sg68
(lp3661
g424
asbag61
(g82
g63
NtRp3662
(dp3663
g66
(dp3664
g93
g94
ssg75
g3654
sg68
(lp3665
S':'
asbag61
(g82
g63
NtRp3666
(dp3667
g66
(dp3668
sg75
g3654
sg68
(lp3669
g61
(g62
g63
NtRp3670
(dp3671
g66
(dp3672
g74
I3
ssg75
g3666
sg68
(lp3673
S''
asbasbasbag61
(g77
g63
NtRp3674
(dp3675
g66
(dp3676
sg75
g3530
sg68
(lp3677
g61
(g82
g63
NtRp3678
(dp3679
g66
(dp3680
g86
g87
ssg75
g3674
sg68
(lp3681
g445
asbag61
(g82
g63
NtRp3682
(dp3683
g66
(dp3684
g93
g94
ssg75
g3674
sg68
(lp3685
S':'
asbag61
(g82
g63
NtRp3686
(dp3687
g66
(dp3688
sg75
g3674
sg68
(lp3689
g61
(g62
g63
NtRp3690
(dp3691
g66
(dp3692
g74
I3
ssg75
g3686
sg68
(lp3693
S''
asbasbasbasbasbasbasbasbasbasbasbag61
(g77
g63
NtRp3694
(dp3695
g66
(dp3696
sg75
g3460
sg68
(lp3697
g61
(g82
g63
NtRp3698
(dp3699
g66
(dp3700
g86
g87
ssg75
g3694
sg68
(lp3701
S'delimiters'
p3702
asbag61
(g82
g63
NtRp3703
(dp3704
g66
(dp3705
g93
g94
ssg75
g3694
sg68
(lp3706
S':'
asbag61
(g82
g63
NtRp3707
(dp3708
g66
(dp3709
sg75
g3694
sg68
(lp3710
g61
(g62
g63
NtRp3711
(dp3712
g66
(dp3713
g74
I5
ssg75
g3707
sg68
(lp3714
g61
(g70
g63
NtRp3715
(dp3716
g66
(dp3717
g74
I4
ssg75
Nsg68
(lp3718
g61
(g77
g63
NtRp3719
(dp3720
g66
(dp3721
sg75
g3715
sg68
(lp3722
g61
(g82
g63
NtRp3723
(dp3724
g66
(dp3725
sg75
g3719
sg68
(lp3726
g61
(g62
g63
NtRp3727
(dp3728
g66
(dp3729
g74
I4
ssg75
g3723
sg68
(lp3730
S'{{'
p3731
asbasbasbag61
(g77
g63
NtRp3732
(dp3733
g66
(dp3734
sg75
g3715
sg68
(lp3735
g61
(g82
g63
NtRp3736
(dp3737
g66
(dp3738
sg75
g3732
sg68
(lp3739
g61
(g62
g63
NtRp3740
(dp3741
g66
(dp3742
g74
I4
ssg75
g3736
sg68
(lp3743
S'}}'
p3744
asbasbasbasbasbasbasbag61
(g77
g63
NtRp3745
(dp3746
g66
(dp3747
sg75
g3460
sg68
(lp3748
g61
(g82
g63
NtRp3749
(dp3750
g66
(dp3751
g86
g87
ssg75
g3745
sg68
(lp3752
S'files'
p3753
asbag61
(g82
g63
NtRp3754
(dp3755
g66
(dp3756
g93
g94
ssg75
g3745
sg68
(lp3757
S':'
asbag61
(g82
g63
NtRp3758
(dp3759
g66
(dp3760
sg75
g3745
sg68
(lp3761
g61
(g62
g63
NtRp3762
(dp3763
g66
(dp3764
g74
I5
ssg75
g3758
sg68
(lp3765
g61
(g70
g63
NtRp3766
(dp3767
g66
(dp3768
g74
I4
ssg75
Nsg68
(lp3769
sbasbasbasbag61
(g77
g63
NtRp3770
(dp3771
g66
(dp3772
sg75
g3460
sg68
(lp3773
g61
(g82
g63
NtRp3774
(dp3775
g66
(dp3776
g86
g87
ssg75
g3770
sg68
(lp3777
S'flash'
p3778
asbag61
(g82
g63
NtRp3779
(dp3780
g66
(dp3781
g93
g94
ssg75
g3770
sg68
(lp3782
S':'
asbag61
(g82
g63
NtRp3783
(dp3784
g66
(dp3785
sg75
g3770
sg68
(lp3786
g61
(g62
g63
NtRp3787
(dp3788
g66
(dp3789
g74
I5
ssg75
g3783
sg68
(lp3790
S''
asbasbasbag61
(g77
g63
NtRp3791
(dp3792
g66
(dp3793
sg75
g3460
sg68
(lp3794
g61
(g82
g63
NtRp3795
(dp3796
g66
(dp3797
g86
g87
ssg75
g3791
sg68
(lp3798
S'generic_patterns'
p3799
asbag61
(g82
g63
NtRp3800
(dp3801
g66
(dp3802
g93
g94
ssg75
g3791
sg68
(lp3803
S':'
asbag61
(g82
g63
NtRp3804
(dp3805
g66
(dp3806
sg75
g3791
sg68
(lp3807
g61
(g62
g63
NtRp3808
(dp3809
g66
(dp3810
g74
I5
ssg75
g3804
sg68
(lp3811
g61
(g70
g63
NtRp3812
(dp3813
g66
(dp3814
g74
I4
ssg75
Nsg68
(lp3815
g61
(g77
g63
NtRp3816
(dp3817
g66
(dp3818
sg75
g3812
sg68
(lp3819
g61
(g82
g63
NtRp3820
(dp3821
g66
(dp3822
sg75
g3816
sg68
(lp3823
g61
(g62
g63
NtRp3824
(dp3825
g66
(dp3826
g74
I4
ssg75
g3820
sg68
(lp3827
S'*'
asbasbasbasbasbasbasbag61
(g77
g63
NtRp3828
(dp3829
g66
(dp3830
sg75
g3460
sg68
(lp3831
g61
(g82
g63
NtRp3832
(dp3833
g66
(dp3834
g86
g87
ssg75
g3828
sg68
(lp3835
S'headers'
p3836
asbag61
(g82
g63
NtRp3837
(dp3838
g66
(dp3839
g93
g94
ssg75
g3828
sg68
(lp3840
S':'
asbag61
(g82
g63
NtRp3841
(dp3842
g66
(dp3843
sg75
g3828
sg68
(lp3844
g61
(g62
g63
NtRp3845
(dp3846
g66
(dp3847
g74
I5
ssg75
g3841
sg68
(lp3848
g61
(g70
g63
NtRp3849
(dp3850
g66
(dp3851
g74
I4
ssg75
Nsg68
(lp3852
g61
(g77
g63
NtRp3853
(dp3854
g66
(dp3855
sg75
g3849
sg68
(lp3856
g61
(g82
g63
NtRp3857
(dp3858
g66
(dp3859
g86
g87
ssg75
g3853
sg68
(lp3860
S'X-Powered-By'
p3861
asbag61
(g82
g63
NtRp3862
(dp3863
g66
(dp3864
g93
g94
ssg75
g3853
sg68
(lp3865
S':'
asbag61
(g82
g63
NtRp3866
(dp3867
g66
(dp3868
sg75
g3853
sg68
(lp3869
g61
(g62
g63
NtRp3870
(dp3871
g66
(dp3872
g74
I4
ssg75
g3866
sg68
(lp3873
S'web2py'
p3874
asbasbasbasbasbasbasbag61
(g77
g63
NtRp3875
(dp3876
g66
(dp3877
sg75
g3460
sg68
(lp3878
g61
(g82
g63
NtRp3879
(dp3880
g66
(dp3881
g86
g87
ssg75
g3875
sg68
(lp3882
S'menu'
p3883
asbag61
(g82
g63
NtRp3884
(dp3885
g66
(dp3886
g93
g94
ssg75
g3875
sg68
(lp3887
S':'
asbag61
(g82
g63
NtRp3888
(dp3889
g66
(dp3890
sg75
g3875
sg68
(lp3891
g61
(g62
g63
NtRp3892
(dp3893
g66
(dp3894
g74
I5
ssg75
g3888
sg68
(lp3895
g61
(g70
g63
NtRp3896
(dp3897
g66
(dp3898
g74
I4
ssg75
Nsg68
(lp3899
sbasbasbasbag61
(g77
g63
NtRp3900
(dp3901
g66
(dp3902
sg75
g3460
sg68
(lp3903
g61
(g82
g63
NtRp3904
(dp3905
g66
(dp3906
g86
g87
ssg75
g3900
sg68
(lp3907
S'meta'
p3908
asbag61
(g82
g63
NtRp3909
(dp3910
g66
(dp3911
g93
g94
ssg75
g3900
sg68
(lp3912
S':'
asbag61
(g82
g63
NtRp3913
(dp3914
g66
(dp3915
sg75
g3900
sg68
(lp3916
g61
(g62
g63
NtRp3917
(dp3918
g66
(dp3919
g74
I5
ssg75
g3913
sg68
(lp3920
g61
(g70
g63
NtRp3921
(dp3922
g66
(dp3923
g74
I4
ssg75
Nsg68
(lp3924
sbasbasbasbag61
(g77
g63
NtRp3925
(dp3926
g66
(dp3927
sg75
g3460
sg68
(lp3928
g61
(g82
g63
NtRp3929
(dp3930
g66
(dp3931
g86
g87
ssg75
g3925
sg68
(lp3932
S'models_to_run'
p3933
asbag61
(g82
g63
NtRp3934
(dp3935
g66
(dp3936
g93
g94
ssg75
g3925
sg68
(lp3937
S':'
asbag61
(g82
g63
NtRp3938
(dp3939
g66
(dp3940
sg75
g3925
sg68
(lp3941
g61
(g62
g63
NtRp3942
(dp3943
g66
(dp3944
g74
I5
ssg75
g3938
sg68
(lp3945
g61
(g70
g63
NtRp3946
(dp3947
g66
(dp3948
g74
I4
ssg75
Nsg68
(lp3949
g61
(g77
g63
NtRp3950
(dp3951
g66
(dp3952
sg75
g3946
sg68
(lp3953
g61
(g82
g63
NtRp3954
(dp3955
g66
(dp3956
sg75
g3950
sg68
(lp3957
g61
(g62
g63
NtRp3958
(dp3959
g66
(dp3960
g74
I4
ssg75
g3954
sg68
(lp3961
S'^\\w+\\.py$'
p3962
asbasbasbag61
(g77
g63
NtRp3963
(dp3964
g66
(dp3965
sg75
g3946
sg68
(lp3966
g61
(g82
g63
NtRp3967
(dp3968
g66
(dp3969
sg75
g3963
sg68
(lp3970
g61
(g62
g63
NtRp3971
(dp3972
g66
(dp3973
g74
I4
ssg75
g3967
sg68
(lp3974
S'^presupuestos/\\w+\\.py$'
p3975
asbasbasbag61
(g77
g63
NtRp3976
(dp3977
g66
(dp3978
sg75
g3946
sg68
(lp3979
g61
(g82
g63
NtRp3980
(dp3981
g66
(dp3982
sg75
g3976
sg68
(lp3983
g61
(g62
g63
NtRp3984
(dp3985
g66
(dp3986
g74
I4
ssg75
g3980
sg68
(lp3987
S'^presupuestos/index/\\w+\\.py$'
p3988
asbasbasbasbasbasbasbag61
(g77
g63
NtRp3989
(dp3990
g66
(dp3991
sg75
g3460
sg68
(lp3992
g61
(g82
g63
NtRp3993
(dp3994
g66
(dp3995
g86
g87
ssg75
g3989
sg68
(lp3996
S'postprocessing'
p3997
asbag61
(g82
g63
NtRp3998
(dp3999
g66
(dp4000
g93
g94
ssg75
g3989
sg68
(lp4001
S':'
asbag61
(g82
g63
NtRp4002
(dp4003
g66
(dp4004
sg75
g3989
sg68
(lp4005
g61
(g62
g63
NtRp4006
(dp4007
g66
(dp4008
g74
I5
ssg75
g4002
sg68
(lp4009
g61
(g70
g63
NtRp4010
(dp4011
g66
(dp4012
g74
I4
ssg75
Nsg68
(lp4013
sbasbasbasbag61
(g77
g63
NtRp4014
(dp4015
g66
(dp4016
sg75
g3460
sg68
(lp4017
g61
(g82
g63
NtRp4018
(dp4019
g66
(dp4020
g86
g87
ssg75
g4014
sg68
(lp4021
S'session_cookie_expires'
p4022
asbag61
(g82
g63
NtRp4023
(dp4024
g66
(dp4025
g93
g94
ssg75
g4014
sg68
(lp4026
S':'
asbag61
(g82
g63
NtRp4027
(dp4028
g66
(dp4029
sg75
g4014
sg68
(lp4030
g61
(g62
g63
NtRp4031
(dp4032
g66
(dp4033
g74
I5
ssg75
g4027
sg68
(lp4034
S'None'
p4035
asbasbasbag61
(g77
g63
NtRp4036
(dp4037
g66
(dp4038
sg75
g3460
sg68
(lp4039
g61
(g82
g63
NtRp4040
(dp4041
g66
(dp4042
g86
g87
ssg75
g4036
sg68
(lp4043
S'session_data_name'
p4044
asbag61
(g82
g63
NtRp4045
(dp4046
g66
(dp4047
g93
g94
ssg75
g4036
sg68
(lp4048
S':'
asbag61
(g82
g63
NtRp4049
(dp4050
g66
(dp4051
sg75
g4036
sg68
(lp4052
g61
(g62
g63
NtRp4053
(dp4054
g66
(dp4055
g74
I5
ssg75
g4049
sg68
(lp4056
S'session_data_rosan'
p4057
asbasbasbag61
(g77
g63
NtRp4058
(dp4059
g66
(dp4060
sg75
g3460
sg68
(lp4061
g61
(g82
g63
NtRp4062
(dp4063
g66
(dp4064
g86
g87
ssg75
g4058
sg68
(lp4065
S'session_file'
p4066
asbag61
(g82
g63
NtRp4067
(dp4068
g66
(dp4069
g93
g94
ssg75
g4058
sg68
(lp4070
S':'
asbag61
(g82
g63
NtRp4071
(dp4072
g66
(dp4073
sg75
g4058
sg68
(lp4074
g61
(g62
g63
NtRp4075
(dp4076
g66
(dp4077
g74
I5
ssg75
g4071
sg68
(lp4078
S"<open file '/Users/Truki/Desarrollo/web2py/applications/rosan/sessions/127.0.0.1-e44cb93f-049c-40c0-ade5-b5e99985895d', mode 'rb+' at 0x1130ea660>"
p4079
asbasbasbag61
(g77
g63
NtRp4080
(dp4081
g66
(dp4082
sg75
g3460
sg68
(lp4083
g61
(g82
g63
NtRp4084
(dp4085
g66
(dp4086
g86
g87
ssg75
g4080
sg68
(lp4087
S'session_filename'
p4088
asbag61
(g82
g63
NtRp4089
(dp4090
g66
(dp4091
g93
g94
ssg75
g4080
sg68
(lp4092
S':'
asbag61
(g82
g63
NtRp4093
(dp4094
g66
(dp4095
sg75
g4080
sg68
(lp4096
g61
(g62
g63
NtRp4097
(dp4098
g66
(dp4099
g74
I5
ssg75
g4093
sg68
(lp4100
S'/Users/Truki/Desarrollo/web2py/applications/rosan/sessions/127.0.0.1-e44cb93f-049c-40c0-ade5-b5e99985895d'
p4101
asbasbasbag61
(g77
g63
NtRp4102
(dp4103
g66
(dp4104
sg75
g3460
sg68
(lp4105
g61
(g82
g63
NtRp4106
(dp4107
g66
(dp4108
g86
g87
ssg75
g4102
sg68
(lp4109
S'session_id'
p4110
asbag61
(g82
g63
NtRp4111
(dp4112
g66
(dp4113
g93
g94
ssg75
g4102
sg68
(lp4114
S':'
asbag61
(g82
g63
NtRp4115
(dp4116
g66
(dp4117
sg75
g4102
sg68
(lp4118
g61
(g62
g63
NtRp4119
(dp4120
g66
(dp4121
g74
I5
ssg75
g4115
sg68
(lp4122
g479
asbasbasbag61
(g77
g63
NtRp4123
(dp4124
g66
(dp4125
sg75
g3460
sg68
(lp4126
g61
(g82
g63
NtRp4127
(dp4128
g66
(dp4129
g86
g87
ssg75
g4123
sg68
(lp4130
S'session_id_name'
p4131
asbag61
(g82
g63
NtRp4132
(dp4133
g66
(dp4134
g93
g94
ssg75
g4123
sg68
(lp4135
S':'
asbag61
(g82
g63
NtRp4136
(dp4137
g66
(dp4138
sg75
g4123
sg68
(lp4139
g61
(g62
g63
NtRp4140
(dp4141
g66
(dp4142
g74
I5
ssg75
g4136
sg68
(lp4143
g3517
asbasbasbag61
(g77
g63
NtRp4144
(dp4145
g66
(dp4146
sg75
g3460
sg68
(lp4147
g61
(g82
g63
NtRp4148
(dp4149
g66
(dp4150
g86
g87
ssg75
g4144
sg68
(lp4151
S'session_locked'
p4152
asbag61
(g82
g63
NtRp4153
(dp4154
g66
(dp4155
g93
g94
ssg75
g4144
sg68
(lp4156
S':'
asbag61
(g82
g63
NtRp4157
(dp4158
g66
(dp4159
sg75
g4144
sg68
(lp4160
g61
(g62
g63
NtRp4161
(dp4162
g66
(dp4163
g74
I5
ssg75
g4157
sg68
(lp4164
g1808
asbasbasbag61
(g77
g63
NtRp4165
(dp4166
g66
(dp4167
sg75
g3460
sg68
(lp4168
g61
(g82
g63
NtRp4169
(dp4170
g66
(dp4171
g86
g87
ssg75
g4165
sg68
(lp4172
S'session_new'
p4173
asbag61
(g82
g63
NtRp4174
(dp4175
g66
(dp4176
g93
g94
ssg75
g4165
sg68
(lp4177
S':'
asbag61
(g82
g63
NtRp4178
(dp4179
g66
(dp4180
sg75
g4165
sg68
(lp4181
g61
(g62
g63
NtRp4182
(dp4183
g66
(dp4184
g74
I5
ssg75
g4178
sg68
(lp4185
g104
asbasbasbag61
(g77
g63
NtRp4186
(dp4187
g66
(dp4188
sg75
g3460
sg68
(lp4189
g61
(g82
g63
NtRp4190
(dp4191
g66
(dp4192
g86
g87
ssg75
g4186
sg68
(lp4193
S'session_storage_type'
p4194
asbag61
(g82
g63
NtRp4195
(dp4196
g66
(dp4197
g93
g94
ssg75
g4186
sg68
(lp4198
S':'
asbag61
(g82
g63
NtRp4199
(dp4200
g66
(dp4201
sg75
g4186
sg68
(lp4202
g61
(g62
g63
NtRp4203
(dp4204
g66
(dp4205
g74
I5
ssg75
g4199
sg68
(lp4206
g3272
asbasbasbag61
(g77
g63
NtRp4207
(dp4208
g66
(dp4209
sg75
g3460
sg68
(lp4210
g61
(g82
g63
NtRp4211
(dp4212
g66
(dp4213
g86
g87
ssg75
g4207
sg68
(lp4214
S'status'
p4215
asbag61
(g82
g63
NtRp4216
(dp4217
g66
(dp4218
g93
g94
ssg75
g4207
sg68
(lp4219
S':'
asbag61
(g82
g63
NtRp4220
(dp4221
g66
(dp4222
sg75
g4207
sg68
(lp4223
g61
(g62
g63
NtRp4224
(dp4225
g66
(dp4226
g74
I5
ssg75
g4220
sg68
(lp4227
S'200'
p4228
asbasbasbag61
(g77
g63
NtRp4229
(dp4230
g66
(dp4231
sg75
g3460
sg68
(lp4232
g61
(g82
g63
NtRp4233
(dp4234
g66
(dp4235
g86
g87
ssg75
g4229
sg68
(lp4236
S'view'
p4237
asbag61
(g82
g63
NtRp4238
(dp4239
g66
(dp4240
g93
g94
ssg75
g4229
sg68
(lp4241
S':'
asbag61
(g82
g63
NtRp4242
(dp4243
g66
(dp4244
sg75
g4229
sg68
(lp4245
g61
(g62
g63
NtRp4246
(dp4247
g66
(dp4248
g74
I5
ssg75
g4242
sg68
(lp4249
S'presupuestos/index.html'
p4250
asbasbasbasbasbsS'locals'
p4251
(dp4252
S'a'
S"('ALTER TABLE factura ADD deduccion DOUBLE NOT NULL;',)"
p4253
sS'self'
p4254
S'<gluon.dal.SQLiteAdapter object>'
p4255
sS'b'
g21
sS'command'
p4256
S"'ALTER TABLE factura ADD deduccion DOUBLE NOT NULL;'"
p4257
sS't0'
p4258
S'1361467819.438179'
p4259
sssS'traceback'
p4260
S'Traceback (most recent call last):\n  File "/Users/Truki/Desarrollo/web2py/gluon/restricted.py", line 212, in restricted\n    exec ccode in environment\n  File "/Users/Truki/Desarrollo/web2py/applications/rosan/models/db_rosan.py", line 93, in <module>\n    SQLField("anulada", "boolean", notnull=True, default=False))\n  File "/Users/Truki/Desarrollo/web2py/gluon/dal.py", line 7186, in define_table\n    table = self.lazy_define_table(tablename,*fields,**args)\n  File "/Users/Truki/Desarrollo/web2py/gluon/dal.py", line 7222, in lazy_define_table\n    polymodel=polymodel)\n  File "/Users/Truki/Desarrollo/web2py/gluon/dal.py", line 963, in create_table\n    fake_migrate=fake_migrate)\n  File "/Users/Truki/Desarrollo/web2py/gluon/dal.py", line 1069, in migrate_table\n    self.execute(sub_query)\n  File "/Users/Truki/Desarrollo/web2py/gluon/dal.py", line 1709, in execute\n    return self.log_execute(*a, **b)\n  File "/Users/Truki/Desarrollo/web2py/gluon/dal.py", line 1703, in log_execute\n    ret = self.cursor.execute(*a, **b)\nOperationalError: Cannot add a NOT NULL column with default value NULL\n'
p4261
s.