(dp1
S'output'
p2
S"<class 'sqlite3.OperationalError'> Cannot add a NOT NULL column with default value NULL"
p3
sS'layer'
p4
S'/Users/Truki/web2py/applications/rosan/models/db_rosan.py'
p5
sS'code'
p6
S'# coding: utf8\n"""\njust copy paste this code into your model and replace dbRosan to something\nyou prefer or what is used in your code, another thing that should be known is that\nthis code still cannot distinguish what exactly should be in reference title - name\nwhen you use generic appadmin so please remove all fiealds you don\'t need not require \n"""\n"""\ndatabase class object creation\n"""\ndbRosan = SQLDB("sqlite://dbRosan.db")\n\n"""\nTabla de clientes\n"""\ndbRosan.define_table("cliente",\n      SQLField("cif", "string", length=9, notnull=True, default=None),\n      SQLField("nombre", "string", length=200, notnull=True, default=None),\n      SQLField("direccion", "string", length=200, notnull=True, default=None),\n      SQLField("localidad", "string", length=100, notnull=True, default=None),\n      SQLField("cod_postal", "string", length=5, notnull=True, default=None),\n      SQLField("email", "string", length=100, notnull=True, default=None),\n      SQLField("www","string", length=200, notnull=True, default=None)\n      ) \n\n"""\nTabla facturas\n"""\ndbRosan.define_table("factura",\n      SQLField("fecha", "date", notnull=True, default=None),\n      SQLField("id_cliente", dbRosan.cliente),\n      SQLField("tipo_iva", "double", notnull=True, default=None),\n      SQLField("neto", "double", notnull=True, default=None),\n      SQLField("retencion", "double", notnull=True, default=None),\n      SQLField("descuento", "integer", notnull=True, default=None),\n      SQLField("total_iva", "double", notnull=True, default=None),\n      SQLField("total_bruto", "double", notnull=True, default=None),\n      SQLField("pagada", "boolean", notnull=True, default=False)) \n\n\n\n"""\nTable con el detalle de las facturas\n"""\ndbRosan.define_table("factura_detalle",\n      SQLField("id_factura", dbRosan.factura),\n      SQLField("articulo", "text", notnull=True, default=None),\n      SQLField("precio", "double", notnull=True, default=None),\n      SQLField("cantidad", "integer", notnull=True, default=None),\n      SQLField("total_articulo", "double", notnull=True, default=None))  \n           \n"""\nTabla articulos\n"""\ndbRosan.define_table("articulo",\n      SQLField("descripcion", "text", notnull=True, default=None),\n      SQLField("precio", "double", notnull=True, default=None)) \n      \n"""\nTabla almacen, contiene los stocks de los articulos\n"""\ndbRosan.define_table("almacen", \n      SQLField("id_articulo", dbRosan.articulo),\n      SQLField("cantidad", "integer", notnull=True, default=0),\n      SQLField("max", "integer", notnull=True, default=0),\n      SQLField("min", "integer", notnull=True, default=0))\n      \n      \n\n"""\nRelations between tables (remove fields you don\'t need from requires)\n"""\ndbRosan.factura.id_cliente.requires=IS_IN_DB(dbRosan, \'cliente.id\', \'%(nombre)s\')\n\ndbRosan.factura_detalle.id_factura.requires=IS_IN_DB(dbRosan, \'factura.id\')\n\ndbRosan.almacen.id_articulo.requires=IS_IN_DB(dbRosan, \'articulo.id\' \'%(nombre)s\')\n'
p7
sS'snapshot'
p8
(dp9
S'exception'
p10
(dp11
S'__module__'
p12
S"'sqlite3'"
p13
sS'__getslice__'
p14
S"<method-wrapper '__getslice__' of OperationalError object>"
p15
sS'__str__'
p16
S"<method-wrapper '__str__' of OperationalError object>"
p17
sS'__reduce__'
p18
S'<built-in method __reduce__ of OperationalError object>'
p19
sS'__dict__'
p20
S'{}'
p21
sS'__sizeof__'
p22
S'<built-in method __sizeof__ of OperationalError object>'
p23
sS'__weakref__'
p24
S'None'
p25
sS'__init__'
p26
S"<method-wrapper '__init__' of OperationalError object>"
p27
sS'__setattr__'
p28
S"<method-wrapper '__setattr__' of OperationalError object>"
p29
sS'__reduce_ex__'
p30
S'<built-in method __reduce_ex__ of OperationalError object>'
p31
sS'__new__'
p32
S'<built-in method __new__ of type object>'
p33
sS'__format__'
p34
S'<built-in method __format__ of OperationalError object>'
p35
sS'__class__'
p36
S"<class 'sqlite3.OperationalError'>"
p37
sS'__doc__'
p38
S'None'
p39
sS'__getitem__'
p40
S"<method-wrapper '__getitem__' of OperationalError object>"
p41
sS'__setstate__'
p42
S'<built-in method __setstate__ of OperationalError object>'
p43
sS'__getattribute__'
p44
S"<method-wrapper '__getattribute__' of OperationalError object>"
p45
sS'args'
p46
S"('Cannot add a NOT NULL column with default value NULL',)"
p47
sS'__subclasshook__'
p48
S'<built-in method __subclasshook__ of type object>'
p49
sS'__unicode__'
p50
S'<built-in method __unicode__ of OperationalError object>'
p51
sS'__delattr__'
p52
S"<method-wrapper '__delattr__' of OperationalError object>"
p53
sS'__repr__'
p54
S"<method-wrapper '__repr__' of OperationalError object>"
p55
sS'__hash__'
p56
S"<method-wrapper '__hash__' of OperationalError object>"
p57
ssS'evalue'
p58
S'Cannot add a NOT NULL column with default value NULL'
p59
sS'request'
p60
ccopy_reg
_reconstructor
p61
(cgluon.html
BEAUTIFY
p62
c__builtin__
object
p63
NtRp64
(dp65
S'attributes'
p66
(dp67
sS'components'
p68
(lp69
g61
(cgluon.html
TABLE
p70
g63
NtRp71
(dp72
g66
(dp73
S'level'
p74
I5
ssS'parent'
p75
Nsg68
(lp76
g61
(cgluon.html
TR
p77
g63
NtRp78
(dp79
g66
(dp80
sg75
g71
sg68
(lp81
g61
(cgluon.html
TD
p82
g63
NtRp83
(dp84
g66
(dp85
S'_style'
p86
S'font-weight:bold;vertical-align:top'
p87
ssg75
g78
sg68
(lp88
S'ajax'
p89
asbag61
(g82
g63
NtRp90
(dp91
g66
(dp92
S'_valign'
p93
S'top'
p94
ssg75
g78
sg68
(lp95
S':'
asbag61
(g82
g63
NtRp96
(dp97
g66
(dp98
sg75
g78
sg68
(lp99
g61
(g62
g63
NtRp100
(dp101
g66
(dp102
g74
I5
ssg75
g96
sg68
(lp103
S'False'
p104
asbasbasbag61
(g77
g63
NtRp105
(dp106
g66
(dp107
sg75
g71
sg68
(lp108
g61
(g82
g63
NtRp109
(dp110
g66
(dp111
g86
g87
ssg75
g105
sg68
(lp112
S'application'
p113
asbag61
(g82
g63
NtRp114
(dp115
g66
(dp116
g93
g94
ssg75
g105
sg68
(lp117
S':'
asbag61
(g82
g63
NtRp118
(dp119
g66
(dp120
sg75
g105
sg68
(lp121
g61
(g62
g63
NtRp122
(dp123
g66
(dp124
g74
I5
ssg75
g118
sg68
(lp125
S'rosan'
p126
asbasbasbag61
(g77
g63
NtRp127
(dp128
g66
(dp129
sg75
g71
sg68
(lp130
g61
(g82
g63
NtRp131
(dp132
g66
(dp133
g86
g87
ssg75
g127
sg68
(lp134
g46
asbag61
(g82
g63
NtRp135
(dp136
g66
(dp137
g93
g94
ssg75
g127
sg68
(lp138
S':'
asbag61
(g82
g63
NtRp139
(dp140
g66
(dp141
sg75
g127
sg68
(lp142
g61
(g62
g63
NtRp143
(dp144
g66
(dp145
g74
I5
ssg75
g139
sg68
(lp146
g61
(g70
g63
NtRp147
(dp148
g66
(dp149
g74
I4
ssg75
Nsg68
(lp150
sbasbasbasbag61
(g77
g63
NtRp151
(dp152
g66
(dp153
sg75
g71
sg68
(lp154
g61
(g82
g63
NtRp155
(dp156
g66
(dp157
g86
g87
ssg75
g151
sg68
(lp158
S'body'
p159
asbag61
(g82
g63
NtRp160
(dp161
g66
(dp162
g93
g94
ssg75
g151
sg68
(lp163
S':'
asbag61
(g82
g63
NtRp164
(dp165
g66
(dp166
sg75
g151
sg68
(lp167
g61
(g62
g63
NtRp168
(dp169
g66
(dp170
g74
I5
ssg75
g164
sg68
(lp171
S'<cStringIO.StringO object at 0x18018a40>'
p172
asbasbasbag61
(g77
g63
NtRp173
(dp174
g66
(dp175
sg75
g71
sg68
(lp176
g61
(g82
g63
NtRp177
(dp178
g66
(dp179
g86
g87
ssg75
g173
sg68
(lp180
S'client'
p181
asbag61
(g82
g63
NtRp182
(dp183
g66
(dp184
g93
g94
ssg75
g173
sg68
(lp185
S':'
asbag61
(g82
g63
NtRp186
(dp187
g66
(dp188
sg75
g173
sg68
(lp189
g61
(g62
g63
NtRp190
(dp191
g66
(dp192
g74
I5
ssg75
g186
sg68
(lp193
S'127.0.0.1'
p194
asbasbasbag61
(g77
g63
NtRp195
(dp196
g66
(dp197
sg75
g71
sg68
(lp198
g61
(g82
g63
NtRp199
(dp200
g66
(dp201
g86
g87
ssg75
g195
sg68
(lp202
S'controller'
p203
asbag61
(g82
g63
NtRp204
(dp205
g66
(dp206
g93
g94
ssg75
g195
sg68
(lp207
S':'
asbag61
(g82
g63
NtRp208
(dp209
g66
(dp210
sg75
g195
sg68
(lp211
g61
(g62
g63
NtRp212
(dp213
g66
(dp214
g74
I5
ssg75
g208
sg68
(lp215
S'appadmin'
p216
asbasbasbag61
(g77
g63
NtRp217
(dp218
g66
(dp219
sg75
g71
sg68
(lp220
g61
(g82
g63
NtRp221
(dp222
g66
(dp223
g86
g87
ssg75
g217
sg68
(lp224
S'cookies'
p225
asbag61
(g82
g63
NtRp226
(dp227
g66
(dp228
g93
g94
ssg75
g217
sg68
(lp229
S':'
asbag61
(g82
g63
NtRp230
(dp231
g66
(dp232
sg75
g217
sg68
(lp233
g61
(g62
g63
NtRp234
(dp235
g66
(dp236
g74
I5
ssg75
g230
sg68
(lp237
g61
(g70
g63
NtRp238
(dp239
g66
(dp240
g74
I4
ssg75
Nsg68
(lp241
g61
(g77
g63
NtRp242
(dp243
g66
(dp244
sg75
g238
sg68
(lp245
g61
(g82
g63
NtRp246
(dp247
g66
(dp248
g86
g87
ssg75
g242
sg68
(lp249
S'session_id_admin'
p250
asbag61
(g82
g63
NtRp251
(dp252
g66
(dp253
g93
g94
ssg75
g242
sg68
(lp254
S':'
asbag61
(g82
g63
NtRp255
(dp256
g66
(dp257
sg75
g242
sg68
(lp258
g61
(g62
g63
NtRp259
(dp260
g66
(dp261
g74
I4
ssg75
g255
sg68
(lp262
g61
(g70
g63
NtRp263
(dp264
g66
(dp265
g74
I3
ssg75
Nsg68
(lp266
g61
(g77
g63
NtRp267
(dp268
g66
(dp269
sg75
g263
sg68
(lp270
g61
(g82
g63
NtRp271
(dp272
g66
(dp273
g86
g87
ssg75
g267
sg68
(lp274
S'comment'
p275
asbag61
(g82
g63
NtRp276
(dp277
g66
(dp278
g93
g94
ssg75
g267
sg68
(lp279
S':'
asbag61
(g82
g63
NtRp280
(dp281
g66
(dp282
sg75
g267
sg68
(lp283
g61
(g62
g63
NtRp284
(dp285
g66
(dp286
g74
I3
ssg75
g280
sg68
(lp287
S''
asbasbasbag61
(g77
g63
NtRp288
(dp289
g66
(dp290
sg75
g263
sg68
(lp291
g61
(g82
g63
NtRp292
(dp293
g66
(dp294
g86
g87
ssg75
g288
sg68
(lp295
S'domain'
p296
asbag61
(g82
g63
NtRp297
(dp298
g66
(dp299
g93
g94
ssg75
g288
sg68
(lp300
S':'
asbag61
(g82
g63
NtRp301
(dp302
g66
(dp303
sg75
g288
sg68
(lp304
g61
(g62
g63
NtRp305
(dp306
g66
(dp307
g74
I3
ssg75
g301
sg68
(lp308
S''
asbasbasbag61
(g77
g63
NtRp309
(dp310
g66
(dp311
sg75
g263
sg68
(lp312
g61
(g82
g63
NtRp313
(dp314
g66
(dp315
g86
g87
ssg75
g309
sg68
(lp316
S'expires'
p317
asbag61
(g82
g63
NtRp318
(dp319
g66
(dp320
g93
g94
ssg75
g309
sg68
(lp321
S':'
asbag61
(g82
g63
NtRp322
(dp323
g66
(dp324
sg75
g309
sg68
(lp325
g61
(g62
g63
NtRp326
(dp327
g66
(dp328
g74
I3
ssg75
g322
sg68
(lp329
S''
asbasbasbag61
(g77
g63
NtRp330
(dp331
g66
(dp332
sg75
g263
sg68
(lp333
g61
(g82
g63
NtRp334
(dp335
g66
(dp336
g86
g87
ssg75
g330
sg68
(lp337
S'httponly'
p338
asbag61
(g82
g63
NtRp339
(dp340
g66
(dp341
g93
g94
ssg75
g330
sg68
(lp342
S':'
asbag61
(g82
g63
NtRp343
(dp344
g66
(dp345
sg75
g330
sg68
(lp346
g61
(g62
g63
NtRp347
(dp348
g66
(dp349
g74
I3
ssg75
g343
sg68
(lp350
S''
asbasbasbag61
(g77
g63
NtRp351
(dp352
g66
(dp353
sg75
g263
sg68
(lp354
g61
(g82
g63
NtRp355
(dp356
g66
(dp357
g86
g87
ssg75
g351
sg68
(lp358
S'max-age'
p359
asbag61
(g82
g63
NtRp360
(dp361
g66
(dp362
g93
g94
ssg75
g351
sg68
(lp363
S':'
asbag61
(g82
g63
NtRp364
(dp365
g66
(dp366
sg75
g351
sg68
(lp367
g61
(g62
g63
NtRp368
(dp369
g66
(dp370
g74
I3
ssg75
g364
sg68
(lp371
S''
asbasbasbag61
(g77
g63
NtRp372
(dp373
g66
(dp374
sg75
g263
sg68
(lp375
g61
(g82
g63
NtRp376
(dp377
g66
(dp378
g86
g87
ssg75
g372
sg68
(lp379
S'path'
p380
asbag61
(g82
g63
NtRp381
(dp382
g66
(dp383
g93
g94
ssg75
g372
sg68
(lp384
S':'
asbag61
(g82
g63
NtRp385
(dp386
g66
(dp387
sg75
g372
sg68
(lp388
g61
(g62
g63
NtRp389
(dp390
g66
(dp391
g74
I3
ssg75
g385
sg68
(lp392
S''
asbasbasbag61
(g77
g63
NtRp393
(dp394
g66
(dp395
sg75
g263
sg68
(lp396
g61
(g82
g63
NtRp397
(dp398
g66
(dp399
g86
g87
ssg75
g393
sg68
(lp400
S'secure'
p401
asbag61
(g82
g63
NtRp402
(dp403
g66
(dp404
g93
g94
ssg75
g393
sg68
(lp405
S':'
asbag61
(g82
g63
NtRp406
(dp407
g66
(dp408
sg75
g393
sg68
(lp409
g61
(g62
g63
NtRp410
(dp411
g66
(dp412
g74
I3
ssg75
g406
sg68
(lp413
S''
asbasbasbag61
(g77
g63
NtRp414
(dp415
g66
(dp416
sg75
g263
sg68
(lp417
g61
(g82
g63
NtRp418
(dp419
g66
(dp420
g86
g87
ssg75
g414
sg68
(lp421
S'version'
p422
asbag61
(g82
g63
NtRp423
(dp424
g66
(dp425
g93
g94
ssg75
g414
sg68
(lp426
S':'
asbag61
(g82
g63
NtRp427
(dp428
g66
(dp429
sg75
g414
sg68
(lp430
g61
(g62
g63
NtRp431
(dp432
g66
(dp433
g74
I3
ssg75
g427
sg68
(lp434
S''
asbasbasbasbasbasbasbag61
(g77
g63
NtRp435
(dp436
g66
(dp437
sg75
g238
sg68
(lp438
g61
(g82
g63
NtRp439
(dp440
g66
(dp441
g86
g87
ssg75
g435
sg68
(lp442
S'session_id_rosan'
p443
asbag61
(g82
g63
NtRp444
(dp445
g66
(dp446
g93
g94
ssg75
g435
sg68
(lp447
S':'
asbag61
(g82
g63
NtRp448
(dp449
g66
(dp450
sg75
g435
sg68
(lp451
g61
(g62
g63
NtRp452
(dp453
g66
(dp454
g74
I4
ssg75
g448
sg68
(lp455
g61
(g70
g63
NtRp456
(dp457
g66
(dp458
g74
I3
ssg75
Nsg68
(lp459
g61
(g77
g63
NtRp460
(dp461
g66
(dp462
sg75
g456
sg68
(lp463
g61
(g82
g63
NtRp464
(dp465
g66
(dp466
g86
g87
ssg75
g460
sg68
(lp467
g275
asbag61
(g82
g63
NtRp468
(dp469
g66
(dp470
g93
g94
ssg75
g460
sg68
(lp471
S':'
asbag61
(g82
g63
NtRp472
(dp473
g66
(dp474
sg75
g460
sg68
(lp475
g61
(g62
g63
NtRp476
(dp477
g66
(dp478
g74
I3
ssg75
g472
sg68
(lp479
S''
asbasbasbag61
(g77
g63
NtRp480
(dp481
g66
(dp482
sg75
g456
sg68
(lp483
g61
(g82
g63
NtRp484
(dp485
g66
(dp486
g86
g87
ssg75
g480
sg68
(lp487
g296
asbag61
(g82
g63
NtRp488
(dp489
g66
(dp490
g93
g94
ssg75
g480
sg68
(lp491
S':'
asbag61
(g82
g63
NtRp492
(dp493
g66
(dp494
sg75
g480
sg68
(lp495
g61
(g62
g63
NtRp496
(dp497
g66
(dp498
g74
I3
ssg75
g492
sg68
(lp499
S''
asbasbasbag61
(g77
g63
NtRp500
(dp501
g66
(dp502
sg75
g456
sg68
(lp503
g61
(g82
g63
NtRp504
(dp505
g66
(dp506
g86
g87
ssg75
g500
sg68
(lp507
g317
asbag61
(g82
g63
NtRp508
(dp509
g66
(dp510
g93
g94
ssg75
g500
sg68
(lp511
S':'
asbag61
(g82
g63
NtRp512
(dp513
g66
(dp514
sg75
g500
sg68
(lp515
g61
(g62
g63
NtRp516
(dp517
g66
(dp518
g74
I3
ssg75
g512
sg68
(lp519
S''
asbasbasbag61
(g77
g63
NtRp520
(dp521
g66
(dp522
sg75
g456
sg68
(lp523
g61
(g82
g63
NtRp524
(dp525
g66
(dp526
g86
g87
ssg75
g520
sg68
(lp527
g338
asbag61
(g82
g63
NtRp528
(dp529
g66
(dp530
g93
g94
ssg75
g520
sg68
(lp531
S':'
asbag61
(g82
g63
NtRp532
(dp533
g66
(dp534
sg75
g520
sg68
(lp535
g61
(g62
g63
NtRp536
(dp537
g66
(dp538
g74
I3
ssg75
g532
sg68
(lp539
S''
asbasbasbag61
(g77
g63
NtRp540
(dp541
g66
(dp542
sg75
g456
sg68
(lp543
g61
(g82
g63
NtRp544
(dp545
g66
(dp546
g86
g87
ssg75
g540
sg68
(lp547
g359
asbag61
(g82
g63
NtRp548
(dp549
g66
(dp550
g93
g94
ssg75
g540
sg68
(lp551
S':'
asbag61
(g82
g63
NtRp552
(dp553
g66
(dp554
sg75
g540
sg68
(lp555
g61
(g62
g63
NtRp556
(dp557
g66
(dp558
g74
I3
ssg75
g552
sg68
(lp559
S''
asbasbasbag61
(g77
g63
NtRp560
(dp561
g66
(dp562
sg75
g456
sg68
(lp563
g61
(g82
g63
NtRp564
(dp565
g66
(dp566
g86
g87
ssg75
g560
sg68
(lp567
g380
asbag61
(g82
g63
NtRp568
(dp569
g66
(dp570
g93
g94
ssg75
g560
sg68
(lp571
S':'
asbag61
(g82
g63
NtRp572
(dp573
g66
(dp574
sg75
g560
sg68
(lp575
g61
(g62
g63
NtRp576
(dp577
g66
(dp578
g74
I3
ssg75
g572
sg68
(lp579
S''
asbasbasbag61
(g77
g63
NtRp580
(dp581
g66
(dp582
sg75
g456
sg68
(lp583
g61
(g82
g63
NtRp584
(dp585
g66
(dp586
g86
g87
ssg75
g580
sg68
(lp587
g401
asbag61
(g82
g63
NtRp588
(dp589
g66
(dp590
g93
g94
ssg75
g580
sg68
(lp591
S':'
asbag61
(g82
g63
NtRp592
(dp593
g66
(dp594
sg75
g580
sg68
(lp595
g61
(g62
g63
NtRp596
(dp597
g66
(dp598
g74
I3
ssg75
g592
sg68
(lp599
S''
asbasbasbag61
(g77
g63
NtRp600
(dp601
g66
(dp602
sg75
g456
sg68
(lp603
g61
(g82
g63
NtRp604
(dp605
g66
(dp606
g86
g87
ssg75
g600
sg68
(lp607
g422
asbag61
(g82
g63
NtRp608
(dp609
g66
(dp610
g93
g94
ssg75
g600
sg68
(lp611
S':'
asbag61
(g82
g63
NtRp612
(dp613
g66
(dp614
sg75
g600
sg68
(lp615
g61
(g62
g63
NtRp616
(dp617
g66
(dp618
g74
I3
ssg75
g612
sg68
(lp619
S''
asbasbasbasbasbasbasbag61
(g77
g63
NtRp620
(dp621
g66
(dp622
sg75
g238
sg68
(lp623
g61
(g82
g63
NtRp624
(dp625
g66
(dp626
g86
g87
ssg75
g620
sg68
(lp627
S'session_id_welcome'
p628
asbag61
(g82
g63
NtRp629
(dp630
g66
(dp631
g93
g94
ssg75
g620
sg68
(lp632
S':'
asbag61
(g82
g63
NtRp633
(dp634
g66
(dp635
sg75
g620
sg68
(lp636
g61
(g62
g63
NtRp637
(dp638
g66
(dp639
g74
I4
ssg75
g633
sg68
(lp640
g61
(g70
g63
NtRp641
(dp642
g66
(dp643
g74
I3
ssg75
Nsg68
(lp644
g61
(g77
g63
NtRp645
(dp646
g66
(dp647
sg75
g641
sg68
(lp648
g61
(g82
g63
NtRp649
(dp650
g66
(dp651
g86
g87
ssg75
g645
sg68
(lp652
g275
asbag61
(g82
g63
NtRp653
(dp654
g66
(dp655
g93
g94
ssg75
g645
sg68
(lp656
S':'
asbag61
(g82
g63
NtRp657
(dp658
g66
(dp659
sg75
g645
sg68
(lp660
g61
(g62
g63
NtRp661
(dp662
g66
(dp663
g74
I3
ssg75
g657
sg68
(lp664
S''
asbasbasbag61
(g77
g63
NtRp665
(dp666
g66
(dp667
sg75
g641
sg68
(lp668
g61
(g82
g63
NtRp669
(dp670
g66
(dp671
g86
g87
ssg75
g665
sg68
(lp672
g296
asbag61
(g82
g63
NtRp673
(dp674
g66
(dp675
g93
g94
ssg75
g665
sg68
(lp676
S':'
asbag61
(g82
g63
NtRp677
(dp678
g66
(dp679
sg75
g665
sg68
(lp680
g61
(g62
g63
NtRp681
(dp682
g66
(dp683
g74
I3
ssg75
g677
sg68
(lp684
S''
asbasbasbag61
(g77
g63
NtRp685
(dp686
g66
(dp687
sg75
g641
sg68
(lp688
g61
(g82
g63
NtRp689
(dp690
g66
(dp691
g86
g87
ssg75
g685
sg68
(lp692
g317
asbag61
(g82
g63
NtRp693
(dp694
g66
(dp695
g93
g94
ssg75
g685
sg68
(lp696
S':'
asbag61
(g82
g63
NtRp697
(dp698
g66
(dp699
sg75
g685
sg68
(lp700
g61
(g62
g63
NtRp701
(dp702
g66
(dp703
g74
I3
ssg75
g697
sg68
(lp704
S''
asbasbasbag61
(g77
g63
NtRp705
(dp706
g66
(dp707
sg75
g641
sg68
(lp708
g61
(g82
g63
NtRp709
(dp710
g66
(dp711
g86
g87
ssg75
g705
sg68
(lp712
g338
asbag61
(g82
g63
NtRp713
(dp714
g66
(dp715
g93
g94
ssg75
g705
sg68
(lp716
S':'
asbag61
(g82
g63
NtRp717
(dp718
g66
(dp719
sg75
g705
sg68
(lp720
g61
(g62
g63
NtRp721
(dp722
g66
(dp723
g74
I3
ssg75
g717
sg68
(lp724
S''
asbasbasbag61
(g77
g63
NtRp725
(dp726
g66
(dp727
sg75
g641
sg68
(lp728
g61
(g82
g63
NtRp729
(dp730
g66
(dp731
g86
g87
ssg75
g725
sg68
(lp732
g359
asbag61
(g82
g63
NtRp733
(dp734
g66
(dp735
g93
g94
ssg75
g725
sg68
(lp736
S':'
asbag61
(g82
g63
NtRp737
(dp738
g66
(dp739
sg75
g725
sg68
(lp740
g61
(g62
g63
NtRp741
(dp742
g66
(dp743
g74
I3
ssg75
g737
sg68
(lp744
S''
asbasbasbag61
(g77
g63
NtRp745
(dp746
g66
(dp747
sg75
g641
sg68
(lp748
g61
(g82
g63
NtRp749
(dp750
g66
(dp751
g86
g87
ssg75
g745
sg68
(lp752
g380
asbag61
(g82
g63
NtRp753
(dp754
g66
(dp755
g93
g94
ssg75
g745
sg68
(lp756
S':'
asbag61
(g82
g63
NtRp757
(dp758
g66
(dp759
sg75
g745
sg68
(lp760
g61
(g62
g63
NtRp761
(dp762
g66
(dp763
g74
I3
ssg75
g757
sg68
(lp764
S''
asbasbasbag61
(g77
g63
NtRp765
(dp766
g66
(dp767
sg75
g641
sg68
(lp768
g61
(g82
g63
NtRp769
(dp770
g66
(dp771
g86
g87
ssg75
g765
sg68
(lp772
g401
asbag61
(g82
g63
NtRp773
(dp774
g66
(dp775
g93
g94
ssg75
g765
sg68
(lp776
S':'
asbag61
(g82
g63
NtRp777
(dp778
g66
(dp779
sg75
g765
sg68
(lp780
g61
(g62
g63
NtRp781
(dp782
g66
(dp783
g74
I3
ssg75
g777
sg68
(lp784
S''
asbasbasbag61
(g77
g63
NtRp785
(dp786
g66
(dp787
sg75
g641
sg68
(lp788
g61
(g82
g63
NtRp789
(dp790
g66
(dp791
g86
g87
ssg75
g785
sg68
(lp792
g422
asbag61
(g82
g63
NtRp793
(dp794
g66
(dp795
g93
g94
ssg75
g785
sg68
(lp796
S':'
asbag61
(g82
g63
NtRp797
(dp798
g66
(dp799
sg75
g785
sg68
(lp800
g61
(g62
g63
NtRp801
(dp802
g66
(dp803
g74
I3
ssg75
g797
sg68
(lp804
S''
asbasbasbasbasbasbasbasbasbasbasbag61
(g77
g63
NtRp805
(dp806
g66
(dp807
sg75
g71
sg68
(lp808
g61
(g82
g63
NtRp809
(dp810
g66
(dp811
g86
g87
ssg75
g805
sg68
(lp812
S'env'
p813
asbag61
(g82
g63
NtRp814
(dp815
g66
(dp816
g93
g94
ssg75
g805
sg68
(lp817
S':'
asbag61
(g82
g63
NtRp818
(dp819
g66
(dp820
sg75
g805
sg68
(lp821
g61
(g62
g63
NtRp822
(dp823
g66
(dp824
g74
I5
ssg75
g818
sg68
(lp825
g61
(g70
g63
NtRp826
(dp827
g66
(dp828
g74
I4
ssg75
Nsg68
(lp829
g61
(g77
g63
NtRp830
(dp831
g66
(dp832
sg75
g826
sg68
(lp833
g61
(g82
g63
NtRp834
(dp835
g66
(dp836
g86
g87
ssg75
g830
sg68
(lp837
S'app_folders'
p838
asbag61
(g82
g63
NtRp839
(dp840
g66
(dp841
g93
g94
ssg75
g830
sg68
(lp842
S':'
asbag61
(g82
g63
NtRp843
(dp844
g66
(dp845
sg75
g830
sg68
(lp846
g61
(g62
g63
NtRp847
(dp848
g66
(dp849
g74
I4
ssg75
g843
sg68
(lp850
S"set(['/Users/Truki/web2py/applications/welcome/', '/Users/Truki/web2py/applications/admin/', '/Users/Truki/web2py/applications/rosan/'])"
p851
asbasbasbag61
(g77
g63
NtRp852
(dp853
g66
(dp854
sg75
g826
sg68
(lp855
g61
(g82
g63
NtRp856
(dp857
g66
(dp858
g86
g87
ssg75
g852
sg68
(lp859
S'applications_parent'
p860
asbag61
(g82
g63
NtRp861
(dp862
g66
(dp863
g93
g94
ssg75
g852
sg68
(lp864
S':'
asbag61
(g82
g63
NtRp865
(dp866
g66
(dp867
sg75
g852
sg68
(lp868
g61
(g62
g63
NtRp869
(dp870
g66
(dp871
g74
I4
ssg75
g865
sg68
(lp872
S'/Users/Truki/web2py'
p873
asbasbasbag61
(g77
g63
NtRp874
(dp875
g66
(dp876
sg75
g826
sg68
(lp877
g61
(g82
g63
NtRp878
(dp879
g66
(dp880
g86
g87
ssg75
g874
sg68
(lp881
S'cmd_args'
p882
asbag61
(g82
g63
NtRp883
(dp884
g66
(dp885
g93
g94
ssg75
g874
sg68
(lp886
S':'
asbag61
(g82
g63
NtRp887
(dp888
g66
(dp889
sg75
g874
sg68
(lp890
g61
(g62
g63
NtRp891
(dp892
g66
(dp893
g74
I4
ssg75
g887
sg68
(lp894
g61
(g70
g63
NtRp895
(dp896
g66
(dp897
g74
I3
ssg75
Nsg68
(lp898
sbasbasbasbag61
(g77
g63
NtRp899
(dp900
g66
(dp901
sg75
g826
sg68
(lp902
g61
(g82
g63
NtRp903
(dp904
g66
(dp905
g86
g87
ssg75
g899
sg68
(lp906
S'cmd_options'
p907
asbag61
(g82
g63
NtRp908
(dp909
g66
(dp910
g93
g94
ssg75
g899
sg68
(lp911
S':'
asbag61
(g82
g63
NtRp912
(dp913
g66
(dp914
sg75
g899
sg68
(lp915
g61
(g62
g63
NtRp916
(dp917
g66
(dp918
g74
I4
ssg75
g912
sg68
(lp919
S"<Values at 0x17598c8: {'verbose': False, 'ip': '127.0.0.1', 'shutdown_timeout': 5, 'taskbar': False, 'nocron': False, 'pid_filename': 'httpserver.pid', 'maxthreads': None, 'softcron': False, 'server_name': 'MBT.local', 'bpython': False, 'nogui': False, 'port': 8000, 'extcron': False, 'debuglevel': 30, 'test': None, 'folder': '/Users/Truki/web2py', 'config': '', 'import_models': False, 'winservice': '', 'shell': None, 'run': '', 'log_filename': 'httpserver.log', 'args': [''], 'socket_timeout': 5, 'ssl_ca_certificate': None, 'scheduler': None, 'profiler_filename': None, 'ssl_private_key': '', 'password': '<ask>', 'request_queue_size': 5, 'ssl_certificate': '', 'cronjob': False, 'numthreads': None, 'quiet': False, 'interfaces': None, 'minthreads': None, 'timeout': 10, 'plain': False, 'nobanner': False}>"
p920
asbasbasbag61
(g77
g63
NtRp921
(dp922
g66
(dp923
sg75
g826
sg68
(lp924
g61
(g82
g63
NtRp925
(dp926
g66
(dp927
g86
g87
ssg75
g921
sg68
(lp928
S'db_sessions'
p929
asbag61
(g82
g63
NtRp930
(dp931
g66
(dp932
g93
g94
ssg75
g921
sg68
(lp933
S':'
asbag61
(g82
g63
NtRp934
(dp935
g66
(dp936
sg75
g921
sg68
(lp937
g61
(g62
g63
NtRp938
(dp939
g66
(dp940
g74
I4
ssg75
g934
sg68
(lp941
S'set([])'
p942
asbasbasbag61
(g77
g63
NtRp943
(dp944
g66
(dp945
sg75
g826
sg68
(lp946
g61
(g82
g63
NtRp947
(dp948
g66
(dp949
g86
g87
ssg75
g943
sg68
(lp950
S'debugging'
p951
asbag61
(g82
g63
NtRp952
(dp953
g66
(dp954
g93
g94
ssg75
g943
sg68
(lp955
S':'
asbag61
(g82
g63
NtRp956
(dp957
g66
(dp958
sg75
g943
sg68
(lp959
g61
(g62
g63
NtRp960
(dp961
g66
(dp962
g74
I4
ssg75
g956
sg68
(lp963
g104
asbasbasbag61
(g77
g63
NtRp964
(dp965
g66
(dp966
sg75
g826
sg68
(lp967
g61
(g82
g63
NtRp968
(dp969
g66
(dp970
g86
g87
ssg75
g964
sg68
(lp971
S'gluon_parent'
p972
asbag61
(g82
g63
NtRp973
(dp974
g66
(dp975
g93
g94
ssg75
g964
sg68
(lp976
S':'
asbag61
(g82
g63
NtRp977
(dp978
g66
(dp979
sg75
g964
sg68
(lp980
g61
(g62
g63
NtRp981
(dp982
g66
(dp983
g74
I4
ssg75
g977
sg68
(lp984
S'/Users/Truki/web2py'
p985
asbasbasbag61
(g77
g63
NtRp986
(dp987
g66
(dp988
sg75
g826
sg68
(lp989
g61
(g82
g63
NtRp990
(dp991
g66
(dp992
g86
g87
ssg75
g986
sg68
(lp993
S'http_accept'
p994
asbag61
(g82
g63
NtRp995
(dp996
g66
(dp997
g93
g94
ssg75
g986
sg68
(lp998
S':'
asbag61
(g82
g63
NtRp999
(dp1000
g66
(dp1001
sg75
g986
sg68
(lp1002
g61
(g62
g63
NtRp1003
(dp1004
g66
(dp1005
g74
I4
ssg75
g999
sg68
(lp1006
S'application/xml,application/xhtml+xml,text/html;q=0.9,text/plain;q=0.8,image/png,*/*;q=0.5'
p1007
asbasbasbag61
(g77
g63
NtRp1008
(dp1009
g66
(dp1010
sg75
g826
sg68
(lp1011
g61
(g82
g63
NtRp1012
(dp1013
g66
(dp1014
g86
g87
ssg75
g1008
sg68
(lp1015
S'http_accept_encoding'
p1016
asbag61
(g82
g63
NtRp1017
(dp1018
g66
(dp1019
g93
g94
ssg75
g1008
sg68
(lp1020
S':'
asbag61
(g82
g63
NtRp1021
(dp1022
g66
(dp1023
sg75
g1008
sg68
(lp1024
g61
(g62
g63
NtRp1025
(dp1026
g66
(dp1027
g74
I4
ssg75
g1021
sg68
(lp1028
S'gzip, deflate'
p1029
asbasbasbag61
(g77
g63
NtRp1030
(dp1031
g66
(dp1032
sg75
g826
sg68
(lp1033
g61
(g82
g63
NtRp1034
(dp1035
g66
(dp1036
g86
g87
ssg75
g1030
sg68
(lp1037
S'http_accept_language'
p1038
asbag61
(g82
g63
NtRp1039
(dp1040
g66
(dp1041
g93
g94
ssg75
g1030
sg68
(lp1042
S':'
asbag61
(g82
g63
NtRp1043
(dp1044
g66
(dp1045
sg75
g1030
sg68
(lp1046
g61
(g62
g63
NtRp1047
(dp1048
g66
(dp1049
g74
I4
ssg75
g1043
sg68
(lp1050
S'es-es'
p1051
asbasbasbag61
(g77
g63
NtRp1052
(dp1053
g66
(dp1054
sg75
g826
sg68
(lp1055
g61
(g82
g63
NtRp1056
(dp1057
g66
(dp1058
g86
g87
ssg75
g1052
sg68
(lp1059
S'http_connection'
p1060
asbag61
(g82
g63
NtRp1061
(dp1062
g66
(dp1063
g93
g94
ssg75
g1052
sg68
(lp1064
S':'
asbag61
(g82
g63
NtRp1065
(dp1066
g66
(dp1067
sg75
g1052
sg68
(lp1068
g61
(g62
g63
NtRp1069
(dp1070
g66
(dp1071
g74
I4
ssg75
g1065
sg68
(lp1072
S'keep-alive'
p1073
asbasbasbag61
(g77
g63
NtRp1074
(dp1075
g66
(dp1076
sg75
g826
sg68
(lp1077
g61
(g82
g63
NtRp1078
(dp1079
g66
(dp1080
g86
g87
ssg75
g1074
sg68
(lp1081
S'http_cookie'
p1082
asbag61
(g82
g63
NtRp1083
(dp1084
g66
(dp1085
g93
g94
ssg75
g1074
sg68
(lp1086
S':'
asbag61
(g82
g63
NtRp1087
(dp1088
g66
(dp1089
sg75
g1074
sg68
(lp1090
g61
(g62
g63
NtRp1091
(dp1092
g66
(dp1093
g74
I4
ssg75
g1087
sg68
(lp1094
S'session_id_admin=127.0.0.1-cf408ac2-cc93-41b7-ba87-453db6374b29; session_id_welcome=127.0.0.1-995ca749-739e-43ed-a8c9-eac62c92a042; session_id_rosan=127.0.0.1-f5b99895-863e-49d9-a69a-97daa70ccd03'
p1095
asbasbasbag61
(g77
g63
NtRp1096
(dp1097
g66
(dp1098
sg75
g826
sg68
(lp1099
g61
(g82
g63
NtRp1100
(dp1101
g66
(dp1102
g86
g87
ssg75
g1096
sg68
(lp1103
S'http_host'
p1104
asbag61
(g82
g63
NtRp1105
(dp1106
g66
(dp1107
g93
g94
ssg75
g1096
sg68
(lp1108
S':'
asbag61
(g82
g63
NtRp1109
(dp1110
g66
(dp1111
sg75
g1096
sg68
(lp1112
g61
(g62
g63
NtRp1113
(dp1114
g66
(dp1115
g74
I4
ssg75
g1109
sg68
(lp1116
S'127.0.0.1:8000'
p1117
asbasbasbag61
(g77
g63
NtRp1118
(dp1119
g66
(dp1120
sg75
g826
sg68
(lp1121
g61
(g82
g63
NtRp1122
(dp1123
g66
(dp1124
g86
g87
ssg75
g1118
sg68
(lp1125
S'http_referer'
p1126
asbag61
(g82
g63
NtRp1127
(dp1128
g66
(dp1129
g93
g94
ssg75
g1118
sg68
(lp1130
S':'
asbag61
(g82
g63
NtRp1131
(dp1132
g66
(dp1133
sg75
g1118
sg68
(lp1134
g61
(g62
g63
NtRp1135
(dp1136
g66
(dp1137
g74
I4
ssg75
g1131
sg68
(lp1138
S'http://127.0.0.1:8000/admin/default/design/rosan'
p1139
asbasbasbag61
(g77
g63
NtRp1140
(dp1141
g66
(dp1142
sg75
g826
sg68
(lp1143
g61
(g82
g63
NtRp1144
(dp1145
g66
(dp1146
g86
g87
ssg75
g1140
sg68
(lp1147
S'http_user_agent'
p1148
asbag61
(g82
g63
NtRp1149
(dp1150
g66
(dp1151
g93
g94
ssg75
g1140
sg68
(lp1152
S':'
asbag61
(g82
g63
NtRp1153
(dp1154
g66
(dp1155
sg75
g1140
sg68
(lp1156
g61
(g62
g63
NtRp1157
(dp1158
g66
(dp1159
g74
I4
ssg75
g1153
sg68
(lp1160
S'Mozilla/5.0 (Macintosh; U; Intel Mac OS X 10_6_6; es-es) AppleWebKit/533.19.4 (KHTML, like Gecko) Version/5.0.3 Safari/533.19.4'
p1161
asbasbasbag61
(g77
g63
NtRp1162
(dp1163
g66
(dp1164
sg75
g826
sg68
(lp1165
g61
(g82
g63
NtRp1166
(dp1167
g66
(dp1168
g86
g87
ssg75
g1162
sg68
(lp1169
S'is_jython'
p1170
asbag61
(g82
g63
NtRp1171
(dp1172
g66
(dp1173
g93
g94
ssg75
g1162
sg68
(lp1174
S':'
asbag61
(g82
g63
NtRp1175
(dp1176
g66
(dp1177
sg75
g1162
sg68
(lp1178
g61
(g62
g63
NtRp1179
(dp1180
g66
(dp1181
g74
I4
ssg75
g1175
sg68
(lp1182
g104
asbasbasbag61
(g77
g63
NtRp1183
(dp1184
g66
(dp1185
sg75
g826
sg68
(lp1186
g61
(g82
g63
NtRp1187
(dp1188
g66
(dp1189
g86
g87
ssg75
g1183
sg68
(lp1190
S'is_pypy'
p1191
asbag61
(g82
g63
NtRp1192
(dp1193
g66
(dp1194
g93
g94
ssg75
g1183
sg68
(lp1195
S':'
asbag61
(g82
g63
NtRp1196
(dp1197
g66
(dp1198
sg75
g1183
sg68
(lp1199
g61
(g62
g63
NtRp1200
(dp1201
g66
(dp1202
g74
I4
ssg75
g1196
sg68
(lp1203
g104
asbasbasbag61
(g77
g63
NtRp1204
(dp1205
g66
(dp1206
sg75
g826
sg68
(lp1207
g61
(g82
g63
NtRp1208
(dp1209
g66
(dp1210
g86
g87
ssg75
g1204
sg68
(lp1211
S'path_info'
p1212
asbag61
(g82
g63
NtRp1213
(dp1214
g66
(dp1215
g93
g94
ssg75
g1204
sg68
(lp1216
S':'
asbag61
(g82
g63
NtRp1217
(dp1218
g66
(dp1219
sg75
g1204
sg68
(lp1220
g61
(g62
g63
NtRp1221
(dp1222
g66
(dp1223
g74
I4
ssg75
g1217
sg68
(lp1224
S'/rosan/appadmin/index'
p1225
asbasbasbag61
(g77
g63
NtRp1226
(dp1227
g66
(dp1228
sg75
g826
sg68
(lp1229
g61
(g82
g63
NtRp1230
(dp1231
g66
(dp1232
g86
g87
ssg75
g1226
sg68
(lp1233
S'query_string'
p1234
asbag61
(g82
g63
NtRp1235
(dp1236
g66
(dp1237
g93
g94
ssg75
g1226
sg68
(lp1238
S':'
asbag61
(g82
g63
NtRp1239
(dp1240
g66
(dp1241
sg75
g1226
sg68
(lp1242
g61
(g62
g63
NtRp1243
(dp1244
g66
(dp1245
g74
I4
ssg75
g1239
sg68
(lp1246
S''
asbasbasbag61
(g77
g63
NtRp1247
(dp1248
g66
(dp1249
sg75
g826
sg68
(lp1250
g61
(g82
g63
NtRp1251
(dp1252
g66
(dp1253
g86
g87
ssg75
g1247
sg68
(lp1254
S'remote_addr'
p1255
asbag61
(g82
g63
NtRp1256
(dp1257
g66
(dp1258
g93
g94
ssg75
g1247
sg68
(lp1259
S':'
asbag61
(g82
g63
NtRp1260
(dp1261
g66
(dp1262
sg75
g1247
sg68
(lp1263
g61
(g62
g63
NtRp1264
(dp1265
g66
(dp1266
g74
I4
ssg75
g1260
sg68
(lp1267
g194
asbasbasbag61
(g77
g63
NtRp1268
(dp1269
g66
(dp1270
sg75
g826
sg68
(lp1271
g61
(g82
g63
NtRp1272
(dp1273
g66
(dp1274
g86
g87
ssg75
g1268
sg68
(lp1275
S'remote_port'
p1276
asbag61
(g82
g63
NtRp1277
(dp1278
g66
(dp1279
g93
g94
ssg75
g1268
sg68
(lp1280
S':'
asbag61
(g82
g63
NtRp1281
(dp1282
g66
(dp1283
sg75
g1268
sg68
(lp1284
g61
(g62
g63
NtRp1285
(dp1286
g66
(dp1287
g74
I4
ssg75
g1281
sg68
(lp1288
S'49181'
p1289
asbasbasbag61
(g77
g63
NtRp1290
(dp1291
g66
(dp1292
sg75
g826
sg68
(lp1293
g61
(g82
g63
NtRp1294
(dp1295
g66
(dp1296
g86
g87
ssg75
g1290
sg68
(lp1297
S'request_method'
p1298
asbag61
(g82
g63
NtRp1299
(dp1300
g66
(dp1301
g93
g94
ssg75
g1290
sg68
(lp1302
S':'
asbag61
(g82
g63
NtRp1303
(dp1304
g66
(dp1305
sg75
g1290
sg68
(lp1306
g61
(g62
g63
NtRp1307
(dp1308
g66
(dp1309
g74
I4
ssg75
g1303
sg68
(lp1310
S'GET'
p1311
asbasbasbag61
(g77
g63
NtRp1312
(dp1313
g66
(dp1314
sg75
g826
sg68
(lp1315
g61
(g82
g63
NtRp1316
(dp1317
g66
(dp1318
g86
g87
ssg75
g1312
sg68
(lp1319
S'script_name'
p1320
asbag61
(g82
g63
NtRp1321
(dp1322
g66
(dp1323
g93
g94
ssg75
g1312
sg68
(lp1324
S':'
asbag61
(g82
g63
NtRp1325
(dp1326
g66
(dp1327
sg75
g1312
sg68
(lp1328
g61
(g62
g63
NtRp1329
(dp1330
g66
(dp1331
g74
I4
ssg75
g1325
sg68
(lp1332
S''
asbasbasbag61
(g77
g63
NtRp1333
(dp1334
g66
(dp1335
sg75
g826
sg68
(lp1336
g61
(g82
g63
NtRp1337
(dp1338
g66
(dp1339
g86
g87
ssg75
g1333
sg68
(lp1340
S'server_name'
p1341
asbag61
(g82
g63
NtRp1342
(dp1343
g66
(dp1344
g93
g94
ssg75
g1333
sg68
(lp1345
S':'
asbag61
(g82
g63
NtRp1346
(dp1347
g66
(dp1348
sg75
g1333
sg68
(lp1349
g61
(g62
g63
NtRp1350
(dp1351
g66
(dp1352
g74
I4
ssg75
g1346
sg68
(lp1353
S'MBT.local'
p1354
asbasbasbag61
(g77
g63
NtRp1355
(dp1356
g66
(dp1357
sg75
g826
sg68
(lp1358
g61
(g82
g63
NtRp1359
(dp1360
g66
(dp1361
g86
g87
ssg75
g1355
sg68
(lp1362
S'server_port'
p1363
asbag61
(g82
g63
NtRp1364
(dp1365
g66
(dp1366
g93
g94
ssg75
g1355
sg68
(lp1367
S':'
asbag61
(g82
g63
NtRp1368
(dp1369
g66
(dp1370
sg75
g1355
sg68
(lp1371
g61
(g62
g63
NtRp1372
(dp1373
g66
(dp1374
g74
I4
ssg75
g1368
sg68
(lp1375
S'8000'
p1376
asbasbasbag61
(g77
g63
NtRp1377
(dp1378
g66
(dp1379
sg75
g826
sg68
(lp1380
g61
(g82
g63
NtRp1381
(dp1382
g66
(dp1383
g86
g87
ssg75
g1377
sg68
(lp1384
S'server_protocol'
p1385
asbag61
(g82
g63
NtRp1386
(dp1387
g66
(dp1388
g93
g94
ssg75
g1377
sg68
(lp1389
S':'
asbag61
(g82
g63
NtRp1390
(dp1391
g66
(dp1392
sg75
g1377
sg68
(lp1393
g61
(g62
g63
NtRp1394
(dp1395
g66
(dp1396
g74
I4
ssg75
g1390
sg68
(lp1397
S'HTTP/1.1'
p1398
asbasbasbag61
(g77
g63
NtRp1399
(dp1400
g66
(dp1401
sg75
g826
sg68
(lp1402
g61
(g82
g63
NtRp1403
(dp1404
g66
(dp1405
g86
g87
ssg75
g1399
sg68
(lp1406
S'server_software'
p1407
asbag61
(g82
g63
NtRp1408
(dp1409
g66
(dp1410
g93
g94
ssg75
g1399
sg68
(lp1411
S':'
asbag61
(g82
g63
NtRp1412
(dp1413
g66
(dp1414
sg75
g1399
sg68
(lp1415
g61
(g62
g63
NtRp1416
(dp1417
g66
(dp1418
g74
I4
ssg75
g1412
sg68
(lp1419
S'Rocket 1.2.4'
p1420
asbasbasbag61
(g77
g63
NtRp1421
(dp1422
g66
(dp1423
sg75
g826
sg68
(lp1424
g61
(g82
g63
NtRp1425
(dp1426
g66
(dp1427
g86
g87
ssg75
g1421
sg68
(lp1428
S'web2py_crontype'
p1429
asbag61
(g82
g63
NtRp1430
(dp1431
g66
(dp1432
g93
g94
ssg75
g1421
sg68
(lp1433
S':'
asbag61
(g82
g63
NtRp1434
(dp1435
g66
(dp1436
sg75
g1421
sg68
(lp1437
g61
(g62
g63
NtRp1438
(dp1439
g66
(dp1440
g74
I4
ssg75
g1434
sg68
(lp1441
S'hard'
p1442
asbasbasbag61
(g77
g63
NtRp1443
(dp1444
g66
(dp1445
sg75
g826
sg68
(lp1446
g61
(g82
g63
NtRp1447
(dp1448
g66
(dp1449
g86
g87
ssg75
g1443
sg68
(lp1450
S'web2py_path'
p1451
asbag61
(g82
g63
NtRp1452
(dp1453
g66
(dp1454
g93
g94
ssg75
g1443
sg68
(lp1455
S':'
asbag61
(g82
g63
NtRp1456
(dp1457
g66
(dp1458
sg75
g1443
sg68
(lp1459
g61
(g62
g63
NtRp1460
(dp1461
g66
(dp1462
g74
I4
ssg75
g1456
sg68
(lp1463
g873
asbasbasbag61
(g77
g63
NtRp1464
(dp1465
g66
(dp1466
sg75
g826
sg68
(lp1467
g61
(g82
g63
NtRp1468
(dp1469
g66
(dp1470
g86
g87
ssg75
g1464
sg68
(lp1471
S'web2py_version'
p1472
asbag61
(g82
g63
NtRp1473
(dp1474
g66
(dp1475
g93
g94
ssg75
g1464
sg68
(lp1476
S':'
asbag61
(g82
g63
NtRp1477
(dp1478
g66
(dp1479
sg75
g1464
sg68
(lp1480
g61
(g62
g63
NtRp1481
(dp1482
g66
(dp1483
g74
I4
ssg75
g1477
sg68
(lp1484
g61
(g70
g63
NtRp1485
(dp1486
g66
(dp1487
g74
I3
ssg75
Nsg68
(lp1488
g61
(g77
g63
NtRp1489
(dp1490
g66
(dp1491
sg75
g1485
sg68
(lp1492
g61
(g82
g63
NtRp1493
(dp1494
g66
(dp1495
sg75
g1489
sg68
(lp1496
g61
(g62
g63
NtRp1497
(dp1498
g66
(dp1499
g74
I3
ssg75
g1493
sg68
(lp1500
S'1'
asbasbasbag61
(g77
g63
NtRp1501
(dp1502
g66
(dp1503
sg75
g1485
sg68
(lp1504
g61
(g82
g63
NtRp1505
(dp1506
g66
(dp1507
sg75
g1501
sg68
(lp1508
g61
(g62
g63
NtRp1509
(dp1510
g66
(dp1511
g74
I3
ssg75
g1505
sg68
(lp1512
S'99'
p1513
asbasbasbag61
(g77
g63
NtRp1514
(dp1515
g66
(dp1516
sg75
g1485
sg68
(lp1517
g61
(g82
g63
NtRp1518
(dp1519
g66
(dp1520
sg75
g1514
sg68
(lp1521
g61
(g62
g63
NtRp1522
(dp1523
g66
(dp1524
g74
I3
ssg75
g1518
sg68
(lp1525
S'7'
asbasbasbag61
(g77
g63
NtRp1526
(dp1527
g66
(dp1528
sg75
g1485
sg68
(lp1529
g61
(g82
g63
NtRp1530
(dp1531
g66
(dp1532
sg75
g1526
sg68
(lp1533
g61
(g62
g63
NtRp1534
(dp1535
g66
(dp1536
g74
I3
ssg75
g1530
sg68
(lp1537
S'datetime.datetime(2012, 3, 4, 22, 12, 8)'
p1538
asbasbasbag61
(g77
g63
NtRp1539
(dp1540
g66
(dp1541
sg75
g1485
sg68
(lp1542
g61
(g82
g63
NtRp1543
(dp1544
g66
(dp1545
sg75
g1539
sg68
(lp1546
g61
(g62
g63
NtRp1547
(dp1548
g66
(dp1549
g74
I3
ssg75
g1543
sg68
(lp1550
S'stable'
p1551
asbasbasbasbasbasbasbag61
(g77
g63
NtRp1552
(dp1553
g66
(dp1554
sg75
g826
sg68
(lp1555
g61
(g82
g63
NtRp1556
(dp1557
g66
(dp1558
g86
g87
ssg75
g1552
sg68
(lp1559
S'wsgi_errors'
p1560
asbag61
(g82
g63
NtRp1561
(dp1562
g66
(dp1563
g93
g94
ssg75
g1552
sg68
(lp1564
S':'
asbag61
(g82
g63
NtRp1565
(dp1566
g66
(dp1567
sg75
g1552
sg68
(lp1568
g61
(g62
g63
NtRp1569
(dp1570
g66
(dp1571
g74
I4
ssg75
g1565
sg68
(lp1572
S"<open file '<stderr>', mode 'w' at 0x25a0d0>"
p1573
asbasbasbag61
(g77
g63
NtRp1574
(dp1575
g66
(dp1576
sg75
g826
sg68
(lp1577
g61
(g82
g63
NtRp1578
(dp1579
g66
(dp1580
g86
g87
ssg75
g1574
sg68
(lp1581
S'wsgi_file_wrapper'
p1582
asbag61
(g82
g63
NtRp1583
(dp1584
g66
(dp1585
g93
g94
ssg75
g1574
sg68
(lp1586
S':'
asbag61
(g82
g63
NtRp1587
(dp1588
g66
(dp1589
sg75
g1574
sg68
(lp1590
g61
(g62
g63
NtRp1591
(dp1592
g66
(dp1593
g74
I4
ssg75
g1587
sg68
(lp1594
S'<class wsgiref.util.FileWrapper at 0x15a90a0>'
p1595
asbasbasbag61
(g77
g63
NtRp1596
(dp1597
g66
(dp1598
sg75
g826
sg68
(lp1599
g61
(g82
g63
NtRp1600
(dp1601
g66
(dp1602
g86
g87
ssg75
g1596
sg68
(lp1603
S'wsgi_input'
p1604
asbag61
(g82
g63
NtRp1605
(dp1606
g66
(dp1607
g93
g94
ssg75
g1596
sg68
(lp1608
S':'
asbag61
(g82
g63
NtRp1609
(dp1610
g66
(dp1611
sg75
g1596
sg68
(lp1612
g61
(g62
g63
NtRp1613
(dp1614
g66
(dp1615
g74
I4
ssg75
g1609
sg68
(lp1616
S'<socket._fileobject object at 0x12ad5f70>'
p1617
asbasbasbag61
(g77
g63
NtRp1618
(dp1619
g66
(dp1620
sg75
g826
sg68
(lp1621
g61
(g82
g63
NtRp1622
(dp1623
g66
(dp1624
g86
g87
ssg75
g1618
sg68
(lp1625
S'wsgi_multiprocess'
p1626
asbag61
(g82
g63
NtRp1627
(dp1628
g66
(dp1629
g93
g94
ssg75
g1618
sg68
(lp1630
S':'
asbag61
(g82
g63
NtRp1631
(dp1632
g66
(dp1633
sg75
g1618
sg68
(lp1634
g61
(g62
g63
NtRp1635
(dp1636
g66
(dp1637
g74
I4
ssg75
g1631
sg68
(lp1638
g104
asbasbasbag61
(g77
g63
NtRp1639
(dp1640
g66
(dp1641
sg75
g826
sg68
(lp1642
g61
(g82
g63
NtRp1643
(dp1644
g66
(dp1645
g86
g87
ssg75
g1639
sg68
(lp1646
S'wsgi_multithread'
p1647
asbag61
(g82
g63
NtRp1648
(dp1649
g66
(dp1650
g93
g94
ssg75
g1639
sg68
(lp1651
S':'
asbag61
(g82
g63
NtRp1652
(dp1653
g66
(dp1654
sg75
g1639
sg68
(lp1655
g61
(g62
g63
NtRp1656
(dp1657
g66
(dp1658
g74
I4
ssg75
g1652
sg68
(lp1659
S'True'
p1660
asbasbasbag61
(g77
g63
NtRp1661
(dp1662
g66
(dp1663
sg75
g826
sg68
(lp1664
g61
(g82
g63
NtRp1665
(dp1666
g66
(dp1667
g86
g87
ssg75
g1661
sg68
(lp1668
S'wsgi_run_once'
p1669
asbag61
(g82
g63
NtRp1670
(dp1671
g66
(dp1672
g93
g94
ssg75
g1661
sg68
(lp1673
S':'
asbag61
(g82
g63
NtRp1674
(dp1675
g66
(dp1676
sg75
g1661
sg68
(lp1677
g61
(g62
g63
NtRp1678
(dp1679
g66
(dp1680
g74
I4
ssg75
g1674
sg68
(lp1681
g104
asbasbasbag61
(g77
g63
NtRp1682
(dp1683
g66
(dp1684
sg75
g826
sg68
(lp1685
g61
(g82
g63
NtRp1686
(dp1687
g66
(dp1688
g86
g87
ssg75
g1682
sg68
(lp1689
S'wsgi_url_scheme'
p1690
asbag61
(g82
g63
NtRp1691
(dp1692
g66
(dp1693
g93
g94
ssg75
g1682
sg68
(lp1694
S':'
asbag61
(g82
g63
NtRp1695
(dp1696
g66
(dp1697
sg75
g1682
sg68
(lp1698
g61
(g62
g63
NtRp1699
(dp1700
g66
(dp1701
g74
I4
ssg75
g1695
sg68
(lp1702
S'http'
p1703
asbasbasbag61
(g77
g63
NtRp1704
(dp1705
g66
(dp1706
sg75
g826
sg68
(lp1707
g61
(g82
g63
NtRp1708
(dp1709
g66
(dp1710
g86
g87
ssg75
g1704
sg68
(lp1711
S'wsgi_version'
p1712
asbag61
(g82
g63
NtRp1713
(dp1714
g66
(dp1715
g93
g94
ssg75
g1704
sg68
(lp1716
S':'
asbag61
(g82
g63
NtRp1717
(dp1718
g66
(dp1719
sg75
g1704
sg68
(lp1720
g61
(g62
g63
NtRp1721
(dp1722
g66
(dp1723
g74
I4
ssg75
g1717
sg68
(lp1724
g61
(g70
g63
NtRp1725
(dp1726
g66
(dp1727
g74
I3
ssg75
Nsg68
(lp1728
g61
(g77
g63
NtRp1729
(dp1730
g66
(dp1731
sg75
g1725
sg68
(lp1732
g61
(g82
g63
NtRp1733
(dp1734
g66
(dp1735
sg75
g1729
sg68
(lp1736
g61
(g62
g63
NtRp1737
(dp1738
g66
(dp1739
g74
I3
ssg75
g1733
sg68
(lp1740
S'1'
asbasbasbag61
(g77
g63
NtRp1741
(dp1742
g66
(dp1743
sg75
g1725
sg68
(lp1744
g61
(g82
g63
NtRp1745
(dp1746
g66
(dp1747
sg75
g1741
sg68
(lp1748
g61
(g62
g63
NtRp1749
(dp1750
g66
(dp1751
g74
I3
ssg75
g1745
sg68
(lp1752
S'0'
asbasbasbasbasbasbasbasbasbasbasbag61
(g77
g63
NtRp1753
(dp1754
g66
(dp1755
sg75
g71
sg68
(lp1756
g61
(g82
g63
NtRp1757
(dp1758
g66
(dp1759
g86
g87
ssg75
g1753
sg68
(lp1760
S'extension'
p1761
asbag61
(g82
g63
NtRp1762
(dp1763
g66
(dp1764
g93
g94
ssg75
g1753
sg68
(lp1765
S':'
asbag61
(g82
g63
NtRp1766
(dp1767
g66
(dp1768
sg75
g1753
sg68
(lp1769
g61
(g62
g63
NtRp1770
(dp1771
g66
(dp1772
g74
I5
ssg75
g1766
sg68
(lp1773
S'html'
p1774
asbasbasbag61
(g77
g63
NtRp1775
(dp1776
g66
(dp1777
sg75
g71
sg68
(lp1778
g61
(g82
g63
NtRp1779
(dp1780
g66
(dp1781
g86
g87
ssg75
g1775
sg68
(lp1782
S'folder'
p1783
asbag61
(g82
g63
NtRp1784
(dp1785
g66
(dp1786
g93
g94
ssg75
g1775
sg68
(lp1787
S':'
asbag61
(g82
g63
NtRp1788
(dp1789
g66
(dp1790
sg75
g1775
sg68
(lp1791
g61
(g62
g63
NtRp1792
(dp1793
g66
(dp1794
g74
I5
ssg75
g1788
sg68
(lp1795
S'/Users/Truki/web2py/applications/rosan/'
p1796
asbasbasbag61
(g77
g63
NtRp1797
(dp1798
g66
(dp1799
sg75
g71
sg68
(lp1800
g61
(g82
g63
NtRp1801
(dp1802
g66
(dp1803
g86
g87
ssg75
g1797
sg68
(lp1804
S'function'
p1805
asbag61
(g82
g63
NtRp1806
(dp1807
g66
(dp1808
g93
g94
ssg75
g1797
sg68
(lp1809
S':'
asbag61
(g82
g63
NtRp1810
(dp1811
g66
(dp1812
sg75
g1797
sg68
(lp1813
g61
(g62
g63
NtRp1814
(dp1815
g66
(dp1816
g74
I5
ssg75
g1810
sg68
(lp1817
S'index'
p1818
asbasbasbag61
(g77
g63
NtRp1819
(dp1820
g66
(dp1821
sg75
g71
sg68
(lp1822
g61
(g82
g63
NtRp1823
(dp1824
g66
(dp1825
g86
g87
ssg75
g1819
sg68
(lp1826
S'get_vars'
p1827
asbag61
(g82
g63
NtRp1828
(dp1829
g66
(dp1830
g93
g94
ssg75
g1819
sg68
(lp1831
S':'
asbag61
(g82
g63
NtRp1832
(dp1833
g66
(dp1834
sg75
g1819
sg68
(lp1835
g61
(g62
g63
NtRp1836
(dp1837
g66
(dp1838
g74
I5
ssg75
g1832
sg68
(lp1839
g61
(g70
g63
NtRp1840
(dp1841
g66
(dp1842
g74
I4
ssg75
Nsg68
(lp1843
sbasbasbasbag61
(g77
g63
NtRp1844
(dp1845
g66
(dp1846
sg75
g71
sg68
(lp1847
g61
(g82
g63
NtRp1848
(dp1849
g66
(dp1850
g86
g87
ssg75
g1844
sg68
(lp1851
S'global_settings'
p1852
asbag61
(g82
g63
NtRp1853
(dp1854
g66
(dp1855
g93
g94
ssg75
g1844
sg68
(lp1856
S':'
asbag61
(g82
g63
NtRp1857
(dp1858
g66
(dp1859
sg75
g1844
sg68
(lp1860
g61
(g62
g63
NtRp1861
(dp1862
g66
(dp1863
g74
I5
ssg75
g1857
sg68
(lp1864
g61
(g70
g63
NtRp1865
(dp1866
g66
(dp1867
g74
I4
ssg75
Nsg68
(lp1868
g61
(g77
g63
NtRp1869
(dp1870
g66
(dp1871
sg75
g1865
sg68
(lp1872
g61
(g82
g63
NtRp1873
(dp1874
g66
(dp1875
g86
g87
ssg75
g1869
sg68
(lp1876
g838
asbag61
(g82
g63
NtRp1877
(dp1878
g66
(dp1879
g93
g94
ssg75
g1869
sg68
(lp1880
S':'
asbag61
(g82
g63
NtRp1881
(dp1882
g66
(dp1883
sg75
g1869
sg68
(lp1884
g61
(g62
g63
NtRp1885
(dp1886
g66
(dp1887
g74
I4
ssg75
g1881
sg68
(lp1888
S"set(['/Users/Truki/web2py/applications/welcome/', '/Users/Truki/web2py/applications/admin/', '/Users/Truki/web2py/applications/rosan/'])"
p1889
asbasbasbag61
(g77
g63
NtRp1890
(dp1891
g66
(dp1892
sg75
g1865
sg68
(lp1893
g61
(g82
g63
NtRp1894
(dp1895
g66
(dp1896
g86
g87
ssg75
g1890
sg68
(lp1897
g860
asbag61
(g82
g63
NtRp1898
(dp1899
g66
(dp1900
g93
g94
ssg75
g1890
sg68
(lp1901
S':'
asbag61
(g82
g63
NtRp1902
(dp1903
g66
(dp1904
sg75
g1890
sg68
(lp1905
g61
(g62
g63
NtRp1906
(dp1907
g66
(dp1908
g74
I4
ssg75
g1902
sg68
(lp1909
g873
asbasbasbag61
(g77
g63
NtRp1910
(dp1911
g66
(dp1912
sg75
g1865
sg68
(lp1913
g61
(g82
g63
NtRp1914
(dp1915
g66
(dp1916
g86
g87
ssg75
g1910
sg68
(lp1917
g882
asbag61
(g82
g63
NtRp1918
(dp1919
g66
(dp1920
g93
g94
ssg75
g1910
sg68
(lp1921
S':'
asbag61
(g82
g63
NtRp1922
(dp1923
g66
(dp1924
sg75
g1910
sg68
(lp1925
g61
(g62
g63
NtRp1926
(dp1927
g66
(dp1928
g74
I4
ssg75
g1922
sg68
(lp1929
g61
(g70
g63
NtRp1930
(dp1931
g66
(dp1932
g74
I3
ssg75
Nsg68
(lp1933
sbasbasbasbag61
(g77
g63
NtRp1934
(dp1935
g66
(dp1936
sg75
g1865
sg68
(lp1937
g61
(g82
g63
NtRp1938
(dp1939
g66
(dp1940
g86
g87
ssg75
g1934
sg68
(lp1941
g907
asbag61
(g82
g63
NtRp1942
(dp1943
g66
(dp1944
g93
g94
ssg75
g1934
sg68
(lp1945
S':'
asbag61
(g82
g63
NtRp1946
(dp1947
g66
(dp1948
sg75
g1934
sg68
(lp1949
g61
(g62
g63
NtRp1950
(dp1951
g66
(dp1952
g74
I4
ssg75
g1946
sg68
(lp1953
S"<Values at 0x17598c8: {'verbose': False, 'ip': '127.0.0.1', 'shutdown_timeout': 5, 'taskbar': False, 'nocron': False, 'pid_filename': 'httpserver.pid', 'maxthreads': None, 'softcron': False, 'server_name': 'MBT.local', 'bpython': False, 'nogui': False, 'port': 8000, 'extcron': False, 'debuglevel': 30, 'test': None, 'folder': '/Users/Truki/web2py', 'config': '', 'import_models': False, 'winservice': '', 'shell': None, 'run': '', 'log_filename': 'httpserver.log', 'args': [''], 'socket_timeout': 5, 'ssl_ca_certificate': None, 'scheduler': None, 'profiler_filename': None, 'ssl_private_key': '', 'password': '<ask>', 'request_queue_size': 5, 'ssl_certificate': '', 'cronjob': False, 'numthreads': None, 'quiet': False, 'interfaces': None, 'minthreads': None, 'timeout': 10, 'plain': False, 'nobanner': False}>"
p1954
asbasbasbag61
(g77
g63
NtRp1955
(dp1956
g66
(dp1957
sg75
g1865
sg68
(lp1958
g61
(g82
g63
NtRp1959
(dp1960
g66
(dp1961
g86
g87
ssg75
g1955
sg68
(lp1962
g929
asbag61
(g82
g63
NtRp1963
(dp1964
g66
(dp1965
g93
g94
ssg75
g1955
sg68
(lp1966
S':'
asbag61
(g82
g63
NtRp1967
(dp1968
g66
(dp1969
sg75
g1955
sg68
(lp1970
g61
(g62
g63
NtRp1971
(dp1972
g66
(dp1973
g74
I4
ssg75
g1967
sg68
(lp1974
S'set([])'
p1975
asbasbasbag61
(g77
g63
NtRp1976
(dp1977
g66
(dp1978
sg75
g1865
sg68
(lp1979
g61
(g82
g63
NtRp1980
(dp1981
g66
(dp1982
g86
g87
ssg75
g1976
sg68
(lp1983
g951
asbag61
(g82
g63
NtRp1984
(dp1985
g66
(dp1986
g93
g94
ssg75
g1976
sg68
(lp1987
S':'
asbag61
(g82
g63
NtRp1988
(dp1989
g66
(dp1990
sg75
g1976
sg68
(lp1991
g61
(g62
g63
NtRp1992
(dp1993
g66
(dp1994
g74
I4
ssg75
g1988
sg68
(lp1995
g104
asbasbasbag61
(g77
g63
NtRp1996
(dp1997
g66
(dp1998
sg75
g1865
sg68
(lp1999
g61
(g82
g63
NtRp2000
(dp2001
g66
(dp2002
g86
g87
ssg75
g1996
sg68
(lp2003
g972
asbag61
(g82
g63
NtRp2004
(dp2005
g66
(dp2006
g93
g94
ssg75
g1996
sg68
(lp2007
S':'
asbag61
(g82
g63
NtRp2008
(dp2009
g66
(dp2010
sg75
g1996
sg68
(lp2011
g61
(g62
g63
NtRp2012
(dp2013
g66
(dp2014
g74
I4
ssg75
g2008
sg68
(lp2015
g985
asbasbasbag61
(g77
g63
NtRp2016
(dp2017
g66
(dp2018
sg75
g1865
sg68
(lp2019
g61
(g82
g63
NtRp2020
(dp2021
g66
(dp2022
g86
g87
ssg75
g2016
sg68
(lp2023
g1170
asbag61
(g82
g63
NtRp2024
(dp2025
g66
(dp2026
g93
g94
ssg75
g2016
sg68
(lp2027
S':'
asbag61
(g82
g63
NtRp2028
(dp2029
g66
(dp2030
sg75
g2016
sg68
(lp2031
g61
(g62
g63
NtRp2032
(dp2033
g66
(dp2034
g74
I4
ssg75
g2028
sg68
(lp2035
g104
asbasbasbag61
(g77
g63
NtRp2036
(dp2037
g66
(dp2038
sg75
g1865
sg68
(lp2039
g61
(g82
g63
NtRp2040
(dp2041
g66
(dp2042
g86
g87
ssg75
g2036
sg68
(lp2043
g1191
asbag61
(g82
g63
NtRp2044
(dp2045
g66
(dp2046
g93
g94
ssg75
g2036
sg68
(lp2047
S':'
asbag61
(g82
g63
NtRp2048
(dp2049
g66
(dp2050
sg75
g2036
sg68
(lp2051
g61
(g62
g63
NtRp2052
(dp2053
g66
(dp2054
g74
I4
ssg75
g2048
sg68
(lp2055
g104
asbasbasbag61
(g77
g63
NtRp2056
(dp2057
g66
(dp2058
sg75
g1865
sg68
(lp2059
g61
(g82
g63
NtRp2060
(dp2061
g66
(dp2062
g86
g87
ssg75
g2056
sg68
(lp2063
g1429
asbag61
(g82
g63
NtRp2064
(dp2065
g66
(dp2066
g93
g94
ssg75
g2056
sg68
(lp2067
S':'
asbag61
(g82
g63
NtRp2068
(dp2069
g66
(dp2070
sg75
g2056
sg68
(lp2071
g61
(g62
g63
NtRp2072
(dp2073
g66
(dp2074
g74
I4
ssg75
g2068
sg68
(lp2075
g1442
asbasbasbag61
(g77
g63
NtRp2076
(dp2077
g66
(dp2078
sg75
g1865
sg68
(lp2079
g61
(g82
g63
NtRp2080
(dp2081
g66
(dp2082
g86
g87
ssg75
g2076
sg68
(lp2083
g1472
asbag61
(g82
g63
NtRp2084
(dp2085
g66
(dp2086
g93
g94
ssg75
g2076
sg68
(lp2087
S':'
asbag61
(g82
g63
NtRp2088
(dp2089
g66
(dp2090
sg75
g2076
sg68
(lp2091
g61
(g62
g63
NtRp2092
(dp2093
g66
(dp2094
g74
I4
ssg75
g2088
sg68
(lp2095
g61
(g70
g63
NtRp2096
(dp2097
g66
(dp2098
g74
I3
ssg75
Nsg68
(lp2099
g61
(g77
g63
NtRp2100
(dp2101
g66
(dp2102
sg75
g2096
sg68
(lp2103
g61
(g82
g63
NtRp2104
(dp2105
g66
(dp2106
sg75
g2100
sg68
(lp2107
g61
(g62
g63
NtRp2108
(dp2109
g66
(dp2110
g74
I3
ssg75
g2104
sg68
(lp2111
S'1'
asbasbasbag61
(g77
g63
NtRp2112
(dp2113
g66
(dp2114
sg75
g2096
sg68
(lp2115
g61
(g82
g63
NtRp2116
(dp2117
g66
(dp2118
sg75
g2112
sg68
(lp2119
g61
(g62
g63
NtRp2120
(dp2121
g66
(dp2122
g74
I3
ssg75
g2116
sg68
(lp2123
S'99'
p2124
asbasbasbag61
(g77
g63
NtRp2125
(dp2126
g66
(dp2127
sg75
g2096
sg68
(lp2128
g61
(g82
g63
NtRp2129
(dp2130
g66
(dp2131
sg75
g2125
sg68
(lp2132
g61
(g62
g63
NtRp2133
(dp2134
g66
(dp2135
g74
I3
ssg75
g2129
sg68
(lp2136
S'7'
asbasbasbag61
(g77
g63
NtRp2137
(dp2138
g66
(dp2139
sg75
g2096
sg68
(lp2140
g61
(g82
g63
NtRp2141
(dp2142
g66
(dp2143
sg75
g2137
sg68
(lp2144
g61
(g62
g63
NtRp2145
(dp2146
g66
(dp2147
g74
I3
ssg75
g2141
sg68
(lp2148
S'datetime.datetime(2012, 3, 4, 22, 12, 8)'
p2149
asbasbasbag61
(g77
g63
NtRp2150
(dp2151
g66
(dp2152
sg75
g2096
sg68
(lp2153
g61
(g82
g63
NtRp2154
(dp2155
g66
(dp2156
sg75
g2150
sg68
(lp2157
g61
(g62
g63
NtRp2158
(dp2159
g66
(dp2160
g74
I3
ssg75
g2154
sg68
(lp2161
g1551
asbasbasbasbasbasbasbasbasbasbasbag61
(g77
g63
NtRp2162
(dp2163
g66
(dp2164
sg75
g71
sg68
(lp2165
g61
(g82
g63
NtRp2166
(dp2167
g66
(dp2168
g86
g87
ssg75
g2162
sg68
(lp2169
S'is_https'
p2170
asbag61
(g82
g63
NtRp2171
(dp2172
g66
(dp2173
g93
g94
ssg75
g2162
sg68
(lp2174
S':'
asbag61
(g82
g63
NtRp2175
(dp2176
g66
(dp2177
sg75
g2162
sg68
(lp2178
g61
(g62
g63
NtRp2179
(dp2180
g66
(dp2181
g74
I5
ssg75
g2175
sg68
(lp2182
g104
asbasbasbag61
(g77
g63
NtRp2183
(dp2184
g66
(dp2185
sg75
g71
sg68
(lp2186
g61
(g82
g63
NtRp2187
(dp2188
g66
(dp2189
g86
g87
ssg75
g2183
sg68
(lp2190
S'is_local'
p2191
asbag61
(g82
g63
NtRp2192
(dp2193
g66
(dp2194
g93
g94
ssg75
g2183
sg68
(lp2195
S':'
asbag61
(g82
g63
NtRp2196
(dp2197
g66
(dp2198
sg75
g2183
sg68
(lp2199
g61
(g62
g63
NtRp2200
(dp2201
g66
(dp2202
g74
I5
ssg75
g2196
sg68
(lp2203
g1660
asbasbasbag61
(g77
g63
NtRp2204
(dp2205
g66
(dp2206
sg75
g71
sg68
(lp2207
g61
(g82
g63
NtRp2208
(dp2209
g66
(dp2210
g86
g87
ssg75
g2204
sg68
(lp2211
S'is_restful'
p2212
asbag61
(g82
g63
NtRp2213
(dp2214
g66
(dp2215
g93
g94
ssg75
g2204
sg68
(lp2216
S':'
asbag61
(g82
g63
NtRp2217
(dp2218
g66
(dp2219
sg75
g2204
sg68
(lp2220
g61
(g62
g63
NtRp2221
(dp2222
g66
(dp2223
g74
I5
ssg75
g2217
sg68
(lp2224
g104
asbasbasbag61
(g77
g63
NtRp2225
(dp2226
g66
(dp2227
sg75
g71
sg68
(lp2228
g61
(g82
g63
NtRp2229
(dp2230
g66
(dp2231
g86
g87
ssg75
g2225
sg68
(lp2232
S'now'
p2233
asbag61
(g82
g63
NtRp2234
(dp2235
g66
(dp2236
g93
g94
ssg75
g2225
sg68
(lp2237
S':'
asbag61
(g82
g63
NtRp2238
(dp2239
g66
(dp2240
sg75
g2225
sg68
(lp2241
g61
(g62
g63
NtRp2242
(dp2243
g66
(dp2244
g74
I5
ssg75
g2238
sg68
(lp2245
S'datetime.datetime(2012, 11, 6, 15, 30, 13, 234355)'
p2246
asbasbasbag61
(g77
g63
NtRp2247
(dp2248
g66
(dp2249
sg75
g71
sg68
(lp2250
g61
(g82
g63
NtRp2251
(dp2252
g66
(dp2253
g86
g87
ssg75
g2247
sg68
(lp2254
S'post_vars'
p2255
asbag61
(g82
g63
NtRp2256
(dp2257
g66
(dp2258
g93
g94
ssg75
g2247
sg68
(lp2259
S':'
asbag61
(g82
g63
NtRp2260
(dp2261
g66
(dp2262
sg75
g2247
sg68
(lp2263
g61
(g62
g63
NtRp2264
(dp2265
g66
(dp2266
g74
I5
ssg75
g2260
sg68
(lp2267
g61
(g70
g63
NtRp2268
(dp2269
g66
(dp2270
g74
I4
ssg75
Nsg68
(lp2271
sbasbasbasbag61
(g77
g63
NtRp2272
(dp2273
g66
(dp2274
sg75
g71
sg68
(lp2275
g61
(g82
g63
NtRp2276
(dp2277
g66
(dp2278
g86
g87
ssg75
g2272
sg68
(lp2279
S'url'
p2280
asbag61
(g82
g63
NtRp2281
(dp2282
g66
(dp2283
g93
g94
ssg75
g2272
sg68
(lp2284
S':'
asbag61
(g82
g63
NtRp2285
(dp2286
g66
(dp2287
sg75
g2272
sg68
(lp2288
g61
(g62
g63
NtRp2289
(dp2290
g66
(dp2291
g74
I5
ssg75
g2285
sg68
(lp2292
S'/rosan/appadmin/index'
p2293
asbasbasbag61
(g77
g63
NtRp2294
(dp2295
g66
(dp2296
sg75
g71
sg68
(lp2297
g61
(g82
g63
NtRp2298
(dp2299
g66
(dp2300
g86
g87
ssg75
g2294
sg68
(lp2301
S'utcnow'
p2302
asbag61
(g82
g63
NtRp2303
(dp2304
g66
(dp2305
g93
g94
ssg75
g2294
sg68
(lp2306
S':'
asbag61
(g82
g63
NtRp2307
(dp2308
g66
(dp2309
sg75
g2294
sg68
(lp2310
g61
(g62
g63
NtRp2311
(dp2312
g66
(dp2313
g74
I5
ssg75
g2307
sg68
(lp2314
S'datetime.datetime(2012, 11, 6, 14, 30, 13, 234372)'
p2315
asbasbasbag61
(g77
g63
NtRp2316
(dp2317
g66
(dp2318
sg75
g71
sg68
(lp2319
g61
(g82
g63
NtRp2320
(dp2321
g66
(dp2322
g86
g87
ssg75
g2316
sg68
(lp2323
S'uuid'
p2324
asbag61
(g82
g63
NtRp2325
(dp2326
g66
(dp2327
g93
g94
ssg75
g2316
sg68
(lp2328
S':'
asbag61
(g82
g63
NtRp2329
(dp2330
g66
(dp2331
sg75
g2316
sg68
(lp2332
g61
(g62
g63
NtRp2333
(dp2334
g66
(dp2335
g74
I5
ssg75
g2329
sg68
(lp2336
S'rosan/127.0.0.1.2012-11-06.15-30-13.52c33d2d-b4f0-4c94-ba18-3cd23ab18bbf'
p2337
asbasbasbag61
(g77
g63
NtRp2338
(dp2339
g66
(dp2340
sg75
g71
sg68
(lp2341
g61
(g82
g63
NtRp2342
(dp2343
g66
(dp2344
g86
g87
ssg75
g2338
sg68
(lp2345
S'vars'
p2346
asbag61
(g82
g63
NtRp2347
(dp2348
g66
(dp2349
g93
g94
ssg75
g2338
sg68
(lp2350
S':'
asbag61
(g82
g63
NtRp2351
(dp2352
g66
(dp2353
sg75
g2338
sg68
(lp2354
g61
(g62
g63
NtRp2355
(dp2356
g66
(dp2357
g74
I5
ssg75
g2351
sg68
(lp2358
g61
(g70
g63
NtRp2359
(dp2360
g66
(dp2361
g74
I4
ssg75
Nsg68
(lp2362
sbasbasbasbag61
(g77
g63
NtRp2363
(dp2364
g66
(dp2365
sg75
g71
sg68
(lp2366
g61
(g82
g63
NtRp2367
(dp2368
g66
(dp2369
g86
g87
ssg75
g2363
sg68
(lp2370
S'wsgi'
p2371
asbag61
(g82
g63
NtRp2372
(dp2373
g66
(dp2374
g93
g94
ssg75
g2363
sg68
(lp2375
S':'
asbag61
(g82
g63
NtRp2376
(dp2377
g66
(dp2378
sg75
g2363
sg68
(lp2379
g61
(g62
g63
NtRp2380
(dp2381
g66
(dp2382
g74
I5
ssg75
g2376
sg68
(lp2383
g61
(g70
g63
NtRp2384
(dp2385
g66
(dp2386
g74
I4
ssg75
Nsg68
(lp2387
g61
(g77
g63
NtRp2388
(dp2389
g66
(dp2390
sg75
g2384
sg68
(lp2391
g61
(g82
g63
NtRp2392
(dp2393
g66
(dp2394
g86
g87
ssg75
g2388
sg68
(lp2395
S'environ'
p2396
asbag61
(g82
g63
NtRp2397
(dp2398
g66
(dp2399
g93
g94
ssg75
g2388
sg68
(lp2400
S':'
asbag61
(g82
g63
NtRp2401
(dp2402
g66
(dp2403
sg75
g2388
sg68
(lp2404
g61
(g62
g63
NtRp2405
(dp2406
g66
(dp2407
g74
I4
ssg75
g2401
sg68
(lp2408
g61
(g70
g63
NtRp2409
(dp2410
g66
(dp2411
g74
I3
ssg75
Nsg68
(lp2412
g61
(g77
g63
NtRp2413
(dp2414
g66
(dp2415
sg75
g2409
sg68
(lp2416
g61
(g82
g63
NtRp2417
(dp2418
g66
(dp2419
g86
g87
ssg75
g2413
sg68
(lp2420
S'HTTP_ACCEPT'
p2421
asbag61
(g82
g63
NtRp2422
(dp2423
g66
(dp2424
g93
g94
ssg75
g2413
sg68
(lp2425
S':'
asbag61
(g82
g63
NtRp2426
(dp2427
g66
(dp2428
sg75
g2413
sg68
(lp2429
g61
(g62
g63
NtRp2430
(dp2431
g66
(dp2432
g74
I3
ssg75
g2426
sg68
(lp2433
g1007
asbasbasbag61
(g77
g63
NtRp2434
(dp2435
g66
(dp2436
sg75
g2409
sg68
(lp2437
g61
(g82
g63
NtRp2438
(dp2439
g66
(dp2440
g86
g87
ssg75
g2434
sg68
(lp2441
S'HTTP_ACCEPT_ENCODING'
p2442
asbag61
(g82
g63
NtRp2443
(dp2444
g66
(dp2445
g93
g94
ssg75
g2434
sg68
(lp2446
S':'
asbag61
(g82
g63
NtRp2447
(dp2448
g66
(dp2449
sg75
g2434
sg68
(lp2450
g61
(g62
g63
NtRp2451
(dp2452
g66
(dp2453
g74
I3
ssg75
g2447
sg68
(lp2454
g1029
asbasbasbag61
(g77
g63
NtRp2455
(dp2456
g66
(dp2457
sg75
g2409
sg68
(lp2458
g61
(g82
g63
NtRp2459
(dp2460
g66
(dp2461
g86
g87
ssg75
g2455
sg68
(lp2462
S'HTTP_ACCEPT_LANGUAGE'
p2463
asbag61
(g82
g63
NtRp2464
(dp2465
g66
(dp2466
g93
g94
ssg75
g2455
sg68
(lp2467
S':'
asbag61
(g82
g63
NtRp2468
(dp2469
g66
(dp2470
sg75
g2455
sg68
(lp2471
g61
(g62
g63
NtRp2472
(dp2473
g66
(dp2474
g74
I3
ssg75
g2468
sg68
(lp2475
g1051
asbasbasbag61
(g77
g63
NtRp2476
(dp2477
g66
(dp2478
sg75
g2409
sg68
(lp2479
g61
(g82
g63
NtRp2480
(dp2481
g66
(dp2482
g86
g87
ssg75
g2476
sg68
(lp2483
S'HTTP_CONNECTION'
p2484
asbag61
(g82
g63
NtRp2485
(dp2486
g66
(dp2487
g93
g94
ssg75
g2476
sg68
(lp2488
S':'
asbag61
(g82
g63
NtRp2489
(dp2490
g66
(dp2491
sg75
g2476
sg68
(lp2492
g61
(g62
g63
NtRp2493
(dp2494
g66
(dp2495
g74
I3
ssg75
g2489
sg68
(lp2496
g1073
asbasbasbag61
(g77
g63
NtRp2497
(dp2498
g66
(dp2499
sg75
g2409
sg68
(lp2500
g61
(g82
g63
NtRp2501
(dp2502
g66
(dp2503
g86
g87
ssg75
g2497
sg68
(lp2504
S'HTTP_COOKIE'
p2505
asbag61
(g82
g63
NtRp2506
(dp2507
g66
(dp2508
g93
g94
ssg75
g2497
sg68
(lp2509
S':'
asbag61
(g82
g63
NtRp2510
(dp2511
g66
(dp2512
sg75
g2497
sg68
(lp2513
g61
(g62
g63
NtRp2514
(dp2515
g66
(dp2516
g74
I3
ssg75
g2510
sg68
(lp2517
g1095
asbasbasbag61
(g77
g63
NtRp2518
(dp2519
g66
(dp2520
sg75
g2409
sg68
(lp2521
g61
(g82
g63
NtRp2522
(dp2523
g66
(dp2524
g86
g87
ssg75
g2518
sg68
(lp2525
S'HTTP_HOST'
p2526
asbag61
(g82
g63
NtRp2527
(dp2528
g66
(dp2529
g93
g94
ssg75
g2518
sg68
(lp2530
S':'
asbag61
(g82
g63
NtRp2531
(dp2532
g66
(dp2533
sg75
g2518
sg68
(lp2534
g61
(g62
g63
NtRp2535
(dp2536
g66
(dp2537
g74
I3
ssg75
g2531
sg68
(lp2538
g1117
asbasbasbag61
(g77
g63
NtRp2539
(dp2540
g66
(dp2541
sg75
g2409
sg68
(lp2542
g61
(g82
g63
NtRp2543
(dp2544
g66
(dp2545
g86
g87
ssg75
g2539
sg68
(lp2546
S'HTTP_REFERER'
p2547
asbag61
(g82
g63
NtRp2548
(dp2549
g66
(dp2550
g93
g94
ssg75
g2539
sg68
(lp2551
S':'
asbag61
(g82
g63
NtRp2552
(dp2553
g66
(dp2554
sg75
g2539
sg68
(lp2555
g61
(g62
g63
NtRp2556
(dp2557
g66
(dp2558
g74
I3
ssg75
g2552
sg68
(lp2559
g1139
asbasbasbag61
(g77
g63
NtRp2560
(dp2561
g66
(dp2562
sg75
g2409
sg68
(lp2563
g61
(g82
g63
NtRp2564
(dp2565
g66
(dp2566
g86
g87
ssg75
g2560
sg68
(lp2567
S'HTTP_USER_AGENT'
p2568
asbag61
(g82
g63
NtRp2569
(dp2570
g66
(dp2571
g93
g94
ssg75
g2560
sg68
(lp2572
S':'
asbag61
(g82
g63
NtRp2573
(dp2574
g66
(dp2575
sg75
g2560
sg68
(lp2576
g61
(g62
g63
NtRp2577
(dp2578
g66
(dp2579
g74
I3
ssg75
g2573
sg68
(lp2580
g1161
asbasbasbag61
(g77
g63
NtRp2581
(dp2582
g66
(dp2583
sg75
g2409
sg68
(lp2584
g61
(g82
g63
NtRp2585
(dp2586
g66
(dp2587
g86
g87
ssg75
g2581
sg68
(lp2588
S'PATH_INFO'
p2589
asbag61
(g82
g63
NtRp2590
(dp2591
g66
(dp2592
g93
g94
ssg75
g2581
sg68
(lp2593
S':'
asbag61
(g82
g63
NtRp2594
(dp2595
g66
(dp2596
sg75
g2581
sg68
(lp2597
g61
(g62
g63
NtRp2598
(dp2599
g66
(dp2600
g74
I3
ssg75
g2594
sg68
(lp2601
g1225
asbasbasbag61
(g77
g63
NtRp2602
(dp2603
g66
(dp2604
sg75
g2409
sg68
(lp2605
g61
(g82
g63
NtRp2606
(dp2607
g66
(dp2608
g86
g87
ssg75
g2602
sg68
(lp2609
S'QUERY_STRING'
p2610
asbag61
(g82
g63
NtRp2611
(dp2612
g66
(dp2613
g93
g94
ssg75
g2602
sg68
(lp2614
S':'
asbag61
(g82
g63
NtRp2615
(dp2616
g66
(dp2617
sg75
g2602
sg68
(lp2618
g61
(g62
g63
NtRp2619
(dp2620
g66
(dp2621
g74
I3
ssg75
g2615
sg68
(lp2622
S''
asbasbasbag61
(g77
g63
NtRp2623
(dp2624
g66
(dp2625
sg75
g2409
sg68
(lp2626
g61
(g82
g63
NtRp2627
(dp2628
g66
(dp2629
g86
g87
ssg75
g2623
sg68
(lp2630
S'REMOTE_ADDR'
p2631
asbag61
(g82
g63
NtRp2632
(dp2633
g66
(dp2634
g93
g94
ssg75
g2623
sg68
(lp2635
S':'
asbag61
(g82
g63
NtRp2636
(dp2637
g66
(dp2638
sg75
g2623
sg68
(lp2639
g61
(g62
g63
NtRp2640
(dp2641
g66
(dp2642
g74
I3
ssg75
g2636
sg68
(lp2643
g194
asbasbasbag61
(g77
g63
NtRp2644
(dp2645
g66
(dp2646
sg75
g2409
sg68
(lp2647
g61
(g82
g63
NtRp2648
(dp2649
g66
(dp2650
g86
g87
ssg75
g2644
sg68
(lp2651
S'REMOTE_PORT'
p2652
asbag61
(g82
g63
NtRp2653
(dp2654
g66
(dp2655
g93
g94
ssg75
g2644
sg68
(lp2656
S':'
asbag61
(g82
g63
NtRp2657
(dp2658
g66
(dp2659
sg75
g2644
sg68
(lp2660
g61
(g62
g63
NtRp2661
(dp2662
g66
(dp2663
g74
I3
ssg75
g2657
sg68
(lp2664
g1289
asbasbasbag61
(g77
g63
NtRp2665
(dp2666
g66
(dp2667
sg75
g2409
sg68
(lp2668
g61
(g82
g63
NtRp2669
(dp2670
g66
(dp2671
g86
g87
ssg75
g2665
sg68
(lp2672
S'REQUEST_METHOD'
p2673
asbag61
(g82
g63
NtRp2674
(dp2675
g66
(dp2676
g93
g94
ssg75
g2665
sg68
(lp2677
S':'
asbag61
(g82
g63
NtRp2678
(dp2679
g66
(dp2680
sg75
g2665
sg68
(lp2681
g61
(g62
g63
NtRp2682
(dp2683
g66
(dp2684
g74
I3
ssg75
g2678
sg68
(lp2685
g1311
asbasbasbag61
(g77
g63
NtRp2686
(dp2687
g66
(dp2688
sg75
g2409
sg68
(lp2689
g61
(g82
g63
NtRp2690
(dp2691
g66
(dp2692
g86
g87
ssg75
g2686
sg68
(lp2693
S'SCRIPT_NAME'
p2694
asbag61
(g82
g63
NtRp2695
(dp2696
g66
(dp2697
g93
g94
ssg75
g2686
sg68
(lp2698
S':'
asbag61
(g82
g63
NtRp2699
(dp2700
g66
(dp2701
sg75
g2686
sg68
(lp2702
g61
(g62
g63
NtRp2703
(dp2704
g66
(dp2705
g74
I3
ssg75
g2699
sg68
(lp2706
S''
asbasbasbag61
(g77
g63
NtRp2707
(dp2708
g66
(dp2709
sg75
g2409
sg68
(lp2710
g61
(g82
g63
NtRp2711
(dp2712
g66
(dp2713
g86
g87
ssg75
g2707
sg68
(lp2714
S'SERVER_NAME'
p2715
asbag61
(g82
g63
NtRp2716
(dp2717
g66
(dp2718
g93
g94
ssg75
g2707
sg68
(lp2719
S':'
asbag61
(g82
g63
NtRp2720
(dp2721
g66
(dp2722
sg75
g2707
sg68
(lp2723
g61
(g62
g63
NtRp2724
(dp2725
g66
(dp2726
g74
I3
ssg75
g2720
sg68
(lp2727
g1354
asbasbasbag61
(g77
g63
NtRp2728
(dp2729
g66
(dp2730
sg75
g2409
sg68
(lp2731
g61
(g82
g63
NtRp2732
(dp2733
g66
(dp2734
g86
g87
ssg75
g2728
sg68
(lp2735
S'SERVER_PORT'
p2736
asbag61
(g82
g63
NtRp2737
(dp2738
g66
(dp2739
g93
g94
ssg75
g2728
sg68
(lp2740
S':'
asbag61
(g82
g63
NtRp2741
(dp2742
g66
(dp2743
sg75
g2728
sg68
(lp2744
g61
(g62
g63
NtRp2745
(dp2746
g66
(dp2747
g74
I3
ssg75
g2741
sg68
(lp2748
g1376
asbasbasbag61
(g77
g63
NtRp2749
(dp2750
g66
(dp2751
sg75
g2409
sg68
(lp2752
g61
(g82
g63
NtRp2753
(dp2754
g66
(dp2755
g86
g87
ssg75
g2749
sg68
(lp2756
S'SERVER_PROTOCOL'
p2757
asbag61
(g82
g63
NtRp2758
(dp2759
g66
(dp2760
g93
g94
ssg75
g2749
sg68
(lp2761
S':'
asbag61
(g82
g63
NtRp2762
(dp2763
g66
(dp2764
sg75
g2749
sg68
(lp2765
g61
(g62
g63
NtRp2766
(dp2767
g66
(dp2768
g74
I3
ssg75
g2762
sg68
(lp2769
g1398
asbasbasbag61
(g77
g63
NtRp2770
(dp2771
g66
(dp2772
sg75
g2409
sg68
(lp2773
g61
(g82
g63
NtRp2774
(dp2775
g66
(dp2776
g86
g87
ssg75
g2770
sg68
(lp2777
S'SERVER_SOFTWARE'
p2778
asbag61
(g82
g63
NtRp2779
(dp2780
g66
(dp2781
g93
g94
ssg75
g2770
sg68
(lp2782
S':'
asbag61
(g82
g63
NtRp2783
(dp2784
g66
(dp2785
sg75
g2770
sg68
(lp2786
g61
(g62
g63
NtRp2787
(dp2788
g66
(dp2789
g74
I3
ssg75
g2783
sg68
(lp2790
g1420
asbasbasbag61
(g77
g63
NtRp2791
(dp2792
g66
(dp2793
sg75
g2409
sg68
(lp2794
g61
(g82
g63
NtRp2795
(dp2796
g66
(dp2797
g86
g87
ssg75
g2791
sg68
(lp2798
S'wsgi.errors'
p2799
asbag61
(g82
g63
NtRp2800
(dp2801
g66
(dp2802
g93
g94
ssg75
g2791
sg68
(lp2803
S':'
asbag61
(g82
g63
NtRp2804
(dp2805
g66
(dp2806
sg75
g2791
sg68
(lp2807
g61
(g62
g63
NtRp2808
(dp2809
g66
(dp2810
g74
I3
ssg75
g2804
sg68
(lp2811
S"<open file '<stderr>', mode 'w' at 0x25a0d0>"
p2812
asbasbasbag61
(g77
g63
NtRp2813
(dp2814
g66
(dp2815
sg75
g2409
sg68
(lp2816
g61
(g82
g63
NtRp2817
(dp2818
g66
(dp2819
g86
g87
ssg75
g2813
sg68
(lp2820
S'wsgi.file_wrapper'
p2821
asbag61
(g82
g63
NtRp2822
(dp2823
g66
(dp2824
g93
g94
ssg75
g2813
sg68
(lp2825
S':'
asbag61
(g82
g63
NtRp2826
(dp2827
g66
(dp2828
sg75
g2813
sg68
(lp2829
g61
(g62
g63
NtRp2830
(dp2831
g66
(dp2832
g74
I3
ssg75
g2826
sg68
(lp2833
S'<class wsgiref.util.FileWrapper at 0x15a90a0>'
p2834
asbasbasbag61
(g77
g63
NtRp2835
(dp2836
g66
(dp2837
sg75
g2409
sg68
(lp2838
g61
(g82
g63
NtRp2839
(dp2840
g66
(dp2841
g86
g87
ssg75
g2835
sg68
(lp2842
S'wsgi.input'
p2843
asbag61
(g82
g63
NtRp2844
(dp2845
g66
(dp2846
g93
g94
ssg75
g2835
sg68
(lp2847
S':'
asbag61
(g82
g63
NtRp2848
(dp2849
g66
(dp2850
sg75
g2835
sg68
(lp2851
g61
(g62
g63
NtRp2852
(dp2853
g66
(dp2854
g74
I3
ssg75
g2848
sg68
(lp2855
S'<cStringIO.StringO object at 0x18018a40>'
p2856
asbasbasbag61
(g77
g63
NtRp2857
(dp2858
g66
(dp2859
sg75
g2409
sg68
(lp2860
g61
(g82
g63
NtRp2861
(dp2862
g66
(dp2863
g86
g87
ssg75
g2857
sg68
(lp2864
S'wsgi.multiprocess'
p2865
asbag61
(g82
g63
NtRp2866
(dp2867
g66
(dp2868
g93
g94
ssg75
g2857
sg68
(lp2869
S':'
asbag61
(g82
g63
NtRp2870
(dp2871
g66
(dp2872
sg75
g2857
sg68
(lp2873
g61
(g62
g63
NtRp2874
(dp2875
g66
(dp2876
g74
I3
ssg75
g2870
sg68
(lp2877
g104
asbasbasbag61
(g77
g63
NtRp2878
(dp2879
g66
(dp2880
sg75
g2409
sg68
(lp2881
g61
(g82
g63
NtRp2882
(dp2883
g66
(dp2884
g86
g87
ssg75
g2878
sg68
(lp2885
S'wsgi.multithread'
p2886
asbag61
(g82
g63
NtRp2887
(dp2888
g66
(dp2889
g93
g94
ssg75
g2878
sg68
(lp2890
S':'
asbag61
(g82
g63
NtRp2891
(dp2892
g66
(dp2893
sg75
g2878
sg68
(lp2894
g61
(g62
g63
NtRp2895
(dp2896
g66
(dp2897
g74
I3
ssg75
g2891
sg68
(lp2898
g1660
asbasbasbag61
(g77
g63
NtRp2899
(dp2900
g66
(dp2901
sg75
g2409
sg68
(lp2902
g61
(g82
g63
NtRp2903
(dp2904
g66
(dp2905
g86
g87
ssg75
g2899
sg68
(lp2906
S'wsgi.run_once'
p2907
asbag61
(g82
g63
NtRp2908
(dp2909
g66
(dp2910
g93
g94
ssg75
g2899
sg68
(lp2911
S':'
asbag61
(g82
g63
NtRp2912
(dp2913
g66
(dp2914
sg75
g2899
sg68
(lp2915
g61
(g62
g63
NtRp2916
(dp2917
g66
(dp2918
g74
I3
ssg75
g2912
sg68
(lp2919
g104
asbasbasbag61
(g77
g63
NtRp2920
(dp2921
g66
(dp2922
sg75
g2409
sg68
(lp2923
g61
(g82
g63
NtRp2924
(dp2925
g66
(dp2926
g86
g87
ssg75
g2920
sg68
(lp2927
S'wsgi.url_scheme'
p2928
asbag61
(g82
g63
NtRp2929
(dp2930
g66
(dp2931
g93
g94
ssg75
g2920
sg68
(lp2932
S':'
asbag61
(g82
g63
NtRp2933
(dp2934
g66
(dp2935
sg75
g2920
sg68
(lp2936
g61
(g62
g63
NtRp2937
(dp2938
g66
(dp2939
g74
I3
ssg75
g2933
sg68
(lp2940
g1703
asbasbasbag61
(g77
g63
NtRp2941
(dp2942
g66
(dp2943
sg75
g2409
sg68
(lp2944
g61
(g82
g63
NtRp2945
(dp2946
g66
(dp2947
g86
g87
ssg75
g2941
sg68
(lp2948
S'wsgi.version'
p2949
asbag61
(g82
g63
NtRp2950
(dp2951
g66
(dp2952
g93
g94
ssg75
g2941
sg68
(lp2953
S':'
asbag61
(g82
g63
NtRp2954
(dp2955
g66
(dp2956
sg75
g2941
sg68
(lp2957
g61
(g62
g63
NtRp2958
(dp2959
g66
(dp2960
g74
I3
ssg75
g2954
sg68
(lp2961
S'1'
asbasbasbasbasbasbasbasbasbasbasbasbasbsS'frames'
p2962
(lp2963
(dp2964
S'file'
p2965
S'/Users/Truki/web2py/gluon/restricted.py'
p2966
sS'dump'
p2967
(dp2968
S'environment'
p2969
S"{'A': <class 'gluon.html.A'>, 'Auth': <class 'gluon.tools.Auth'>, 'B': <class 'gluon.html.B'>, 'BEAUTIFY': <class 'gluon.html.BEAUTIFY'>, 'BODY': <class 'gluon.html.BODY'>, 'BR': <class 'gluon.html.BR'>, 'BUTTON': <class 'gluon.html.BUTTON'>, 'CAT': <class 'gluon.html.CAT'>, 'CENTER': <class 'gluon.html.CENTER'>, 'CLEANUP': <class 'gluon.validators.CLEANUP'>, ...}"
p2970
sS'ccode'
p2971
S'<code object <module> at 0x12af77b8, file "/User...y/applications/rosan/models/db_rosan.py", line 7>'
p2972
ssS'lnum'
p2973
I205
sS'lines'
p2974
(dp2975
I200
S'    try:'
p2976
sI201
S'        if type(code) == types.CodeType:'
p2977
sI202
S'            ccode = code'
p2978
sI203
S'        else:'
p2979
sI204
S'            ccode = compile2(code,layer)'
p2980
sI205
S'        exec ccode in environment'
p2981
sI206
S'    except HTTP:'
p2982
sI207
S'        raise'
p2983
sI208
S'    except RestrictedError:'
p2984
sI209
S'        # do not encapsulate (obfuscate) the original RestrictedError'
p2985
ssS'call'
p2986
S'(code=\'# coding: utf8\\n"""\\njust copy paste this code int...es=IS_IN_DB(dbRosan, \\\'articulo.id\\\' \\\'%(nombre)s\\\')\\n\', environment={\'A\': <class \'gluon.html.A\'>, \'Auth\': <class \'gluon.tools.Auth\'>, \'B\': <class \'gluon.html.B\'>, \'BEAUTIFY\': <class \'gluon.html.BEAUTIFY\'>, \'BODY\': <class \'gluon.html.BODY\'>, \'BR\': <class \'gluon.html.BR\'>, \'BUTTON\': <class \'gluon.html.BUTTON\'>, \'CAT\': <class \'gluon.html.CAT\'>, \'CENTER\': <class \'gluon.html.CENTER\'>, \'CLEANUP\': <class \'gluon.validators.CLEANUP\'>, ...}, layer=\'/Users/Truki/web2py/applications/rosan/models/db_rosan.py\')'
p2987
sS'func'
p2988
S'restricted'
p2989
sa(dp2990
g2965
S'/Users/Truki/web2py/applications/rosan/models/db_rosan.py'
p2991
sg2967
(dp2992
S'builtinNone'
p2993
S'None'
p2994
sS'default'
p2995
S'undefined'
p2996
sS'builtinTrue'
p2997
g1660
sS'length'
p2998
g2996
sS'notnull'
p2999
g2996
sS'SQLField'
p3000
S"<class 'gluon.dal.Field'>"
p3001
ssg2973
I23
sg2974
(dp3002
I18
S'      SQLField("nombre", "string", length=200, notnull=True, default=None),'
p3003
sI19
S'      SQLField("direccion", "string", length=200, notnull=True, default=None),'
p3004
sI20
S'      SQLField("localidad", "string", length=100, notnull=True, default=None),'
p3005
sI21
S'      SQLField("cod_postal", "string", length=5, notnull=True, default=None),'
p3006
sI22
S'      SQLField("email", "string", length=100, notnull=True, default=None),'
p3007
sI23
S'      SQLField("www","string", length=200, notnull=True, default=None)'
p3008
sI24
S'      )'
p3009
sI25
S''
sI26
S'"""'
p3010
sI27
S'Tabla facturas'
p3011
ssg2986
S'()'
p3012
sg2988
S'<module>'
p3013
sa(dp3014
g2965
S'/Users/Truki/web2py/gluon/dal.py'
p3015
sg2967
(dp3016
S'polymodel'
p3017
S'None'
p3018
ssg2973
I6320
sg2974
(dp3019
I6315
S"        if migrate or self._adapter.dbengine=='google:datastore':"
p3020
sI6316
S'            try:'
p3021
sI6317
S'                sql_locker.acquire()'
p3022
sI6318
S'                self._adapter.create_table(t,migrate=migrate,'
p3023
sI6319
S'                                           fake_migrate=fake_migrate,'
p3024
sI6320
S'                                           polymodel=polymodel)'
p3025
sI6321
S'            finally:'
p3026
sI6322
S'                sql_locker.release()'
p3027
sI6323
S'        else:'
p3028
sI6324
S'            t._dbt = None'
p3029
ssg2986
S"(self=<DAL {'_migrate_enabled': True, '_lastsql': 'ALT...'_uri_hash': 'c30b5de21333398d0f1534f780ac8df2'}>, tablename='cliente', *fields=(<gluon.dal.Field object>, <gluon.dal.Field object>, <gluon.dal.Field object>, <gluon.dal.Field object>, <gluon.dal.Field object>, <gluon.dal.Field object>, <gluon.dal.Field object>), **args={})"
p3030
sg2988
S'define_table'
p3031
sa(dp3032
g2965
S'/Users/Truki/web2py/gluon/dal.py'
p3033
sg2967
(dp3034
S'fake_migrate'
p3035
g104
ssg2973
I742
sg2974
(dp3036
I737
S'            self.file_close(tfile)'
p3037
sI738
S'            if sql_fields != sql_fields_old:'
p3038
sI739
S'                self.migrate_table(table,'
p3039
sI740
S'                                   sql_fields, sql_fields_old,'
p3040
sI741
S'                                   sql_fields_aux, logfile,'
p3041
sI742
S'                                   fake_migrate=fake_migrate)'
p3042
sI743
S'        self.file_close(logfile)'
p3043
sI744
S'        return query'
p3044
sI745
S''
sI746
S'    def migrate_table('
p3045
ssg2986
S"(self=<gluon.dal.SQLiteAdapter object>, table=<Table {'www': <gluon.dal.Field object at 0x1802...postal': <gluon.dal.Field object at 0x18029310>}>, migrate=True, fake_migrate=False, polymodel=None)"
p3046
sg2988
S'create_table'
p3047
sa(dp3048
g2965
S'/Users/Truki/web2py/gluon/dal.py'
p3049
sg2967
(dp3050
S'self'
p3051
S'<gluon.dal.SQLiteAdapter object>'
p3052
sS'self.execute'
p3053
S'<bound method SQLiteAdapter.execute of <gluon.dal.SQLiteAdapter object>>'
p3054
sS'sub_query'
p3055
S"'ALTER TABLE cliente ADD www CHAR(200) NOT NULL;'"
p3056
ssg2973
I830
sg2974
(dp3057
I832
S'                        # in one transaction so we must commit partial transactions and'
p3058
sI833
S'                        # update table._dbt after alter table.'
p3059
sI834
S'                        if table._db._adapter.commit_on_alter_table:'
p3060
sI825
S'                              % datetime.datetime.today().isoformat())'
p3061
sI826
S"                table._db['_lastsql'] = '\\n'.join(query)"
p3062
sI827
S'                for sub_query in query:'
p3063
sI828
S"                    logfile.write(sub_query + '\\n')"
p3064
sI829
S'                    if not fake_migrate:'
p3065
sI830
S'                        self.execute(sub_query)'
p3066
sI831
S'                        # Caveat: mysql, oracle and firebird do not allow multiple alter table'
p3067
ssg2986
S"(self=<gluon.dal.SQLiteAdapter object>, table=<Table {'www': <gluon.dal.Field object at 0x1802...postal': <gluon.dal.Field object at 0x18029310>}>, sql_fields={'cif': {'sortable': 2, 'sql': 'CHAR(9) NOT NULL', 'type': 'string'}, 'cod_postal': {'sortable': 6, 'sql': 'CHAR(5) NOT NULL', 'type': 'string'}, 'direccion': {'sortable': 4, 'sql': 'CHAR(200) NOT NULL', 'type': 'string'}, 'email': {'sortable': 7, 'sql': 'CHAR(100) NOT NULL', 'type': 'string'}, 'id': {'sortable': 1, 'sql': 'INTEGER PRIMARY KEY AUTOINCREMENT', 'type': 'id'}, 'localidad': {'sortable': 5, 'sql': 'CHAR(100) NOT NULL', 'type': 'string'}, 'nombre': {'sortable': 3, 'sql': 'CHAR(200) NOT NULL', 'type': 'string'}, 'www': {'sortable': 8, 'sql': 'CHAR(200) NOT NULL', 'type': 'string'}}, sql_fields_old={'cif': {'sortable': 2L, 'sql': 'CHAR(9) NOT NULL', 'type': 'string'}, 'direccion': {'sortable': 4L, 'sql': 'CHAR(200) NOT NULL', 'type': 'string'}, 'id': {'sortable': 1L, 'sql': 'INTEGER PRIMARY KEY AUTOINCREMENT', 'type': 'id'}, 'localidad': {'sortable': 5L, 'sql': 'CHAR(100) NOT NULL', 'type': 'string'}, 'nombre': {'sortable': 3L, 'sql': 'CHAR(200) NOT NULL', 'type': 'string'}}, sql_fields_aux={'cif': {'sql': 'CHAR(9) NOT NULL'}, 'cod_postal': {'sql': 'CHAR(5) NOT NULL'}, 'direccion': {'sql': 'CHAR(200) NOT NULL'}, 'email': {'sql': 'CHAR(100) NOT NULL'}, 'id': {'sql': 'INTEGER PRIMARY KEY AUTOINCREMENT'}, 'localidad': {'sql': 'CHAR(100) NOT NULL'}, 'nombre': {'sql': 'CHAR(200) NOT NULL'}, 'www': {'sql': 'CHAR(200) NOT NULL'}}, logfile=<gluon.portalocker.LockedFile object>, fake_migrate=False)"
p3068
sg2988
S'migrate_table'
p3069
sa(dp3070
g2965
S'/Users/Truki/web2py/gluon/dal.py'
p3071
sg2967
(dp3072
S'a'
S"('ALTER TABLE cliente ADD www CHAR(200) NOT NULL;',)"
p3073
sS'self'
p3074
S'<gluon.dal.SQLiteAdapter object>'
p3075
sS'b'
g21
sS'self.log_execute'
p3076
S'<bound method SQLiteAdapter.log_execute of <gluon.dal.SQLiteAdapter object>>'
p3077
ssg2973
I1392
sg2974
(dp3078
I1387
S'        self.db._timings.append((a[0],time.time()-t0))'
p3079
sI1388
S'        del self.db._timings[:-TIMINGSSIZE]'
p3080
sI1389
S'        return ret'
p3081
sI1390
S''
sI1391
S'    def execute(self, *a, **b):'
p3082
sI1392
S'        return self.log_execute(*a, **b)'
p3083
sI1393
S''
sI1394
S'    def represent(self, obj, fieldtype):'
p3084
sI1395
S'        if isinstance(obj, CALLABLETYPES):'
p3085
sI1396
S'            obj = obj()'
p3086
ssg2986
S"(self=<gluon.dal.SQLiteAdapter object>, *a=('ALTER TABLE cliente ADD www CHAR(200) NOT NULL;',), **b={})"
p3087
sg2988
S'execute'
p3088
sa(dp3089
g2965
S'/Users/Truki/web2py/gluon/dal.py'
p3090
sg2967
(dp3091
S'a'
S"('ALTER TABLE cliente ADD www CHAR(200) NOT NULL;',)"
p3092
sS'b'
g21
sS'self'
p3093
S'<gluon.dal.SQLiteAdapter object>'
p3094
sS'ret'
p3095
g2996
sS'self.cursor'
p3096
S'<sqlite3.Cursor object>'
p3097
sS'self.cursor.execute'
p3098
S'<built-in method execute of sqlite3.Cursor object>'
p3099
ssg2973
I1386
sg2974
(dp3100
I1381
S'        self.execute(query)'
p3101
sI1382
S''
sI1383
S'    def log_execute(self, *a, **b):'
p3102
sI1384
S'        self.db._lastsql = a[0]'
p3103
sI1385
S'        t0 = time.time()'
p3104
sI1386
S'        ret = self.cursor.execute(*a, **b)'
p3105
sI1387
S'        self.db._timings.append((a[0],time.time()-t0))'
p3106
sI1388
S'        del self.db._timings[:-TIMINGSSIZE]'
p3107
sI1389
S'        return ret'
p3108
sI1390
S''
ssg2986
S"(self=<gluon.dal.SQLiteAdapter object>, *a=('ALTER TABLE cliente ADD www CHAR(200) NOT NULL;',), **b={})"
p3109
sg2988
S'log_execute'
p3110
sasS'pyver'
p3111
S'Python 2.7.3: /Library/Frameworks/Python.framework/Versions/2.7/Resources/Python.app/Contents/MacOS/Python'
p3112
sS'session'
p3113
g61
(g62
g63
NtRp3114
(dp3115
g66
(dp3116
sg68
(lp3117
g61
(g70
g63
NtRp3118
(dp3119
g66
(dp3120
g74
I5
ssg75
Nsg68
(lp3121
sbasbsS'etype'
p3122
S"<class 'sqlite3.OperationalError'>"
p3123
sS'date'
p3124
S'Tue Nov  6 15:30:13 2012'
p3125
sS'response'
p3126
g61
(g62
g63
NtRp3127
(dp3128
g66
(dp3129
sg68
(lp3130
g61
(g70
g63
NtRp3131
(dp3132
g66
(dp3133
g74
I5
ssg75
Nsg68
(lp3134
g61
(g77
g63
NtRp3135
(dp3136
g66
(dp3137
sg75
g3131
sg68
(lp3138
g61
(g82
g63
NtRp3139
(dp3140
g66
(dp3141
g86
g87
ssg75
g3135
sg68
(lp3142
g159
asbag61
(g82
g63
NtRp3143
(dp3144
g66
(dp3145
g93
g94
ssg75
g3135
sg68
(lp3146
S':'
asbag61
(g82
g63
NtRp3147
(dp3148
g66
(dp3149
sg75
g3135
sg68
(lp3150
g61
(g62
g63
NtRp3151
(dp3152
g66
(dp3153
g74
I5
ssg75
g3147
sg68
(lp3154
S'<cStringIO.StringO object at 0x18018880>'
p3155
asbasbasbag61
(g77
g63
NtRp3156
(dp3157
g66
(dp3158
sg75
g3131
sg68
(lp3159
g61
(g82
g63
NtRp3160
(dp3161
g66
(dp3162
g86
g87
ssg75
g3156
sg68
(lp3163
g225
asbag61
(g82
g63
NtRp3164
(dp3165
g66
(dp3166
g93
g94
ssg75
g3156
sg68
(lp3167
S':'
asbag61
(g82
g63
NtRp3168
(dp3169
g66
(dp3170
sg75
g3156
sg68
(lp3171
g61
(g62
g63
NtRp3172
(dp3173
g66
(dp3174
g74
I5
ssg75
g3168
sg68
(lp3175
g61
(g70
g63
NtRp3176
(dp3177
g66
(dp3178
g74
I4
ssg75
Nsg68
(lp3179
g61
(g77
g63
NtRp3180
(dp3181
g66
(dp3182
sg75
g3176
sg68
(lp3183
g61
(g82
g63
NtRp3184
(dp3185
g66
(dp3186
g86
g87
ssg75
g3180
sg68
(lp3187
S'session_id_rosan'
p3188
asbag61
(g82
g63
NtRp3189
(dp3190
g66
(dp3191
g93
g94
ssg75
g3180
sg68
(lp3192
S':'
asbag61
(g82
g63
NtRp3193
(dp3194
g66
(dp3195
sg75
g3180
sg68
(lp3196
g61
(g62
g63
NtRp3197
(dp3198
g66
(dp3199
g74
I4
ssg75
g3193
sg68
(lp3200
g61
(g70
g63
NtRp3201
(dp3202
g66
(dp3203
g74
I3
ssg75
Nsg68
(lp3204
g61
(g77
g63
NtRp3205
(dp3206
g66
(dp3207
sg75
g3201
sg68
(lp3208
g61
(g82
g63
NtRp3209
(dp3210
g66
(dp3211
g86
g87
ssg75
g3205
sg68
(lp3212
g275
asbag61
(g82
g63
NtRp3213
(dp3214
g66
(dp3215
g93
g94
ssg75
g3205
sg68
(lp3216
S':'
asbag61
(g82
g63
NtRp3217
(dp3218
g66
(dp3219
sg75
g3205
sg68
(lp3220
g61
(g62
g63
NtRp3221
(dp3222
g66
(dp3223
g74
I3
ssg75
g3217
sg68
(lp3224
S''
asbasbasbag61
(g77
g63
NtRp3225
(dp3226
g66
(dp3227
sg75
g3201
sg68
(lp3228
g61
(g82
g63
NtRp3229
(dp3230
g66
(dp3231
g86
g87
ssg75
g3225
sg68
(lp3232
g296
asbag61
(g82
g63
NtRp3233
(dp3234
g66
(dp3235
g93
g94
ssg75
g3225
sg68
(lp3236
S':'
asbag61
(g82
g63
NtRp3237
(dp3238
g66
(dp3239
sg75
g3225
sg68
(lp3240
g61
(g62
g63
NtRp3241
(dp3242
g66
(dp3243
g74
I3
ssg75
g3237
sg68
(lp3244
S''
asbasbasbag61
(g77
g63
NtRp3245
(dp3246
g66
(dp3247
sg75
g3201
sg68
(lp3248
g61
(g82
g63
NtRp3249
(dp3250
g66
(dp3251
g86
g87
ssg75
g3245
sg68
(lp3252
g317
asbag61
(g82
g63
NtRp3253
(dp3254
g66
(dp3255
g93
g94
ssg75
g3245
sg68
(lp3256
S':'
asbag61
(g82
g63
NtRp3257
(dp3258
g66
(dp3259
sg75
g3245
sg68
(lp3260
g61
(g62
g63
NtRp3261
(dp3262
g66
(dp3263
g74
I3
ssg75
g3257
sg68
(lp3264
S''
asbasbasbag61
(g77
g63
NtRp3265
(dp3266
g66
(dp3267
sg75
g3201
sg68
(lp3268
g61
(g82
g63
NtRp3269
(dp3270
g66
(dp3271
g86
g87
ssg75
g3265
sg68
(lp3272
g338
asbag61
(g82
g63
NtRp3273
(dp3274
g66
(dp3275
g93
g94
ssg75
g3265
sg68
(lp3276
S':'
asbag61
(g82
g63
NtRp3277
(dp3278
g66
(dp3279
sg75
g3265
sg68
(lp3280
g61
(g62
g63
NtRp3281
(dp3282
g66
(dp3283
g74
I3
ssg75
g3277
sg68
(lp3284
S''
asbasbasbag61
(g77
g63
NtRp3285
(dp3286
g66
(dp3287
sg75
g3201
sg68
(lp3288
g61
(g82
g63
NtRp3289
(dp3290
g66
(dp3291
g86
g87
ssg75
g3285
sg68
(lp3292
g359
asbag61
(g82
g63
NtRp3293
(dp3294
g66
(dp3295
g93
g94
ssg75
g3285
sg68
(lp3296
S':'
asbag61
(g82
g63
NtRp3297
(dp3298
g66
(dp3299
sg75
g3285
sg68
(lp3300
g61
(g62
g63
NtRp3301
(dp3302
g66
(dp3303
g74
I3
ssg75
g3297
sg68
(lp3304
S''
asbasbasbag61
(g77
g63
NtRp3305
(dp3306
g66
(dp3307
sg75
g3201
sg68
(lp3308
g61
(g82
g63
NtRp3309
(dp3310
g66
(dp3311
g86
g87
ssg75
g3305
sg68
(lp3312
g380
asbag61
(g82
g63
NtRp3313
(dp3314
g66
(dp3315
g93
g94
ssg75
g3305
sg68
(lp3316
S':'
asbag61
(g82
g63
NtRp3317
(dp3318
g66
(dp3319
sg75
g3305
sg68
(lp3320
g61
(g62
g63
NtRp3321
(dp3322
g66
(dp3323
g74
I3
ssg75
g3317
sg68
(lp3324
S'/'
asbasbasbag61
(g77
g63
NtRp3325
(dp3326
g66
(dp3327
sg75
g3201
sg68
(lp3328
g61
(g82
g63
NtRp3329
(dp3330
g66
(dp3331
g86
g87
ssg75
g3325
sg68
(lp3332
g401
asbag61
(g82
g63
NtRp3333
(dp3334
g66
(dp3335
g93
g94
ssg75
g3325
sg68
(lp3336
S':'
asbag61
(g82
g63
NtRp3337
(dp3338
g66
(dp3339
sg75
g3325
sg68
(lp3340
g61
(g62
g63
NtRp3341
(dp3342
g66
(dp3343
g74
I3
ssg75
g3337
sg68
(lp3344
S''
asbasbasbag61
(g77
g63
NtRp3345
(dp3346
g66
(dp3347
sg75
g3201
sg68
(lp3348
g61
(g82
g63
NtRp3349
(dp3350
g66
(dp3351
g86
g87
ssg75
g3345
sg68
(lp3352
g422
asbag61
(g82
g63
NtRp3353
(dp3354
g66
(dp3355
g93
g94
ssg75
g3345
sg68
(lp3356
S':'
asbag61
(g82
g63
NtRp3357
(dp3358
g66
(dp3359
sg75
g3345
sg68
(lp3360
g61
(g62
g63
NtRp3361
(dp3362
g66
(dp3363
g74
I3
ssg75
g3357
sg68
(lp3364
S''
asbasbasbasbasbasbasbasbasbasbasbag61
(g77
g63
NtRp3365
(dp3366
g66
(dp3367
sg75
g3131
sg68
(lp3368
g61
(g82
g63
NtRp3369
(dp3370
g66
(dp3371
g86
g87
ssg75
g3365
sg68
(lp3372
S'delimiters'
p3373
asbag61
(g82
g63
NtRp3374
(dp3375
g66
(dp3376
g93
g94
ssg75
g3365
sg68
(lp3377
S':'
asbag61
(g82
g63
NtRp3378
(dp3379
g66
(dp3380
sg75
g3365
sg68
(lp3381
g61
(g62
g63
NtRp3382
(dp3383
g66
(dp3384
g74
I5
ssg75
g3378
sg68
(lp3385
g61
(g70
g63
NtRp3386
(dp3387
g66
(dp3388
g74
I4
ssg75
Nsg68
(lp3389
g61
(g77
g63
NtRp3390
(dp3391
g66
(dp3392
sg75
g3386
sg68
(lp3393
g61
(g82
g63
NtRp3394
(dp3395
g66
(dp3396
sg75
g3390
sg68
(lp3397
g61
(g62
g63
NtRp3398
(dp3399
g66
(dp3400
g74
I4
ssg75
g3394
sg68
(lp3401
S'{{'
p3402
asbasbasbag61
(g77
g63
NtRp3403
(dp3404
g66
(dp3405
sg75
g3386
sg68
(lp3406
g61
(g82
g63
NtRp3407
(dp3408
g66
(dp3409
sg75
g3403
sg68
(lp3410
g61
(g62
g63
NtRp3411
(dp3412
g66
(dp3413
g74
I4
ssg75
g3407
sg68
(lp3414
S'}}'
p3415
asbasbasbasbasbasbasbag61
(g77
g63
NtRp3416
(dp3417
g66
(dp3418
sg75
g3131
sg68
(lp3419
g61
(g82
g63
NtRp3420
(dp3421
g66
(dp3422
g86
g87
ssg75
g3416
sg68
(lp3423
S'files'
p3424
asbag61
(g82
g63
NtRp3425
(dp3426
g66
(dp3427
g93
g94
ssg75
g3416
sg68
(lp3428
S':'
asbag61
(g82
g63
NtRp3429
(dp3430
g66
(dp3431
sg75
g3416
sg68
(lp3432
g61
(g62
g63
NtRp3433
(dp3434
g66
(dp3435
g74
I5
ssg75
g3429
sg68
(lp3436
g61
(g70
g63
NtRp3437
(dp3438
g66
(dp3439
g74
I4
ssg75
Nsg68
(lp3440
sbasbasbasbag61
(g77
g63
NtRp3441
(dp3442
g66
(dp3443
sg75
g3131
sg68
(lp3444
g61
(g82
g63
NtRp3445
(dp3446
g66
(dp3447
g86
g87
ssg75
g3441
sg68
(lp3448
S'flash'
p3449
asbag61
(g82
g63
NtRp3450
(dp3451
g66
(dp3452
g93
g94
ssg75
g3441
sg68
(lp3453
S':'
asbag61
(g82
g63
NtRp3454
(dp3455
g66
(dp3456
sg75
g3441
sg68
(lp3457
g61
(g62
g63
NtRp3458
(dp3459
g66
(dp3460
g74
I5
ssg75
g3454
sg68
(lp3461
S''
asbasbasbag61
(g77
g63
NtRp3462
(dp3463
g66
(dp3464
sg75
g3131
sg68
(lp3465
g61
(g82
g63
NtRp3466
(dp3467
g66
(dp3468
g86
g87
ssg75
g3462
sg68
(lp3469
S'generic_patterns'
p3470
asbag61
(g82
g63
NtRp3471
(dp3472
g66
(dp3473
g93
g94
ssg75
g3462
sg68
(lp3474
S':'
asbag61
(g82
g63
NtRp3475
(dp3476
g66
(dp3477
sg75
g3462
sg68
(lp3478
g61
(g62
g63
NtRp3479
(dp3480
g66
(dp3481
g74
I5
ssg75
g3475
sg68
(lp3482
g61
(g70
g63
NtRp3483
(dp3484
g66
(dp3485
g74
I4
ssg75
Nsg68
(lp3486
g61
(g77
g63
NtRp3487
(dp3488
g66
(dp3489
sg75
g3483
sg68
(lp3490
g61
(g82
g63
NtRp3491
(dp3492
g66
(dp3493
sg75
g3487
sg68
(lp3494
g61
(g62
g63
NtRp3495
(dp3496
g66
(dp3497
g74
I4
ssg75
g3491
sg68
(lp3498
S'*'
asbasbasbasbasbasbasbag61
(g77
g63
NtRp3499
(dp3500
g66
(dp3501
sg75
g3131
sg68
(lp3502
g61
(g82
g63
NtRp3503
(dp3504
g66
(dp3505
g86
g87
ssg75
g3499
sg68
(lp3506
S'headers'
p3507
asbag61
(g82
g63
NtRp3508
(dp3509
g66
(dp3510
g93
g94
ssg75
g3499
sg68
(lp3511
S':'
asbag61
(g82
g63
NtRp3512
(dp3513
g66
(dp3514
sg75
g3499
sg68
(lp3515
g61
(g62
g63
NtRp3516
(dp3517
g66
(dp3518
g74
I5
ssg75
g3512
sg68
(lp3519
g61
(g70
g63
NtRp3520
(dp3521
g66
(dp3522
g74
I4
ssg75
Nsg68
(lp3523
g61
(g77
g63
NtRp3524
(dp3525
g66
(dp3526
sg75
g3520
sg68
(lp3527
g61
(g82
g63
NtRp3528
(dp3529
g66
(dp3530
g86
g87
ssg75
g3524
sg68
(lp3531
S'Cache-Control'
p3532
asbag61
(g82
g63
NtRp3533
(dp3534
g66
(dp3535
g93
g94
ssg75
g3524
sg68
(lp3536
S':'
asbag61
(g82
g63
NtRp3537
(dp3538
g66
(dp3539
sg75
g3524
sg68
(lp3540
g61
(g62
g63
NtRp3541
(dp3542
g66
(dp3543
g74
I4
ssg75
g3537
sg68
(lp3544
S'no-store, no-cache, must-revalidate, post-check=0, pre-check=0'
p3545
asbasbasbag61
(g77
g63
NtRp3546
(dp3547
g66
(dp3548
sg75
g3520
sg68
(lp3549
g61
(g82
g63
NtRp3550
(dp3551
g66
(dp3552
g86
g87
ssg75
g3546
sg68
(lp3553
S'Content-Type'
p3554
asbag61
(g82
g63
NtRp3555
(dp3556
g66
(dp3557
g93
g94
ssg75
g3546
sg68
(lp3558
S':'
asbag61
(g82
g63
NtRp3559
(dp3560
g66
(dp3561
sg75
g3546
sg68
(lp3562
g61
(g62
g63
NtRp3563
(dp3564
g66
(dp3565
g74
I4
ssg75
g3559
sg68
(lp3566
S'text/html; charset=utf-8'
p3567
asbasbasbag61
(g77
g63
NtRp3568
(dp3569
g66
(dp3570
sg75
g3520
sg68
(lp3571
g61
(g82
g63
NtRp3572
(dp3573
g66
(dp3574
g86
g87
ssg75
g3568
sg68
(lp3575
S'Expires'
p3576
asbag61
(g82
g63
NtRp3577
(dp3578
g66
(dp3579
g93
g94
ssg75
g3568
sg68
(lp3580
S':'
asbag61
(g82
g63
NtRp3581
(dp3582
g66
(dp3583
sg75
g3568
sg68
(lp3584
g61
(g62
g63
NtRp3585
(dp3586
g66
(dp3587
g74
I4
ssg75
g3581
sg68
(lp3588
S'Tue, 06 Nov 2012 14:30:13 GMT'
p3589
asbasbasbag61
(g77
g63
NtRp3590
(dp3591
g66
(dp3592
sg75
g3520
sg68
(lp3593
g61
(g82
g63
NtRp3594
(dp3595
g66
(dp3596
g86
g87
ssg75
g3590
sg68
(lp3597
S'Pragma'
p3598
asbag61
(g82
g63
NtRp3599
(dp3600
g66
(dp3601
g93
g94
ssg75
g3590
sg68
(lp3602
S':'
asbag61
(g82
g63
NtRp3603
(dp3604
g66
(dp3605
sg75
g3590
sg68
(lp3606
g61
(g62
g63
NtRp3607
(dp3608
g66
(dp3609
g74
I4
ssg75
g3603
sg68
(lp3610
S'no-cache'
p3611
asbasbasbag61
(g77
g63
NtRp3612
(dp3613
g66
(dp3614
sg75
g3520
sg68
(lp3615
g61
(g82
g63
NtRp3616
(dp3617
g66
(dp3618
g86
g87
ssg75
g3612
sg68
(lp3619
S'X-Powered-By'
p3620
asbag61
(g82
g63
NtRp3621
(dp3622
g66
(dp3623
g93
g94
ssg75
g3612
sg68
(lp3624
S':'
asbag61
(g82
g63
NtRp3625
(dp3626
g66
(dp3627
sg75
g3612
sg68
(lp3628
g61
(g62
g63
NtRp3629
(dp3630
g66
(dp3631
g74
I4
ssg75
g3625
sg68
(lp3632
S'web2py'
p3633
asbasbasbasbasbasbasbag61
(g77
g63
NtRp3634
(dp3635
g66
(dp3636
sg75
g3131
sg68
(lp3637
g61
(g82
g63
NtRp3638
(dp3639
g66
(dp3640
g86
g87
ssg75
g3634
sg68
(lp3641
S'menu'
p3642
asbag61
(g82
g63
NtRp3643
(dp3644
g66
(dp3645
g93
g94
ssg75
g3634
sg68
(lp3646
S':'
asbag61
(g82
g63
NtRp3647
(dp3648
g66
(dp3649
sg75
g3634
sg68
(lp3650
g61
(g62
g63
NtRp3651
(dp3652
g66
(dp3653
g74
I5
ssg75
g3647
sg68
(lp3654
g61
(g70
g63
NtRp3655
(dp3656
g66
(dp3657
g74
I4
ssg75
Nsg68
(lp3658
sbasbasbasbag61
(g77
g63
NtRp3659
(dp3660
g66
(dp3661
sg75
g3131
sg68
(lp3662
g61
(g82
g63
NtRp3663
(dp3664
g66
(dp3665
g86
g87
ssg75
g3659
sg68
(lp3666
S'meta'
p3667
asbag61
(g82
g63
NtRp3668
(dp3669
g66
(dp3670
g93
g94
ssg75
g3659
sg68
(lp3671
S':'
asbag61
(g82
g63
NtRp3672
(dp3673
g66
(dp3674
sg75
g3659
sg68
(lp3675
g61
(g62
g63
NtRp3676
(dp3677
g66
(dp3678
g74
I5
ssg75
g3672
sg68
(lp3679
g61
(g70
g63
NtRp3680
(dp3681
g66
(dp3682
g74
I4
ssg75
Nsg68
(lp3683
sbasbasbasbag61
(g77
g63
NtRp3684
(dp3685
g66
(dp3686
sg75
g3131
sg68
(lp3687
g61
(g82
g63
NtRp3688
(dp3689
g66
(dp3690
g86
g87
ssg75
g3684
sg68
(lp3691
S'postprocessing'
p3692
asbag61
(g82
g63
NtRp3693
(dp3694
g66
(dp3695
g93
g94
ssg75
g3684
sg68
(lp3696
S':'
asbag61
(g82
g63
NtRp3697
(dp3698
g66
(dp3699
sg75
g3684
sg68
(lp3700
g61
(g62
g63
NtRp3701
(dp3702
g66
(dp3703
g74
I5
ssg75
g3697
sg68
(lp3704
g61
(g70
g63
NtRp3705
(dp3706
g66
(dp3707
g74
I4
ssg75
Nsg68
(lp3708
sbasbasbasbag61
(g77
g63
NtRp3709
(dp3710
g66
(dp3711
sg75
g3131
sg68
(lp3712
g61
(g82
g63
NtRp3713
(dp3714
g66
(dp3715
g86
g87
ssg75
g3709
sg68
(lp3716
S'session_file'
p3717
asbag61
(g82
g63
NtRp3718
(dp3719
g66
(dp3720
g93
g94
ssg75
g3709
sg68
(lp3721
S':'
asbag61
(g82
g63
NtRp3722
(dp3723
g66
(dp3724
sg75
g3709
sg68
(lp3725
g61
(g62
g63
NtRp3726
(dp3727
g66
(dp3728
g74
I5
ssg75
g3722
sg68
(lp3729
S"<open file '/Users/Truki/web2py/applications/rosan/sessions/127.0.0.1-f5b99895-863e-49d9-a69a-97daa70ccd03', mode 'rb+' at 0x1800ecd8>"
p3730
asbasbasbag61
(g77
g63
NtRp3731
(dp3732
g66
(dp3733
sg75
g3131
sg68
(lp3734
g61
(g82
g63
NtRp3735
(dp3736
g66
(dp3737
g86
g87
ssg75
g3731
sg68
(lp3738
S'session_filename'
p3739
asbag61
(g82
g63
NtRp3740
(dp3741
g66
(dp3742
g93
g94
ssg75
g3731
sg68
(lp3743
S':'
asbag61
(g82
g63
NtRp3744
(dp3745
g66
(dp3746
sg75
g3731
sg68
(lp3747
g61
(g62
g63
NtRp3748
(dp3749
g66
(dp3750
g74
I5
ssg75
g3744
sg68
(lp3751
S'/Users/Truki/web2py/applications/rosan/sessions/127.0.0.1-f5b99895-863e-49d9-a69a-97daa70ccd03'
p3752
asbasbasbag61
(g77
g63
NtRp3753
(dp3754
g66
(dp3755
sg75
g3131
sg68
(lp3756
g61
(g82
g63
NtRp3757
(dp3758
g66
(dp3759
g86
g87
ssg75
g3753
sg68
(lp3760
S'session_id'
p3761
asbag61
(g82
g63
NtRp3762
(dp3763
g66
(dp3764
g93
g94
ssg75
g3753
sg68
(lp3765
S':'
asbag61
(g82
g63
NtRp3766
(dp3767
g66
(dp3768
sg75
g3753
sg68
(lp3769
g61
(g62
g63
NtRp3770
(dp3771
g66
(dp3772
g74
I5
ssg75
g3766
sg68
(lp3773
S'127.0.0.1-f5b99895-863e-49d9-a69a-97daa70ccd03'
p3774
asbasbasbag61
(g77
g63
NtRp3775
(dp3776
g66
(dp3777
sg75
g3131
sg68
(lp3778
g61
(g82
g63
NtRp3779
(dp3780
g66
(dp3781
g86
g87
ssg75
g3775
sg68
(lp3782
S'session_id_name'
p3783
asbag61
(g82
g63
NtRp3784
(dp3785
g66
(dp3786
g93
g94
ssg75
g3775
sg68
(lp3787
S':'
asbag61
(g82
g63
NtRp3788
(dp3789
g66
(dp3790
sg75
g3775
sg68
(lp3791
g61
(g62
g63
NtRp3792
(dp3793
g66
(dp3794
g74
I5
ssg75
g3788
sg68
(lp3795
g3188
asbasbasbag61
(g77
g63
NtRp3796
(dp3797
g66
(dp3798
sg75
g3131
sg68
(lp3799
g61
(g82
g63
NtRp3800
(dp3801
g66
(dp3802
g86
g87
ssg75
g3796
sg68
(lp3803
S'session_locked'
p3804
asbag61
(g82
g63
NtRp3805
(dp3806
g66
(dp3807
g93
g94
ssg75
g3796
sg68
(lp3808
S':'
asbag61
(g82
g63
NtRp3809
(dp3810
g66
(dp3811
sg75
g3796
sg68
(lp3812
g61
(g62
g63
NtRp3813
(dp3814
g66
(dp3815
g74
I5
ssg75
g3809
sg68
(lp3816
g1660
asbasbasbag61
(g77
g63
NtRp3817
(dp3818
g66
(dp3819
sg75
g3131
sg68
(lp3820
g61
(g82
g63
NtRp3821
(dp3822
g66
(dp3823
g86
g87
ssg75
g3817
sg68
(lp3824
S'session_new'
p3825
asbag61
(g82
g63
NtRp3826
(dp3827
g66
(dp3828
g93
g94
ssg75
g3817
sg68
(lp3829
S':'
asbag61
(g82
g63
NtRp3830
(dp3831
g66
(dp3832
sg75
g3817
sg68
(lp3833
g61
(g62
g63
NtRp3834
(dp3835
g66
(dp3836
g74
I5
ssg75
g3830
sg68
(lp3837
g104
asbasbasbag61
(g77
g63
NtRp3838
(dp3839
g66
(dp3840
sg75
g3131
sg68
(lp3841
g61
(g82
g63
NtRp3842
(dp3843
g66
(dp3844
g86
g87
ssg75
g3838
sg68
(lp3845
S'status'
p3846
asbag61
(g82
g63
NtRp3847
(dp3848
g66
(dp3849
g93
g94
ssg75
g3838
sg68
(lp3850
S':'
asbag61
(g82
g63
NtRp3851
(dp3852
g66
(dp3853
sg75
g3838
sg68
(lp3854
g61
(g62
g63
NtRp3855
(dp3856
g66
(dp3857
g74
I5
ssg75
g3851
sg68
(lp3858
S'200'
p3859
asbasbasbag61
(g77
g63
NtRp3860
(dp3861
g66
(dp3862
sg75
g3131
sg68
(lp3863
g61
(g82
g63
NtRp3864
(dp3865
g66
(dp3866
g86
g87
ssg75
g3860
sg68
(lp3867
g2324
asbag61
(g82
g63
NtRp3868
(dp3869
g66
(dp3870
g93
g94
ssg75
g3860
sg68
(lp3871
S':'
asbag61
(g82
g63
NtRp3872
(dp3873
g66
(dp3874
sg75
g3860
sg68
(lp3875
g61
(g62
g63
NtRp3876
(dp3877
g66
(dp3878
g74
I5
ssg75
g3872
sg68
(lp3879
g2337
asbasbasbag61
(g77
g63
NtRp3880
(dp3881
g66
(dp3882
sg75
g3131
sg68
(lp3883
g61
(g82
g63
NtRp3884
(dp3885
g66
(dp3886
g86
g87
ssg75
g3880
sg68
(lp3887
S'view'
p3888
asbag61
(g82
g63
NtRp3889
(dp3890
g66
(dp3891
g93
g94
ssg75
g3880
sg68
(lp3892
S':'
asbag61
(g82
g63
NtRp3893
(dp3894
g66
(dp3895
sg75
g3880
sg68
(lp3896
g61
(g62
g63
NtRp3897
(dp3898
g66
(dp3899
g74
I5
ssg75
g3893
sg68
(lp3900
S'appadmin/index.html'
p3901
asbasbasbasbasbsS'locals'
p3902
(dp3903
S'a'
S"('ALTER TABLE cliente ADD www CHAR(200) NOT NULL;',)"
p3904
sS'self'
p3905
S'<gluon.dal.SQLiteAdapter object>'
p3906
sS'b'
g21
sS't0'
p3907
S'1352212213.264065'
p3908
sssS'traceback'
p3909
S'Traceback (most recent call last):\n  File "/Users/Truki/web2py/gluon/restricted.py", line 205, in restricted\n    exec ccode in environment\n  File "/Users/Truki/web2py/applications/rosan/models/db_rosan.py", line 23, in <module>\n    SQLField("www","string", length=200, notnull=True, default=None)\n  File "/Users/Truki/web2py/gluon/dal.py", line 6320, in define_table\n    polymodel=polymodel)\n  File "/Users/Truki/web2py/gluon/dal.py", line 742, in create_table\n    fake_migrate=fake_migrate)\n  File "/Users/Truki/web2py/gluon/dal.py", line 830, in migrate_table\n    self.execute(sub_query)\n  File "/Users/Truki/web2py/gluon/dal.py", line 1392, in execute\n    return self.log_execute(*a, **b)\n  File "/Users/Truki/web2py/gluon/dal.py", line 1386, in log_execute\n    ret = self.cursor.execute(*a, **b)\nOperationalError: Cannot add a NOT NULL column with default value NULL\n'
p3910
s.